(dp1
S'output'
p2
S"<type 'exceptions.IndentationError'> unindent does not match any outer indentation level (controllers/class_subject.py, line 86)"
p3
sS'layer'
p4
S'D:\\workspace\\ca\\IgoR\\C_Sources\\Server\\igor-assistant-ca-2012\\applications\\igor\\controllers/class_subject.py'
p5
sS'code'
p6
S'# -*- coding: utf-8 -*-\n# this file is released under public domain and you can use without limitations\n\n#########################################################################\n## This is class_subject controller\n## Author: phucnh, tuna\n#########################################################################\n\nfrom message_packager import *\nfrom gluon.dal import Rows\nfrom gluon.tools import Service\nservice = Service()\n\n# Get all classes by specific subject\n@request.restful()\ndef get_classes_by_subject():\n\tresponse.view = \'generic.json\'\n\tdef GET(subject_id, term = 0):\n\n\t\t# Validate input \n\t\tif (not subject_id.isdigit()):\n\t\t\treturn MessagePackager.get_packaged_message (\n\t\t\t\tMessageStatus.ERROR, \n\t\t\t\t"subject id must be numberic")\n\n\t\tif (not (str (term)).isdigit()):\n\t\t\treturn MessagePackager.get_packaged_message(\n\t\t\t\tMessageStatus.ERROR,\n\t\t\t\t"term must be numberic")\n\n\t\tif (int (subject_id) < 0):\n\t\t\treturn MessagePackager.get_packaged_message (\n\t\t\t\tMessageStatus.ERROR, \n\t\t\t\t"subject id can not less than 1")\n\n\t\t# Get data\n\t\tif (term == 0):\n\t\t\tterm = get_current_term()\n\n\t\tclasses = db(\n\t\t\tdb.class_subject.subject == subject_id and \n\t\t\tdb.class_subject.term == term).select()\n\n\t\treturn MessagePackager.get_packaged_message(MessageStatus.OK, classes)\n\n\treturn locals()\n\n\n# Get class detail\n# @request.restful()\n# def get_class_detail():\n# \tresponse.view = \'generic.json\'\n# \tdef GET(id):\n\n# \t\t# Validate input \n# \t\tif (not id.isdigit()):\n# \t\t\treturn MessagePackager.get_packaged_message (\n# \t\t\t\tMessageStatus.ERROR, \n# \t\t\t\t"class id must be numberic")\n\n# \t\tif (int (id) < 0):\n# \t\t\treturn MessagePackager.get_packaged_message (\n# \t\t\t\tMessageStatus.ERROR, \n# \t\t\t\t"class id can not less than 1")\n\n# \t\t# Get data\n\n# \t\tclass_subject = db(db.class_subject.id == id).select()\n\n# \t\tclass_subject = format_client_data(class_subject)\n\n# \t\treturn MessagePackager.get_packaged_message(MessageStatus.OK, class_subject)\n\n# \treturn locals()\n\ndef call():\n\tsession.forget()\n\treturn service()\n\nimport gluon.contenttype\n\n@service.json\ndef get_class_detail(id):\n\tresponse.view = \'generic.jsonp\'\n\n    response.headers[\'Content-Type\']=gluon.contenttype.contenttype(\'.js\')\n\n\t# Validate input \n\tif (not id.isdigit()):\n\t\treturn MessagePackager.get_packaged_message (\n\t\t\tMessageStatus.ERROR, \n\t\t\t"class id must be numberic")\n\n\tif (int (id) < 0):\n\t\treturn MessagePackager.get_packaged_message (\n\t\t\tMessageStatus.ERROR, \n\t\t\t"class id can not less than 1")\n\n\t# Get data\n\n\tclass_subject = db(db.class_subject.id == id).select()\n\n\tclass_subject = format_client_data(class_subject)\n\n\treturn MessagePackager.get_packaged_message(MessageStatus.OK, class_subject)\n\n# Get all classes of user\n# Input:\n# \tinteger user_id\n# \tinteger term\n@request.restful()\ndef get_classes_by_user():\n\tresponse.view = \'generic.json\'\n\tdef GET(user_id, term = 0):\n\n\t\t# Get data\n\t\tif (term == 0):\n\t\t\tterm = get_current_term()\n\n\t\tuser_schedulers = db(db.scheduler.owner == user_id).select()\n\t\t\n\t\tclasses = list()\n\n\t\tfor user_scheduler in user_schedulers:\n\n\t\t\tclass_subject = db(\n\t\t\t\t(db.class_subject.id == user_scheduler.class_subject) &\n\t\t\t\t(db.class_subject.term == term)).select().first()\n\n\n\t\t\tif (class_subject != None):\n\t\t\t\tclasses.append(class_subject)\n\n\t\tclasses = format_client_data(classes)\n\n\t\treturn MessagePackager.get_packaged_message(MessageStatus.OK, classes)\n\n\treturn locals()\n\n@request.restful()\ndef add_class_to_user():\n\tresponse.view = \'generic.json\'\n\tdef GET(class_id, user_id):\n\n\t\t# Validate input\n\t\tif (not class_id.isdigit()):\n\t\t\treturn MessagePackager.get_packaged_message (\n\t\t\t\tMessageStatus.ERROR, \n\t\t\t\t"class id must be numberic")\n\n\t\tif (not user_id.isdigit()):\n\t\t\treturn MessagePackager.get_packaged_message (\n\t\t\t\tMessageStatus.ERROR, \n\t\t\t\t"user id must be numberic")\n\n\t\t# Insert new data\n\t\t# TODO: add class\'s rule\n\n\t\ttry:\n\t\t\tscheduler_id = db.scheduler.insert(\n\t\t\t\towner         = user_id,\n\t\t\t\tclass_subject = class_id,\n\t\t\t\tterm          = get_current_term())\n\t\texcept Exception, err:\n\t\t\treturn MessagePackager.get_packaged_message(MessageStatus.ERROR, str (err) )\n\n\t\treturn MessagePackager.get_packaged_message(MessageStatus.OK, scheduler_id)\n\n\treturn locals()\n\n@request.restful()\ndef delete_class():\n\tresponse.view = \'generic.json\'\n\tdef GET(user_id, class_id):\n\n\t\ttry:\n\t\t\tscheduler = delete_scheduler(user_id, class_id);\n\t\texcept Exception, err:\n\t\t\treturn MessagePackager.get_packaged_message(MessageStatus.ERROR, str (err) )\n\n\t\treturn MessagePackager.get_packaged_message(MessageStatus.OK, scheduler)\n\n\treturn locals()\n\n# Format class data to client data\ndef format_client_data(classes):\n\tif (classes == None):\n\t\treturn\n\n\tclient_data = list()\n\n\tfor class_subject in classes:\n\n\t\tsubject = db(db.subject.id == class_subject.subject).select().first()\n\t\tclass_schedulers = db(db.class_scheduler.class_subject == class_subject.id).select()\n\t\t\n\t\tif (subject == None):\n\t\t\tcontinue\n\t\t# print class_schedulers\n\t\tfor class_scheduler in class_schedulers:\n\t\t\t\n\t\t\t# Get session list (integer)\n\t\t\tsessions = get_class_sessions(class_scheduler.period)\n\n\t\t\t# Morning session\n\t\t\tmorning = [session for session in sessions if session <=6]\n\t\t\tafternoon = [session for session in sessions if session >= 7]\n\n\n\t\t\tif (morning):\n\t\t\t\tclient = class_data_format(\n\t\t\t\t\tclass_subject, class_scheduler,\n\t\t\t\t\tsubject, morning, "Morning")\n\t\t\t\t\n\t\t\t\tclient_data.append(client)\n\n\t\t\tif (afternoon):\n\t\t\t\tclient = class_data_format(\n\t\t\t\t\tclass_subject, class_scheduler,\n\t\t\t\t\tsubject, afternoon, "Afternoon")\n\n\t\t\t\tclient_data.append (client)\n\n\treturn client_data\n\ndef class_data_format(class_subject, class_scheduler ,subject, session, period):\n\tclient = dict(\n\t\tclass_id     = class_subject.id,\n\t\tclass_code   = class_subject.class_code,\n\t\tsubject_name = subject.name,\n\t\tsubject_code = subject.subject_code,\n\t\tnum_of_day   = class_scheduler.day_of_week,\n        #"total_session": "Session 1-2-3",\n        teacher_name = class_subject.teacher,\n        location     = class_subject.location,\n        period = period,\n\t\tsession_start = str(session[0]),\n\t\t)\n\n\treturn client\nresponse._vars=response._caller(call)\n'
p7
sS'snapshot'
p8
(dp9
S'exception'
p10
(dp11
S'__getslice__'
p12
S"<method-wrapper '__getslice__' of exceptions.IndentationError object>"
p13
sS'text'
p14
S'"    response.headers[\'Content-Type\']=gluon.contenttype.contenttype(\'.js\')\\n"'
p15
sS'__str__'
p16
S"<method-wrapper '__str__' of exceptions.IndentationError object>"
p17
sS'__reduce__'
p18
S'<built-in method __reduce__ of exceptions.IndentationError object>'
p19
sS'__dict__'
p20
S'{}'
p21
sS'__sizeof__'
p22
S'<built-in method __sizeof__ of exceptions.IndentationError object>'
p23
sS'__init__'
p24
S"<method-wrapper '__init__' of exceptions.IndentationError object>"
p25
sS'__setattr__'
p26
S"<method-wrapper '__setattr__' of exceptions.IndentationError object>"
p27
sS'__reduce_ex__'
p28
S'<built-in method __reduce_ex__ of exceptions.IndentationError object>'
p29
sS'__new__'
p30
S'<built-in method __new__ of type object>'
p31
sS'__format__'
p32
S'<built-in method __format__ of exceptions.IndentationError object>'
p33
sS'__class__'
p34
S"<type 'exceptions.IndentationError'>"
p35
sS'filename'
p36
S"r'D:\\workspace\\ca\\IgoR\\C_Sources\\Server\\igor-assis...12\\applications\\igor\\controllers/class_subject.py'"
p37
sS'lineno'
p38
S'86'
p39
sS'msg'
p40
S"'unindent does not match any outer indentation level'"
p41
sS'__doc__'
p42
S"'Improper indentation.'"
p43
sS'__getitem__'
p44
S"<method-wrapper '__getitem__' of exceptions.IndentationError object>"
p45
sS'__setstate__'
p46
S'<built-in method __setstate__ of exceptions.IndentationError object>'
p47
sS'__getattribute__'
p48
S"<method-wrapper '__getattribute__' of exceptions.IndentationError object>"
p49
sS'print_file_and_line'
p50
S'None'
p51
sS'args'
p52
S'(\'unindent does not match any outer indentation level\', (r\'D:\\workspace\\ca\\IgoR\\C_Sources\\Server\\igor-assis...12\\applications\\igor\\controllers/class_subject.py\', 86, 74, "    response.headers[\'Content-Type\']=gluon.contenttype.contenttype(\'.js\')\\n"))'
p53
sS'__subclasshook__'
p54
S'<built-in method __subclasshook__ of type object>'
p55
sS'offset'
p56
S'74'
p57
sS'__unicode__'
p58
S'<built-in method __unicode__ of exceptions.IndentationError object>'
p59
sS'__delattr__'
p60
S"<method-wrapper '__delattr__' of exceptions.IndentationError object>"
p61
sS'__repr__'
p62
S"<method-wrapper '__repr__' of exceptions.IndentationError object>"
p63
sS'__hash__'
p64
S"<method-wrapper '__hash__' of exceptions.IndentationError object>"
p65
ssS'evalue'
p66
S'unindent does not match any outer indentation level (controllers/class_subject.py, line 86)'
p67
sS'request'
p68
ccopy_reg
_reconstructor
p69
(cgluon.html
BEAUTIFY
p70
c__builtin__
object
p71
NtRp72
(dp73
S'attributes'
p74
(dp75
sS'components'
p76
(lp77
g69
(cgluon.html
TABLE
p78
g71
NtRp79
(dp80
g74
(dp81
S'level'
p82
I5
ssS'parent'
p83
Nsg76
(lp84
g69
(cgluon.html
TR
p85
g71
NtRp86
(dp87
g74
(dp88
sg83
g79
sg76
(lp89
g69
(cgluon.html
TD
p90
g71
NtRp91
(dp92
g74
(dp93
S'_style'
p94
S'font-weight:bold;vertical-align:top'
p95
ssg83
g86
sg76
(lp96
S'ajax'
p97
asbag69
(g90
g71
NtRp98
(dp99
g74
(dp100
S'_valign'
p101
S'top'
p102
ssg83
g86
sg76
(lp103
S':'
asbag69
(g90
g71
NtRp104
(dp105
g74
(dp106
sg83
g86
sg76
(lp107
g69
(g70
g71
NtRp108
(dp109
g74
(dp110
g82
I5
ssg83
g104
sg76
(lp111
S'False'
p112
asbasbasbag69
(g85
g71
NtRp113
(dp114
g74
(dp115
sg83
g79
sg76
(lp116
g69
(g90
g71
NtRp117
(dp118
g74
(dp119
g94
g95
ssg83
g113
sg76
(lp120
S'application'
p121
asbag69
(g90
g71
NtRp122
(dp123
g74
(dp124
g101
g102
ssg83
g113
sg76
(lp125
S':'
asbag69
(g90
g71
NtRp126
(dp127
g74
(dp128
sg83
g113
sg76
(lp129
g69
(g70
g71
NtRp130
(dp131
g74
(dp132
g82
I5
ssg83
g126
sg76
(lp133
S'igor'
p134
asbasbasbag69
(g85
g71
NtRp135
(dp136
g74
(dp137
sg83
g79
sg76
(lp138
g69
(g90
g71
NtRp139
(dp140
g74
(dp141
g94
g95
ssg83
g135
sg76
(lp142
g52
asbag69
(g90
g71
NtRp143
(dp144
g74
(dp145
g101
g102
ssg83
g135
sg76
(lp146
S':'
asbag69
(g90
g71
NtRp147
(dp148
g74
(dp149
sg83
g135
sg76
(lp150
g69
(g70
g71
NtRp151
(dp152
g74
(dp153
g82
I5
ssg83
g147
sg76
(lp154
g69
(g78
g71
NtRp155
(dp156
g74
(dp157
g82
I4
ssg83
Nsg76
(lp158
g69
(g85
g71
NtRp159
(dp160
g74
(dp161
sg83
g155
sg76
(lp162
g69
(g90
g71
NtRp163
(dp164
g74
(dp165
sg83
g159
sg76
(lp166
g69
(g70
g71
NtRp167
(dp168
g74
(dp169
g82
I4
ssg83
g163
sg76
(lp170
S'json'
p171
asbasbasbag69
(g85
g71
NtRp172
(dp173
g74
(dp174
sg83
g155
sg76
(lp175
g69
(g90
g71
NtRp176
(dp177
g74
(dp178
sg83
g172
sg76
(lp179
g69
(g70
g71
NtRp180
(dp181
g74
(dp182
g82
I4
ssg83
g176
sg76
(lp183
S'get_class_detail'
p184
asbasbasbasbasbasbasbag69
(g85
g71
NtRp185
(dp186
g74
(dp187
sg83
g79
sg76
(lp188
g69
(g90
g71
NtRp189
(dp190
g74
(dp191
g94
g95
ssg83
g185
sg76
(lp192
S'body'
p193
asbag69
(g90
g71
NtRp194
(dp195
g74
(dp196
g101
g102
ssg83
g185
sg76
(lp197
S':'
asbag69
(g90
g71
NtRp198
(dp199
g74
(dp200
sg83
g185
sg76
(lp201
g69
(g70
g71
NtRp202
(dp203
g74
(dp204
g82
I5
ssg83
g198
sg76
(lp205
S'<cStringIO.StringO object at 0x0000000008B96688>'
p206
asbasbasbag69
(g85
g71
NtRp207
(dp208
g74
(dp209
sg83
g79
sg76
(lp210
g69
(g90
g71
NtRp211
(dp212
g74
(dp213
g94
g95
ssg83
g207
sg76
(lp214
S'client'
p215
asbag69
(g90
g71
NtRp216
(dp217
g74
(dp218
g101
g102
ssg83
g207
sg76
(lp219
S':'
asbag69
(g90
g71
NtRp220
(dp221
g74
(dp222
sg83
g207
sg76
(lp223
g69
(g70
g71
NtRp224
(dp225
g74
(dp226
g82
I5
ssg83
g220
sg76
(lp227
S'127.0.0.1'
p228
asbasbasbag69
(g85
g71
NtRp229
(dp230
g74
(dp231
sg83
g79
sg76
(lp232
g69
(g90
g71
NtRp233
(dp234
g74
(dp235
g94
g95
ssg83
g229
sg76
(lp236
S'controller'
p237
asbag69
(g90
g71
NtRp238
(dp239
g74
(dp240
g101
g102
ssg83
g229
sg76
(lp241
S':'
asbag69
(g90
g71
NtRp242
(dp243
g74
(dp244
sg83
g229
sg76
(lp245
g69
(g70
g71
NtRp246
(dp247
g74
(dp248
g82
I5
ssg83
g242
sg76
(lp249
S'class_subject'
p250
asbasbasbag69
(g85
g71
NtRp251
(dp252
g74
(dp253
sg83
g79
sg76
(lp254
g69
(g90
g71
NtRp255
(dp256
g74
(dp257
g94
g95
ssg83
g251
sg76
(lp258
S'cookies'
p259
asbag69
(g90
g71
NtRp260
(dp261
g74
(dp262
g101
g102
ssg83
g251
sg76
(lp263
S':'
asbag69
(g90
g71
NtRp264
(dp265
g74
(dp266
sg83
g251
sg76
(lp267
g69
(g70
g71
NtRp268
(dp269
g74
(dp270
g82
I5
ssg83
g264
sg76
(lp271
g69
(g78
g71
NtRp272
(dp273
g74
(dp274
g82
I4
ssg83
Nsg76
(lp275
g69
(g85
g71
NtRp276
(dp277
g74
(dp278
sg83
g272
sg76
(lp279
g69
(g90
g71
NtRp280
(dp281
g74
(dp282
g94
g95
ssg83
g276
sg76
(lp283
S'session_id_admin'
p284
asbag69
(g90
g71
NtRp285
(dp286
g74
(dp287
g101
g102
ssg83
g276
sg76
(lp288
S':'
asbag69
(g90
g71
NtRp289
(dp290
g74
(dp291
sg83
g276
sg76
(lp292
g69
(g70
g71
NtRp293
(dp294
g74
(dp295
g82
I4
ssg83
g289
sg76
(lp296
g69
(g78
g71
NtRp297
(dp298
g74
(dp299
g82
I3
ssg83
Nsg76
(lp300
g69
(g85
g71
NtRp301
(dp302
g74
(dp303
sg83
g297
sg76
(lp304
g69
(g90
g71
NtRp305
(dp306
g74
(dp307
g94
g95
ssg83
g301
sg76
(lp308
S'comment'
p309
asbag69
(g90
g71
NtRp310
(dp311
g74
(dp312
g101
g102
ssg83
g301
sg76
(lp313
S':'
asbag69
(g90
g71
NtRp314
(dp315
g74
(dp316
sg83
g301
sg76
(lp317
g69
(g70
g71
NtRp318
(dp319
g74
(dp320
g82
I3
ssg83
g314
sg76
(lp321
S''
asbasbasbag69
(g85
g71
NtRp322
(dp323
g74
(dp324
sg83
g297
sg76
(lp325
g69
(g90
g71
NtRp326
(dp327
g74
(dp328
g94
g95
ssg83
g322
sg76
(lp329
S'domain'
p330
asbag69
(g90
g71
NtRp331
(dp332
g74
(dp333
g101
g102
ssg83
g322
sg76
(lp334
S':'
asbag69
(g90
g71
NtRp335
(dp336
g74
(dp337
sg83
g322
sg76
(lp338
g69
(g70
g71
NtRp339
(dp340
g74
(dp341
g82
I3
ssg83
g335
sg76
(lp342
S''
asbasbasbag69
(g85
g71
NtRp343
(dp344
g74
(dp345
sg83
g297
sg76
(lp346
g69
(g90
g71
NtRp347
(dp348
g74
(dp349
g94
g95
ssg83
g343
sg76
(lp350
S'expires'
p351
asbag69
(g90
g71
NtRp352
(dp353
g74
(dp354
g101
g102
ssg83
g343
sg76
(lp355
S':'
asbag69
(g90
g71
NtRp356
(dp357
g74
(dp358
sg83
g343
sg76
(lp359
g69
(g70
g71
NtRp360
(dp361
g74
(dp362
g82
I3
ssg83
g356
sg76
(lp363
S''
asbasbasbag69
(g85
g71
NtRp364
(dp365
g74
(dp366
sg83
g297
sg76
(lp367
g69
(g90
g71
NtRp368
(dp369
g74
(dp370
g94
g95
ssg83
g364
sg76
(lp371
S'httponly'
p372
asbag69
(g90
g71
NtRp373
(dp374
g74
(dp375
g101
g102
ssg83
g364
sg76
(lp376
S':'
asbag69
(g90
g71
NtRp377
(dp378
g74
(dp379
sg83
g364
sg76
(lp380
g69
(g70
g71
NtRp381
(dp382
g74
(dp383
g82
I3
ssg83
g377
sg76
(lp384
S''
asbasbasbag69
(g85
g71
NtRp385
(dp386
g74
(dp387
sg83
g297
sg76
(lp388
g69
(g90
g71
NtRp389
(dp390
g74
(dp391
g94
g95
ssg83
g385
sg76
(lp392
S'max-age'
p393
asbag69
(g90
g71
NtRp394
(dp395
g74
(dp396
g101
g102
ssg83
g385
sg76
(lp397
S':'
asbag69
(g90
g71
NtRp398
(dp399
g74
(dp400
sg83
g385
sg76
(lp401
g69
(g70
g71
NtRp402
(dp403
g74
(dp404
g82
I3
ssg83
g398
sg76
(lp405
S''
asbasbasbag69
(g85
g71
NtRp406
(dp407
g74
(dp408
sg83
g297
sg76
(lp409
g69
(g90
g71
NtRp410
(dp411
g74
(dp412
g94
g95
ssg83
g406
sg76
(lp413
S'path'
p414
asbag69
(g90
g71
NtRp415
(dp416
g74
(dp417
g101
g102
ssg83
g406
sg76
(lp418
S':'
asbag69
(g90
g71
NtRp419
(dp420
g74
(dp421
sg83
g406
sg76
(lp422
g69
(g70
g71
NtRp423
(dp424
g74
(dp425
g82
I3
ssg83
g419
sg76
(lp426
S''
asbasbasbag69
(g85
g71
NtRp427
(dp428
g74
(dp429
sg83
g297
sg76
(lp430
g69
(g90
g71
NtRp431
(dp432
g74
(dp433
g94
g95
ssg83
g427
sg76
(lp434
S'secure'
p435
asbag69
(g90
g71
NtRp436
(dp437
g74
(dp438
g101
g102
ssg83
g427
sg76
(lp439
S':'
asbag69
(g90
g71
NtRp440
(dp441
g74
(dp442
sg83
g427
sg76
(lp443
g69
(g70
g71
NtRp444
(dp445
g74
(dp446
g82
I3
ssg83
g440
sg76
(lp447
S''
asbasbasbag69
(g85
g71
NtRp448
(dp449
g74
(dp450
sg83
g297
sg76
(lp451
g69
(g90
g71
NtRp452
(dp453
g74
(dp454
g94
g95
ssg83
g448
sg76
(lp455
S'version'
p456
asbag69
(g90
g71
NtRp457
(dp458
g74
(dp459
g101
g102
ssg83
g448
sg76
(lp460
S':'
asbag69
(g90
g71
NtRp461
(dp462
g74
(dp463
sg83
g448
sg76
(lp464
g69
(g70
g71
NtRp465
(dp466
g74
(dp467
g82
I3
ssg83
g461
sg76
(lp468
S''
asbasbasbasbasbasbasbag69
(g85
g71
NtRp469
(dp470
g74
(dp471
sg83
g272
sg76
(lp472
g69
(g90
g71
NtRp473
(dp474
g74
(dp475
g94
g95
ssg83
g469
sg76
(lp476
S'session_id_igor'
p477
asbag69
(g90
g71
NtRp478
(dp479
g74
(dp480
g101
g102
ssg83
g469
sg76
(lp481
S':'
asbag69
(g90
g71
NtRp482
(dp483
g74
(dp484
sg83
g469
sg76
(lp485
g69
(g70
g71
NtRp486
(dp487
g74
(dp488
g82
I4
ssg83
g482
sg76
(lp489
g69
(g78
g71
NtRp490
(dp491
g74
(dp492
g82
I3
ssg83
Nsg76
(lp493
g69
(g85
g71
NtRp494
(dp495
g74
(dp496
sg83
g490
sg76
(lp497
g69
(g90
g71
NtRp498
(dp499
g74
(dp500
g94
g95
ssg83
g494
sg76
(lp501
g309
asbag69
(g90
g71
NtRp502
(dp503
g74
(dp504
g101
g102
ssg83
g494
sg76
(lp505
S':'
asbag69
(g90
g71
NtRp506
(dp507
g74
(dp508
sg83
g494
sg76
(lp509
g69
(g70
g71
NtRp510
(dp511
g74
(dp512
g82
I3
ssg83
g506
sg76
(lp513
S''
asbasbasbag69
(g85
g71
NtRp514
(dp515
g74
(dp516
sg83
g490
sg76
(lp517
g69
(g90
g71
NtRp518
(dp519
g74
(dp520
g94
g95
ssg83
g514
sg76
(lp521
g330
asbag69
(g90
g71
NtRp522
(dp523
g74
(dp524
g101
g102
ssg83
g514
sg76
(lp525
S':'
asbag69
(g90
g71
NtRp526
(dp527
g74
(dp528
sg83
g514
sg76
(lp529
g69
(g70
g71
NtRp530
(dp531
g74
(dp532
g82
I3
ssg83
g526
sg76
(lp533
S''
asbasbasbag69
(g85
g71
NtRp534
(dp535
g74
(dp536
sg83
g490
sg76
(lp537
g69
(g90
g71
NtRp538
(dp539
g74
(dp540
g94
g95
ssg83
g534
sg76
(lp541
g351
asbag69
(g90
g71
NtRp542
(dp543
g74
(dp544
g101
g102
ssg83
g534
sg76
(lp545
S':'
asbag69
(g90
g71
NtRp546
(dp547
g74
(dp548
sg83
g534
sg76
(lp549
g69
(g70
g71
NtRp550
(dp551
g74
(dp552
g82
I3
ssg83
g546
sg76
(lp553
S''
asbasbasbag69
(g85
g71
NtRp554
(dp555
g74
(dp556
sg83
g490
sg76
(lp557
g69
(g90
g71
NtRp558
(dp559
g74
(dp560
g94
g95
ssg83
g554
sg76
(lp561
g372
asbag69
(g90
g71
NtRp562
(dp563
g74
(dp564
g101
g102
ssg83
g554
sg76
(lp565
S':'
asbag69
(g90
g71
NtRp566
(dp567
g74
(dp568
sg83
g554
sg76
(lp569
g69
(g70
g71
NtRp570
(dp571
g74
(dp572
g82
I3
ssg83
g566
sg76
(lp573
S''
asbasbasbag69
(g85
g71
NtRp574
(dp575
g74
(dp576
sg83
g490
sg76
(lp577
g69
(g90
g71
NtRp578
(dp579
g74
(dp580
g94
g95
ssg83
g574
sg76
(lp581
g393
asbag69
(g90
g71
NtRp582
(dp583
g74
(dp584
g101
g102
ssg83
g574
sg76
(lp585
S':'
asbag69
(g90
g71
NtRp586
(dp587
g74
(dp588
sg83
g574
sg76
(lp589
g69
(g70
g71
NtRp590
(dp591
g74
(dp592
g82
I3
ssg83
g586
sg76
(lp593
S''
asbasbasbag69
(g85
g71
NtRp594
(dp595
g74
(dp596
sg83
g490
sg76
(lp597
g69
(g90
g71
NtRp598
(dp599
g74
(dp600
g94
g95
ssg83
g594
sg76
(lp601
g414
asbag69
(g90
g71
NtRp602
(dp603
g74
(dp604
g101
g102
ssg83
g594
sg76
(lp605
S':'
asbag69
(g90
g71
NtRp606
(dp607
g74
(dp608
sg83
g594
sg76
(lp609
g69
(g70
g71
NtRp610
(dp611
g74
(dp612
g82
I3
ssg83
g606
sg76
(lp613
S''
asbasbasbag69
(g85
g71
NtRp614
(dp615
g74
(dp616
sg83
g490
sg76
(lp617
g69
(g90
g71
NtRp618
(dp619
g74
(dp620
g94
g95
ssg83
g614
sg76
(lp621
g435
asbag69
(g90
g71
NtRp622
(dp623
g74
(dp624
g101
g102
ssg83
g614
sg76
(lp625
S':'
asbag69
(g90
g71
NtRp626
(dp627
g74
(dp628
sg83
g614
sg76
(lp629
g69
(g70
g71
NtRp630
(dp631
g74
(dp632
g82
I3
ssg83
g626
sg76
(lp633
S''
asbasbasbag69
(g85
g71
NtRp634
(dp635
g74
(dp636
sg83
g490
sg76
(lp637
g69
(g90
g71
NtRp638
(dp639
g74
(dp640
g94
g95
ssg83
g634
sg76
(lp641
g456
asbag69
(g90
g71
NtRp642
(dp643
g74
(dp644
g101
g102
ssg83
g634
sg76
(lp645
S':'
asbag69
(g90
g71
NtRp646
(dp647
g74
(dp648
sg83
g634
sg76
(lp649
g69
(g70
g71
NtRp650
(dp651
g74
(dp652
g82
I3
ssg83
g646
sg76
(lp653
S''
asbasbasbasbasbasbasbag69
(g85
g71
NtRp654
(dp655
g74
(dp656
sg83
g272
sg76
(lp657
g69
(g90
g71
NtRp658
(dp659
g74
(dp660
g94
g95
ssg83
g654
sg76
(lp661
S'session_id_welcome'
p662
asbag69
(g90
g71
NtRp663
(dp664
g74
(dp665
g101
g102
ssg83
g654
sg76
(lp666
S':'
asbag69
(g90
g71
NtRp667
(dp668
g74
(dp669
sg83
g654
sg76
(lp670
g69
(g70
g71
NtRp671
(dp672
g74
(dp673
g82
I4
ssg83
g667
sg76
(lp674
g69
(g78
g71
NtRp675
(dp676
g74
(dp677
g82
I3
ssg83
Nsg76
(lp678
g69
(g85
g71
NtRp679
(dp680
g74
(dp681
sg83
g675
sg76
(lp682
g69
(g90
g71
NtRp683
(dp684
g74
(dp685
g94
g95
ssg83
g679
sg76
(lp686
g309
asbag69
(g90
g71
NtRp687
(dp688
g74
(dp689
g101
g102
ssg83
g679
sg76
(lp690
S':'
asbag69
(g90
g71
NtRp691
(dp692
g74
(dp693
sg83
g679
sg76
(lp694
g69
(g70
g71
NtRp695
(dp696
g74
(dp697
g82
I3
ssg83
g691
sg76
(lp698
S''
asbasbasbag69
(g85
g71
NtRp699
(dp700
g74
(dp701
sg83
g675
sg76
(lp702
g69
(g90
g71
NtRp703
(dp704
g74
(dp705
g94
g95
ssg83
g699
sg76
(lp706
g330
asbag69
(g90
g71
NtRp707
(dp708
g74
(dp709
g101
g102
ssg83
g699
sg76
(lp710
S':'
asbag69
(g90
g71
NtRp711
(dp712
g74
(dp713
sg83
g699
sg76
(lp714
g69
(g70
g71
NtRp715
(dp716
g74
(dp717
g82
I3
ssg83
g711
sg76
(lp718
S''
asbasbasbag69
(g85
g71
NtRp719
(dp720
g74
(dp721
sg83
g675
sg76
(lp722
g69
(g90
g71
NtRp723
(dp724
g74
(dp725
g94
g95
ssg83
g719
sg76
(lp726
g351
asbag69
(g90
g71
NtRp727
(dp728
g74
(dp729
g101
g102
ssg83
g719
sg76
(lp730
S':'
asbag69
(g90
g71
NtRp731
(dp732
g74
(dp733
sg83
g719
sg76
(lp734
g69
(g70
g71
NtRp735
(dp736
g74
(dp737
g82
I3
ssg83
g731
sg76
(lp738
S''
asbasbasbag69
(g85
g71
NtRp739
(dp740
g74
(dp741
sg83
g675
sg76
(lp742
g69
(g90
g71
NtRp743
(dp744
g74
(dp745
g94
g95
ssg83
g739
sg76
(lp746
g372
asbag69
(g90
g71
NtRp747
(dp748
g74
(dp749
g101
g102
ssg83
g739
sg76
(lp750
S':'
asbag69
(g90
g71
NtRp751
(dp752
g74
(dp753
sg83
g739
sg76
(lp754
g69
(g70
g71
NtRp755
(dp756
g74
(dp757
g82
I3
ssg83
g751
sg76
(lp758
S''
asbasbasbag69
(g85
g71
NtRp759
(dp760
g74
(dp761
sg83
g675
sg76
(lp762
g69
(g90
g71
NtRp763
(dp764
g74
(dp765
g94
g95
ssg83
g759
sg76
(lp766
g393
asbag69
(g90
g71
NtRp767
(dp768
g74
(dp769
g101
g102
ssg83
g759
sg76
(lp770
S':'
asbag69
(g90
g71
NtRp771
(dp772
g74
(dp773
sg83
g759
sg76
(lp774
g69
(g70
g71
NtRp775
(dp776
g74
(dp777
g82
I3
ssg83
g771
sg76
(lp778
S''
asbasbasbag69
(g85
g71
NtRp779
(dp780
g74
(dp781
sg83
g675
sg76
(lp782
g69
(g90
g71
NtRp783
(dp784
g74
(dp785
g94
g95
ssg83
g779
sg76
(lp786
g414
asbag69
(g90
g71
NtRp787
(dp788
g74
(dp789
g101
g102
ssg83
g779
sg76
(lp790
S':'
asbag69
(g90
g71
NtRp791
(dp792
g74
(dp793
sg83
g779
sg76
(lp794
g69
(g70
g71
NtRp795
(dp796
g74
(dp797
g82
I3
ssg83
g791
sg76
(lp798
S''
asbasbasbag69
(g85
g71
NtRp799
(dp800
g74
(dp801
sg83
g675
sg76
(lp802
g69
(g90
g71
NtRp803
(dp804
g74
(dp805
g94
g95
ssg83
g799
sg76
(lp806
g435
asbag69
(g90
g71
NtRp807
(dp808
g74
(dp809
g101
g102
ssg83
g799
sg76
(lp810
S':'
asbag69
(g90
g71
NtRp811
(dp812
g74
(dp813
sg83
g799
sg76
(lp814
g69
(g70
g71
NtRp815
(dp816
g74
(dp817
g82
I3
ssg83
g811
sg76
(lp818
S''
asbasbasbag69
(g85
g71
NtRp819
(dp820
g74
(dp821
sg83
g675
sg76
(lp822
g69
(g90
g71
NtRp823
(dp824
g74
(dp825
g94
g95
ssg83
g819
sg76
(lp826
g456
asbag69
(g90
g71
NtRp827
(dp828
g74
(dp829
g101
g102
ssg83
g819
sg76
(lp830
S':'
asbag69
(g90
g71
NtRp831
(dp832
g74
(dp833
sg83
g819
sg76
(lp834
g69
(g70
g71
NtRp835
(dp836
g74
(dp837
g82
I3
ssg83
g831
sg76
(lp838
S''
asbasbasbasbasbasbasbasbasbasbasbag69
(g85
g71
NtRp839
(dp840
g74
(dp841
sg83
g79
sg76
(lp842
g69
(g90
g71
NtRp843
(dp844
g74
(dp845
g94
g95
ssg83
g839
sg76
(lp846
S'env'
p847
asbag69
(g90
g71
NtRp848
(dp849
g74
(dp850
g101
g102
ssg83
g839
sg76
(lp851
S':'
asbag69
(g90
g71
NtRp852
(dp853
g74
(dp854
sg83
g839
sg76
(lp855
g69
(g70
g71
NtRp856
(dp857
g74
(dp858
g82
I5
ssg83
g852
sg76
(lp859
g69
(g78
g71
NtRp860
(dp861
g74
(dp862
g82
I4
ssg83
Nsg76
(lp863
g69
(g85
g71
NtRp864
(dp865
g74
(dp866
sg83
g860
sg76
(lp867
g69
(g90
g71
NtRp868
(dp869
g74
(dp870
g94
g95
ssg83
g864
sg76
(lp871
S'app_folders'
p872
asbag69
(g90
g71
NtRp873
(dp874
g74
(dp875
g101
g102
ssg83
g864
sg76
(lp876
S':'
asbag69
(g90
g71
NtRp877
(dp878
g74
(dp879
sg83
g864
sg76
(lp880
g69
(g70
g71
NtRp881
(dp882
g74
(dp883
g82
I4
ssg83
g877
sg76
(lp884
S"set(['D:\\\\workspace\\\\ca\\\\IgoR\\\\C_Sources\\\\Server\\\\igor-assistant-ca-2012\\\\applications\\\\admin\\\\', 'D:\\\\workspace\\\\ca\\\\IgoR\\\\C_Sources\\\\Server\\\\igor-assistant-ca-2012\\\\applications\\\\igor\\\\', 'D:\\\\workspace\\\\ca\\\\IgoR\\\\C_Sources\\\\Server\\\\igor-assistant-ca-2012\\\\applications\\\\welcome\\\\'])"
p885
asbasbasbag69
(g85
g71
NtRp886
(dp887
g74
(dp888
sg83
g860
sg76
(lp889
g69
(g90
g71
NtRp890
(dp891
g74
(dp892
g94
g95
ssg83
g886
sg76
(lp893
S'applications_parent'
p894
asbag69
(g90
g71
NtRp895
(dp896
g74
(dp897
g101
g102
ssg83
g886
sg76
(lp898
S':'
asbag69
(g90
g71
NtRp899
(dp900
g74
(dp901
sg83
g886
sg76
(lp902
g69
(g70
g71
NtRp903
(dp904
g74
(dp905
g82
I4
ssg83
g899
sg76
(lp906
S'D:\\workspace\\ca\\IgoR\\C_Sources\\Server\\igor-assistant-ca-2012'
p907
asbasbasbag69
(g85
g71
NtRp908
(dp909
g74
(dp910
sg83
g860
sg76
(lp911
g69
(g90
g71
NtRp912
(dp913
g74
(dp914
g94
g95
ssg83
g908
sg76
(lp915
S'cmd_args'
p916
asbag69
(g90
g71
NtRp917
(dp918
g74
(dp919
g101
g102
ssg83
g908
sg76
(lp920
S':'
asbag69
(g90
g71
NtRp921
(dp922
g74
(dp923
sg83
g908
sg76
(lp924
g69
(g70
g71
NtRp925
(dp926
g74
(dp927
g82
I4
ssg83
g921
sg76
(lp928
g69
(g78
g71
NtRp929
(dp930
g74
(dp931
g82
I3
ssg83
Nsg76
(lp932
g69
(g85
g71
NtRp933
(dp934
g74
(dp935
sg83
g929
sg76
(lp936
g69
(g90
g71
NtRp937
(dp938
g74
(dp939
sg83
g933
sg76
(lp940
g69
(g70
g71
NtRp941
(dp942
g74
(dp943
g82
I3
ssg83
g937
sg76
(lp944
S'startserver'
p945
asbasbasbasbasbasbasbag69
(g85
g71
NtRp946
(dp947
g74
(dp948
sg83
g860
sg76
(lp949
g69
(g90
g71
NtRp950
(dp951
g74
(dp952
g94
g95
ssg83
g946
sg76
(lp953
S'cmd_options'
p954
asbag69
(g90
g71
NtRp955
(dp956
g74
(dp957
g101
g102
ssg83
g946
sg76
(lp958
S':'
asbag69
(g90
g71
NtRp959
(dp960
g74
(dp961
sg83
g946
sg76
(lp962
g69
(g70
g71
NtRp963
(dp964
g74
(dp965
g82
I4
ssg83
g959
sg76
(lp966
S"<Values at 0x3563d88: {'verbose': False, 'ip': '127.0.0.1', 'shutdown_timeout': 5, 'taskbar': False, 'nocron': False, 'pid_filename': 'httpserver.pid', 'maxthreads': None, 'softcron': False, 'server_name': 'PHUCNH-PC', 'bpython': False, 'nogui': False, 'port': 8000, 'extcron': False, 'debuglevel': 30, 'test': None, 'folder': 'D:\\\\workspace\\\\ca\\\\IgoR\\\\C_Sources\\\\Server\\\\igor-assistant-ca-2012', 'config': '', 'import_models': False, 'winservice': '', 'shell': None, 'run': '', 'log_filename': 'httpserver.log', 'args': [''], 'socket_timeout': 5, 'ssl_ca_certificate': None, 'scheduler': None, 'profiler_filename': None, 'ssl_private_key': '', 'password': '<ask>', 'request_queue_size': 5, 'ssl_certificate': '', 'cronjob': False, 'numthreads': None, 'quiet': False, 'interfaces': None, 'minthreads': None, 'timeout': 10, 'plain': False, 'nobanner': False}>"
p967
asbasbasbag69
(g85
g71
NtRp968
(dp969
g74
(dp970
sg83
g860
sg76
(lp971
g69
(g90
g71
NtRp972
(dp973
g74
(dp974
g94
g95
ssg83
g968
sg76
(lp975
S'db_sessions'
p976
asbag69
(g90
g71
NtRp977
(dp978
g74
(dp979
g101
g102
ssg83
g968
sg76
(lp980
S':'
asbag69
(g90
g71
NtRp981
(dp982
g74
(dp983
sg83
g968
sg76
(lp984
g69
(g70
g71
NtRp985
(dp986
g74
(dp987
g82
I4
ssg83
g981
sg76
(lp988
S'set([])'
p989
asbasbasbag69
(g85
g71
NtRp990
(dp991
g74
(dp992
sg83
g860
sg76
(lp993
g69
(g90
g71
NtRp994
(dp995
g74
(dp996
g94
g95
ssg83
g990
sg76
(lp997
S'debugging'
p998
asbag69
(g90
g71
NtRp999
(dp1000
g74
(dp1001
g101
g102
ssg83
g990
sg76
(lp1002
S':'
asbag69
(g90
g71
NtRp1003
(dp1004
g74
(dp1005
sg83
g990
sg76
(lp1006
g69
(g70
g71
NtRp1007
(dp1008
g74
(dp1009
g82
I4
ssg83
g1003
sg76
(lp1010
g112
asbasbasbag69
(g85
g71
NtRp1011
(dp1012
g74
(dp1013
sg83
g860
sg76
(lp1014
g69
(g90
g71
NtRp1015
(dp1016
g74
(dp1017
g94
g95
ssg83
g1011
sg76
(lp1018
S'gluon_parent'
p1019
asbag69
(g90
g71
NtRp1020
(dp1021
g74
(dp1022
g101
g102
ssg83
g1011
sg76
(lp1023
S':'
asbag69
(g90
g71
NtRp1024
(dp1025
g74
(dp1026
sg83
g1011
sg76
(lp1027
g69
(g70
g71
NtRp1028
(dp1029
g74
(dp1030
g82
I4
ssg83
g1024
sg76
(lp1031
S'D:\\workspace\\ca\\IgoR\\C_Sources\\Server\\igor-assistant-ca-2012'
p1032
asbasbasbag69
(g85
g71
NtRp1033
(dp1034
g74
(dp1035
sg83
g860
sg76
(lp1036
g69
(g90
g71
NtRp1037
(dp1038
g74
(dp1039
g94
g95
ssg83
g1033
sg76
(lp1040
S'http_accept'
p1041
asbag69
(g90
g71
NtRp1042
(dp1043
g74
(dp1044
g101
g102
ssg83
g1033
sg76
(lp1045
S':'
asbag69
(g90
g71
NtRp1046
(dp1047
g74
(dp1048
sg83
g1033
sg76
(lp1049
g69
(g70
g71
NtRp1050
(dp1051
g74
(dp1052
g82
I4
ssg83
g1046
sg76
(lp1053
S'text/html,application/xhtml+xml,application/xml;q=0.9,*/*;q=0.8'
p1054
asbasbasbag69
(g85
g71
NtRp1055
(dp1056
g74
(dp1057
sg83
g860
sg76
(lp1058
g69
(g90
g71
NtRp1059
(dp1060
g74
(dp1061
g94
g95
ssg83
g1055
sg76
(lp1062
S'http_accept_charset'
p1063
asbag69
(g90
g71
NtRp1064
(dp1065
g74
(dp1066
g101
g102
ssg83
g1055
sg76
(lp1067
S':'
asbag69
(g90
g71
NtRp1068
(dp1069
g74
(dp1070
sg83
g1055
sg76
(lp1071
g69
(g70
g71
NtRp1072
(dp1073
g74
(dp1074
g82
I4
ssg83
g1068
sg76
(lp1075
S'UTF-8,*;q=0.5'
p1076
asbasbasbag69
(g85
g71
NtRp1077
(dp1078
g74
(dp1079
sg83
g860
sg76
(lp1080
g69
(g90
g71
NtRp1081
(dp1082
g74
(dp1083
g94
g95
ssg83
g1077
sg76
(lp1084
S'http_accept_encoding'
p1085
asbag69
(g90
g71
NtRp1086
(dp1087
g74
(dp1088
g101
g102
ssg83
g1077
sg76
(lp1089
S':'
asbag69
(g90
g71
NtRp1090
(dp1091
g74
(dp1092
sg83
g1077
sg76
(lp1093
g69
(g70
g71
NtRp1094
(dp1095
g74
(dp1096
g82
I4
ssg83
g1090
sg76
(lp1097
S'gzip,deflate,sdch'
p1098
asbasbasbag69
(g85
g71
NtRp1099
(dp1100
g74
(dp1101
sg83
g860
sg76
(lp1102
g69
(g90
g71
NtRp1103
(dp1104
g74
(dp1105
g94
g95
ssg83
g1099
sg76
(lp1106
S'http_accept_language'
p1107
asbag69
(g90
g71
NtRp1108
(dp1109
g74
(dp1110
g101
g102
ssg83
g1099
sg76
(lp1111
S':'
asbag69
(g90
g71
NtRp1112
(dp1113
g74
(dp1114
sg83
g1099
sg76
(lp1115
g69
(g70
g71
NtRp1116
(dp1117
g74
(dp1118
g82
I4
ssg83
g1112
sg76
(lp1119
S'en-US,en;q=0.8,vi;q=0.6,fr-FR;q=0.4,fr;q=0.2'
p1120
asbasbasbag69
(g85
g71
NtRp1121
(dp1122
g74
(dp1123
sg83
g860
sg76
(lp1124
g69
(g90
g71
NtRp1125
(dp1126
g74
(dp1127
g94
g95
ssg83
g1121
sg76
(lp1128
S'http_cache_control'
p1129
asbag69
(g90
g71
NtRp1130
(dp1131
g74
(dp1132
g101
g102
ssg83
g1121
sg76
(lp1133
S':'
asbag69
(g90
g71
NtRp1134
(dp1135
g74
(dp1136
sg83
g1121
sg76
(lp1137
g69
(g70
g71
NtRp1138
(dp1139
g74
(dp1140
g82
I4
ssg83
g1134
sg76
(lp1141
S'max-age=0'
p1142
asbasbasbag69
(g85
g71
NtRp1143
(dp1144
g74
(dp1145
sg83
g860
sg76
(lp1146
g69
(g90
g71
NtRp1147
(dp1148
g74
(dp1149
g94
g95
ssg83
g1143
sg76
(lp1150
S'http_connection'
p1151
asbag69
(g90
g71
NtRp1152
(dp1153
g74
(dp1154
g101
g102
ssg83
g1143
sg76
(lp1155
S':'
asbag69
(g90
g71
NtRp1156
(dp1157
g74
(dp1158
sg83
g1143
sg76
(lp1159
g69
(g70
g71
NtRp1160
(dp1161
g74
(dp1162
g82
I4
ssg83
g1156
sg76
(lp1163
S'keep-alive'
p1164
asbasbasbag69
(g85
g71
NtRp1165
(dp1166
g74
(dp1167
sg83
g860
sg76
(lp1168
g69
(g90
g71
NtRp1169
(dp1170
g74
(dp1171
g94
g95
ssg83
g1165
sg76
(lp1172
S'http_cookie'
p1173
asbag69
(g90
g71
NtRp1174
(dp1175
g74
(dp1176
g101
g102
ssg83
g1165
sg76
(lp1177
S':'
asbag69
(g90
g71
NtRp1178
(dp1179
g74
(dp1180
sg83
g1165
sg76
(lp1181
g69
(g70
g71
NtRp1182
(dp1183
g74
(dp1184
g82
I4
ssg83
g1178
sg76
(lp1185
S'session_id_welcome=127.0.0.1-79d5828c-c17a-4224-96b8-25d49468e5fc; session_id_igor=127.0.0.1-8ed3e98d-1cf8-49f8-b746-81d904934cc2; session_id_admin=127.0.0.1-09abd0ca-c550-4c89-9a05-f31195dc8a18'
p1186
asbasbasbag69
(g85
g71
NtRp1187
(dp1188
g74
(dp1189
sg83
g860
sg76
(lp1190
g69
(g90
g71
NtRp1191
(dp1192
g74
(dp1193
g94
g95
ssg83
g1187
sg76
(lp1194
S'http_host'
p1195
asbag69
(g90
g71
NtRp1196
(dp1197
g74
(dp1198
g101
g102
ssg83
g1187
sg76
(lp1199
S':'
asbag69
(g90
g71
NtRp1200
(dp1201
g74
(dp1202
sg83
g1187
sg76
(lp1203
g69
(g70
g71
NtRp1204
(dp1205
g74
(dp1206
g82
I4
ssg83
g1200
sg76
(lp1207
S'127.0.0.1:8000'
p1208
asbasbasbag69
(g85
g71
NtRp1209
(dp1210
g74
(dp1211
sg83
g860
sg76
(lp1212
g69
(g90
g71
NtRp1213
(dp1214
g74
(dp1215
g94
g95
ssg83
g1209
sg76
(lp1216
S'http_user_agent'
p1217
asbag69
(g90
g71
NtRp1218
(dp1219
g74
(dp1220
g101
g102
ssg83
g1209
sg76
(lp1221
S':'
asbag69
(g90
g71
NtRp1222
(dp1223
g74
(dp1224
sg83
g1209
sg76
(lp1225
g69
(g70
g71
NtRp1226
(dp1227
g74
(dp1228
g82
I4
ssg83
g1222
sg76
(lp1229
S'Mozilla/5.0 (Windows NT 6.1; WOW64) AppleWebKit/536.11 (KHTML, like Gecko) Chrome/20.0.1132.57 Safari/536.11'
p1230
asbasbasbag69
(g85
g71
NtRp1231
(dp1232
g74
(dp1233
sg83
g860
sg76
(lp1234
g69
(g90
g71
NtRp1235
(dp1236
g74
(dp1237
g94
g95
ssg83
g1231
sg76
(lp1238
S'is_jython'
p1239
asbag69
(g90
g71
NtRp1240
(dp1241
g74
(dp1242
g101
g102
ssg83
g1231
sg76
(lp1243
S':'
asbag69
(g90
g71
NtRp1244
(dp1245
g74
(dp1246
sg83
g1231
sg76
(lp1247
g69
(g70
g71
NtRp1248
(dp1249
g74
(dp1250
g82
I4
ssg83
g1244
sg76
(lp1251
g112
asbasbasbag69
(g85
g71
NtRp1252
(dp1253
g74
(dp1254
sg83
g860
sg76
(lp1255
g69
(g90
g71
NtRp1256
(dp1257
g74
(dp1258
g94
g95
ssg83
g1252
sg76
(lp1259
S'is_pypy'
p1260
asbag69
(g90
g71
NtRp1261
(dp1262
g74
(dp1263
g101
g102
ssg83
g1252
sg76
(lp1264
S':'
asbag69
(g90
g71
NtRp1265
(dp1266
g74
(dp1267
sg83
g1252
sg76
(lp1268
g69
(g70
g71
NtRp1269
(dp1270
g74
(dp1271
g82
I4
ssg83
g1265
sg76
(lp1272
g112
asbasbasbag69
(g85
g71
NtRp1273
(dp1274
g74
(dp1275
sg83
g860
sg76
(lp1276
g69
(g90
g71
NtRp1277
(dp1278
g74
(dp1279
g94
g95
ssg83
g1273
sg76
(lp1280
S'path_info'
p1281
asbag69
(g90
g71
NtRp1282
(dp1283
g74
(dp1284
g101
g102
ssg83
g1273
sg76
(lp1285
S':'
asbag69
(g90
g71
NtRp1286
(dp1287
g74
(dp1288
sg83
g1273
sg76
(lp1289
g69
(g70
g71
NtRp1290
(dp1291
g74
(dp1292
g82
I4
ssg83
g1286
sg76
(lp1293
S'/igor/class_subject/call/json/get_class_detail'
p1294
asbasbasbag69
(g85
g71
NtRp1295
(dp1296
g74
(dp1297
sg83
g860
sg76
(lp1298
g69
(g90
g71
NtRp1299
(dp1300
g74
(dp1301
g94
g95
ssg83
g1295
sg76
(lp1302
S'query_string'
p1303
asbag69
(g90
g71
NtRp1304
(dp1305
g74
(dp1306
g101
g102
ssg83
g1295
sg76
(lp1307
S':'
asbag69
(g90
g71
NtRp1308
(dp1309
g74
(dp1310
sg83
g1295
sg76
(lp1311
g69
(g70
g71
NtRp1312
(dp1313
g74
(dp1314
g82
I4
ssg83
g1308
sg76
(lp1315
S'id=8'
p1316
asbasbasbag69
(g85
g71
NtRp1317
(dp1318
g74
(dp1319
sg83
g860
sg76
(lp1320
g69
(g90
g71
NtRp1321
(dp1322
g74
(dp1323
g94
g95
ssg83
g1317
sg76
(lp1324
S'remote_addr'
p1325
asbag69
(g90
g71
NtRp1326
(dp1327
g74
(dp1328
g101
g102
ssg83
g1317
sg76
(lp1329
S':'
asbag69
(g90
g71
NtRp1330
(dp1331
g74
(dp1332
sg83
g1317
sg76
(lp1333
g69
(g70
g71
NtRp1334
(dp1335
g74
(dp1336
g82
I4
ssg83
g1330
sg76
(lp1337
g228
asbasbasbag69
(g85
g71
NtRp1338
(dp1339
g74
(dp1340
sg83
g860
sg76
(lp1341
g69
(g90
g71
NtRp1342
(dp1343
g74
(dp1344
g94
g95
ssg83
g1338
sg76
(lp1345
S'remote_port'
p1346
asbag69
(g90
g71
NtRp1347
(dp1348
g74
(dp1349
g101
g102
ssg83
g1338
sg76
(lp1350
S':'
asbag69
(g90
g71
NtRp1351
(dp1352
g74
(dp1353
sg83
g1338
sg76
(lp1354
g69
(g70
g71
NtRp1355
(dp1356
g74
(dp1357
g82
I4
ssg83
g1351
sg76
(lp1358
S'19672'
p1359
asbasbasbag69
(g85
g71
NtRp1360
(dp1361
g74
(dp1362
sg83
g860
sg76
(lp1363
g69
(g90
g71
NtRp1364
(dp1365
g74
(dp1366
g94
g95
ssg83
g1360
sg76
(lp1367
S'request_method'
p1368
asbag69
(g90
g71
NtRp1369
(dp1370
g74
(dp1371
g101
g102
ssg83
g1360
sg76
(lp1372
S':'
asbag69
(g90
g71
NtRp1373
(dp1374
g74
(dp1375
sg83
g1360
sg76
(lp1376
g69
(g70
g71
NtRp1377
(dp1378
g74
(dp1379
g82
I4
ssg83
g1373
sg76
(lp1380
S'GET'
p1381
asbasbasbag69
(g85
g71
NtRp1382
(dp1383
g74
(dp1384
sg83
g860
sg76
(lp1385
g69
(g90
g71
NtRp1386
(dp1387
g74
(dp1388
g94
g95
ssg83
g1382
sg76
(lp1389
S'script_name'
p1390
asbag69
(g90
g71
NtRp1391
(dp1392
g74
(dp1393
g101
g102
ssg83
g1382
sg76
(lp1394
S':'
asbag69
(g90
g71
NtRp1395
(dp1396
g74
(dp1397
sg83
g1382
sg76
(lp1398
g69
(g70
g71
NtRp1399
(dp1400
g74
(dp1401
g82
I4
ssg83
g1395
sg76
(lp1402
S''
asbasbasbag69
(g85
g71
NtRp1403
(dp1404
g74
(dp1405
sg83
g860
sg76
(lp1406
g69
(g90
g71
NtRp1407
(dp1408
g74
(dp1409
g94
g95
ssg83
g1403
sg76
(lp1410
S'server_name'
p1411
asbag69
(g90
g71
NtRp1412
(dp1413
g74
(dp1414
g101
g102
ssg83
g1403
sg76
(lp1415
S':'
asbag69
(g90
g71
NtRp1416
(dp1417
g74
(dp1418
sg83
g1403
sg76
(lp1419
g69
(g70
g71
NtRp1420
(dp1421
g74
(dp1422
g82
I4
ssg83
g1416
sg76
(lp1423
S'PHUCNH-PC'
p1424
asbasbasbag69
(g85
g71
NtRp1425
(dp1426
g74
(dp1427
sg83
g860
sg76
(lp1428
g69
(g90
g71
NtRp1429
(dp1430
g74
(dp1431
g94
g95
ssg83
g1425
sg76
(lp1432
S'server_port'
p1433
asbag69
(g90
g71
NtRp1434
(dp1435
g74
(dp1436
g101
g102
ssg83
g1425
sg76
(lp1437
S':'
asbag69
(g90
g71
NtRp1438
(dp1439
g74
(dp1440
sg83
g1425
sg76
(lp1441
g69
(g70
g71
NtRp1442
(dp1443
g74
(dp1444
g82
I4
ssg83
g1438
sg76
(lp1445
S'8000'
p1446
asbasbasbag69
(g85
g71
NtRp1447
(dp1448
g74
(dp1449
sg83
g860
sg76
(lp1450
g69
(g90
g71
NtRp1451
(dp1452
g74
(dp1453
g94
g95
ssg83
g1447
sg76
(lp1454
S'server_protocol'
p1455
asbag69
(g90
g71
NtRp1456
(dp1457
g74
(dp1458
g101
g102
ssg83
g1447
sg76
(lp1459
S':'
asbag69
(g90
g71
NtRp1460
(dp1461
g74
(dp1462
sg83
g1447
sg76
(lp1463
g69
(g70
g71
NtRp1464
(dp1465
g74
(dp1466
g82
I4
ssg83
g1460
sg76
(lp1467
S'HTTP/1.1'
p1468
asbasbasbag69
(g85
g71
NtRp1469
(dp1470
g74
(dp1471
sg83
g860
sg76
(lp1472
g69
(g90
g71
NtRp1473
(dp1474
g74
(dp1475
g94
g95
ssg83
g1469
sg76
(lp1476
S'server_software'
p1477
asbag69
(g90
g71
NtRp1478
(dp1479
g74
(dp1480
g101
g102
ssg83
g1469
sg76
(lp1481
S':'
asbag69
(g90
g71
NtRp1482
(dp1483
g74
(dp1484
sg83
g1469
sg76
(lp1485
g69
(g70
g71
NtRp1486
(dp1487
g74
(dp1488
g82
I4
ssg83
g1482
sg76
(lp1489
S'Rocket 1.2.4'
p1490
asbasbasbag69
(g85
g71
NtRp1491
(dp1492
g74
(dp1493
sg83
g860
sg76
(lp1494
g69
(g90
g71
NtRp1495
(dp1496
g74
(dp1497
g94
g95
ssg83
g1491
sg76
(lp1498
S'web2py_crontype'
p1499
asbag69
(g90
g71
NtRp1500
(dp1501
g74
(dp1502
g101
g102
ssg83
g1491
sg76
(lp1503
S':'
asbag69
(g90
g71
NtRp1504
(dp1505
g74
(dp1506
sg83
g1491
sg76
(lp1507
g69
(g70
g71
NtRp1508
(dp1509
g74
(dp1510
g82
I4
ssg83
g1504
sg76
(lp1511
S'hard'
p1512
asbasbasbag69
(g85
g71
NtRp1513
(dp1514
g74
(dp1515
sg83
g860
sg76
(lp1516
g69
(g90
g71
NtRp1517
(dp1518
g74
(dp1519
g94
g95
ssg83
g1513
sg76
(lp1520
S'web2py_path'
p1521
asbag69
(g90
g71
NtRp1522
(dp1523
g74
(dp1524
g101
g102
ssg83
g1513
sg76
(lp1525
S':'
asbag69
(g90
g71
NtRp1526
(dp1527
g74
(dp1528
sg83
g1513
sg76
(lp1529
g69
(g70
g71
NtRp1530
(dp1531
g74
(dp1532
g82
I4
ssg83
g1526
sg76
(lp1533
g907
asbasbasbag69
(g85
g71
NtRp1534
(dp1535
g74
(dp1536
sg83
g860
sg76
(lp1537
g69
(g90
g71
NtRp1538
(dp1539
g74
(dp1540
g94
g95
ssg83
g1534
sg76
(lp1541
S'web2py_version'
p1542
asbag69
(g90
g71
NtRp1543
(dp1544
g74
(dp1545
g101
g102
ssg83
g1534
sg76
(lp1546
S':'
asbag69
(g90
g71
NtRp1547
(dp1548
g74
(dp1549
sg83
g1534
sg76
(lp1550
g69
(g70
g71
NtRp1551
(dp1552
g74
(dp1553
g82
I4
ssg83
g1547
sg76
(lp1554
g69
(g78
g71
NtRp1555
(dp1556
g74
(dp1557
g82
I3
ssg83
Nsg76
(lp1558
g69
(g85
g71
NtRp1559
(dp1560
g74
(dp1561
sg83
g1555
sg76
(lp1562
g69
(g90
g71
NtRp1563
(dp1564
g74
(dp1565
sg83
g1559
sg76
(lp1566
g69
(g70
g71
NtRp1567
(dp1568
g74
(dp1569
g82
I3
ssg83
g1563
sg76
(lp1570
S'1'
asbasbasbag69
(g85
g71
NtRp1571
(dp1572
g74
(dp1573
sg83
g1555
sg76
(lp1574
g69
(g90
g71
NtRp1575
(dp1576
g74
(dp1577
sg83
g1571
sg76
(lp1578
g69
(g70
g71
NtRp1579
(dp1580
g74
(dp1581
g82
I3
ssg83
g1575
sg76
(lp1582
S'99'
p1583
asbasbasbag69
(g85
g71
NtRp1584
(dp1585
g74
(dp1586
sg83
g1555
sg76
(lp1587
g69
(g90
g71
NtRp1588
(dp1589
g74
(dp1590
sg83
g1584
sg76
(lp1591
g69
(g70
g71
NtRp1592
(dp1593
g74
(dp1594
g82
I3
ssg83
g1588
sg76
(lp1595
S'7'
asbasbasbag69
(g85
g71
NtRp1596
(dp1597
g74
(dp1598
sg83
g1555
sg76
(lp1599
g69
(g90
g71
NtRp1600
(dp1601
g74
(dp1602
sg83
g1596
sg76
(lp1603
g69
(g70
g71
NtRp1604
(dp1605
g74
(dp1606
g82
I3
ssg83
g1600
sg76
(lp1607
S'datetime.datetime(2012, 3, 4, 22, 12, 8)'
p1608
asbasbasbag69
(g85
g71
NtRp1609
(dp1610
g74
(dp1611
sg83
g1555
sg76
(lp1612
g69
(g90
g71
NtRp1613
(dp1614
g74
(dp1615
sg83
g1609
sg76
(lp1616
g69
(g70
g71
NtRp1617
(dp1618
g74
(dp1619
g82
I3
ssg83
g1613
sg76
(lp1620
S'stable'
p1621
asbasbasbasbasbasbasbag69
(g85
g71
NtRp1622
(dp1623
g74
(dp1624
sg83
g860
sg76
(lp1625
g69
(g90
g71
NtRp1626
(dp1627
g74
(dp1628
g94
g95
ssg83
g1622
sg76
(lp1629
S'wsgi_errors'
p1630
asbag69
(g90
g71
NtRp1631
(dp1632
g74
(dp1633
g101
g102
ssg83
g1622
sg76
(lp1634
S':'
asbag69
(g90
g71
NtRp1635
(dp1636
g74
(dp1637
sg83
g1622
sg76
(lp1638
g69
(g70
g71
NtRp1639
(dp1640
g74
(dp1641
g82
I4
ssg83
g1635
sg76
(lp1642
S"<open file '<stderr>', mode 'w' at 0x0000000001D4E1E0>"
p1643
asbasbasbag69
(g85
g71
NtRp1644
(dp1645
g74
(dp1646
sg83
g860
sg76
(lp1647
g69
(g90
g71
NtRp1648
(dp1649
g74
(dp1650
g94
g95
ssg83
g1644
sg76
(lp1651
S'wsgi_file_wrapper'
p1652
asbag69
(g90
g71
NtRp1653
(dp1654
g74
(dp1655
g101
g102
ssg83
g1644
sg76
(lp1656
S':'
asbag69
(g90
g71
NtRp1657
(dp1658
g74
(dp1659
sg83
g1644
sg76
(lp1660
g69
(g70
g71
NtRp1661
(dp1662
g74
(dp1663
g82
I4
ssg83
g1657
sg76
(lp1664
S'<class wsgiref.util.FileWrapper at 0x0000000003420AC8>'
p1665
asbasbasbag69
(g85
g71
NtRp1666
(dp1667
g74
(dp1668
sg83
g860
sg76
(lp1669
g69
(g90
g71
NtRp1670
(dp1671
g74
(dp1672
g94
g95
ssg83
g1666
sg76
(lp1673
S'wsgi_input'
p1674
asbag69
(g90
g71
NtRp1675
(dp1676
g74
(dp1677
g101
g102
ssg83
g1666
sg76
(lp1678
S':'
asbag69
(g90
g71
NtRp1679
(dp1680
g74
(dp1681
sg83
g1666
sg76
(lp1682
g69
(g70
g71
NtRp1683
(dp1684
g74
(dp1685
g82
I4
ssg83
g1679
sg76
(lp1686
S'<socket._fileobject object at 0x0000000005985930>'
p1687
asbasbasbag69
(g85
g71
NtRp1688
(dp1689
g74
(dp1690
sg83
g860
sg76
(lp1691
g69
(g90
g71
NtRp1692
(dp1693
g74
(dp1694
g94
g95
ssg83
g1688
sg76
(lp1695
S'wsgi_multiprocess'
p1696
asbag69
(g90
g71
NtRp1697
(dp1698
g74
(dp1699
g101
g102
ssg83
g1688
sg76
(lp1700
S':'
asbag69
(g90
g71
NtRp1701
(dp1702
g74
(dp1703
sg83
g1688
sg76
(lp1704
g69
(g70
g71
NtRp1705
(dp1706
g74
(dp1707
g82
I4
ssg83
g1701
sg76
(lp1708
g112
asbasbasbag69
(g85
g71
NtRp1709
(dp1710
g74
(dp1711
sg83
g860
sg76
(lp1712
g69
(g90
g71
NtRp1713
(dp1714
g74
(dp1715
g94
g95
ssg83
g1709
sg76
(lp1716
S'wsgi_multithread'
p1717
asbag69
(g90
g71
NtRp1718
(dp1719
g74
(dp1720
g101
g102
ssg83
g1709
sg76
(lp1721
S':'
asbag69
(g90
g71
NtRp1722
(dp1723
g74
(dp1724
sg83
g1709
sg76
(lp1725
g69
(g70
g71
NtRp1726
(dp1727
g74
(dp1728
g82
I4
ssg83
g1722
sg76
(lp1729
S'True'
p1730
asbasbasbag69
(g85
g71
NtRp1731
(dp1732
g74
(dp1733
sg83
g860
sg76
(lp1734
g69
(g90
g71
NtRp1735
(dp1736
g74
(dp1737
g94
g95
ssg83
g1731
sg76
(lp1738
S'wsgi_run_once'
p1739
asbag69
(g90
g71
NtRp1740
(dp1741
g74
(dp1742
g101
g102
ssg83
g1731
sg76
(lp1743
S':'
asbag69
(g90
g71
NtRp1744
(dp1745
g74
(dp1746
sg83
g1731
sg76
(lp1747
g69
(g70
g71
NtRp1748
(dp1749
g74
(dp1750
g82
I4
ssg83
g1744
sg76
(lp1751
g112
asbasbasbag69
(g85
g71
NtRp1752
(dp1753
g74
(dp1754
sg83
g860
sg76
(lp1755
g69
(g90
g71
NtRp1756
(dp1757
g74
(dp1758
g94
g95
ssg83
g1752
sg76
(lp1759
S'wsgi_url_scheme'
p1760
asbag69
(g90
g71
NtRp1761
(dp1762
g74
(dp1763
g101
g102
ssg83
g1752
sg76
(lp1764
S':'
asbag69
(g90
g71
NtRp1765
(dp1766
g74
(dp1767
sg83
g1752
sg76
(lp1768
g69
(g70
g71
NtRp1769
(dp1770
g74
(dp1771
g82
I4
ssg83
g1765
sg76
(lp1772
S'http'
p1773
asbasbasbag69
(g85
g71
NtRp1774
(dp1775
g74
(dp1776
sg83
g860
sg76
(lp1777
g69
(g90
g71
NtRp1778
(dp1779
g74
(dp1780
g94
g95
ssg83
g1774
sg76
(lp1781
S'wsgi_version'
p1782
asbag69
(g90
g71
NtRp1783
(dp1784
g74
(dp1785
g101
g102
ssg83
g1774
sg76
(lp1786
S':'
asbag69
(g90
g71
NtRp1787
(dp1788
g74
(dp1789
sg83
g1774
sg76
(lp1790
g69
(g70
g71
NtRp1791
(dp1792
g74
(dp1793
g82
I4
ssg83
g1787
sg76
(lp1794
g69
(g78
g71
NtRp1795
(dp1796
g74
(dp1797
g82
I3
ssg83
Nsg76
(lp1798
g69
(g85
g71
NtRp1799
(dp1800
g74
(dp1801
sg83
g1795
sg76
(lp1802
g69
(g90
g71
NtRp1803
(dp1804
g74
(dp1805
sg83
g1799
sg76
(lp1806
g69
(g70
g71
NtRp1807
(dp1808
g74
(dp1809
g82
I3
ssg83
g1803
sg76
(lp1810
S'1'
asbasbasbag69
(g85
g71
NtRp1811
(dp1812
g74
(dp1813
sg83
g1795
sg76
(lp1814
g69
(g90
g71
NtRp1815
(dp1816
g74
(dp1817
sg83
g1811
sg76
(lp1818
g69
(g70
g71
NtRp1819
(dp1820
g74
(dp1821
g82
I3
ssg83
g1815
sg76
(lp1822
S'0'
asbasbasbasbasbasbasbasbasbasbasbag69
(g85
g71
NtRp1823
(dp1824
g74
(dp1825
sg83
g79
sg76
(lp1826
g69
(g90
g71
NtRp1827
(dp1828
g74
(dp1829
g94
g95
ssg83
g1823
sg76
(lp1830
S'extension'
p1831
asbag69
(g90
g71
NtRp1832
(dp1833
g74
(dp1834
g101
g102
ssg83
g1823
sg76
(lp1835
S':'
asbag69
(g90
g71
NtRp1836
(dp1837
g74
(dp1838
sg83
g1823
sg76
(lp1839
g69
(g70
g71
NtRp1840
(dp1841
g74
(dp1842
g82
I5
ssg83
g1836
sg76
(lp1843
S'html'
p1844
asbasbasbag69
(g85
g71
NtRp1845
(dp1846
g74
(dp1847
sg83
g79
sg76
(lp1848
g69
(g90
g71
NtRp1849
(dp1850
g74
(dp1851
g94
g95
ssg83
g1845
sg76
(lp1852
S'folder'
p1853
asbag69
(g90
g71
NtRp1854
(dp1855
g74
(dp1856
g101
g102
ssg83
g1845
sg76
(lp1857
S':'
asbag69
(g90
g71
NtRp1858
(dp1859
g74
(dp1860
sg83
g1845
sg76
(lp1861
g69
(g70
g71
NtRp1862
(dp1863
g74
(dp1864
g82
I5
ssg83
g1858
sg76
(lp1865
S'D:\\workspace\\ca\\IgoR\\C_Sources\\Server\\igor-assistant-ca-2012\\applications\\igor\\'
p1866
asbasbasbag69
(g85
g71
NtRp1867
(dp1868
g74
(dp1869
sg83
g79
sg76
(lp1870
g69
(g90
g71
NtRp1871
(dp1872
g74
(dp1873
g94
g95
ssg83
g1867
sg76
(lp1874
S'function'
p1875
asbag69
(g90
g71
NtRp1876
(dp1877
g74
(dp1878
g101
g102
ssg83
g1867
sg76
(lp1879
S':'
asbag69
(g90
g71
NtRp1880
(dp1881
g74
(dp1882
sg83
g1867
sg76
(lp1883
g69
(g70
g71
NtRp1884
(dp1885
g74
(dp1886
g82
I5
ssg83
g1880
sg76
(lp1887
S'call'
p1888
asbasbasbag69
(g85
g71
NtRp1889
(dp1890
g74
(dp1891
sg83
g79
sg76
(lp1892
g69
(g90
g71
NtRp1893
(dp1894
g74
(dp1895
g94
g95
ssg83
g1889
sg76
(lp1896
S'get_vars'
p1897
asbag69
(g90
g71
NtRp1898
(dp1899
g74
(dp1900
g101
g102
ssg83
g1889
sg76
(lp1901
S':'
asbag69
(g90
g71
NtRp1902
(dp1903
g74
(dp1904
sg83
g1889
sg76
(lp1905
g69
(g70
g71
NtRp1906
(dp1907
g74
(dp1908
g82
I5
ssg83
g1902
sg76
(lp1909
g69
(g78
g71
NtRp1910
(dp1911
g74
(dp1912
g82
I4
ssg83
Nsg76
(lp1913
g69
(g85
g71
NtRp1914
(dp1915
g74
(dp1916
sg83
g1910
sg76
(lp1917
g69
(g90
g71
NtRp1918
(dp1919
g74
(dp1920
g94
g95
ssg83
g1914
sg76
(lp1921
S'id'
p1922
asbag69
(g90
g71
NtRp1923
(dp1924
g74
(dp1925
g101
g102
ssg83
g1914
sg76
(lp1926
S':'
asbag69
(g90
g71
NtRp1927
(dp1928
g74
(dp1929
sg83
g1914
sg76
(lp1930
g69
(g70
g71
NtRp1931
(dp1932
g74
(dp1933
g82
I4
ssg83
g1927
sg76
(lp1934
S'8'
asbasbasbasbasbasbasbag69
(g85
g71
NtRp1935
(dp1936
g74
(dp1937
sg83
g79
sg76
(lp1938
g69
(g90
g71
NtRp1939
(dp1940
g74
(dp1941
g94
g95
ssg83
g1935
sg76
(lp1942
S'global_settings'
p1943
asbag69
(g90
g71
NtRp1944
(dp1945
g74
(dp1946
g101
g102
ssg83
g1935
sg76
(lp1947
S':'
asbag69
(g90
g71
NtRp1948
(dp1949
g74
(dp1950
sg83
g1935
sg76
(lp1951
g69
(g70
g71
NtRp1952
(dp1953
g74
(dp1954
g82
I5
ssg83
g1948
sg76
(lp1955
g69
(g78
g71
NtRp1956
(dp1957
g74
(dp1958
g82
I4
ssg83
Nsg76
(lp1959
g69
(g85
g71
NtRp1960
(dp1961
g74
(dp1962
sg83
g1956
sg76
(lp1963
g69
(g90
g71
NtRp1964
(dp1965
g74
(dp1966
g94
g95
ssg83
g1960
sg76
(lp1967
g872
asbag69
(g90
g71
NtRp1968
(dp1969
g74
(dp1970
g101
g102
ssg83
g1960
sg76
(lp1971
S':'
asbag69
(g90
g71
NtRp1972
(dp1973
g74
(dp1974
sg83
g1960
sg76
(lp1975
g69
(g70
g71
NtRp1976
(dp1977
g74
(dp1978
g82
I4
ssg83
g1972
sg76
(lp1979
S"set(['D:\\\\workspace\\\\ca\\\\IgoR\\\\C_Sources\\\\Server\\\\igor-assistant-ca-2012\\\\applications\\\\admin\\\\', 'D:\\\\workspace\\\\ca\\\\IgoR\\\\C_Sources\\\\Server\\\\igor-assistant-ca-2012\\\\applications\\\\igor\\\\', 'D:\\\\workspace\\\\ca\\\\IgoR\\\\C_Sources\\\\Server\\\\igor-assistant-ca-2012\\\\applications\\\\welcome\\\\'])"
p1980
asbasbasbag69
(g85
g71
NtRp1981
(dp1982
g74
(dp1983
sg83
g1956
sg76
(lp1984
g69
(g90
g71
NtRp1985
(dp1986
g74
(dp1987
g94
g95
ssg83
g1981
sg76
(lp1988
g894
asbag69
(g90
g71
NtRp1989
(dp1990
g74
(dp1991
g101
g102
ssg83
g1981
sg76
(lp1992
S':'
asbag69
(g90
g71
NtRp1993
(dp1994
g74
(dp1995
sg83
g1981
sg76
(lp1996
g69
(g70
g71
NtRp1997
(dp1998
g74
(dp1999
g82
I4
ssg83
g1993
sg76
(lp2000
g907
asbasbasbag69
(g85
g71
NtRp2001
(dp2002
g74
(dp2003
sg83
g1956
sg76
(lp2004
g69
(g90
g71
NtRp2005
(dp2006
g74
(dp2007
g94
g95
ssg83
g2001
sg76
(lp2008
g916
asbag69
(g90
g71
NtRp2009
(dp2010
g74
(dp2011
g101
g102
ssg83
g2001
sg76
(lp2012
S':'
asbag69
(g90
g71
NtRp2013
(dp2014
g74
(dp2015
sg83
g2001
sg76
(lp2016
g69
(g70
g71
NtRp2017
(dp2018
g74
(dp2019
g82
I4
ssg83
g2013
sg76
(lp2020
g69
(g78
g71
NtRp2021
(dp2022
g74
(dp2023
g82
I3
ssg83
Nsg76
(lp2024
g69
(g85
g71
NtRp2025
(dp2026
g74
(dp2027
sg83
g2021
sg76
(lp2028
g69
(g90
g71
NtRp2029
(dp2030
g74
(dp2031
sg83
g2025
sg76
(lp2032
g69
(g70
g71
NtRp2033
(dp2034
g74
(dp2035
g82
I3
ssg83
g2029
sg76
(lp2036
g945
asbasbasbasbasbasbasbag69
(g85
g71
NtRp2037
(dp2038
g74
(dp2039
sg83
g1956
sg76
(lp2040
g69
(g90
g71
NtRp2041
(dp2042
g74
(dp2043
g94
g95
ssg83
g2037
sg76
(lp2044
g954
asbag69
(g90
g71
NtRp2045
(dp2046
g74
(dp2047
g101
g102
ssg83
g2037
sg76
(lp2048
S':'
asbag69
(g90
g71
NtRp2049
(dp2050
g74
(dp2051
sg83
g2037
sg76
(lp2052
g69
(g70
g71
NtRp2053
(dp2054
g74
(dp2055
g82
I4
ssg83
g2049
sg76
(lp2056
S"<Values at 0x3563d88: {'verbose': False, 'ip': '127.0.0.1', 'shutdown_timeout': 5, 'taskbar': False, 'nocron': False, 'pid_filename': 'httpserver.pid', 'maxthreads': None, 'softcron': False, 'server_name': 'PHUCNH-PC', 'bpython': False, 'nogui': False, 'port': 8000, 'extcron': False, 'debuglevel': 30, 'test': None, 'folder': 'D:\\\\workspace\\\\ca\\\\IgoR\\\\C_Sources\\\\Server\\\\igor-assistant-ca-2012', 'config': '', 'import_models': False, 'winservice': '', 'shell': None, 'run': '', 'log_filename': 'httpserver.log', 'args': [''], 'socket_timeout': 5, 'ssl_ca_certificate': None, 'scheduler': None, 'profiler_filename': None, 'ssl_private_key': '', 'password': '<ask>', 'request_queue_size': 5, 'ssl_certificate': '', 'cronjob': False, 'numthreads': None, 'quiet': False, 'interfaces': None, 'minthreads': None, 'timeout': 10, 'plain': False, 'nobanner': False}>"
p2057
asbasbasbag69
(g85
g71
NtRp2058
(dp2059
g74
(dp2060
sg83
g1956
sg76
(lp2061
g69
(g90
g71
NtRp2062
(dp2063
g74
(dp2064
g94
g95
ssg83
g2058
sg76
(lp2065
g976
asbag69
(g90
g71
NtRp2066
(dp2067
g74
(dp2068
g101
g102
ssg83
g2058
sg76
(lp2069
S':'
asbag69
(g90
g71
NtRp2070
(dp2071
g74
(dp2072
sg83
g2058
sg76
(lp2073
g69
(g70
g71
NtRp2074
(dp2075
g74
(dp2076
g82
I4
ssg83
g2070
sg76
(lp2077
S'set([])'
p2078
asbasbasbag69
(g85
g71
NtRp2079
(dp2080
g74
(dp2081
sg83
g1956
sg76
(lp2082
g69
(g90
g71
NtRp2083
(dp2084
g74
(dp2085
g94
g95
ssg83
g2079
sg76
(lp2086
g998
asbag69
(g90
g71
NtRp2087
(dp2088
g74
(dp2089
g101
g102
ssg83
g2079
sg76
(lp2090
S':'
asbag69
(g90
g71
NtRp2091
(dp2092
g74
(dp2093
sg83
g2079
sg76
(lp2094
g69
(g70
g71
NtRp2095
(dp2096
g74
(dp2097
g82
I4
ssg83
g2091
sg76
(lp2098
g112
asbasbasbag69
(g85
g71
NtRp2099
(dp2100
g74
(dp2101
sg83
g1956
sg76
(lp2102
g69
(g90
g71
NtRp2103
(dp2104
g74
(dp2105
g94
g95
ssg83
g2099
sg76
(lp2106
g1019
asbag69
(g90
g71
NtRp2107
(dp2108
g74
(dp2109
g101
g102
ssg83
g2099
sg76
(lp2110
S':'
asbag69
(g90
g71
NtRp2111
(dp2112
g74
(dp2113
sg83
g2099
sg76
(lp2114
g69
(g70
g71
NtRp2115
(dp2116
g74
(dp2117
g82
I4
ssg83
g2111
sg76
(lp2118
g1032
asbasbasbag69
(g85
g71
NtRp2119
(dp2120
g74
(dp2121
sg83
g1956
sg76
(lp2122
g69
(g90
g71
NtRp2123
(dp2124
g74
(dp2125
g94
g95
ssg83
g2119
sg76
(lp2126
g1239
asbag69
(g90
g71
NtRp2127
(dp2128
g74
(dp2129
g101
g102
ssg83
g2119
sg76
(lp2130
S':'
asbag69
(g90
g71
NtRp2131
(dp2132
g74
(dp2133
sg83
g2119
sg76
(lp2134
g69
(g70
g71
NtRp2135
(dp2136
g74
(dp2137
g82
I4
ssg83
g2131
sg76
(lp2138
g112
asbasbasbag69
(g85
g71
NtRp2139
(dp2140
g74
(dp2141
sg83
g1956
sg76
(lp2142
g69
(g90
g71
NtRp2143
(dp2144
g74
(dp2145
g94
g95
ssg83
g2139
sg76
(lp2146
g1260
asbag69
(g90
g71
NtRp2147
(dp2148
g74
(dp2149
g101
g102
ssg83
g2139
sg76
(lp2150
S':'
asbag69
(g90
g71
NtRp2151
(dp2152
g74
(dp2153
sg83
g2139
sg76
(lp2154
g69
(g70
g71
NtRp2155
(dp2156
g74
(dp2157
g82
I4
ssg83
g2151
sg76
(lp2158
g112
asbasbasbag69
(g85
g71
NtRp2159
(dp2160
g74
(dp2161
sg83
g1956
sg76
(lp2162
g69
(g90
g71
NtRp2163
(dp2164
g74
(dp2165
g94
g95
ssg83
g2159
sg76
(lp2166
g1499
asbag69
(g90
g71
NtRp2167
(dp2168
g74
(dp2169
g101
g102
ssg83
g2159
sg76
(lp2170
S':'
asbag69
(g90
g71
NtRp2171
(dp2172
g74
(dp2173
sg83
g2159
sg76
(lp2174
g69
(g70
g71
NtRp2175
(dp2176
g74
(dp2177
g82
I4
ssg83
g2171
sg76
(lp2178
g1512
asbasbasbag69
(g85
g71
NtRp2179
(dp2180
g74
(dp2181
sg83
g1956
sg76
(lp2182
g69
(g90
g71
NtRp2183
(dp2184
g74
(dp2185
g94
g95
ssg83
g2179
sg76
(lp2186
g1542
asbag69
(g90
g71
NtRp2187
(dp2188
g74
(dp2189
g101
g102
ssg83
g2179
sg76
(lp2190
S':'
asbag69
(g90
g71
NtRp2191
(dp2192
g74
(dp2193
sg83
g2179
sg76
(lp2194
g69
(g70
g71
NtRp2195
(dp2196
g74
(dp2197
g82
I4
ssg83
g2191
sg76
(lp2198
g69
(g78
g71
NtRp2199
(dp2200
g74
(dp2201
g82
I3
ssg83
Nsg76
(lp2202
g69
(g85
g71
NtRp2203
(dp2204
g74
(dp2205
sg83
g2199
sg76
(lp2206
g69
(g90
g71
NtRp2207
(dp2208
g74
(dp2209
sg83
g2203
sg76
(lp2210
g69
(g70
g71
NtRp2211
(dp2212
g74
(dp2213
g82
I3
ssg83
g2207
sg76
(lp2214
S'1'
asbasbasbag69
(g85
g71
NtRp2215
(dp2216
g74
(dp2217
sg83
g2199
sg76
(lp2218
g69
(g90
g71
NtRp2219
(dp2220
g74
(dp2221
sg83
g2215
sg76
(lp2222
g69
(g70
g71
NtRp2223
(dp2224
g74
(dp2225
g82
I3
ssg83
g2219
sg76
(lp2226
S'99'
p2227
asbasbasbag69
(g85
g71
NtRp2228
(dp2229
g74
(dp2230
sg83
g2199
sg76
(lp2231
g69
(g90
g71
NtRp2232
(dp2233
g74
(dp2234
sg83
g2228
sg76
(lp2235
g69
(g70
g71
NtRp2236
(dp2237
g74
(dp2238
g82
I3
ssg83
g2232
sg76
(lp2239
S'7'
asbasbasbag69
(g85
g71
NtRp2240
(dp2241
g74
(dp2242
sg83
g2199
sg76
(lp2243
g69
(g90
g71
NtRp2244
(dp2245
g74
(dp2246
sg83
g2240
sg76
(lp2247
g69
(g70
g71
NtRp2248
(dp2249
g74
(dp2250
g82
I3
ssg83
g2244
sg76
(lp2251
S'datetime.datetime(2012, 3, 4, 22, 12, 8)'
p2252
asbasbasbag69
(g85
g71
NtRp2253
(dp2254
g74
(dp2255
sg83
g2199
sg76
(lp2256
g69
(g90
g71
NtRp2257
(dp2258
g74
(dp2259
sg83
g2253
sg76
(lp2260
g69
(g70
g71
NtRp2261
(dp2262
g74
(dp2263
g82
I3
ssg83
g2257
sg76
(lp2264
g1621
asbasbasbasbasbasbasbasbasbasbasbag69
(g85
g71
NtRp2265
(dp2266
g74
(dp2267
sg83
g79
sg76
(lp2268
g69
(g90
g71
NtRp2269
(dp2270
g74
(dp2271
g94
g95
ssg83
g2265
sg76
(lp2272
S'is_https'
p2273
asbag69
(g90
g71
NtRp2274
(dp2275
g74
(dp2276
g101
g102
ssg83
g2265
sg76
(lp2277
S':'
asbag69
(g90
g71
NtRp2278
(dp2279
g74
(dp2280
sg83
g2265
sg76
(lp2281
g69
(g70
g71
NtRp2282
(dp2283
g74
(dp2284
g82
I5
ssg83
g2278
sg76
(lp2285
g112
asbasbasbag69
(g85
g71
NtRp2286
(dp2287
g74
(dp2288
sg83
g79
sg76
(lp2289
g69
(g90
g71
NtRp2290
(dp2291
g74
(dp2292
g94
g95
ssg83
g2286
sg76
(lp2293
S'is_local'
p2294
asbag69
(g90
g71
NtRp2295
(dp2296
g74
(dp2297
g101
g102
ssg83
g2286
sg76
(lp2298
S':'
asbag69
(g90
g71
NtRp2299
(dp2300
g74
(dp2301
sg83
g2286
sg76
(lp2302
g69
(g70
g71
NtRp2303
(dp2304
g74
(dp2305
g82
I5
ssg83
g2299
sg76
(lp2306
g1730
asbasbasbag69
(g85
g71
NtRp2307
(dp2308
g74
(dp2309
sg83
g79
sg76
(lp2310
g69
(g90
g71
NtRp2311
(dp2312
g74
(dp2313
g94
g95
ssg83
g2307
sg76
(lp2314
S'is_restful'
p2315
asbag69
(g90
g71
NtRp2316
(dp2317
g74
(dp2318
g101
g102
ssg83
g2307
sg76
(lp2319
S':'
asbag69
(g90
g71
NtRp2320
(dp2321
g74
(dp2322
sg83
g2307
sg76
(lp2323
g69
(g70
g71
NtRp2324
(dp2325
g74
(dp2326
g82
I5
ssg83
g2320
sg76
(lp2327
g112
asbasbasbag69
(g85
g71
NtRp2328
(dp2329
g74
(dp2330
sg83
g79
sg76
(lp2331
g69
(g90
g71
NtRp2332
(dp2333
g74
(dp2334
g94
g95
ssg83
g2328
sg76
(lp2335
S'now'
p2336
asbag69
(g90
g71
NtRp2337
(dp2338
g74
(dp2339
g101
g102
ssg83
g2328
sg76
(lp2340
S':'
asbag69
(g90
g71
NtRp2341
(dp2342
g74
(dp2343
sg83
g2328
sg76
(lp2344
g69
(g70
g71
NtRp2345
(dp2346
g74
(dp2347
g82
I5
ssg83
g2341
sg76
(lp2348
S'datetime.datetime(2012, 7, 30, 21, 37, 15, 501000)'
p2349
asbasbasbag69
(g85
g71
NtRp2350
(dp2351
g74
(dp2352
sg83
g79
sg76
(lp2353
g69
(g90
g71
NtRp2354
(dp2355
g74
(dp2356
g94
g95
ssg83
g2350
sg76
(lp2357
S'post_vars'
p2358
asbag69
(g90
g71
NtRp2359
(dp2360
g74
(dp2361
g101
g102
ssg83
g2350
sg76
(lp2362
S':'
asbag69
(g90
g71
NtRp2363
(dp2364
g74
(dp2365
sg83
g2350
sg76
(lp2366
g69
(g70
g71
NtRp2367
(dp2368
g74
(dp2369
g82
I5
ssg83
g2363
sg76
(lp2370
g69
(g78
g71
NtRp2371
(dp2372
g74
(dp2373
g82
I4
ssg83
Nsg76
(lp2374
sbasbasbasbag69
(g85
g71
NtRp2375
(dp2376
g74
(dp2377
sg83
g79
sg76
(lp2378
g69
(g90
g71
NtRp2379
(dp2380
g74
(dp2381
g94
g95
ssg83
g2375
sg76
(lp2382
S'raw_args'
p2383
asbag69
(g90
g71
NtRp2384
(dp2385
g74
(dp2386
g101
g102
ssg83
g2375
sg76
(lp2387
S':'
asbag69
(g90
g71
NtRp2388
(dp2389
g74
(dp2390
sg83
g2375
sg76
(lp2391
g69
(g70
g71
NtRp2392
(dp2393
g74
(dp2394
g82
I5
ssg83
g2388
sg76
(lp2395
S'json/get_class_detail'
p2396
asbasbasbag69
(g85
g71
NtRp2397
(dp2398
g74
(dp2399
sg83
g79
sg76
(lp2400
g69
(g90
g71
NtRp2401
(dp2402
g74
(dp2403
g94
g95
ssg83
g2397
sg76
(lp2404
S'url'
p2405
asbag69
(g90
g71
NtRp2406
(dp2407
g74
(dp2408
g101
g102
ssg83
g2397
sg76
(lp2409
S':'
asbag69
(g90
g71
NtRp2410
(dp2411
g74
(dp2412
sg83
g2397
sg76
(lp2413
g69
(g70
g71
NtRp2414
(dp2415
g74
(dp2416
g82
I5
ssg83
g2410
sg76
(lp2417
S'/igor/class_subject/call/json/get_class_detail'
p2418
asbasbasbag69
(g85
g71
NtRp2419
(dp2420
g74
(dp2421
sg83
g79
sg76
(lp2422
g69
(g90
g71
NtRp2423
(dp2424
g74
(dp2425
g94
g95
ssg83
g2419
sg76
(lp2426
S'utcnow'
p2427
asbag69
(g90
g71
NtRp2428
(dp2429
g74
(dp2430
g101
g102
ssg83
g2419
sg76
(lp2431
S':'
asbag69
(g90
g71
NtRp2432
(dp2433
g74
(dp2434
sg83
g2419
sg76
(lp2435
g69
(g70
g71
NtRp2436
(dp2437
g74
(dp2438
g82
I5
ssg83
g2432
sg76
(lp2439
S'datetime.datetime(2012, 7, 30, 14, 37, 15, 501000)'
p2440
asbasbasbag69
(g85
g71
NtRp2441
(dp2442
g74
(dp2443
sg83
g79
sg76
(lp2444
g69
(g90
g71
NtRp2445
(dp2446
g74
(dp2447
g94
g95
ssg83
g2441
sg76
(lp2448
S'uuid'
p2449
asbag69
(g90
g71
NtRp2450
(dp2451
g74
(dp2452
g101
g102
ssg83
g2441
sg76
(lp2453
S':'
asbag69
(g90
g71
NtRp2454
(dp2455
g74
(dp2456
sg83
g2441
sg76
(lp2457
g69
(g70
g71
NtRp2458
(dp2459
g74
(dp2460
g82
I5
ssg83
g2454
sg76
(lp2461
S'igor/127.0.0.1.2012-07-30.21-37-15.35627e5a-712c-4995-a3e4-9b40b0977396'
p2462
asbasbasbag69
(g85
g71
NtRp2463
(dp2464
g74
(dp2465
sg83
g79
sg76
(lp2466
g69
(g90
g71
NtRp2467
(dp2468
g74
(dp2469
g94
g95
ssg83
g2463
sg76
(lp2470
S'vars'
p2471
asbag69
(g90
g71
NtRp2472
(dp2473
g74
(dp2474
g101
g102
ssg83
g2463
sg76
(lp2475
S':'
asbag69
(g90
g71
NtRp2476
(dp2477
g74
(dp2478
sg83
g2463
sg76
(lp2479
g69
(g70
g71
NtRp2480
(dp2481
g74
(dp2482
g82
I5
ssg83
g2476
sg76
(lp2483
g69
(g78
g71
NtRp2484
(dp2485
g74
(dp2486
g82
I4
ssg83
Nsg76
(lp2487
g69
(g85
g71
NtRp2488
(dp2489
g74
(dp2490
sg83
g2484
sg76
(lp2491
g69
(g90
g71
NtRp2492
(dp2493
g74
(dp2494
g94
g95
ssg83
g2488
sg76
(lp2495
g1922
asbag69
(g90
g71
NtRp2496
(dp2497
g74
(dp2498
g101
g102
ssg83
g2488
sg76
(lp2499
S':'
asbag69
(g90
g71
NtRp2500
(dp2501
g74
(dp2502
sg83
g2488
sg76
(lp2503
g69
(g70
g71
NtRp2504
(dp2505
g74
(dp2506
g82
I4
ssg83
g2500
sg76
(lp2507
S'8'
asbasbasbasbasbasbasbag69
(g85
g71
NtRp2508
(dp2509
g74
(dp2510
sg83
g79
sg76
(lp2511
g69
(g90
g71
NtRp2512
(dp2513
g74
(dp2514
g94
g95
ssg83
g2508
sg76
(lp2515
S'wsgi'
p2516
asbag69
(g90
g71
NtRp2517
(dp2518
g74
(dp2519
g101
g102
ssg83
g2508
sg76
(lp2520
S':'
asbag69
(g90
g71
NtRp2521
(dp2522
g74
(dp2523
sg83
g2508
sg76
(lp2524
g69
(g70
g71
NtRp2525
(dp2526
g74
(dp2527
g82
I5
ssg83
g2521
sg76
(lp2528
g69
(g78
g71
NtRp2529
(dp2530
g74
(dp2531
g82
I4
ssg83
Nsg76
(lp2532
g69
(g85
g71
NtRp2533
(dp2534
g74
(dp2535
sg83
g2529
sg76
(lp2536
g69
(g90
g71
NtRp2537
(dp2538
g74
(dp2539
g94
g95
ssg83
g2533
sg76
(lp2540
S'environ'
p2541
asbag69
(g90
g71
NtRp2542
(dp2543
g74
(dp2544
g101
g102
ssg83
g2533
sg76
(lp2545
S':'
asbag69
(g90
g71
NtRp2546
(dp2547
g74
(dp2548
sg83
g2533
sg76
(lp2549
g69
(g70
g71
NtRp2550
(dp2551
g74
(dp2552
g82
I4
ssg83
g2546
sg76
(lp2553
g69
(g78
g71
NtRp2554
(dp2555
g74
(dp2556
g82
I3
ssg83
Nsg76
(lp2557
g69
(g85
g71
NtRp2558
(dp2559
g74
(dp2560
sg83
g2554
sg76
(lp2561
g69
(g90
g71
NtRp2562
(dp2563
g74
(dp2564
g94
g95
ssg83
g2558
sg76
(lp2565
S'HTTP_ACCEPT'
p2566
asbag69
(g90
g71
NtRp2567
(dp2568
g74
(dp2569
g101
g102
ssg83
g2558
sg76
(lp2570
S':'
asbag69
(g90
g71
NtRp2571
(dp2572
g74
(dp2573
sg83
g2558
sg76
(lp2574
g69
(g70
g71
NtRp2575
(dp2576
g74
(dp2577
g82
I3
ssg83
g2571
sg76
(lp2578
g1054
asbasbasbag69
(g85
g71
NtRp2579
(dp2580
g74
(dp2581
sg83
g2554
sg76
(lp2582
g69
(g90
g71
NtRp2583
(dp2584
g74
(dp2585
g94
g95
ssg83
g2579
sg76
(lp2586
S'HTTP_ACCEPT_CHARSET'
p2587
asbag69
(g90
g71
NtRp2588
(dp2589
g74
(dp2590
g101
g102
ssg83
g2579
sg76
(lp2591
S':'
asbag69
(g90
g71
NtRp2592
(dp2593
g74
(dp2594
sg83
g2579
sg76
(lp2595
g69
(g70
g71
NtRp2596
(dp2597
g74
(dp2598
g82
I3
ssg83
g2592
sg76
(lp2599
g1076
asbasbasbag69
(g85
g71
NtRp2600
(dp2601
g74
(dp2602
sg83
g2554
sg76
(lp2603
g69
(g90
g71
NtRp2604
(dp2605
g74
(dp2606
g94
g95
ssg83
g2600
sg76
(lp2607
S'HTTP_ACCEPT_ENCODING'
p2608
asbag69
(g90
g71
NtRp2609
(dp2610
g74
(dp2611
g101
g102
ssg83
g2600
sg76
(lp2612
S':'
asbag69
(g90
g71
NtRp2613
(dp2614
g74
(dp2615
sg83
g2600
sg76
(lp2616
g69
(g70
g71
NtRp2617
(dp2618
g74
(dp2619
g82
I3
ssg83
g2613
sg76
(lp2620
g1098
asbasbasbag69
(g85
g71
NtRp2621
(dp2622
g74
(dp2623
sg83
g2554
sg76
(lp2624
g69
(g90
g71
NtRp2625
(dp2626
g74
(dp2627
g94
g95
ssg83
g2621
sg76
(lp2628
S'HTTP_ACCEPT_LANGUAGE'
p2629
asbag69
(g90
g71
NtRp2630
(dp2631
g74
(dp2632
g101
g102
ssg83
g2621
sg76
(lp2633
S':'
asbag69
(g90
g71
NtRp2634
(dp2635
g74
(dp2636
sg83
g2621
sg76
(lp2637
g69
(g70
g71
NtRp2638
(dp2639
g74
(dp2640
g82
I3
ssg83
g2634
sg76
(lp2641
g1120
asbasbasbag69
(g85
g71
NtRp2642
(dp2643
g74
(dp2644
sg83
g2554
sg76
(lp2645
g69
(g90
g71
NtRp2646
(dp2647
g74
(dp2648
g94
g95
ssg83
g2642
sg76
(lp2649
S'HTTP_CACHE_CONTROL'
p2650
asbag69
(g90
g71
NtRp2651
(dp2652
g74
(dp2653
g101
g102
ssg83
g2642
sg76
(lp2654
S':'
asbag69
(g90
g71
NtRp2655
(dp2656
g74
(dp2657
sg83
g2642
sg76
(lp2658
g69
(g70
g71
NtRp2659
(dp2660
g74
(dp2661
g82
I3
ssg83
g2655
sg76
(lp2662
g1142
asbasbasbag69
(g85
g71
NtRp2663
(dp2664
g74
(dp2665
sg83
g2554
sg76
(lp2666
g69
(g90
g71
NtRp2667
(dp2668
g74
(dp2669
g94
g95
ssg83
g2663
sg76
(lp2670
S'HTTP_CONNECTION'
p2671
asbag69
(g90
g71
NtRp2672
(dp2673
g74
(dp2674
g101
g102
ssg83
g2663
sg76
(lp2675
S':'
asbag69
(g90
g71
NtRp2676
(dp2677
g74
(dp2678
sg83
g2663
sg76
(lp2679
g69
(g70
g71
NtRp2680
(dp2681
g74
(dp2682
g82
I3
ssg83
g2676
sg76
(lp2683
g1164
asbasbasbag69
(g85
g71
NtRp2684
(dp2685
g74
(dp2686
sg83
g2554
sg76
(lp2687
g69
(g90
g71
NtRp2688
(dp2689
g74
(dp2690
g94
g95
ssg83
g2684
sg76
(lp2691
S'HTTP_COOKIE'
p2692
asbag69
(g90
g71
NtRp2693
(dp2694
g74
(dp2695
g101
g102
ssg83
g2684
sg76
(lp2696
S':'
asbag69
(g90
g71
NtRp2697
(dp2698
g74
(dp2699
sg83
g2684
sg76
(lp2700
g69
(g70
g71
NtRp2701
(dp2702
g74
(dp2703
g82
I3
ssg83
g2697
sg76
(lp2704
g1186
asbasbasbag69
(g85
g71
NtRp2705
(dp2706
g74
(dp2707
sg83
g2554
sg76
(lp2708
g69
(g90
g71
NtRp2709
(dp2710
g74
(dp2711
g94
g95
ssg83
g2705
sg76
(lp2712
S'HTTP_HOST'
p2713
asbag69
(g90
g71
NtRp2714
(dp2715
g74
(dp2716
g101
g102
ssg83
g2705
sg76
(lp2717
S':'
asbag69
(g90
g71
NtRp2718
(dp2719
g74
(dp2720
sg83
g2705
sg76
(lp2721
g69
(g70
g71
NtRp2722
(dp2723
g74
(dp2724
g82
I3
ssg83
g2718
sg76
(lp2725
g1208
asbasbasbag69
(g85
g71
NtRp2726
(dp2727
g74
(dp2728
sg83
g2554
sg76
(lp2729
g69
(g90
g71
NtRp2730
(dp2731
g74
(dp2732
g94
g95
ssg83
g2726
sg76
(lp2733
S'HTTP_USER_AGENT'
p2734
asbag69
(g90
g71
NtRp2735
(dp2736
g74
(dp2737
g101
g102
ssg83
g2726
sg76
(lp2738
S':'
asbag69
(g90
g71
NtRp2739
(dp2740
g74
(dp2741
sg83
g2726
sg76
(lp2742
g69
(g70
g71
NtRp2743
(dp2744
g74
(dp2745
g82
I3
ssg83
g2739
sg76
(lp2746
g1230
asbasbasbag69
(g85
g71
NtRp2747
(dp2748
g74
(dp2749
sg83
g2554
sg76
(lp2750
g69
(g90
g71
NtRp2751
(dp2752
g74
(dp2753
g94
g95
ssg83
g2747
sg76
(lp2754
S'PATH_INFO'
p2755
asbag69
(g90
g71
NtRp2756
(dp2757
g74
(dp2758
g101
g102
ssg83
g2747
sg76
(lp2759
S':'
asbag69
(g90
g71
NtRp2760
(dp2761
g74
(dp2762
sg83
g2747
sg76
(lp2763
g69
(g70
g71
NtRp2764
(dp2765
g74
(dp2766
g82
I3
ssg83
g2760
sg76
(lp2767
g1294
asbasbasbag69
(g85
g71
NtRp2768
(dp2769
g74
(dp2770
sg83
g2554
sg76
(lp2771
g69
(g90
g71
NtRp2772
(dp2773
g74
(dp2774
g94
g95
ssg83
g2768
sg76
(lp2775
S'QUERY_STRING'
p2776
asbag69
(g90
g71
NtRp2777
(dp2778
g74
(dp2779
g101
g102
ssg83
g2768
sg76
(lp2780
S':'
asbag69
(g90
g71
NtRp2781
(dp2782
g74
(dp2783
sg83
g2768
sg76
(lp2784
g69
(g70
g71
NtRp2785
(dp2786
g74
(dp2787
g82
I3
ssg83
g2781
sg76
(lp2788
g1316
asbasbasbag69
(g85
g71
NtRp2789
(dp2790
g74
(dp2791
sg83
g2554
sg76
(lp2792
g69
(g90
g71
NtRp2793
(dp2794
g74
(dp2795
g94
g95
ssg83
g2789
sg76
(lp2796
S'REMOTE_ADDR'
p2797
asbag69
(g90
g71
NtRp2798
(dp2799
g74
(dp2800
g101
g102
ssg83
g2789
sg76
(lp2801
S':'
asbag69
(g90
g71
NtRp2802
(dp2803
g74
(dp2804
sg83
g2789
sg76
(lp2805
g69
(g70
g71
NtRp2806
(dp2807
g74
(dp2808
g82
I3
ssg83
g2802
sg76
(lp2809
g228
asbasbasbag69
(g85
g71
NtRp2810
(dp2811
g74
(dp2812
sg83
g2554
sg76
(lp2813
g69
(g90
g71
NtRp2814
(dp2815
g74
(dp2816
g94
g95
ssg83
g2810
sg76
(lp2817
S'REMOTE_PORT'
p2818
asbag69
(g90
g71
NtRp2819
(dp2820
g74
(dp2821
g101
g102
ssg83
g2810
sg76
(lp2822
S':'
asbag69
(g90
g71
NtRp2823
(dp2824
g74
(dp2825
sg83
g2810
sg76
(lp2826
g69
(g70
g71
NtRp2827
(dp2828
g74
(dp2829
g82
I3
ssg83
g2823
sg76
(lp2830
g1359
asbasbasbag69
(g85
g71
NtRp2831
(dp2832
g74
(dp2833
sg83
g2554
sg76
(lp2834
g69
(g90
g71
NtRp2835
(dp2836
g74
(dp2837
g94
g95
ssg83
g2831
sg76
(lp2838
S'REQUEST_METHOD'
p2839
asbag69
(g90
g71
NtRp2840
(dp2841
g74
(dp2842
g101
g102
ssg83
g2831
sg76
(lp2843
S':'
asbag69
(g90
g71
NtRp2844
(dp2845
g74
(dp2846
sg83
g2831
sg76
(lp2847
g69
(g70
g71
NtRp2848
(dp2849
g74
(dp2850
g82
I3
ssg83
g2844
sg76
(lp2851
g1381
asbasbasbag69
(g85
g71
NtRp2852
(dp2853
g74
(dp2854
sg83
g2554
sg76
(lp2855
g69
(g90
g71
NtRp2856
(dp2857
g74
(dp2858
g94
g95
ssg83
g2852
sg76
(lp2859
S'SCRIPT_NAME'
p2860
asbag69
(g90
g71
NtRp2861
(dp2862
g74
(dp2863
g101
g102
ssg83
g2852
sg76
(lp2864
S':'
asbag69
(g90
g71
NtRp2865
(dp2866
g74
(dp2867
sg83
g2852
sg76
(lp2868
g69
(g70
g71
NtRp2869
(dp2870
g74
(dp2871
g82
I3
ssg83
g2865
sg76
(lp2872
S''
asbasbasbag69
(g85
g71
NtRp2873
(dp2874
g74
(dp2875
sg83
g2554
sg76
(lp2876
g69
(g90
g71
NtRp2877
(dp2878
g74
(dp2879
g94
g95
ssg83
g2873
sg76
(lp2880
S'SERVER_NAME'
p2881
asbag69
(g90
g71
NtRp2882
(dp2883
g74
(dp2884
g101
g102
ssg83
g2873
sg76
(lp2885
S':'
asbag69
(g90
g71
NtRp2886
(dp2887
g74
(dp2888
sg83
g2873
sg76
(lp2889
g69
(g70
g71
NtRp2890
(dp2891
g74
(dp2892
g82
I3
ssg83
g2886
sg76
(lp2893
g1424
asbasbasbag69
(g85
g71
NtRp2894
(dp2895
g74
(dp2896
sg83
g2554
sg76
(lp2897
g69
(g90
g71
NtRp2898
(dp2899
g74
(dp2900
g94
g95
ssg83
g2894
sg76
(lp2901
S'SERVER_PORT'
p2902
asbag69
(g90
g71
NtRp2903
(dp2904
g74
(dp2905
g101
g102
ssg83
g2894
sg76
(lp2906
S':'
asbag69
(g90
g71
NtRp2907
(dp2908
g74
(dp2909
sg83
g2894
sg76
(lp2910
g69
(g70
g71
NtRp2911
(dp2912
g74
(dp2913
g82
I3
ssg83
g2907
sg76
(lp2914
g1446
asbasbasbag69
(g85
g71
NtRp2915
(dp2916
g74
(dp2917
sg83
g2554
sg76
(lp2918
g69
(g90
g71
NtRp2919
(dp2920
g74
(dp2921
g94
g95
ssg83
g2915
sg76
(lp2922
S'SERVER_PROTOCOL'
p2923
asbag69
(g90
g71
NtRp2924
(dp2925
g74
(dp2926
g101
g102
ssg83
g2915
sg76
(lp2927
S':'
asbag69
(g90
g71
NtRp2928
(dp2929
g74
(dp2930
sg83
g2915
sg76
(lp2931
g69
(g70
g71
NtRp2932
(dp2933
g74
(dp2934
g82
I3
ssg83
g2928
sg76
(lp2935
g1468
asbasbasbag69
(g85
g71
NtRp2936
(dp2937
g74
(dp2938
sg83
g2554
sg76
(lp2939
g69
(g90
g71
NtRp2940
(dp2941
g74
(dp2942
g94
g95
ssg83
g2936
sg76
(lp2943
S'SERVER_SOFTWARE'
p2944
asbag69
(g90
g71
NtRp2945
(dp2946
g74
(dp2947
g101
g102
ssg83
g2936
sg76
(lp2948
S':'
asbag69
(g90
g71
NtRp2949
(dp2950
g74
(dp2951
sg83
g2936
sg76
(lp2952
g69
(g70
g71
NtRp2953
(dp2954
g74
(dp2955
g82
I3
ssg83
g2949
sg76
(lp2956
g1490
asbasbasbag69
(g85
g71
NtRp2957
(dp2958
g74
(dp2959
sg83
g2554
sg76
(lp2960
g69
(g90
g71
NtRp2961
(dp2962
g74
(dp2963
g94
g95
ssg83
g2957
sg76
(lp2964
S'wsgi.errors'
p2965
asbag69
(g90
g71
NtRp2966
(dp2967
g74
(dp2968
g101
g102
ssg83
g2957
sg76
(lp2969
S':'
asbag69
(g90
g71
NtRp2970
(dp2971
g74
(dp2972
sg83
g2957
sg76
(lp2973
g69
(g70
g71
NtRp2974
(dp2975
g74
(dp2976
g82
I3
ssg83
g2970
sg76
(lp2977
S"<open file '<stderr>', mode 'w' at 0x0000000001D4E1E0>"
p2978
asbasbasbag69
(g85
g71
NtRp2979
(dp2980
g74
(dp2981
sg83
g2554
sg76
(lp2982
g69
(g90
g71
NtRp2983
(dp2984
g74
(dp2985
g94
g95
ssg83
g2979
sg76
(lp2986
S'wsgi.file_wrapper'
p2987
asbag69
(g90
g71
NtRp2988
(dp2989
g74
(dp2990
g101
g102
ssg83
g2979
sg76
(lp2991
S':'
asbag69
(g90
g71
NtRp2992
(dp2993
g74
(dp2994
sg83
g2979
sg76
(lp2995
g69
(g70
g71
NtRp2996
(dp2997
g74
(dp2998
g82
I3
ssg83
g2992
sg76
(lp2999
S'<class wsgiref.util.FileWrapper at 0x0000000003420AC8>'
p3000
asbasbasbag69
(g85
g71
NtRp3001
(dp3002
g74
(dp3003
sg83
g2554
sg76
(lp3004
g69
(g90
g71
NtRp3005
(dp3006
g74
(dp3007
g94
g95
ssg83
g3001
sg76
(lp3008
S'wsgi.input'
p3009
asbag69
(g90
g71
NtRp3010
(dp3011
g74
(dp3012
g101
g102
ssg83
g3001
sg76
(lp3013
S':'
asbag69
(g90
g71
NtRp3014
(dp3015
g74
(dp3016
sg83
g3001
sg76
(lp3017
g69
(g70
g71
NtRp3018
(dp3019
g74
(dp3020
g82
I3
ssg83
g3014
sg76
(lp3021
S'<cStringIO.StringO object at 0x0000000008B96688>'
p3022
asbasbasbag69
(g85
g71
NtRp3023
(dp3024
g74
(dp3025
sg83
g2554
sg76
(lp3026
g69
(g90
g71
NtRp3027
(dp3028
g74
(dp3029
g94
g95
ssg83
g3023
sg76
(lp3030
S'wsgi.multiprocess'
p3031
asbag69
(g90
g71
NtRp3032
(dp3033
g74
(dp3034
g101
g102
ssg83
g3023
sg76
(lp3035
S':'
asbag69
(g90
g71
NtRp3036
(dp3037
g74
(dp3038
sg83
g3023
sg76
(lp3039
g69
(g70
g71
NtRp3040
(dp3041
g74
(dp3042
g82
I3
ssg83
g3036
sg76
(lp3043
g112
asbasbasbag69
(g85
g71
NtRp3044
(dp3045
g74
(dp3046
sg83
g2554
sg76
(lp3047
g69
(g90
g71
NtRp3048
(dp3049
g74
(dp3050
g94
g95
ssg83
g3044
sg76
(lp3051
S'wsgi.multithread'
p3052
asbag69
(g90
g71
NtRp3053
(dp3054
g74
(dp3055
g101
g102
ssg83
g3044
sg76
(lp3056
S':'
asbag69
(g90
g71
NtRp3057
(dp3058
g74
(dp3059
sg83
g3044
sg76
(lp3060
g69
(g70
g71
NtRp3061
(dp3062
g74
(dp3063
g82
I3
ssg83
g3057
sg76
(lp3064
g1730
asbasbasbag69
(g85
g71
NtRp3065
(dp3066
g74
(dp3067
sg83
g2554
sg76
(lp3068
g69
(g90
g71
NtRp3069
(dp3070
g74
(dp3071
g94
g95
ssg83
g3065
sg76
(lp3072
S'wsgi.run_once'
p3073
asbag69
(g90
g71
NtRp3074
(dp3075
g74
(dp3076
g101
g102
ssg83
g3065
sg76
(lp3077
S':'
asbag69
(g90
g71
NtRp3078
(dp3079
g74
(dp3080
sg83
g3065
sg76
(lp3081
g69
(g70
g71
NtRp3082
(dp3083
g74
(dp3084
g82
I3
ssg83
g3078
sg76
(lp3085
g112
asbasbasbag69
(g85
g71
NtRp3086
(dp3087
g74
(dp3088
sg83
g2554
sg76
(lp3089
g69
(g90
g71
NtRp3090
(dp3091
g74
(dp3092
g94
g95
ssg83
g3086
sg76
(lp3093
S'wsgi.url_scheme'
p3094
asbag69
(g90
g71
NtRp3095
(dp3096
g74
(dp3097
g101
g102
ssg83
g3086
sg76
(lp3098
S':'
asbag69
(g90
g71
NtRp3099
(dp3100
g74
(dp3101
sg83
g3086
sg76
(lp3102
g69
(g70
g71
NtRp3103
(dp3104
g74
(dp3105
g82
I3
ssg83
g3099
sg76
(lp3106
g1773
asbasbasbag69
(g85
g71
NtRp3107
(dp3108
g74
(dp3109
sg83
g2554
sg76
(lp3110
g69
(g90
g71
NtRp3111
(dp3112
g74
(dp3113
g94
g95
ssg83
g3107
sg76
(lp3114
S'wsgi.version'
p3115
asbag69
(g90
g71
NtRp3116
(dp3117
g74
(dp3118
g101
g102
ssg83
g3107
sg76
(lp3119
S':'
asbag69
(g90
g71
NtRp3120
(dp3121
g74
(dp3122
sg83
g3107
sg76
(lp3123
g69
(g70
g71
NtRp3124
(dp3125
g74
(dp3126
g82
I3
ssg83
g3120
sg76
(lp3127
S'1'
asbasbasbasbasbasbasbasbasbasbasbasbasbsS'frames'
p3128
(lp3129
(dp3130
S'file'
p3131
S'D:\\workspace\\ca\\IgoR\\C_Sources\\Server\\igor-assistant-ca-2012\\gluon\\restricted.py'
p3132
sS'dump'
p3133
(dp3134
S'code'
p3135
S"'# -*- coding: utf-8 -*-\\n# this file is released ...urn client\\nresponse._vars=response._caller(call)\\n'"
p3136
sS'layer'
p3137
S"r'D:\\workspace\\ca\\IgoR\\C_Sources\\Server\\igor-assis...12\\applications\\igor\\controllers/class_subject.py'"
p3138
sS'global compile2'
p3139
S'<function compile2>'
p3140
sS'ccode'
p3141
S'undefined'
p3142
ssS'lnum'
p3143
I204
sS'lines'
p3144
(dp3145
I199
S"    environment['__name__'] = '__restricted__'"
p3146
sI200
S'    try:'
p3147
sI201
S'        if type(code) == types.CodeType:'
p3148
sI202
S'            ccode = code'
p3149
sI203
S'        else:'
p3150
sI204
S'            ccode = compile2(code,layer)'
p3151
sI205
S'        exec ccode in environment'
p3152
sI206
S'    except HTTP:'
p3153
sI207
S'        raise'
p3154
sI208
S'    except RestrictedError:'
p3155
ssS'call'
p3156
S"(code='# -*- coding: utf-8 -*-\\n# this file is released ...urn client\\nresponse._vars=response._caller(call)\\n', environment={'A': <class 'gluon.html.A'>, 'Auth': <class 'gluon.tools.Auth'>, 'B': <class 'gluon.html.B'>, 'BEAUTIFY': <class 'gluon.html.BEAUTIFY'>, 'BODY': <class 'gluon.html.BODY'>, 'BR': <class 'gluon.html.BR'>, 'BUTTON': <class 'gluon.html.BUTTON'>, 'CAT': <class 'gluon.html.CAT'>, 'CENTER': <class 'gluon.html.CENTER'>, 'CLEANUP': <class 'gluon.validators.CLEANUP'>, ...}, layer=r'D:\\workspace\\ca\\IgoR\\C_Sources\\Server\\igor-assis...12\\applications\\igor\\controllers/class_subject.py')"
p3157
sS'func'
p3158
S'restricted'
p3159
sa(dp3160
g3131
S'D:\\workspace\\ca\\IgoR\\C_Sources\\Server\\igor-assistant-ca-2012\\gluon\\restricted.py'
p3161
sg3133
(dp3162
S'builtincompile'
p3163
S'<built-in function compile>'
p3164
sS'code'
p3165
S"'# -*- coding: utf-8 -*-\\n# this file is released ...urn client\\nresponse._vars=response._caller(call)\\n'"
p3166
sS'code.rstrip'
p3167
S'<built-in method rstrip of str object>'
p3168
sS').replace'
p3169
g3142
sS'layer'
p3170
S"r'D:\\workspace\\ca\\IgoR\\C_Sources\\Server\\igor-assis...12\\applications\\igor\\controllers/class_subject.py'"
p3171
ssg3143
I189
sg3144
(dp3172
I192
S'    """'
p3173
sI193
S'    runs code in environment and returns the output. if an exception occurs'
p3174
sI184
S''
sI185
S'def compile2(code,layer):'
p3175
sI186
S'    """'
p3176
sI187
S"    The +'\\n' is necessary else compile fails when code ends in a comment."
p3177
sI188
S'    """'
p3178
sI189
S"    return compile(code.rstrip().replace('\\r\\n','\\n')+'\\n', layer, 'exec')"
p3179
sI190
S''
sI191
S"def restricted(code, environment=None, layer='Unknown'):"
p3180
ssg3156
S"(code='# -*- coding: utf-8 -*-\\n# this file is released ...urn client\\nresponse._vars=response._caller(call)\\n', layer=r'D:\\workspace\\ca\\IgoR\\C_Sources\\Server\\igor-assis...12\\applications\\igor\\controllers/class_subject.py')"
p3181
sg3158
S'compile2'
p3182
sasS'pyver'
p3183
S'Python 2.7.3: C:\\Python27\\python.exe'
p3184
sS'session'
p3185
g69
(g70
g71
NtRp3186
(dp3187
g74
(dp3188
sg76
(lp3189
g69
(g78
g71
NtRp3190
(dp3191
g74
(dp3192
g82
I5
ssg83
Nsg76
(lp3193
sbasbsS'etype'
p3194
S"<type 'exceptions.IndentationError'>"
p3195
sS'date'
p3196
S'Mon Jul 30 21:37:15 2012'
p3197
sS'response'
p3198
g69
(g70
g71
NtRp3199
(dp3200
g74
(dp3201
sg76
(lp3202
g69
(g78
g71
NtRp3203
(dp3204
g74
(dp3205
g82
I5
ssg83
Nsg76
(lp3206
g69
(g85
g71
NtRp3207
(dp3208
g74
(dp3209
sg83
g3203
sg76
(lp3210
g69
(g90
g71
NtRp3211
(dp3212
g74
(dp3213
g94
g95
ssg83
g3207
sg76
(lp3214
g193
asbag69
(g90
g71
NtRp3215
(dp3216
g74
(dp3217
g101
g102
ssg83
g3207
sg76
(lp3218
S':'
asbag69
(g90
g71
NtRp3219
(dp3220
g74
(dp3221
sg83
g3207
sg76
(lp3222
g69
(g70
g71
NtRp3223
(dp3224
g74
(dp3225
g82
I5
ssg83
g3219
sg76
(lp3226
S'<cStringIO.StringO object at 0x0000000005BAB5A8>'
p3227
asbasbasbag69
(g85
g71
NtRp3228
(dp3229
g74
(dp3230
sg83
g3203
sg76
(lp3231
g69
(g90
g71
NtRp3232
(dp3233
g74
(dp3234
g94
g95
ssg83
g3228
sg76
(lp3235
g259
asbag69
(g90
g71
NtRp3236
(dp3237
g74
(dp3238
g101
g102
ssg83
g3228
sg76
(lp3239
S':'
asbag69
(g90
g71
NtRp3240
(dp3241
g74
(dp3242
sg83
g3228
sg76
(lp3243
g69
(g70
g71
NtRp3244
(dp3245
g74
(dp3246
g82
I5
ssg83
g3240
sg76
(lp3247
g69
(g78
g71
NtRp3248
(dp3249
g74
(dp3250
g82
I4
ssg83
Nsg76
(lp3251
g69
(g85
g71
NtRp3252
(dp3253
g74
(dp3254
sg83
g3248
sg76
(lp3255
g69
(g90
g71
NtRp3256
(dp3257
g74
(dp3258
g94
g95
ssg83
g3252
sg76
(lp3259
S'session_id_igor'
p3260
asbag69
(g90
g71
NtRp3261
(dp3262
g74
(dp3263
g101
g102
ssg83
g3252
sg76
(lp3264
S':'
asbag69
(g90
g71
NtRp3265
(dp3266
g74
(dp3267
sg83
g3252
sg76
(lp3268
g69
(g70
g71
NtRp3269
(dp3270
g74
(dp3271
g82
I4
ssg83
g3265
sg76
(lp3272
g69
(g78
g71
NtRp3273
(dp3274
g74
(dp3275
g82
I3
ssg83
Nsg76
(lp3276
g69
(g85
g71
NtRp3277
(dp3278
g74
(dp3279
sg83
g3273
sg76
(lp3280
g69
(g90
g71
NtRp3281
(dp3282
g74
(dp3283
g94
g95
ssg83
g3277
sg76
(lp3284
g309
asbag69
(g90
g71
NtRp3285
(dp3286
g74
(dp3287
g101
g102
ssg83
g3277
sg76
(lp3288
S':'
asbag69
(g90
g71
NtRp3289
(dp3290
g74
(dp3291
sg83
g3277
sg76
(lp3292
g69
(g70
g71
NtRp3293
(dp3294
g74
(dp3295
g82
I3
ssg83
g3289
sg76
(lp3296
S''
asbasbasbag69
(g85
g71
NtRp3297
(dp3298
g74
(dp3299
sg83
g3273
sg76
(lp3300
g69
(g90
g71
NtRp3301
(dp3302
g74
(dp3303
g94
g95
ssg83
g3297
sg76
(lp3304
g330
asbag69
(g90
g71
NtRp3305
(dp3306
g74
(dp3307
g101
g102
ssg83
g3297
sg76
(lp3308
S':'
asbag69
(g90
g71
NtRp3309
(dp3310
g74
(dp3311
sg83
g3297
sg76
(lp3312
g69
(g70
g71
NtRp3313
(dp3314
g74
(dp3315
g82
I3
ssg83
g3309
sg76
(lp3316
S''
asbasbasbag69
(g85
g71
NtRp3317
(dp3318
g74
(dp3319
sg83
g3273
sg76
(lp3320
g69
(g90
g71
NtRp3321
(dp3322
g74
(dp3323
g94
g95
ssg83
g3317
sg76
(lp3324
g351
asbag69
(g90
g71
NtRp3325
(dp3326
g74
(dp3327
g101
g102
ssg83
g3317
sg76
(lp3328
S':'
asbag69
(g90
g71
NtRp3329
(dp3330
g74
(dp3331
sg83
g3317
sg76
(lp3332
g69
(g70
g71
NtRp3333
(dp3334
g74
(dp3335
g82
I3
ssg83
g3329
sg76
(lp3336
S''
asbasbasbag69
(g85
g71
NtRp3337
(dp3338
g74
(dp3339
sg83
g3273
sg76
(lp3340
g69
(g90
g71
NtRp3341
(dp3342
g74
(dp3343
g94
g95
ssg83
g3337
sg76
(lp3344
g372
asbag69
(g90
g71
NtRp3345
(dp3346
g74
(dp3347
g101
g102
ssg83
g3337
sg76
(lp3348
S':'
asbag69
(g90
g71
NtRp3349
(dp3350
g74
(dp3351
sg83
g3337
sg76
(lp3352
g69
(g70
g71
NtRp3353
(dp3354
g74
(dp3355
g82
I3
ssg83
g3349
sg76
(lp3356
S''
asbasbasbag69
(g85
g71
NtRp3357
(dp3358
g74
(dp3359
sg83
g3273
sg76
(lp3360
g69
(g90
g71
NtRp3361
(dp3362
g74
(dp3363
g94
g95
ssg83
g3357
sg76
(lp3364
g393
asbag69
(g90
g71
NtRp3365
(dp3366
g74
(dp3367
g101
g102
ssg83
g3357
sg76
(lp3368
S':'
asbag69
(g90
g71
NtRp3369
(dp3370
g74
(dp3371
sg83
g3357
sg76
(lp3372
g69
(g70
g71
NtRp3373
(dp3374
g74
(dp3375
g82
I3
ssg83
g3369
sg76
(lp3376
S''
asbasbasbag69
(g85
g71
NtRp3377
(dp3378
g74
(dp3379
sg83
g3273
sg76
(lp3380
g69
(g90
g71
NtRp3381
(dp3382
g74
(dp3383
g94
g95
ssg83
g3377
sg76
(lp3384
g414
asbag69
(g90
g71
NtRp3385
(dp3386
g74
(dp3387
g101
g102
ssg83
g3377
sg76
(lp3388
S':'
asbag69
(g90
g71
NtRp3389
(dp3390
g74
(dp3391
sg83
g3377
sg76
(lp3392
g69
(g70
g71
NtRp3393
(dp3394
g74
(dp3395
g82
I3
ssg83
g3389
sg76
(lp3396
S'/'
asbasbasbag69
(g85
g71
NtRp3397
(dp3398
g74
(dp3399
sg83
g3273
sg76
(lp3400
g69
(g90
g71
NtRp3401
(dp3402
g74
(dp3403
g94
g95
ssg83
g3397
sg76
(lp3404
g435
asbag69
(g90
g71
NtRp3405
(dp3406
g74
(dp3407
g101
g102
ssg83
g3397
sg76
(lp3408
S':'
asbag69
(g90
g71
NtRp3409
(dp3410
g74
(dp3411
sg83
g3397
sg76
(lp3412
g69
(g70
g71
NtRp3413
(dp3414
g74
(dp3415
g82
I3
ssg83
g3409
sg76
(lp3416
S''
asbasbasbag69
(g85
g71
NtRp3417
(dp3418
g74
(dp3419
sg83
g3273
sg76
(lp3420
g69
(g90
g71
NtRp3421
(dp3422
g74
(dp3423
g94
g95
ssg83
g3417
sg76
(lp3424
g456
asbag69
(g90
g71
NtRp3425
(dp3426
g74
(dp3427
g101
g102
ssg83
g3417
sg76
(lp3428
S':'
asbag69
(g90
g71
NtRp3429
(dp3430
g74
(dp3431
sg83
g3417
sg76
(lp3432
g69
(g70
g71
NtRp3433
(dp3434
g74
(dp3435
g82
I3
ssg83
g3429
sg76
(lp3436
S''
asbasbasbasbasbasbasbasbasbasbasbag69
(g85
g71
NtRp3437
(dp3438
g74
(dp3439
sg83
g3203
sg76
(lp3440
g69
(g90
g71
NtRp3441
(dp3442
g74
(dp3443
g94
g95
ssg83
g3437
sg76
(lp3444
S'delimiters'
p3445
asbag69
(g90
g71
NtRp3446
(dp3447
g74
(dp3448
g101
g102
ssg83
g3437
sg76
(lp3449
S':'
asbag69
(g90
g71
NtRp3450
(dp3451
g74
(dp3452
sg83
g3437
sg76
(lp3453
g69
(g70
g71
NtRp3454
(dp3455
g74
(dp3456
g82
I5
ssg83
g3450
sg76
(lp3457
g69
(g78
g71
NtRp3458
(dp3459
g74
(dp3460
g82
I4
ssg83
Nsg76
(lp3461
g69
(g85
g71
NtRp3462
(dp3463
g74
(dp3464
sg83
g3458
sg76
(lp3465
g69
(g90
g71
NtRp3466
(dp3467
g74
(dp3468
sg83
g3462
sg76
(lp3469
g69
(g70
g71
NtRp3470
(dp3471
g74
(dp3472
g82
I4
ssg83
g3466
sg76
(lp3473
S'{{'
p3474
asbasbasbag69
(g85
g71
NtRp3475
(dp3476
g74
(dp3477
sg83
g3458
sg76
(lp3478
g69
(g90
g71
NtRp3479
(dp3480
g74
(dp3481
sg83
g3475
sg76
(lp3482
g69
(g70
g71
NtRp3483
(dp3484
g74
(dp3485
g82
I4
ssg83
g3479
sg76
(lp3486
S'}}'
p3487
asbasbasbasbasbasbasbag69
(g85
g71
NtRp3488
(dp3489
g74
(dp3490
sg83
g3203
sg76
(lp3491
g69
(g90
g71
NtRp3492
(dp3493
g74
(dp3494
g94
g95
ssg83
g3488
sg76
(lp3495
S'files'
p3496
asbag69
(g90
g71
NtRp3497
(dp3498
g74
(dp3499
g101
g102
ssg83
g3488
sg76
(lp3500
S':'
asbag69
(g90
g71
NtRp3501
(dp3502
g74
(dp3503
sg83
g3488
sg76
(lp3504
g69
(g70
g71
NtRp3505
(dp3506
g74
(dp3507
g82
I5
ssg83
g3501
sg76
(lp3508
g69
(g78
g71
NtRp3509
(dp3510
g74
(dp3511
g82
I4
ssg83
Nsg76
(lp3512
sbasbasbasbag69
(g85
g71
NtRp3513
(dp3514
g74
(dp3515
sg83
g3203
sg76
(lp3516
g69
(g90
g71
NtRp3517
(dp3518
g74
(dp3519
g94
g95
ssg83
g3513
sg76
(lp3520
S'flash'
p3521
asbag69
(g90
g71
NtRp3522
(dp3523
g74
(dp3524
g101
g102
ssg83
g3513
sg76
(lp3525
S':'
asbag69
(g90
g71
NtRp3526
(dp3527
g74
(dp3528
sg83
g3513
sg76
(lp3529
g69
(g70
g71
NtRp3530
(dp3531
g74
(dp3532
g82
I5
ssg83
g3526
sg76
(lp3533
S''
asbasbasbag69
(g85
g71
NtRp3534
(dp3535
g74
(dp3536
sg83
g3203
sg76
(lp3537
g69
(g90
g71
NtRp3538
(dp3539
g74
(dp3540
g94
g95
ssg83
g3534
sg76
(lp3541
S'generic_patterns'
p3542
asbag69
(g90
g71
NtRp3543
(dp3544
g74
(dp3545
g101
g102
ssg83
g3534
sg76
(lp3546
S':'
asbag69
(g90
g71
NtRp3547
(dp3548
g74
(dp3549
sg83
g3534
sg76
(lp3550
g69
(g70
g71
NtRp3551
(dp3552
g74
(dp3553
g82
I5
ssg83
g3547
sg76
(lp3554
g69
(g78
g71
NtRp3555
(dp3556
g74
(dp3557
g82
I4
ssg83
Nsg76
(lp3558
g69
(g85
g71
NtRp3559
(dp3560
g74
(dp3561
sg83
g3555
sg76
(lp3562
g69
(g90
g71
NtRp3563
(dp3564
g74
(dp3565
sg83
g3559
sg76
(lp3566
g69
(g70
g71
NtRp3567
(dp3568
g74
(dp3569
g82
I4
ssg83
g3563
sg76
(lp3570
S'*'
asbasbasbasbasbasbasbag69
(g85
g71
NtRp3571
(dp3572
g74
(dp3573
sg83
g3203
sg76
(lp3574
g69
(g90
g71
NtRp3575
(dp3576
g74
(dp3577
g94
g95
ssg83
g3571
sg76
(lp3578
S'headers'
p3579
asbag69
(g90
g71
NtRp3580
(dp3581
g74
(dp3582
g101
g102
ssg83
g3571
sg76
(lp3583
S':'
asbag69
(g90
g71
NtRp3584
(dp3585
g74
(dp3586
sg83
g3571
sg76
(lp3587
g69
(g70
g71
NtRp3588
(dp3589
g74
(dp3590
g82
I5
ssg83
g3584
sg76
(lp3591
g69
(g78
g71
NtRp3592
(dp3593
g74
(dp3594
g82
I4
ssg83
Nsg76
(lp3595
g69
(g85
g71
NtRp3596
(dp3597
g74
(dp3598
sg83
g3592
sg76
(lp3599
g69
(g90
g71
NtRp3600
(dp3601
g74
(dp3602
g94
g95
ssg83
g3596
sg76
(lp3603
S'Cache-Control'
p3604
asbag69
(g90
g71
NtRp3605
(dp3606
g74
(dp3607
g101
g102
ssg83
g3596
sg76
(lp3608
S':'
asbag69
(g90
g71
NtRp3609
(dp3610
g74
(dp3611
sg83
g3596
sg76
(lp3612
g69
(g70
g71
NtRp3613
(dp3614
g74
(dp3615
g82
I4
ssg83
g3609
sg76
(lp3616
S'no-store, no-cache, must-revalidate, post-check=0, pre-check=0'
p3617
asbasbasbag69
(g85
g71
NtRp3618
(dp3619
g74
(dp3620
sg83
g3592
sg76
(lp3621
g69
(g90
g71
NtRp3622
(dp3623
g74
(dp3624
g94
g95
ssg83
g3618
sg76
(lp3625
S'Content-Type'
p3626
asbag69
(g90
g71
NtRp3627
(dp3628
g74
(dp3629
g101
g102
ssg83
g3618
sg76
(lp3630
S':'
asbag69
(g90
g71
NtRp3631
(dp3632
g74
(dp3633
sg83
g3618
sg76
(lp3634
g69
(g70
g71
NtRp3635
(dp3636
g74
(dp3637
g82
I4
ssg83
g3631
sg76
(lp3638
S'text/html; charset=utf-8'
p3639
asbasbasbag69
(g85
g71
NtRp3640
(dp3641
g74
(dp3642
sg83
g3592
sg76
(lp3643
g69
(g90
g71
NtRp3644
(dp3645
g74
(dp3646
g94
g95
ssg83
g3640
sg76
(lp3647
S'Expires'
p3648
asbag69
(g90
g71
NtRp3649
(dp3650
g74
(dp3651
g101
g102
ssg83
g3640
sg76
(lp3652
S':'
asbag69
(g90
g71
NtRp3653
(dp3654
g74
(dp3655
sg83
g3640
sg76
(lp3656
g69
(g70
g71
NtRp3657
(dp3658
g74
(dp3659
g82
I4
ssg83
g3653
sg76
(lp3660
S'Mon, 30 Jul 2012 14:37:15 GMT'
p3661
asbasbasbag69
(g85
g71
NtRp3662
(dp3663
g74
(dp3664
sg83
g3592
sg76
(lp3665
g69
(g90
g71
NtRp3666
(dp3667
g74
(dp3668
g94
g95
ssg83
g3662
sg76
(lp3669
S'Pragma'
p3670
asbag69
(g90
g71
NtRp3671
(dp3672
g74
(dp3673
g101
g102
ssg83
g3662
sg76
(lp3674
S':'
asbag69
(g90
g71
NtRp3675
(dp3676
g74
(dp3677
sg83
g3662
sg76
(lp3678
g69
(g70
g71
NtRp3679
(dp3680
g74
(dp3681
g82
I4
ssg83
g3675
sg76
(lp3682
S'no-cache'
p3683
asbasbasbag69
(g85
g71
NtRp3684
(dp3685
g74
(dp3686
sg83
g3592
sg76
(lp3687
g69
(g90
g71
NtRp3688
(dp3689
g74
(dp3690
g94
g95
ssg83
g3684
sg76
(lp3691
S'X-Powered-By'
p3692
asbag69
(g90
g71
NtRp3693
(dp3694
g74
(dp3695
g101
g102
ssg83
g3684
sg76
(lp3696
S':'
asbag69
(g90
g71
NtRp3697
(dp3698
g74
(dp3699
sg83
g3684
sg76
(lp3700
g69
(g70
g71
NtRp3701
(dp3702
g74
(dp3703
g82
I4
ssg83
g3697
sg76
(lp3704
S'web2py'
p3705
asbasbasbasbasbasbasbag69
(g85
g71
NtRp3706
(dp3707
g74
(dp3708
sg83
g3203
sg76
(lp3709
g69
(g90
g71
NtRp3710
(dp3711
g74
(dp3712
g94
g95
ssg83
g3706
sg76
(lp3713
S'menu'
p3714
asbag69
(g90
g71
NtRp3715
(dp3716
g74
(dp3717
g101
g102
ssg83
g3706
sg76
(lp3718
S':'
asbag69
(g90
g71
NtRp3719
(dp3720
g74
(dp3721
sg83
g3706
sg76
(lp3722
g69
(g70
g71
NtRp3723
(dp3724
g74
(dp3725
g82
I5
ssg83
g3719
sg76
(lp3726
g69
(g78
g71
NtRp3727
(dp3728
g74
(dp3729
g82
I4
ssg83
Nsg76
(lp3730
g69
(g85
g71
NtRp3731
(dp3732
g74
(dp3733
sg83
g3727
sg76
(lp3734
g69
(g90
g71
NtRp3735
(dp3736
g74
(dp3737
sg83
g3731
sg76
(lp3738
g69
(g70
g71
NtRp3739
(dp3740
g74
(dp3741
g82
I4
ssg83
g3735
sg76
(lp3742
g69
(g78
g71
NtRp3743
(dp3744
g74
(dp3745
g82
I3
ssg83
Nsg76
(lp3746
g69
(g85
g71
NtRp3747
(dp3748
g74
(dp3749
sg83
g3743
sg76
(lp3750
g69
(g90
g71
NtRp3751
(dp3752
g74
(dp3753
sg83
g3747
sg76
(lp3754
g69
(g70
g71
NtRp3755
(dp3756
g74
(dp3757
g82
I3
ssg83
g3751
sg76
(lp3758
cgluon.languages
lazyT_unpickle
p3759
(S't\x04\x00\x00\x00Home'
tRp3760
asbasbasbag69
(g85
g71
NtRp3761
(dp3762
g74
(dp3763
sg83
g3743
sg76
(lp3764
g69
(g90
g71
NtRp3765
(dp3766
g74
(dp3767
sg83
g3761
sg76
(lp3768
g69
(g70
g71
NtRp3769
(dp3770
g74
(dp3771
g82
I3
ssg83
g3765
sg76
(lp3772
g112
asbasbasbag69
(g85
g71
NtRp3773
(dp3774
g74
(dp3775
sg83
g3743
sg76
(lp3776
g69
(g90
g71
NtRp3777
(dp3778
g74
(dp3779
sg83
g3773
sg76
(lp3780
g69
(g70
g71
NtRp3781
(dp3782
g74
(dp3783
g82
I3
ssg83
g3777
sg76
(lp3784
S'/igor/default/index'
p3785
asbasbasbag69
(g85
g71
NtRp3786
(dp3787
g74
(dp3788
sg83
g3743
sg76
(lp3789
g69
(g90
g71
NtRp3790
(dp3791
g74
(dp3792
sg83
g3786
sg76
(lp3793
g69
(g70
g71
NtRp3794
(dp3795
g74
(dp3796
g82
I3
ssg83
g3790
sg76
(lp3797
g69
(g78
g71
NtRp3798
(dp3799
g74
(dp3800
g82
I2
ssg83
Nsg76
(lp3801
sbasbasbasbasbasbasbasbag69
(g85
g71
NtRp3802
(dp3803
g74
(dp3804
sg83
g3727
sg76
(lp3805
g69
(g90
g71
NtRp3806
(dp3807
g74
(dp3808
sg83
g3802
sg76
(lp3809
g69
(g70
g71
NtRp3810
(dp3811
g74
(dp3812
g82
I4
ssg83
g3806
sg76
(lp3813
g69
(g78
g71
NtRp3814
(dp3815
g74
(dp3816
g82
I3
ssg83
Nsg76
(lp3817
g69
(g85
g71
NtRp3818
(dp3819
g74
(dp3820
sg83
g3814
sg76
(lp3821
g69
(g90
g71
NtRp3822
(dp3823
g74
(dp3824
sg83
g3818
sg76
(lp3825
g69
(g70
g71
NtRp3826
(dp3827
g74
(dp3828
g82
I3
ssg83
g3822
sg76
(lp3829
g69
(cgluon.html
SPAN
p3830
g71
NtRp3831
(dp3832
g74
(dp3833
g94
S'color:yellow'
p3834
ssg83
Nsg76
(lp3835
g3705
asbasbasbasbag69
(g85
g71
NtRp3836
(dp3837
g74
(dp3838
sg83
g3814
sg76
(lp3839
g69
(g90
g71
NtRp3840
(dp3841
g74
(dp3842
sg83
g3836
sg76
(lp3843
g69
(g70
g71
NtRp3844
(dp3845
g74
(dp3846
g82
I3
ssg83
g3840
sg76
(lp3847
g112
asbasbasbag69
(g85
g71
NtRp3848
(dp3849
g74
(dp3850
sg83
g3814
sg76
(lp3851
g69
(g90
g71
NtRp3852
(dp3853
g74
(dp3854
sg83
g3848
sg76
(lp3855
g69
(g70
g71
NtRp3856
(dp3857
g74
(dp3858
g82
I3
ssg83
g3852
sg76
(lp3859
S'None'
p3860
asbasbasbag69
(g85
g71
NtRp3861
(dp3862
g74
(dp3863
sg83
g3814
sg76
(lp3864
g69
(g90
g71
NtRp3865
(dp3866
g74
(dp3867
sg83
g3861
sg76
(lp3868
g69
(g70
g71
NtRp3869
(dp3870
g74
(dp3871
g82
I3
ssg83
g3865
sg76
(lp3872
g69
(g78
g71
NtRp3873
(dp3874
g74
(dp3875
g82
I2
ssg83
Nsg76
(lp3876
g69
(g85
g71
NtRp3877
(dp3878
g74
(dp3879
sg83
g3873
sg76
(lp3880
g69
(g90
g71
NtRp3881
(dp3882
g74
(dp3883
sg83
g3877
sg76
(lp3884
g69
(g70
g71
NtRp3885
(dp3886
g74
(dp3887
g82
I2
ssg83
g3881
sg76
(lp3888
g69
(g78
g71
NtRp3889
(dp3890
g74
(dp3891
g82
I1
ssg83
Nsg76
(lp3892
g69
(g85
g71
NtRp3893
(dp3894
g74
(dp3895
sg83
g3889
sg76
(lp3896
g69
(g90
g71
NtRp3897
(dp3898
g74
(dp3899
sg83
g3893
sg76
(lp3900
g69
(g70
g71
NtRp3901
(dp3902
g74
(dp3903
g82
I1
ssg83
g3897
sg76
(lp3904
g3759
(S's\x08\x00\x00\x00My Sites'
tRp3905
asbasbasbag69
(g85
g71
NtRp3906
(dp3907
g74
(dp3908
sg83
g3889
sg76
(lp3909
g69
(g90
g71
NtRp3910
(dp3911
g74
(dp3912
sg83
g3906
sg76
(lp3913
g69
(g70
g71
NtRp3914
(dp3915
g74
(dp3916
g82
I1
ssg83
g3910
sg76
(lp3917
I00
asbasbasbag69
(g85
g71
NtRp3918
(dp3919
g74
(dp3920
sg83
g3889
sg76
(lp3921
g69
(g90
g71
NtRp3922
(dp3923
g74
(dp3924
sg83
g3918
sg76
(lp3925
g69
(g70
g71
NtRp3926
(dp3927
g74
(dp3928
g82
I1
ssg83
g3922
sg76
(lp3929
S'/admin/default/site'
p3930
asbasbasbasbasbasbasbag69
(g85
g71
NtRp3931
(dp3932
g74
(dp3933
sg83
g3873
sg76
(lp3934
g69
(g90
g71
NtRp3935
(dp3936
g74
(dp3937
sg83
g3931
sg76
(lp3938
g69
(g70
g71
NtRp3939
(dp3940
g74
(dp3941
g82
I2
ssg83
g3935
sg76
(lp3942
g69
(g78
g71
NtRp3943
(dp3944
g74
(dp3945
g82
I1
ssg83
Nsg76
(lp3946
g69
(g85
g71
NtRp3947
(dp3948
g74
(dp3949
sg83
g3943
sg76
(lp3950
g69
(g90
g71
NtRp3951
(dp3952
g74
(dp3953
sg83
g3947
sg76
(lp3954
g69
(g70
g71
NtRp3955
(dp3956
g74
(dp3957
g82
I1
ssg83
g3951
sg76
(lp3958
g3759
(S's\x08\x00\x00\x00This App'
tRp3959
asbasbasbag69
(g85
g71
NtRp3960
(dp3961
g74
(dp3962
sg83
g3943
sg76
(lp3963
g69
(g90
g71
NtRp3964
(dp3965
g74
(dp3966
sg83
g3960
sg76
(lp3967
g69
(g70
g71
NtRp3968
(dp3969
g74
(dp3970
g82
I1
ssg83
g3964
sg76
(lp3971
I00
asbasbasbag69
(g85
g71
NtRp3972
(dp3973
g74
(dp3974
sg83
g3943
sg76
(lp3975
g69
(g90
g71
NtRp3976
(dp3977
g74
(dp3978
sg83
g3972
sg76
(lp3979
g69
(g70
g71
NtRp3980
(dp3981
g74
(dp3982
g82
I1
ssg83
g3976
sg76
(lp3983
S'/admin/default/design/igor'
p3984
asbasbasbag69
(g85
g71
NtRp3985
(dp3986
g74
(dp3987
sg83
g3943
sg76
(lp3988
g69
(g90
g71
NtRp3989
(dp3990
g74
(dp3991
sg83
g3985
sg76
(lp3992
g69
(g70
g71
NtRp3993
(dp3994
g74
(dp3995
g82
I1
ssg83
g3989
sg76
(lp3996
(lp3997
(g3759
(S't\n\x00\x00\x00Controller'
tRp3998
I00
S'/admin/default/edit/igor/controllers/class_subject.py'
tp3999
a(g3759
(S't\x04\x00\x00\x00View'
tRp4000
I00
S'/admin/default/edit/igor/views/class_subject/call.html'
tp4001
a(g3759
(S't\x06\x00\x00\x00Layout'
tRp4002
I00
S'/admin/default/edit/igor/views/layout.html'
tp4003
a(g3759
(S't\n\x00\x00\x00Stylesheet'
tRp4004
I00
S'/admin/default/edit/igor/static/css/web2py.css'
tp4005
a(g3759
(S's\x08\x00\x00\x00DB Model'
tRp4006
I00
S'/admin/default/edit/igor/models/db.py'
tp4007
a(g3759
(S's\n\x00\x00\x00Menu Model'
tRp4008
I00
S'/admin/default/edit/igor/models/menu.py'
tp4009
a(g3759
(S't\x08\x00\x00\x00Database'
tRp4010
I00
S'/igor/appadmin/index'
tp4011
a(g3759
(S't\x06\x00\x00\x00Errors'
tRp4012
I00
S'/admin/default/errors/igor'
tp4013
a(g3759
(S't\x05\x00\x00\x00About'
tRp4014
I00
S'/admin/default/about/igor'
tp4015
aasbasbasbasbasbasbasbag69
(g85
g71
NtRp4016
(dp4017
g74
(dp4018
sg83
g3873
sg76
(lp4019
g69
(g90
g71
NtRp4020
(dp4021
g74
(dp4022
sg83
g4016
sg76
(lp4023
g69
(g70
g71
NtRp4024
(dp4025
g74
(dp4026
g82
I2
ssg83
g4020
sg76
(lp4027
g69
(g78
g71
NtRp4028
(dp4029
g74
(dp4030
g82
I1
ssg83
Nsg76
(lp4031
g69
(g85
g71
NtRp4032
(dp4033
g74
(dp4034
sg83
g4028
sg76
(lp4035
g69
(g90
g71
NtRp4036
(dp4037
g74
(dp4038
sg83
g4032
sg76
(lp4039
g69
(g70
g71
NtRp4040
(dp4041
g74
(dp4042
g82
I1
ssg83
g4036
sg76
(lp4043
S'web2py.com'
p4044
asbasbasbag69
(g85
g71
NtRp4045
(dp4046
g74
(dp4047
sg83
g4028
sg76
(lp4048
g69
(g90
g71
NtRp4049
(dp4050
g74
(dp4051
sg83
g4045
sg76
(lp4052
g69
(g70
g71
NtRp4053
(dp4054
g74
(dp4055
g82
I1
ssg83
g4049
sg76
(lp4056
I00
asbasbasbag69
(g85
g71
NtRp4057
(dp4058
g74
(dp4059
sg83
g4028
sg76
(lp4060
g69
(g90
g71
NtRp4061
(dp4062
g74
(dp4063
sg83
g4057
sg76
(lp4064
g69
(g70
g71
NtRp4065
(dp4066
g74
(dp4067
g82
I1
ssg83
g4061
sg76
(lp4068
S'http://www.web2py.com'
p4069
asbasbasbag69
(g85
g71
NtRp4070
(dp4071
g74
(dp4072
sg83
g4028
sg76
(lp4073
g69
(g90
g71
NtRp4074
(dp4075
g74
(dp4076
sg83
g4070
sg76
(lp4077
g69
(g70
g71
NtRp4078
(dp4079
g74
(dp4080
g82
I1
ssg83
g4074
sg76
(lp4081
(lp4082
(g3759
(S't\x08\x00\x00\x00Download'
tRp4083
I00
S'http://www.web2py.com/examples/default/download'
p4084
tp4085
a(g3759
(S't\x07\x00\x00\x00Support'
tRp4086
I00
S'http://www.web2py.com/examples/default/support'
p4087
tp4088
a(g3759
(S't\x04\x00\x00\x00Demo'
tRp4089
I00
S'http://web2py.com/demo_admin'
p4090
tp4091
a(g3759
(S's\x0e\x00\x00\x00Quick Examples'
tRp4092
I00
S'http://web2py.com/examples/default/examples'
p4093
tp4094
a(g3759
(S't\x03\x00\x00\x00FAQ'
tRp4095
I00
S'http://web2py.com/AlterEgo'
p4096
tp4097
a(g3759
(S't\x06\x00\x00\x00Videos'
tRp4098
I00
S'http://www.web2py.com/examples/default/videos/'
p4099
tp4100
a(g3759
(S's\x11\x00\x00\x00Free Applications'
tRp4101
I00
S'http://web2py.com/appliances'
p4102
tp4103
a(g3759
(S't\x07\x00\x00\x00Plugins'
tRp4104
I00
S'http://web2py.com/plugins'
p4105
tp4106
a(g3759
(S't\x07\x00\x00\x00Layouts'
tRp4107
I00
S'http://web2py.com/layouts'
p4108
tp4109
a(g3759
(S't\x07\x00\x00\x00Recipes'
tRp4110
I00
S'http://web2pyslices.com/'
p4111
tp4112
a(g3759
(S't\x08\x00\x00\x00Semantic'
tRp4113
I00
S'http://web2py.com/semantic'
p4114
tp4115
aasbasbasbasbasbasbasbag69
(g85
g71
NtRp4116
(dp4117
g74
(dp4118
sg83
g3873
sg76
(lp4119
g69
(g90
g71
NtRp4120
(dp4121
g74
(dp4122
sg83
g4116
sg76
(lp4123
g69
(g70
g71
NtRp4124
(dp4125
g74
(dp4126
g82
I2
ssg83
g4120
sg76
(lp4127
g69
(g78
g71
NtRp4128
(dp4129
g74
(dp4130
g82
I1
ssg83
Nsg76
(lp4131
g69
(g85
g71
NtRp4132
(dp4133
g74
(dp4134
sg83
g4128
sg76
(lp4135
g69
(g90
g71
NtRp4136
(dp4137
g74
(dp4138
sg83
g4132
sg76
(lp4139
g69
(g70
g71
NtRp4140
(dp4141
g74
(dp4142
g82
I1
ssg83
g4136
sg76
(lp4143
g3759
(S't\r\x00\x00\x00Documentation'
tRp4144
asbasbasbag69
(g85
g71
NtRp4145
(dp4146
g74
(dp4147
sg83
g4128
sg76
(lp4148
g69
(g90
g71
NtRp4149
(dp4150
g74
(dp4151
sg83
g4145
sg76
(lp4152
g69
(g70
g71
NtRp4153
(dp4154
g74
(dp4155
g82
I1
ssg83
g4149
sg76
(lp4156
I00
asbasbasbag69
(g85
g71
NtRp4157
(dp4158
g74
(dp4159
sg83
g4128
sg76
(lp4160
g69
(g90
g71
NtRp4161
(dp4162
g74
(dp4163
sg83
g4157
sg76
(lp4164
g69
(g70
g71
NtRp4165
(dp4166
g74
(dp4167
g82
I1
ssg83
g4161
sg76
(lp4168
S'http://www.web2py.com/book'
p4169
asbasbasbag69
(g85
g71
NtRp4170
(dp4171
g74
(dp4172
sg83
g4128
sg76
(lp4173
g69
(g90
g71
NtRp4174
(dp4175
g74
(dp4176
sg83
g4170
sg76
(lp4177
g69
(g70
g71
NtRp4178
(dp4179
g74
(dp4180
g82
I1
ssg83
g4174
sg76
(lp4181
(lp4182
(g3759
(S't\x07\x00\x00\x00Preface'
tRp4183
I00
S'http://www.web2py.com/book/default/chapter/00'
p4184
tp4185
a(g3759
(S't\x0c\x00\x00\x00Introduction'
tRp4186
I00
S'http://www.web2py.com/book/default/chapter/01'
p4187
tp4188
a(g3759
(S't\x06\x00\x00\x00Python'
tRp4189
I00
S'http://www.web2py.com/book/default/chapter/02'
p4190
tp4191
a(g3759
(S't\x08\x00\x00\x00Overview'
tRp4192
I00
S'http://www.web2py.com/book/default/chapter/03'
p4193
tp4194
a(g3759
(S's\x08\x00\x00\x00The Core'
tRp4195
I00
S'http://www.web2py.com/book/default/chapter/04'
p4196
tp4197
a(g3759
(S's\t\x00\x00\x00The Views'
tRp4198
I00
S'http://www.web2py.com/book/default/chapter/05'
p4199
tp4200
a(g3759
(S't\x08\x00\x00\x00Database'
tRp4201
I00
S'http://www.web2py.com/book/default/chapter/06'
p4202
tp4203
a(g3759
(S's\x14\x00\x00\x00Forms and Validators'
tRp4204
I00
S'http://www.web2py.com/book/default/chapter/07'
p4205
tp4206
a(g3759
(S's\r\x00\x00\x00Email and SMS'
tRp4207
I00
S'http://www.web2py.com/book/default/chapter/08'
p4208
tp4209
a(g3759
(S's\x0e\x00\x00\x00Access Control'
tRp4210
I00
S'http://www.web2py.com/book/default/chapter/09'
p4211
tp4212
a(g3759
(S't\x08\x00\x00\x00Services'
tRp4213
I00
S'http://www.web2py.com/book/default/chapter/10'
p4214
tp4215
a(g3759
(S's\x0c\x00\x00\x00Ajax Recipes'
tRp4216
I00
S'http://www.web2py.com/book/default/chapter/11'
p4217
tp4218
a(g3759
(S's\x16\x00\x00\x00Components and Plugins'
tRp4219
I00
S'http://www.web2py.com/book/default/chapter/12'
p4220
tp4221
a(g3759
(S's\x12\x00\x00\x00Deployment Recipes'
tRp4222
I00
S'http://www.web2py.com/book/default/chapter/13'
p4223
tp4224
a(g3759
(S's\r\x00\x00\x00Other Recipes'
tRp4225
I00
S'http://www.web2py.com/book/default/chapter/14'
p4226
tp4227
a(g3759
(S's\r\x00\x00\x00Buy this book'
tRp4228
I00
S'http://stores.lulu.com/web2py'
p4229
tp4230
aasbasbasbasbasbasbasbag69
(g85
g71
NtRp4231
(dp4232
g74
(dp4233
sg83
g3873
sg76
(lp4234
g69
(g90
g71
NtRp4235
(dp4236
g74
(dp4237
sg83
g4231
sg76
(lp4238
g69
(g70
g71
NtRp4239
(dp4240
g74
(dp4241
g82
I2
ssg83
g4235
sg76
(lp4242
g69
(g78
g71
NtRp4243
(dp4244
g74
(dp4245
g82
I1
ssg83
Nsg76
(lp4246
g69
(g85
g71
NtRp4247
(dp4248
g74
(dp4249
sg83
g4243
sg76
(lp4250
g69
(g90
g71
NtRp4251
(dp4252
g74
(dp4253
sg83
g4247
sg76
(lp4254
g69
(g70
g71
NtRp4255
(dp4256
g74
(dp4257
g82
I1
ssg83
g4251
sg76
(lp4258
g3759
(S't\t\x00\x00\x00Community'
tRp4259
asbasbasbag69
(g85
g71
NtRp4260
(dp4261
g74
(dp4262
sg83
g4243
sg76
(lp4263
g69
(g90
g71
NtRp4264
(dp4265
g74
(dp4266
sg83
g4260
sg76
(lp4267
g69
(g70
g71
NtRp4268
(dp4269
g74
(dp4270
g82
I1
ssg83
g4264
sg76
(lp4271
I00
asbasbasbag69
(g85
g71
NtRp4272
(dp4273
g74
(dp4274
sg83
g4243
sg76
(lp4275
g69
(g90
g71
NtRp4276
(dp4277
g74
(dp4278
sg83
g4272
sg76
(lp4279
g69
(g70
g71
NtRp4280
(dp4281
g74
(dp4282
g82
I1
ssg83
g4276
sg76
(lp4283
Nasbasbasbag69
(g85
g71
NtRp4284
(dp4285
g74
(dp4286
sg83
g4243
sg76
(lp4287
g69
(g90
g71
NtRp4288
(dp4289
g74
(dp4290
sg83
g4284
sg76
(lp4291
g69
(g70
g71
NtRp4292
(dp4293
g74
(dp4294
g82
I1
ssg83
g4288
sg76
(lp4295
(lp4296
(g3759
(S't\x06\x00\x00\x00Groups'
tRp4297
I00
S'http://www.web2py.com/examples/default/usergroups'
p4298
tp4299
a(g3759
(S't\x07\x00\x00\x00Twitter'
tRp4300
I00
S'http://twitter.com/web2py'
p4301
tp4302
a(g3759
(S's\t\x00\x00\x00Live Chat'
tRp4303
I00
S'http://webchat.freenode.net/?channels=web2py'
p4304
tp4305
aasbasbasbasbasbasbasbag69
(g85
g71
NtRp4306
(dp4307
g74
(dp4308
sg83
g3873
sg76
(lp4309
g69
(g90
g71
NtRp4310
(dp4311
g74
(dp4312
sg83
g4306
sg76
(lp4313
g69
(g70
g71
NtRp4314
(dp4315
g74
(dp4316
g82
I2
ssg83
g4310
sg76
(lp4317
g69
(g78
g71
NtRp4318
(dp4319
g74
(dp4320
g82
I1
ssg83
Nsg76
(lp4321
g69
(g85
g71
NtRp4322
(dp4323
g74
(dp4324
sg83
g4318
sg76
(lp4325
g69
(g90
g71
NtRp4326
(dp4327
g74
(dp4328
sg83
g4322
sg76
(lp4329
g69
(g70
g71
NtRp4330
(dp4331
g74
(dp4332
g82
I1
ssg83
g4326
sg76
(lp4333
g3759
(S't\x07\x00\x00\x00Plugins'
tRp4334
asbasbasbag69
(g85
g71
NtRp4335
(dp4336
g74
(dp4337
sg83
g4318
sg76
(lp4338
g69
(g90
g71
NtRp4339
(dp4340
g74
(dp4341
sg83
g4335
sg76
(lp4342
g69
(g70
g71
NtRp4343
(dp4344
g74
(dp4345
g82
I1
ssg83
g4339
sg76
(lp4346
I00
asbasbasbag69
(g85
g71
NtRp4347
(dp4348
g74
(dp4349
sg83
g4318
sg76
(lp4350
g69
(g90
g71
NtRp4351
(dp4352
g74
(dp4353
sg83
g4347
sg76
(lp4354
g69
(g70
g71
NtRp4355
(dp4356
g74
(dp4357
g82
I1
ssg83
g4351
sg76
(lp4358
Nasbasbasbag69
(g85
g71
NtRp4359
(dp4360
g74
(dp4361
sg83
g4318
sg76
(lp4362
g69
(g90
g71
NtRp4363
(dp4364
g74
(dp4365
sg83
g4359
sg76
(lp4366
g69
(g70
g71
NtRp4367
(dp4368
g74
(dp4369
g82
I1
ssg83
g4363
sg76
(lp4370
(lp4371
(S'plugin_wiki'
p4372
I00
S'http://web2py.com/examples/default/download'
p4373
tp4374
a(g3759
(S's\r\x00\x00\x00Other Plugins'
tRp4375
I00
g4105
tp4376
a(g3759
(S's\x0e\x00\x00\x00Layout Plugins'
tRp4377
I00
g4108
tp4378
aasbasbasbasbasbasbasbasbasbasbasbasbasbasbasbasbasbasbasbag69
(g85
g71
NtRp4379
(dp4380
g74
(dp4381
sg83
g3203
sg76
(lp4382
g69
(g90
g71
NtRp4383
(dp4384
g74
(dp4385
g94
g95
ssg83
g4379
sg76
(lp4386
S'meta'
p4387
asbag69
(g90
g71
NtRp4388
(dp4389
g74
(dp4390
g101
g102
ssg83
g4379
sg76
(lp4391
S':'
asbag69
(g90
g71
NtRp4392
(dp4393
g74
(dp4394
sg83
g4379
sg76
(lp4395
g69
(g70
g71
NtRp4396
(dp4397
g74
(dp4398
g82
I5
ssg83
g4392
sg76
(lp4399
g69
(g78
g71
NtRp4400
(dp4401
g74
(dp4402
g82
I4
ssg83
Nsg76
(lp4403
g69
(g85
g71
NtRp4404
(dp4405
g74
(dp4406
sg83
g4400
sg76
(lp4407
g69
(g90
g71
NtRp4408
(dp4409
g74
(dp4410
g94
g95
ssg83
g4404
sg76
(lp4411
S'author'
p4412
asbag69
(g90
g71
NtRp4413
(dp4414
g74
(dp4415
g101
g102
ssg83
g4404
sg76
(lp4416
S':'
asbag69
(g90
g71
NtRp4417
(dp4418
g74
(dp4419
sg83
g4404
sg76
(lp4420
g69
(g70
g71
NtRp4421
(dp4422
g74
(dp4423
g82
I4
ssg83
g4417
sg76
(lp4424
S'Your Name <you@example.com>'
p4425
asbasbasbag69
(g85
g71
NtRp4426
(dp4427
g74
(dp4428
sg83
g4400
sg76
(lp4429
g69
(g90
g71
NtRp4430
(dp4431
g74
(dp4432
g94
g95
ssg83
g4426
sg76
(lp4433
S'copyright'
p4434
asbag69
(g90
g71
NtRp4435
(dp4436
g74
(dp4437
g101
g102
ssg83
g4426
sg76
(lp4438
S':'
asbag69
(g90
g71
NtRp4439
(dp4440
g74
(dp4441
sg83
g4426
sg76
(lp4442
g69
(g70
g71
NtRp4443
(dp4444
g74
(dp4445
g82
I4
ssg83
g4439
sg76
(lp4446
S'Copyright 2011'
p4447
asbasbasbag69
(g85
g71
NtRp4448
(dp4449
g74
(dp4450
sg83
g4400
sg76
(lp4451
g69
(g90
g71
NtRp4452
(dp4453
g74
(dp4454
g94
g95
ssg83
g4448
sg76
(lp4455
S'description'
p4456
asbag69
(g90
g71
NtRp4457
(dp4458
g74
(dp4459
g101
g102
ssg83
g4448
sg76
(lp4460
S':'
asbag69
(g90
g71
NtRp4461
(dp4462
g74
(dp4463
sg83
g4448
sg76
(lp4464
g69
(g70
g71
NtRp4465
(dp4466
g74
(dp4467
g82
I4
ssg83
g4461
sg76
(lp4468
S'a cool new app'
p4469
asbasbasbag69
(g85
g71
NtRp4470
(dp4471
g74
(dp4472
sg83
g4400
sg76
(lp4473
g69
(g90
g71
NtRp4474
(dp4475
g74
(dp4476
g94
g95
ssg83
g4470
sg76
(lp4477
S'generator'
p4478
asbag69
(g90
g71
NtRp4479
(dp4480
g74
(dp4481
g101
g102
ssg83
g4470
sg76
(lp4482
S':'
asbag69
(g90
g71
NtRp4483
(dp4484
g74
(dp4485
sg83
g4470
sg76
(lp4486
g69
(g70
g71
NtRp4487
(dp4488
g74
(dp4489
g82
I4
ssg83
g4483
sg76
(lp4490
S'Web2py Web Framework'
p4491
asbasbasbag69
(g85
g71
NtRp4492
(dp4493
g74
(dp4494
sg83
g4400
sg76
(lp4495
g69
(g90
g71
NtRp4496
(dp4497
g74
(dp4498
g94
g95
ssg83
g4492
sg76
(lp4499
S'keywords'
p4500
asbag69
(g90
g71
NtRp4501
(dp4502
g74
(dp4503
g101
g102
ssg83
g4492
sg76
(lp4504
S':'
asbag69
(g90
g71
NtRp4505
(dp4506
g74
(dp4507
sg83
g4492
sg76
(lp4508
g69
(g70
g71
NtRp4509
(dp4510
g74
(dp4511
g82
I4
ssg83
g4505
sg76
(lp4512
S'web2py, python, framework'
p4513
asbasbasbasbasbasbasbag69
(g85
g71
NtRp4514
(dp4515
g74
(dp4516
sg83
g3203
sg76
(lp4517
g69
(g90
g71
NtRp4518
(dp4519
g74
(dp4520
g94
g95
ssg83
g4514
sg76
(lp4521
S'postprocessing'
p4522
asbag69
(g90
g71
NtRp4523
(dp4524
g74
(dp4525
g101
g102
ssg83
g4514
sg76
(lp4526
S':'
asbag69
(g90
g71
NtRp4527
(dp4528
g74
(dp4529
sg83
g4514
sg76
(lp4530
g69
(g70
g71
NtRp4531
(dp4532
g74
(dp4533
g82
I5
ssg83
g4527
sg76
(lp4534
g69
(g78
g71
NtRp4535
(dp4536
g74
(dp4537
g82
I4
ssg83
Nsg76
(lp4538
sbasbasbasbag69
(g85
g71
NtRp4539
(dp4540
g74
(dp4541
sg83
g3203
sg76
(lp4542
g69
(g90
g71
NtRp4543
(dp4544
g74
(dp4545
g94
g95
ssg83
g4539
sg76
(lp4546
S'session_filename'
p4547
asbag69
(g90
g71
NtRp4548
(dp4549
g74
(dp4550
g101
g102
ssg83
g4539
sg76
(lp4551
S':'
asbag69
(g90
g71
NtRp4552
(dp4553
g74
(dp4554
sg83
g4539
sg76
(lp4555
g69
(g70
g71
NtRp4556
(dp4557
g74
(dp4558
g82
I5
ssg83
g4552
sg76
(lp4559
S'D:\\workspace\\ca\\IgoR\\C_Sources\\Server\\igor-assistant-ca-2012\\applications\\igor\\sessions\\127.0.0.1-29176629-d088-4aa3-ba0c-b35ceb33a014'
p4560
asbasbasbag69
(g85
g71
NtRp4561
(dp4562
g74
(dp4563
sg83
g3203
sg76
(lp4564
g69
(g90
g71
NtRp4565
(dp4566
g74
(dp4567
g94
g95
ssg83
g4561
sg76
(lp4568
S'session_id'
p4569
asbag69
(g90
g71
NtRp4570
(dp4571
g74
(dp4572
g101
g102
ssg83
g4561
sg76
(lp4573
S':'
asbag69
(g90
g71
NtRp4574
(dp4575
g74
(dp4576
sg83
g4561
sg76
(lp4577
g69
(g70
g71
NtRp4578
(dp4579
g74
(dp4580
g82
I5
ssg83
g4574
sg76
(lp4581
S'127.0.0.1-29176629-d088-4aa3-ba0c-b35ceb33a014'
p4582
asbasbasbag69
(g85
g71
NtRp4583
(dp4584
g74
(dp4585
sg83
g3203
sg76
(lp4586
g69
(g90
g71
NtRp4587
(dp4588
g74
(dp4589
g94
g95
ssg83
g4583
sg76
(lp4590
S'session_id_name'
p4591
asbag69
(g90
g71
NtRp4592
(dp4593
g74
(dp4594
g101
g102
ssg83
g4583
sg76
(lp4595
S':'
asbag69
(g90
g71
NtRp4596
(dp4597
g74
(dp4598
sg83
g4583
sg76
(lp4599
g69
(g70
g71
NtRp4600
(dp4601
g74
(dp4602
g82
I5
ssg83
g4596
sg76
(lp4603
g3260
asbasbasbag69
(g85
g71
NtRp4604
(dp4605
g74
(dp4606
sg83
g3203
sg76
(lp4607
g69
(g90
g71
NtRp4608
(dp4609
g74
(dp4610
g94
g95
ssg83
g4604
sg76
(lp4611
S'session_new'
p4612
asbag69
(g90
g71
NtRp4613
(dp4614
g74
(dp4615
g101
g102
ssg83
g4604
sg76
(lp4616
S':'
asbag69
(g90
g71
NtRp4617
(dp4618
g74
(dp4619
sg83
g4604
sg76
(lp4620
g69
(g70
g71
NtRp4621
(dp4622
g74
(dp4623
g82
I5
ssg83
g4617
sg76
(lp4624
g1730
asbasbasbag69
(g85
g71
NtRp4625
(dp4626
g74
(dp4627
sg83
g3203
sg76
(lp4628
g69
(g90
g71
NtRp4629
(dp4630
g74
(dp4631
g94
g95
ssg83
g4625
sg76
(lp4632
S'status'
p4633
asbag69
(g90
g71
NtRp4634
(dp4635
g74
(dp4636
g101
g102
ssg83
g4625
sg76
(lp4637
S':'
asbag69
(g90
g71
NtRp4638
(dp4639
g74
(dp4640
sg83
g4625
sg76
(lp4641
g69
(g70
g71
NtRp4642
(dp4643
g74
(dp4644
g82
I5
ssg83
g4638
sg76
(lp4645
S'200'
p4646
asbasbasbag69
(g85
g71
NtRp4647
(dp4648
g74
(dp4649
sg83
g3203
sg76
(lp4650
g69
(g90
g71
NtRp4651
(dp4652
g74
(dp4653
g94
g95
ssg83
g4647
sg76
(lp4654
S'subtitle'
p4655
asbag69
(g90
g71
NtRp4656
(dp4657
g74
(dp4658
g101
g102
ssg83
g4647
sg76
(lp4659
S':'
asbag69
(g90
g71
NtRp4660
(dp4661
g74
(dp4662
sg83
g4647
sg76
(lp4663
g69
(g70
g71
NtRp4664
(dp4665
g74
(dp4666
g82
I5
ssg83
g4660
sg76
(lp4667
g3759
(S's\r\x00\x00\x00customize me!'
tRp4668
asbasbasbag69
(g85
g71
NtRp4669
(dp4670
g74
(dp4671
sg83
g3203
sg76
(lp4672
g69
(g90
g71
NtRp4673
(dp4674
g74
(dp4675
g94
g95
ssg83
g4669
sg76
(lp4676
S'title'
p4677
asbag69
(g90
g71
NtRp4678
(dp4679
g74
(dp4680
g101
g102
ssg83
g4669
sg76
(lp4681
S':'
asbag69
(g90
g71
NtRp4682
(dp4683
g74
(dp4684
sg83
g4669
sg76
(lp4685
g69
(g70
g71
NtRp4686
(dp4687
g74
(dp4688
g82
I5
ssg83
g4682
sg76
(lp4689
S'Igor'
p4690
asbasbasbag69
(g85
g71
NtRp4691
(dp4692
g74
(dp4693
sg83
g3203
sg76
(lp4694
g69
(g90
g71
NtRp4695
(dp4696
g74
(dp4697
g94
g95
ssg83
g4691
sg76
(lp4698
g2449
asbag69
(g90
g71
NtRp4699
(dp4700
g74
(dp4701
g101
g102
ssg83
g4691
sg76
(lp4702
S':'
asbag69
(g90
g71
NtRp4703
(dp4704
g74
(dp4705
sg83
g4691
sg76
(lp4706
g69
(g70
g71
NtRp4707
(dp4708
g74
(dp4709
g82
I5
ssg83
g4703
sg76
(lp4710
g2462
asbasbasbag69
(g85
g71
NtRp4711
(dp4712
g74
(dp4713
sg83
g3203
sg76
(lp4714
g69
(g90
g71
NtRp4715
(dp4716
g74
(dp4717
g94
g95
ssg83
g4711
sg76
(lp4718
S'view'
p4719
asbag69
(g90
g71
NtRp4720
(dp4721
g74
(dp4722
g101
g102
ssg83
g4711
sg76
(lp4723
S':'
asbag69
(g90
g71
NtRp4724
(dp4725
g74
(dp4726
sg83
g4711
sg76
(lp4727
g69
(g70
g71
NtRp4728
(dp4729
g74
(dp4730
g82
I5
ssg83
g4724
sg76
(lp4731
S'class_subject/call.html'
p4732
asbasbasbasbasbsS'locals'
p4733
(dp4734
g4
S"r'D:\\workspace\\ca\\IgoR\\C_Sources\\Server\\igor-assis...12\\applications\\igor\\controllers/class_subject.py'"
p4735
sg6
S"'# -*- coding: utf-8 -*-\\n# this file is released ...urn client\\nresponse._vars=response._caller(call)\\n'"
p4736
sssS'traceback'
p4737
S'Traceback (most recent call last):\n  File "D:\\workspace\\ca\\IgoR\\C_Sources\\Server\\igor-assistant-ca-2012\\gluon\\restricted.py", line 204, in restricted\n    ccode = compile2(code,layer)\n  File "D:\\workspace\\ca\\IgoR\\C_Sources\\Server\\igor-assistant-ca-2012\\gluon\\restricted.py", line 189, in compile2\n    return compile(code.rstrip().replace(\'\\r\\n\',\'\\n\')+\'\\n\', layer, \'exec\')\n  File "D:\\workspace\\ca\\IgoR\\C_Sources\\Server\\igor-assistant-ca-2012\\applications\\igor\\controllers/class_subject.py", line 86\n    response.headers[\'Content-Type\']=gluon.contenttype.contenttype(\'.js\')\n                                                                        ^\nIndentationError: unindent does not match any outer indentation level\n'
p4738
s.