(dp1
S'output'
p2
S"<type 'exceptions.IndentationError'> expected an indented block (controllers/jobs.py, line 249)"
p3
sS'layer'
p4
S'D:\\workspace\\ca\\IgoR\\C_Sources\\Server\\igor-assistant-ca-2012\\applications\\igor\\controllers/jobs.py'
p5
sS'code'
p6
S'# -*- coding: utf-8 -*-\n# this file is released under public domain and you can use without limitations\n\n#########################################################################\n## This is jobs controller\n## Author: phucnh, tuna\n#########################################################################\n\nfrom message_packager import *\nfrom gluon.dal import Rows\nfrom igor_time import *\n\n@request.restful()\ndef get_jobs_by_class():\n\tresponse.view = \'generic.json\'\n\tdef GET(user_id, class_id):\n\n\t\t# Validate input \n\t\tif (not user_id.isdigit()):\n\t\t\treturn MessagePackager.get_packaged_message (\n\t\t\t\tMessageStatus.ERROR, \n\t\t\t\t"use id must be numberic")\n\n\t\tif (int (user_id) < 0):\n\t\t\treturn MessagePackager.get_packaged_message (\n\t\t\t\tMessageStatus.ERROR, \n\t\t\t\t"user id can not less than 0")\n\n\t\tif (not class_id.isdigit()):\n\t\t\treturn MessagePackager.get_packaged_message (\n\t\t\t\tMessageStatus.ERROR, \n\t\t\t\t"class id must be numberic")\n\n\t\tif (int (class_id) < 0):\n\t\t\treturn MessagePackager.get_packaged_message (\n\t\t\t\tMessageStatus.ERROR, \n\t\t\t\t"class id can not less than 0")\n\n\n\t\tjobs = db(\n\t\t\tdb.job.owner == user_id and\n\t\t\tdb.job.class_subject == class_id).select()\n\n\t\treturn MessagePackager.get_packaged_message(MessageStatus.OK, jobs)\n\n\treturn locals()\t\n\n@request.restful()\ndef get_jobs_detail():\n\tresponse.view = \'generic.json\'\n\tdef GET(job_id):\n\n\t\t#validate input\n\t\tif (not job_id.isdigit()):\n\t\t\treturn MessagePackager.get_packaged_message (\n\t\t\t\tMessageStatus.ERROR, \n\t\t\t\t"job id must be numberic")\n\n\t\tif (int (job_id) < 0):\n\t\t\treturn MessagePackager.get_packaged_message (\n\t\t\t\tMessageStatus.ERROR, \n\t\t\t\t"job id can not less than 0")\n\n\t\tjob = db(\n\t\t\tdb.job.id == job_id).select() \n\n\t\t# job = format_client_data(job)\n\n\t\treturn MessagePackager.get_packaged_message(MessageStatus.OK, job)\n\n\treturn locals()\t\n\n\n@request.restful()\ndef add_class_job():\n\tresponse.view = \'generic.json\'\n\tdef GET(user_id, name, start_time, end_time, job_type, date, \n\t\trepeat_date, note, location, test, class_id):\n\n\t\t# Validate input\n\t\tif (not class_id.isdigit()):\n\t\t\treturn MessagePackager.get_packaged_message (\n\t\t\t\tMessageStatus.ERROR, \n\t\t\t\t"class id must be numberic")\n\n\t\tif (not user_id.isdigit()):\n\t\t\treturn MessagePackager.get_packaged_message (\n\t\t\t\tMessageStatus.ERROR, \n\t\t\t\t"user id must be numberic")\n\t\tif (int (class_id) < 0):\n\t\t\treturn MessagePackager.get_packaged_message (\n\t\t\t\tMessageStatus.ERROR, \n\t\t\t\t"class id can not less than 0")\n\t\tif (int (user_id) < 0):\n\t\t\treturn MessagePackager.get_packaged_message (\n\t\t\t\tMessageStatus.ERROR, \n\t\t\t\t"user id can not less than 0")\n\n\t\t# Insert new data\n\t\ttry:\n\t\t\tjob_id = db.job.insert(\n\t\t\towner = user_id,\n\t\t\tname = name,\n\t\t\tstart_time = start_time,\n\t\t\tend_time = end_time,\n\t\t\tjob_type = job_type,\n\t\t\tdate = date, ### Tuna input ????\n\t\t\trepeat_date = repeat_date,\n\t\t\tnote = note,\n\t\t\tlocation = location,\n\t\t\ttest = test,\n\t\t\tclass_subject = class_id)\n\n\t\texcept Exception, err:\n\t\t\treturn MessagePackager.get_packaged_message(MessageStatus.ERROR, str (err) )\n\n\t\treturn MessagePackager.get_packaged_message(MessageStatus.OK, job_id)\n\n\treturn locals()\n\n@request.restful()\ndef delete_job():\n\tresponse.view = \'generic.json\'\n\tdef GET(job_id):\n\n\t\t#validate input\n\t\tif (not job_id.isdigit()):\n\t\t\treturn MessagePackager.get_packaged_message (\n\t\t\t\tMessageStatus.ERROR, \n\t\t\t\t"job id must be numberic")\n\n\t\tif (int (job_id) < 0):\n\t\t\treturn MessagePackager.get_packaged_message (\n\t\t\t\tMessageStatus.ERROR, \n\t\t\t\t"job id can not less than 0")\n\n\t\ttry:\n\t\t\tjob_id = db(db.job.id == job_id).delete()\n\t\texcept Exception, err:\n\t\t\treturn MessagePackager.get_packaged_message(MessageStatus.ERROR, str (err) )\n\t\t\n\n\t\treturn MessagePackager.get_packaged_message(MessageStatus.OK, job_id)\n\n\treturn locals()\n\n@request.restful()\ndef mark_job_finished():\n\tresponse.view = \'generic.json\'\n\tdef GET(job_id):\n\n\t\t#validate input\n\t\tif (not job_id.isdigit()):\n\t\t\treturn MessagePackager.get_packaged_message (\n\t\t\t\tMessageStatus.ERROR, \n\t\t\t\t"job id must be numberic")\n\n\t\tif (int (job_id) < 0):\n\t\t\treturn MessagePackager.get_packaged_message (\n\t\t\t\tMessageStatus.ERROR, \n\t\t\t\t"job id can not less than 0")\n\n\t\t#update data\n\t\ttry:\n\t\t\trow = db(db.job.id == job_id).update(status = 1)\n\t\texcept Exception, err:\n\t\t\treturn MessagePackager.get_packaged_message(MessageStatus.ERROR, str (err) )\n\t\t# row.update_record(status = 1)\n\n\t\treturn MessagePackager.get_packaged_message(MessageStatus.OK, "Done")\n\treturn locals()\n\n@request.restful()\ndef mark_jobs_finished():\n\tresponse.view = \'generic.json\'\n\tdef GET(*job_ids):\n\n\t\t#update data\n\t\ttry:\n\t\t\tfor job_id in job_ids:\n\t\t\t\t#validate input\n\t\t\t\tif (not job_id.isdigit()):\n\t\t\t\t\traise Exception(\'job id must be numberic\')\n\t\t\t\t\t# return MessagePackager.get_packaged_message (\n\t\t\t\t\t# MessageStatus.ERROR, \n\t\t\t\t\t# "job id must be numberic")\n\n\t\t\t\tif (int (job_id) < 0):\n\t\t\t\t\traise Exception(\'job id can not less than 0\')\n\t\t\t\t\t# return MessagePackager.get_packaged_message (\n\t\t\t\t\t# MessageStatus.ERROR, \n\t\t\t\t\t# "job id can not less than 0")\n\t\t\t\n\t\t\t\trow = db(db.job.id == job_id).update(status = 1)\n\t\t\t\t\t\n\t\texcept Exception, err:\n\t\t\tdb.rollback()\n\t\t\treturn MessagePackager.get_packaged_message(MessageStatus.ERROR, str (err) )\n\n\t\treturn MessagePackager.get_packaged_message(MessageStatus.OK, "Done")\n\n\treturn locals()\n\n\n@request.restful()\ndef accept_job():\n\tresponse.view = \'generic.json\'\n\tdef GET(job_id, owner, from_user):\n\n\t\t## validate input\n\t\tif (not job_id.isdigit()):\n\t\t\treturn MessagePackager.get_packaged_message (\n\t\t\tMessageStatus.ERROR,\n\t\t\t"job id must be numberic")\n\n\t\tif (int (job_id) < 0):\n\t\t\treturn MessagePackager.get_packaged_message (\n\t\t\tMessageStatus.ERROR, \n\t\t\t"job id can not less than 0")\n\t\tif (not owner.isdigit()):\n\t\t\treturn MessagePackager.get_packaged_message (\n\t\t\tMessageStatus.ERROR,\n\t\t\t"user id must be numberic")\n\n\t\tif (int (owner) < 0):\n\t\t\treturn MessagePackager.get_packaged_message (\n\t\t\tMessageStatus.ERROR, \n\t\t\t"user id can not less than 0")\n\t\tif (not from_user.isdigit()):\n\t\t\treturn MessagePackager.get_packaged_message (\n\t\t\tMessageStatus.ERROR,\n\t\t\t"user id must be numberic")\n\n\t\tif (int (from_user) < 0):\n\t\t\treturn MessagePackager.get_packaged_message (\n\t\t\tMessageStatus.ERROR, \n\t\t\t"user id can not less than 0")\n\n\t\t##\n\t\trows = db(db.notification.owner == from_user).select()\n\t\tcheck = False\n\t\tfor row in rows:\n\t\t\tif (row.is_read == True):\n\t\t\t\tcheck = True\n\t\t\t\tbreak\n\n\t\tif (check):\n\t\t#\tadd_class_job() ### Tuna input???\n\t\telse:\n\t\t\treturn MessagePackager.get_packaged_message(MessageStatus.ERROR,\n\t\t\t "can not accept job: notification is not checked")\n\n\treturn locals()\n\n@request.restful()\ndef share_job_to_class():\n\tresponse.view = \'generic.json\'\n\tdef GET(job_id, from_user_id, class_id):\n\n\t\t#validate data\n\t\tif (not job_id.isdigit()):\n\t\t\treturn MessagePackager.get_packaged_message (\n\t\t\tMessageStatus.ERROR,\n\t\t\t"job id must be numberic")\n\n\t\tif (int (job_id) < 0):\n\t\t\treturn MessagePackager.get_packaged_message (\n\t\t\tMessageStatus.ERROR, \n\t\t\t"job id can not less than 0")\n\t\tif (not from_user_id.isdigit()):\n\t\t\treturn MessagePackager.get_packaged_message (\n\t\t\tMessageStatus.ERROR,\n\t\t\t"user id must be numberic")\n\n\t\tif (int (from_user_id) < 0):\n\t\t\treturn MessagePackager.get_packaged_message (\n\t\t\tMessageStatus.ERROR, \n\t\t\t"user id can not less than 0")\n\t\tif (not class_id.isdigit()):\n\t\t\treturn MessagePackager.get_packaged_message (\n\t\t\tMessageStatus.ERROR,\n\t\t\t"class id must be numberic")\n\n\t\tif (int (class_id) < 0):\n\t\t\treturn MessagePackager.get_packaged_message (\n\t\t\tMessageStatus.ERROR, \n\t\t\t"class id can not less than 0")\n\t\t\n\t\t###\n\n\t\trows = db(db.user.user_course == class_id).select()\n\n\t\tfor row in rows:\n\n\t\t\ttry:\n\t\t\t\tnotification_id = db.notification.insert(\n\t\t\t\tnotification_class = 0,\n\t\t\t\towner = from_user_id,\n\t\t\t\tuser_share = row.id,\n\t\t\t\tis_read = False,\n\t\t\t\ttype = 1,\n\t\t\t\t# date = , ##Tuna - get date ???\n\t\t\t\tis_completed = False\n\t\t\t\t)\n\n\t\t\texcept Exception as e:\n\t\t\t\treturn MessagePackager.get_packaged_message(MessageStatus.ERROR, e.errno + \': \' + e.strerror )\n\n\t\treturn MessagePackager.get_packaged_message(MessageStatus.OK, "Done")\n\n\treturn locals()\n\n\n\n# @request.restful()\n# def share_job_to_project():\n# \tresponse.view = \'generic.json\'\n# \tdef GET(job_id, from_user_id, class_id):\n\n# \t\t#validate data\n# \t\tif (not job_id.isdigit()):\n# \t\t\treturn MessagePackager.get_packaged_message (\n# \t\t\tMessageStatus.ERROR,\n# \t\t\t"job id must be numberic")\n\n# \t\tif (int (job_id) < 0):\n# \t\t\treturn MessagePackager.get_packaged_message (\n# \t\t\tMessageStatus.ERROR, \n# \t\t\t"job id can not less than 0")\n# \t\tif (not from_user_id.isdigit()):\n# \t\t\treturn MessagePackager.get_packaged_message (\n# \t\t\tMessageStatus.ERROR,\n# \t\t\t"user id must be numberic")\n\n# \t\tif (int (from_user_id) < 0):\n# \t\t\treturn MessagePackager.get_packaged_message (\n# \t\t\tMessageStatus.ERROR, \n# \t\t\t"user id can not less than 0")\n# \t\tif (not class_id.isdigit()):\n# \t\t\treturn MessagePackager.get_packaged_message (\n# \t\t\tMessageStatus.ERROR,\n# \t\t\t"class id must be numberic")\n\n# \t\tif (int (class_id) < 0):\n# \t\t\treturn MessagePackager.get_packaged_message (\n# \t\t\tMessageStatus.ERROR, \n# \t\t\t"class id can not less than 0")\n\t\t\n# \t\t###\n\n# \t\trows = db(db.user.user_course == class_id).select()\n\n# \t\tfor row in rows:\n\n# \t\t\ttry:\n# \t\t\t\tnotification_id = db.notification.insert(\n# \t\t\t\tnotification_class = 0,\n# \t\t\t\towner = from_user_id,\n# \t\t\t\tuser_share = row.id,\n# \t\t\t\tis_read = False,\n# \t\t\t\ttype = 1,\n# \t\t\t\tdate = , ##Tuna - get date ???\n# \t\t\t\tis_completed = False\n# \t\t\t\t)\n\n# \t\t\texcept Exception as e:\n# \t\t\t\treturn MessagePackager.get_packaged_message(MessageStatus.ERROR, e.errno + \': \' + e.strerror )\n\n# \t\treturn MessagePackager.get_packaged_message(MessageStatus.OK, "Done")\n\n# \treturn locals()\n\n\n\n\n##############################\n## Format output for client\n##\n##############################\n\ndef format_client_data(job):\n\tif (job == None):\n\t\treturn\n\n\nresponse._vars=response._caller(accept_job)\n'
p7
sS'snapshot'
p8
(dp9
S'exception'
p10
(dp11
S'__getslice__'
p12
S"<method-wrapper '__getslice__' of exceptions.IndentationError object>"
p13
sS'text'
p14
S"'\\t\\telse:\\n'"
p15
sS'__str__'
p16
S"<method-wrapper '__str__' of exceptions.IndentationError object>"
p17
sS'__reduce__'
p18
S'<built-in method __reduce__ of exceptions.IndentationError object>'
p19
sS'__dict__'
p20
S'{}'
p21
sS'__sizeof__'
p22
S'<built-in method __sizeof__ of exceptions.IndentationError object>'
p23
sS'__init__'
p24
S"<method-wrapper '__init__' of exceptions.IndentationError object>"
p25
sS'__setattr__'
p26
S"<method-wrapper '__setattr__' of exceptions.IndentationError object>"
p27
sS'__reduce_ex__'
p28
S'<built-in method __reduce_ex__ of exceptions.IndentationError object>'
p29
sS'__new__'
p30
S'<built-in method __new__ of type object>'
p31
sS'__format__'
p32
S'<built-in method __format__ of exceptions.IndentationError object>'
p33
sS'__class__'
p34
S"<type 'exceptions.IndentationError'>"
p35
sS'filename'
p36
S"r'D:\\workspace\\ca\\IgoR\\C_Sources\\Server\\igor-assistant-ca-2012\\applications\\igor\\controllers/jobs.py'"
p37
sS'lineno'
p38
S'249'
p39
sS'msg'
p40
S"'expected an indented block'"
p41
sS'__doc__'
p42
S"'Improper indentation.'"
p43
sS'__getitem__'
p44
S"<method-wrapper '__getitem__' of exceptions.IndentationError object>"
p45
sS'__setstate__'
p46
S'<built-in method __setstate__ of exceptions.IndentationError object>'
p47
sS'__getattribute__'
p48
S"<method-wrapper '__getattribute__' of exceptions.IndentationError object>"
p49
sS'print_file_and_line'
p50
S'None'
p51
sS'args'
p52
S"('expected an indented block', (r'D:\\workspace\\ca\\IgoR\\C_Sources\\Server\\igor-assistant-ca-2012\\applications\\igor\\controllers/jobs.py', 249, 6, '\\t\\telse:\\n'))"
p53
sS'__subclasshook__'
p54
S'<built-in method __subclasshook__ of type object>'
p55
sS'offset'
p56
S'6'
sS'__unicode__'
p57
S'<built-in method __unicode__ of exceptions.IndentationError object>'
p58
sS'__delattr__'
p59
S"<method-wrapper '__delattr__' of exceptions.IndentationError object>"
p60
sS'__repr__'
p61
S"<method-wrapper '__repr__' of exceptions.IndentationError object>"
p62
sS'__hash__'
p63
S"<method-wrapper '__hash__' of exceptions.IndentationError object>"
p64
ssS'evalue'
p65
S'expected an indented block (controllers/jobs.py, line 249)'
p66
sS'request'
p67
ccopy_reg
_reconstructor
p68
(cgluon.html
BEAUTIFY
p69
c__builtin__
object
p70
NtRp71
(dp72
S'attributes'
p73
(dp74
sS'components'
p75
(lp76
g68
(cgluon.html
TABLE
p77
g70
NtRp78
(dp79
g73
(dp80
S'level'
p81
I5
ssS'parent'
p82
Nsg75
(lp83
g68
(cgluon.html
TR
p84
g70
NtRp85
(dp86
g73
(dp87
sg82
g78
sg75
(lp88
g68
(cgluon.html
TD
p89
g70
NtRp90
(dp91
g73
(dp92
S'_style'
p93
S'font-weight:bold;vertical-align:top'
p94
ssg82
g85
sg75
(lp95
S'ajax'
p96
asbag68
(g89
g70
NtRp97
(dp98
g73
(dp99
S'_valign'
p100
S'top'
p101
ssg82
g85
sg75
(lp102
S':'
asbag68
(g89
g70
NtRp103
(dp104
g73
(dp105
sg82
g85
sg75
(lp106
g68
(g69
g70
NtRp107
(dp108
g73
(dp109
g81
I5
ssg82
g103
sg75
(lp110
S'False'
p111
asbasbasbag68
(g84
g70
NtRp112
(dp113
g73
(dp114
sg82
g78
sg75
(lp115
g68
(g89
g70
NtRp116
(dp117
g73
(dp118
g93
g94
ssg82
g112
sg75
(lp119
S'application'
p120
asbag68
(g89
g70
NtRp121
(dp122
g73
(dp123
g100
g101
ssg82
g112
sg75
(lp124
S':'
asbag68
(g89
g70
NtRp125
(dp126
g73
(dp127
sg82
g112
sg75
(lp128
g68
(g69
g70
NtRp129
(dp130
g73
(dp131
g81
I5
ssg82
g125
sg75
(lp132
S'igor'
p133
asbasbasbag68
(g84
g70
NtRp134
(dp135
g73
(dp136
sg82
g78
sg75
(lp137
g68
(g89
g70
NtRp138
(dp139
g73
(dp140
g93
g94
ssg82
g134
sg75
(lp141
g52
asbag68
(g89
g70
NtRp142
(dp143
g73
(dp144
g100
g101
ssg82
g134
sg75
(lp145
S':'
asbag68
(g89
g70
NtRp146
(dp147
g73
(dp148
sg82
g134
sg75
(lp149
g68
(g69
g70
NtRp150
(dp151
g73
(dp152
g81
I5
ssg82
g146
sg75
(lp153
g68
(g77
g70
NtRp154
(dp155
g73
(dp156
g81
I4
ssg82
Nsg75
(lp157
g68
(g84
g70
NtRp158
(dp159
g73
(dp160
sg82
g154
sg75
(lp161
g68
(g89
g70
NtRp162
(dp163
g73
(dp164
sg82
g158
sg75
(lp165
g68
(g69
g70
NtRp166
(dp167
g73
(dp168
g81
I4
ssg82
g162
sg75
(lp169
S'1'
asbasbasbag68
(g84
g70
NtRp170
(dp171
g73
(dp172
sg82
g154
sg75
(lp173
g68
(g89
g70
NtRp174
(dp175
g73
(dp176
sg82
g170
sg75
(lp177
g68
(g69
g70
NtRp178
(dp179
g73
(dp180
g81
I4
ssg82
g174
sg75
(lp181
S'2'
asbasbasbag68
(g84
g70
NtRp182
(dp183
g73
(dp184
sg82
g154
sg75
(lp185
g68
(g89
g70
NtRp186
(dp187
g73
(dp188
sg82
g182
sg75
(lp189
g68
(g69
g70
NtRp190
(dp191
g73
(dp192
g81
I4
ssg82
g186
sg75
(lp193
S'2'
asbasbasbasbasbasbasbag68
(g84
g70
NtRp194
(dp195
g73
(dp196
sg82
g78
sg75
(lp197
g68
(g89
g70
NtRp198
(dp199
g73
(dp200
g93
g94
ssg82
g194
sg75
(lp201
S'body'
p202
asbag68
(g89
g70
NtRp203
(dp204
g73
(dp205
g100
g101
ssg82
g194
sg75
(lp206
S':'
asbag68
(g89
g70
NtRp207
(dp208
g73
(dp209
sg82
g194
sg75
(lp210
g68
(g69
g70
NtRp211
(dp212
g73
(dp213
g81
I5
ssg82
g207
sg75
(lp214
S'<cStringIO.StringO object at 0x0000000005DCE030>'
p215
asbasbasbag68
(g84
g70
NtRp216
(dp217
g73
(dp218
sg82
g78
sg75
(lp219
g68
(g89
g70
NtRp220
(dp221
g73
(dp222
g93
g94
ssg82
g216
sg75
(lp223
S'client'
p224
asbag68
(g89
g70
NtRp225
(dp226
g73
(dp227
g100
g101
ssg82
g216
sg75
(lp228
S':'
asbag68
(g89
g70
NtRp229
(dp230
g73
(dp231
sg82
g216
sg75
(lp232
g68
(g69
g70
NtRp233
(dp234
g73
(dp235
g81
I5
ssg82
g229
sg75
(lp236
S'127.0.0.1'
p237
asbasbasbag68
(g84
g70
NtRp238
(dp239
g73
(dp240
sg82
g78
sg75
(lp241
g68
(g89
g70
NtRp242
(dp243
g73
(dp244
g93
g94
ssg82
g238
sg75
(lp245
S'controller'
p246
asbag68
(g89
g70
NtRp247
(dp248
g73
(dp249
g100
g101
ssg82
g238
sg75
(lp250
S':'
asbag68
(g89
g70
NtRp251
(dp252
g73
(dp253
sg82
g238
sg75
(lp254
g68
(g69
g70
NtRp255
(dp256
g73
(dp257
g81
I5
ssg82
g251
sg75
(lp258
S'jobs'
p259
asbasbasbag68
(g84
g70
NtRp260
(dp261
g73
(dp262
sg82
g78
sg75
(lp263
g68
(g89
g70
NtRp264
(dp265
g73
(dp266
g93
g94
ssg82
g260
sg75
(lp267
S'cookies'
p268
asbag68
(g89
g70
NtRp269
(dp270
g73
(dp271
g100
g101
ssg82
g260
sg75
(lp272
S':'
asbag68
(g89
g70
NtRp273
(dp274
g73
(dp275
sg82
g260
sg75
(lp276
g68
(g69
g70
NtRp277
(dp278
g73
(dp279
g81
I5
ssg82
g273
sg75
(lp280
g68
(g77
g70
NtRp281
(dp282
g73
(dp283
g81
I4
ssg82
Nsg75
(lp284
g68
(g84
g70
NtRp285
(dp286
g73
(dp287
sg82
g281
sg75
(lp288
g68
(g89
g70
NtRp289
(dp290
g73
(dp291
g93
g94
ssg82
g285
sg75
(lp292
S'session_id_admin'
p293
asbag68
(g89
g70
NtRp294
(dp295
g73
(dp296
g100
g101
ssg82
g285
sg75
(lp297
S':'
asbag68
(g89
g70
NtRp298
(dp299
g73
(dp300
sg82
g285
sg75
(lp301
g68
(g69
g70
NtRp302
(dp303
g73
(dp304
g81
I4
ssg82
g298
sg75
(lp305
g68
(g77
g70
NtRp306
(dp307
g73
(dp308
g81
I3
ssg82
Nsg75
(lp309
g68
(g84
g70
NtRp310
(dp311
g73
(dp312
sg82
g306
sg75
(lp313
g68
(g89
g70
NtRp314
(dp315
g73
(dp316
g93
g94
ssg82
g310
sg75
(lp317
S'comment'
p318
asbag68
(g89
g70
NtRp319
(dp320
g73
(dp321
g100
g101
ssg82
g310
sg75
(lp322
S':'
asbag68
(g89
g70
NtRp323
(dp324
g73
(dp325
sg82
g310
sg75
(lp326
g68
(g69
g70
NtRp327
(dp328
g73
(dp329
g81
I3
ssg82
g323
sg75
(lp330
S''
asbasbasbag68
(g84
g70
NtRp331
(dp332
g73
(dp333
sg82
g306
sg75
(lp334
g68
(g89
g70
NtRp335
(dp336
g73
(dp337
g93
g94
ssg82
g331
sg75
(lp338
S'domain'
p339
asbag68
(g89
g70
NtRp340
(dp341
g73
(dp342
g100
g101
ssg82
g331
sg75
(lp343
S':'
asbag68
(g89
g70
NtRp344
(dp345
g73
(dp346
sg82
g331
sg75
(lp347
g68
(g69
g70
NtRp348
(dp349
g73
(dp350
g81
I3
ssg82
g344
sg75
(lp351
S''
asbasbasbag68
(g84
g70
NtRp352
(dp353
g73
(dp354
sg82
g306
sg75
(lp355
g68
(g89
g70
NtRp356
(dp357
g73
(dp358
g93
g94
ssg82
g352
sg75
(lp359
S'expires'
p360
asbag68
(g89
g70
NtRp361
(dp362
g73
(dp363
g100
g101
ssg82
g352
sg75
(lp364
S':'
asbag68
(g89
g70
NtRp365
(dp366
g73
(dp367
sg82
g352
sg75
(lp368
g68
(g69
g70
NtRp369
(dp370
g73
(dp371
g81
I3
ssg82
g365
sg75
(lp372
S''
asbasbasbag68
(g84
g70
NtRp373
(dp374
g73
(dp375
sg82
g306
sg75
(lp376
g68
(g89
g70
NtRp377
(dp378
g73
(dp379
g93
g94
ssg82
g373
sg75
(lp380
S'httponly'
p381
asbag68
(g89
g70
NtRp382
(dp383
g73
(dp384
g100
g101
ssg82
g373
sg75
(lp385
S':'
asbag68
(g89
g70
NtRp386
(dp387
g73
(dp388
sg82
g373
sg75
(lp389
g68
(g69
g70
NtRp390
(dp391
g73
(dp392
g81
I3
ssg82
g386
sg75
(lp393
S''
asbasbasbag68
(g84
g70
NtRp394
(dp395
g73
(dp396
sg82
g306
sg75
(lp397
g68
(g89
g70
NtRp398
(dp399
g73
(dp400
g93
g94
ssg82
g394
sg75
(lp401
S'max-age'
p402
asbag68
(g89
g70
NtRp403
(dp404
g73
(dp405
g100
g101
ssg82
g394
sg75
(lp406
S':'
asbag68
(g89
g70
NtRp407
(dp408
g73
(dp409
sg82
g394
sg75
(lp410
g68
(g69
g70
NtRp411
(dp412
g73
(dp413
g81
I3
ssg82
g407
sg75
(lp414
S''
asbasbasbag68
(g84
g70
NtRp415
(dp416
g73
(dp417
sg82
g306
sg75
(lp418
g68
(g89
g70
NtRp419
(dp420
g73
(dp421
g93
g94
ssg82
g415
sg75
(lp422
S'path'
p423
asbag68
(g89
g70
NtRp424
(dp425
g73
(dp426
g100
g101
ssg82
g415
sg75
(lp427
S':'
asbag68
(g89
g70
NtRp428
(dp429
g73
(dp430
sg82
g415
sg75
(lp431
g68
(g69
g70
NtRp432
(dp433
g73
(dp434
g81
I3
ssg82
g428
sg75
(lp435
S''
asbasbasbag68
(g84
g70
NtRp436
(dp437
g73
(dp438
sg82
g306
sg75
(lp439
g68
(g89
g70
NtRp440
(dp441
g73
(dp442
g93
g94
ssg82
g436
sg75
(lp443
S'secure'
p444
asbag68
(g89
g70
NtRp445
(dp446
g73
(dp447
g100
g101
ssg82
g436
sg75
(lp448
S':'
asbag68
(g89
g70
NtRp449
(dp450
g73
(dp451
sg82
g436
sg75
(lp452
g68
(g69
g70
NtRp453
(dp454
g73
(dp455
g81
I3
ssg82
g449
sg75
(lp456
S''
asbasbasbag68
(g84
g70
NtRp457
(dp458
g73
(dp459
sg82
g306
sg75
(lp460
g68
(g89
g70
NtRp461
(dp462
g73
(dp463
g93
g94
ssg82
g457
sg75
(lp464
S'version'
p465
asbag68
(g89
g70
NtRp466
(dp467
g73
(dp468
g100
g101
ssg82
g457
sg75
(lp469
S':'
asbag68
(g89
g70
NtRp470
(dp471
g73
(dp472
sg82
g457
sg75
(lp473
g68
(g69
g70
NtRp474
(dp475
g73
(dp476
g81
I3
ssg82
g470
sg75
(lp477
S''
asbasbasbasbasbasbasbag68
(g84
g70
NtRp478
(dp479
g73
(dp480
sg82
g281
sg75
(lp481
g68
(g89
g70
NtRp482
(dp483
g73
(dp484
g93
g94
ssg82
g478
sg75
(lp485
S'session_id_igor'
p486
asbag68
(g89
g70
NtRp487
(dp488
g73
(dp489
g100
g101
ssg82
g478
sg75
(lp490
S':'
asbag68
(g89
g70
NtRp491
(dp492
g73
(dp493
sg82
g478
sg75
(lp494
g68
(g69
g70
NtRp495
(dp496
g73
(dp497
g81
I4
ssg82
g491
sg75
(lp498
g68
(g77
g70
NtRp499
(dp500
g73
(dp501
g81
I3
ssg82
Nsg75
(lp502
g68
(g84
g70
NtRp503
(dp504
g73
(dp505
sg82
g499
sg75
(lp506
g68
(g89
g70
NtRp507
(dp508
g73
(dp509
g93
g94
ssg82
g503
sg75
(lp510
g318
asbag68
(g89
g70
NtRp511
(dp512
g73
(dp513
g100
g101
ssg82
g503
sg75
(lp514
S':'
asbag68
(g89
g70
NtRp515
(dp516
g73
(dp517
sg82
g503
sg75
(lp518
g68
(g69
g70
NtRp519
(dp520
g73
(dp521
g81
I3
ssg82
g515
sg75
(lp522
S''
asbasbasbag68
(g84
g70
NtRp523
(dp524
g73
(dp525
sg82
g499
sg75
(lp526
g68
(g89
g70
NtRp527
(dp528
g73
(dp529
g93
g94
ssg82
g523
sg75
(lp530
g339
asbag68
(g89
g70
NtRp531
(dp532
g73
(dp533
g100
g101
ssg82
g523
sg75
(lp534
S':'
asbag68
(g89
g70
NtRp535
(dp536
g73
(dp537
sg82
g523
sg75
(lp538
g68
(g69
g70
NtRp539
(dp540
g73
(dp541
g81
I3
ssg82
g535
sg75
(lp542
S''
asbasbasbag68
(g84
g70
NtRp543
(dp544
g73
(dp545
sg82
g499
sg75
(lp546
g68
(g89
g70
NtRp547
(dp548
g73
(dp549
g93
g94
ssg82
g543
sg75
(lp550
g360
asbag68
(g89
g70
NtRp551
(dp552
g73
(dp553
g100
g101
ssg82
g543
sg75
(lp554
S':'
asbag68
(g89
g70
NtRp555
(dp556
g73
(dp557
sg82
g543
sg75
(lp558
g68
(g69
g70
NtRp559
(dp560
g73
(dp561
g81
I3
ssg82
g555
sg75
(lp562
S''
asbasbasbag68
(g84
g70
NtRp563
(dp564
g73
(dp565
sg82
g499
sg75
(lp566
g68
(g89
g70
NtRp567
(dp568
g73
(dp569
g93
g94
ssg82
g563
sg75
(lp570
g381
asbag68
(g89
g70
NtRp571
(dp572
g73
(dp573
g100
g101
ssg82
g563
sg75
(lp574
S':'
asbag68
(g89
g70
NtRp575
(dp576
g73
(dp577
sg82
g563
sg75
(lp578
g68
(g69
g70
NtRp579
(dp580
g73
(dp581
g81
I3
ssg82
g575
sg75
(lp582
S''
asbasbasbag68
(g84
g70
NtRp583
(dp584
g73
(dp585
sg82
g499
sg75
(lp586
g68
(g89
g70
NtRp587
(dp588
g73
(dp589
g93
g94
ssg82
g583
sg75
(lp590
g402
asbag68
(g89
g70
NtRp591
(dp592
g73
(dp593
g100
g101
ssg82
g583
sg75
(lp594
S':'
asbag68
(g89
g70
NtRp595
(dp596
g73
(dp597
sg82
g583
sg75
(lp598
g68
(g69
g70
NtRp599
(dp600
g73
(dp601
g81
I3
ssg82
g595
sg75
(lp602
S''
asbasbasbag68
(g84
g70
NtRp603
(dp604
g73
(dp605
sg82
g499
sg75
(lp606
g68
(g89
g70
NtRp607
(dp608
g73
(dp609
g93
g94
ssg82
g603
sg75
(lp610
g423
asbag68
(g89
g70
NtRp611
(dp612
g73
(dp613
g100
g101
ssg82
g603
sg75
(lp614
S':'
asbag68
(g89
g70
NtRp615
(dp616
g73
(dp617
sg82
g603
sg75
(lp618
g68
(g69
g70
NtRp619
(dp620
g73
(dp621
g81
I3
ssg82
g615
sg75
(lp622
S''
asbasbasbag68
(g84
g70
NtRp623
(dp624
g73
(dp625
sg82
g499
sg75
(lp626
g68
(g89
g70
NtRp627
(dp628
g73
(dp629
g93
g94
ssg82
g623
sg75
(lp630
g444
asbag68
(g89
g70
NtRp631
(dp632
g73
(dp633
g100
g101
ssg82
g623
sg75
(lp634
S':'
asbag68
(g89
g70
NtRp635
(dp636
g73
(dp637
sg82
g623
sg75
(lp638
g68
(g69
g70
NtRp639
(dp640
g73
(dp641
g81
I3
ssg82
g635
sg75
(lp642
S''
asbasbasbag68
(g84
g70
NtRp643
(dp644
g73
(dp645
sg82
g499
sg75
(lp646
g68
(g89
g70
NtRp647
(dp648
g73
(dp649
g93
g94
ssg82
g643
sg75
(lp650
g465
asbag68
(g89
g70
NtRp651
(dp652
g73
(dp653
g100
g101
ssg82
g643
sg75
(lp654
S':'
asbag68
(g89
g70
NtRp655
(dp656
g73
(dp657
sg82
g643
sg75
(lp658
g68
(g69
g70
NtRp659
(dp660
g73
(dp661
g81
I3
ssg82
g655
sg75
(lp662
S''
asbasbasbasbasbasbasbag68
(g84
g70
NtRp663
(dp664
g73
(dp665
sg82
g281
sg75
(lp666
g68
(g89
g70
NtRp667
(dp668
g73
(dp669
g93
g94
ssg82
g663
sg75
(lp670
S'session_id_welcome'
p671
asbag68
(g89
g70
NtRp672
(dp673
g73
(dp674
g100
g101
ssg82
g663
sg75
(lp675
S':'
asbag68
(g89
g70
NtRp676
(dp677
g73
(dp678
sg82
g663
sg75
(lp679
g68
(g69
g70
NtRp680
(dp681
g73
(dp682
g81
I4
ssg82
g676
sg75
(lp683
g68
(g77
g70
NtRp684
(dp685
g73
(dp686
g81
I3
ssg82
Nsg75
(lp687
g68
(g84
g70
NtRp688
(dp689
g73
(dp690
sg82
g684
sg75
(lp691
g68
(g89
g70
NtRp692
(dp693
g73
(dp694
g93
g94
ssg82
g688
sg75
(lp695
g318
asbag68
(g89
g70
NtRp696
(dp697
g73
(dp698
g100
g101
ssg82
g688
sg75
(lp699
S':'
asbag68
(g89
g70
NtRp700
(dp701
g73
(dp702
sg82
g688
sg75
(lp703
g68
(g69
g70
NtRp704
(dp705
g73
(dp706
g81
I3
ssg82
g700
sg75
(lp707
S''
asbasbasbag68
(g84
g70
NtRp708
(dp709
g73
(dp710
sg82
g684
sg75
(lp711
g68
(g89
g70
NtRp712
(dp713
g73
(dp714
g93
g94
ssg82
g708
sg75
(lp715
g339
asbag68
(g89
g70
NtRp716
(dp717
g73
(dp718
g100
g101
ssg82
g708
sg75
(lp719
S':'
asbag68
(g89
g70
NtRp720
(dp721
g73
(dp722
sg82
g708
sg75
(lp723
g68
(g69
g70
NtRp724
(dp725
g73
(dp726
g81
I3
ssg82
g720
sg75
(lp727
S''
asbasbasbag68
(g84
g70
NtRp728
(dp729
g73
(dp730
sg82
g684
sg75
(lp731
g68
(g89
g70
NtRp732
(dp733
g73
(dp734
g93
g94
ssg82
g728
sg75
(lp735
g360
asbag68
(g89
g70
NtRp736
(dp737
g73
(dp738
g100
g101
ssg82
g728
sg75
(lp739
S':'
asbag68
(g89
g70
NtRp740
(dp741
g73
(dp742
sg82
g728
sg75
(lp743
g68
(g69
g70
NtRp744
(dp745
g73
(dp746
g81
I3
ssg82
g740
sg75
(lp747
S''
asbasbasbag68
(g84
g70
NtRp748
(dp749
g73
(dp750
sg82
g684
sg75
(lp751
g68
(g89
g70
NtRp752
(dp753
g73
(dp754
g93
g94
ssg82
g748
sg75
(lp755
g381
asbag68
(g89
g70
NtRp756
(dp757
g73
(dp758
g100
g101
ssg82
g748
sg75
(lp759
S':'
asbag68
(g89
g70
NtRp760
(dp761
g73
(dp762
sg82
g748
sg75
(lp763
g68
(g69
g70
NtRp764
(dp765
g73
(dp766
g81
I3
ssg82
g760
sg75
(lp767
S''
asbasbasbag68
(g84
g70
NtRp768
(dp769
g73
(dp770
sg82
g684
sg75
(lp771
g68
(g89
g70
NtRp772
(dp773
g73
(dp774
g93
g94
ssg82
g768
sg75
(lp775
g402
asbag68
(g89
g70
NtRp776
(dp777
g73
(dp778
g100
g101
ssg82
g768
sg75
(lp779
S':'
asbag68
(g89
g70
NtRp780
(dp781
g73
(dp782
sg82
g768
sg75
(lp783
g68
(g69
g70
NtRp784
(dp785
g73
(dp786
g81
I3
ssg82
g780
sg75
(lp787
S''
asbasbasbag68
(g84
g70
NtRp788
(dp789
g73
(dp790
sg82
g684
sg75
(lp791
g68
(g89
g70
NtRp792
(dp793
g73
(dp794
g93
g94
ssg82
g788
sg75
(lp795
g423
asbag68
(g89
g70
NtRp796
(dp797
g73
(dp798
g100
g101
ssg82
g788
sg75
(lp799
S':'
asbag68
(g89
g70
NtRp800
(dp801
g73
(dp802
sg82
g788
sg75
(lp803
g68
(g69
g70
NtRp804
(dp805
g73
(dp806
g81
I3
ssg82
g800
sg75
(lp807
S''
asbasbasbag68
(g84
g70
NtRp808
(dp809
g73
(dp810
sg82
g684
sg75
(lp811
g68
(g89
g70
NtRp812
(dp813
g73
(dp814
g93
g94
ssg82
g808
sg75
(lp815
g444
asbag68
(g89
g70
NtRp816
(dp817
g73
(dp818
g100
g101
ssg82
g808
sg75
(lp819
S':'
asbag68
(g89
g70
NtRp820
(dp821
g73
(dp822
sg82
g808
sg75
(lp823
g68
(g69
g70
NtRp824
(dp825
g73
(dp826
g81
I3
ssg82
g820
sg75
(lp827
S''
asbasbasbag68
(g84
g70
NtRp828
(dp829
g73
(dp830
sg82
g684
sg75
(lp831
g68
(g89
g70
NtRp832
(dp833
g73
(dp834
g93
g94
ssg82
g828
sg75
(lp835
g465
asbag68
(g89
g70
NtRp836
(dp837
g73
(dp838
g100
g101
ssg82
g828
sg75
(lp839
S':'
asbag68
(g89
g70
NtRp840
(dp841
g73
(dp842
sg82
g828
sg75
(lp843
g68
(g69
g70
NtRp844
(dp845
g73
(dp846
g81
I3
ssg82
g840
sg75
(lp847
S''
asbasbasbasbasbasbasbasbasbasbasbag68
(g84
g70
NtRp848
(dp849
g73
(dp850
sg82
g78
sg75
(lp851
g68
(g89
g70
NtRp852
(dp853
g73
(dp854
g93
g94
ssg82
g848
sg75
(lp855
S'env'
p856
asbag68
(g89
g70
NtRp857
(dp858
g73
(dp859
g100
g101
ssg82
g848
sg75
(lp860
S':'
asbag68
(g89
g70
NtRp861
(dp862
g73
(dp863
sg82
g848
sg75
(lp864
g68
(g69
g70
NtRp865
(dp866
g73
(dp867
g81
I5
ssg82
g861
sg75
(lp868
g68
(g77
g70
NtRp869
(dp870
g73
(dp871
g81
I4
ssg82
Nsg75
(lp872
g68
(g84
g70
NtRp873
(dp874
g73
(dp875
sg82
g869
sg75
(lp876
g68
(g89
g70
NtRp877
(dp878
g73
(dp879
g93
g94
ssg82
g873
sg75
(lp880
S'app_folders'
p881
asbag68
(g89
g70
NtRp882
(dp883
g73
(dp884
g100
g101
ssg82
g873
sg75
(lp885
S':'
asbag68
(g89
g70
NtRp886
(dp887
g73
(dp888
sg82
g873
sg75
(lp889
g68
(g69
g70
NtRp890
(dp891
g73
(dp892
g81
I4
ssg82
g886
sg75
(lp893
S"set(['D:\\\\workspace\\\\ca\\\\IgoR\\\\C_Sources\\\\Server\\\\igor-assistant-ca-2012\\\\applications\\\\admin\\\\', 'D:\\\\workspace\\\\ca\\\\IgoR\\\\C_Sources\\\\Server\\\\igor-assistant-ca-2012\\\\applications\\\\igor\\\\', 'D:\\\\workspace\\\\ca\\\\IgoR\\\\C_Sources\\\\Server\\\\igor-assistant-ca-2012\\\\applications\\\\welcome\\\\'])"
p894
asbasbasbag68
(g84
g70
NtRp895
(dp896
g73
(dp897
sg82
g869
sg75
(lp898
g68
(g89
g70
NtRp899
(dp900
g73
(dp901
g93
g94
ssg82
g895
sg75
(lp902
S'applications_parent'
p903
asbag68
(g89
g70
NtRp904
(dp905
g73
(dp906
g100
g101
ssg82
g895
sg75
(lp907
S':'
asbag68
(g89
g70
NtRp908
(dp909
g73
(dp910
sg82
g895
sg75
(lp911
g68
(g69
g70
NtRp912
(dp913
g73
(dp914
g81
I4
ssg82
g908
sg75
(lp915
S'D:\\workspace\\ca\\IgoR\\C_Sources\\Server\\igor-assistant-ca-2012'
p916
asbasbasbag68
(g84
g70
NtRp917
(dp918
g73
(dp919
sg82
g869
sg75
(lp920
g68
(g89
g70
NtRp921
(dp922
g73
(dp923
g93
g94
ssg82
g917
sg75
(lp924
S'cmd_args'
p925
asbag68
(g89
g70
NtRp926
(dp927
g73
(dp928
g100
g101
ssg82
g917
sg75
(lp929
S':'
asbag68
(g89
g70
NtRp930
(dp931
g73
(dp932
sg82
g917
sg75
(lp933
g68
(g69
g70
NtRp934
(dp935
g73
(dp936
g81
I4
ssg82
g930
sg75
(lp937
g68
(g77
g70
NtRp938
(dp939
g73
(dp940
g81
I3
ssg82
Nsg75
(lp941
g68
(g84
g70
NtRp942
(dp943
g73
(dp944
sg82
g938
sg75
(lp945
g68
(g89
g70
NtRp946
(dp947
g73
(dp948
sg82
g942
sg75
(lp949
g68
(g69
g70
NtRp950
(dp951
g73
(dp952
g81
I3
ssg82
g946
sg75
(lp953
S'startserver'
p954
asbasbasbasbasbasbasbag68
(g84
g70
NtRp955
(dp956
g73
(dp957
sg82
g869
sg75
(lp958
g68
(g89
g70
NtRp959
(dp960
g73
(dp961
g93
g94
ssg82
g955
sg75
(lp962
S'cmd_options'
p963
asbag68
(g89
g70
NtRp964
(dp965
g73
(dp966
g100
g101
ssg82
g955
sg75
(lp967
S':'
asbag68
(g89
g70
NtRp968
(dp969
g73
(dp970
sg82
g955
sg75
(lp971
g68
(g69
g70
NtRp972
(dp973
g73
(dp974
g81
I4
ssg82
g968
sg75
(lp975
S"<Values at 0x3563d88: {'verbose': False, 'ip': '127.0.0.1', 'shutdown_timeout': 5, 'taskbar': False, 'nocron': False, 'pid_filename': 'httpserver.pid', 'maxthreads': None, 'softcron': False, 'server_name': 'PHUCNH-PC', 'bpython': False, 'nogui': False, 'port': 8000, 'extcron': False, 'debuglevel': 30, 'test': None, 'folder': 'D:\\\\workspace\\\\ca\\\\IgoR\\\\C_Sources\\\\Server\\\\igor-assistant-ca-2012', 'config': '', 'import_models': False, 'winservice': '', 'shell': None, 'run': '', 'log_filename': 'httpserver.log', 'args': [''], 'socket_timeout': 5, 'ssl_ca_certificate': None, 'scheduler': None, 'profiler_filename': None, 'ssl_private_key': '', 'password': '<ask>', 'request_queue_size': 5, 'ssl_certificate': '', 'cronjob': False, 'numthreads': None, 'quiet': False, 'interfaces': None, 'minthreads': None, 'timeout': 10, 'plain': False, 'nobanner': False}>"
p976
asbasbasbag68
(g84
g70
NtRp977
(dp978
g73
(dp979
sg82
g869
sg75
(lp980
g68
(g89
g70
NtRp981
(dp982
g73
(dp983
g93
g94
ssg82
g977
sg75
(lp984
S'db_sessions'
p985
asbag68
(g89
g70
NtRp986
(dp987
g73
(dp988
g100
g101
ssg82
g977
sg75
(lp989
S':'
asbag68
(g89
g70
NtRp990
(dp991
g73
(dp992
sg82
g977
sg75
(lp993
g68
(g69
g70
NtRp994
(dp995
g73
(dp996
g81
I4
ssg82
g990
sg75
(lp997
S'set([])'
p998
asbasbasbag68
(g84
g70
NtRp999
(dp1000
g73
(dp1001
sg82
g869
sg75
(lp1002
g68
(g89
g70
NtRp1003
(dp1004
g73
(dp1005
g93
g94
ssg82
g999
sg75
(lp1006
S'debugging'
p1007
asbag68
(g89
g70
NtRp1008
(dp1009
g73
(dp1010
g100
g101
ssg82
g999
sg75
(lp1011
S':'
asbag68
(g89
g70
NtRp1012
(dp1013
g73
(dp1014
sg82
g999
sg75
(lp1015
g68
(g69
g70
NtRp1016
(dp1017
g73
(dp1018
g81
I4
ssg82
g1012
sg75
(lp1019
g111
asbasbasbag68
(g84
g70
NtRp1020
(dp1021
g73
(dp1022
sg82
g869
sg75
(lp1023
g68
(g89
g70
NtRp1024
(dp1025
g73
(dp1026
g93
g94
ssg82
g1020
sg75
(lp1027
S'gluon_parent'
p1028
asbag68
(g89
g70
NtRp1029
(dp1030
g73
(dp1031
g100
g101
ssg82
g1020
sg75
(lp1032
S':'
asbag68
(g89
g70
NtRp1033
(dp1034
g73
(dp1035
sg82
g1020
sg75
(lp1036
g68
(g69
g70
NtRp1037
(dp1038
g73
(dp1039
g81
I4
ssg82
g1033
sg75
(lp1040
S'D:\\workspace\\ca\\IgoR\\C_Sources\\Server\\igor-assistant-ca-2012'
p1041
asbasbasbag68
(g84
g70
NtRp1042
(dp1043
g73
(dp1044
sg82
g869
sg75
(lp1045
g68
(g89
g70
NtRp1046
(dp1047
g73
(dp1048
g93
g94
ssg82
g1042
sg75
(lp1049
S'http_accept'
p1050
asbag68
(g89
g70
NtRp1051
(dp1052
g73
(dp1053
g100
g101
ssg82
g1042
sg75
(lp1054
S':'
asbag68
(g89
g70
NtRp1055
(dp1056
g73
(dp1057
sg82
g1042
sg75
(lp1058
g68
(g69
g70
NtRp1059
(dp1060
g73
(dp1061
g81
I4
ssg82
g1055
sg75
(lp1062
S'text/html,application/xhtml+xml,application/xml;q=0.9,*/*;q=0.8'
p1063
asbasbasbag68
(g84
g70
NtRp1064
(dp1065
g73
(dp1066
sg82
g869
sg75
(lp1067
g68
(g89
g70
NtRp1068
(dp1069
g73
(dp1070
g93
g94
ssg82
g1064
sg75
(lp1071
S'http_accept_charset'
p1072
asbag68
(g89
g70
NtRp1073
(dp1074
g73
(dp1075
g100
g101
ssg82
g1064
sg75
(lp1076
S':'
asbag68
(g89
g70
NtRp1077
(dp1078
g73
(dp1079
sg82
g1064
sg75
(lp1080
g68
(g69
g70
NtRp1081
(dp1082
g73
(dp1083
g81
I4
ssg82
g1077
sg75
(lp1084
S'UTF-8,*;q=0.5'
p1085
asbasbasbag68
(g84
g70
NtRp1086
(dp1087
g73
(dp1088
sg82
g869
sg75
(lp1089
g68
(g89
g70
NtRp1090
(dp1091
g73
(dp1092
g93
g94
ssg82
g1086
sg75
(lp1093
S'http_accept_encoding'
p1094
asbag68
(g89
g70
NtRp1095
(dp1096
g73
(dp1097
g100
g101
ssg82
g1086
sg75
(lp1098
S':'
asbag68
(g89
g70
NtRp1099
(dp1100
g73
(dp1101
sg82
g1086
sg75
(lp1102
g68
(g69
g70
NtRp1103
(dp1104
g73
(dp1105
g81
I4
ssg82
g1099
sg75
(lp1106
S'gzip,deflate,sdch'
p1107
asbasbasbag68
(g84
g70
NtRp1108
(dp1109
g73
(dp1110
sg82
g869
sg75
(lp1111
g68
(g89
g70
NtRp1112
(dp1113
g73
(dp1114
g93
g94
ssg82
g1108
sg75
(lp1115
S'http_accept_language'
p1116
asbag68
(g89
g70
NtRp1117
(dp1118
g73
(dp1119
g100
g101
ssg82
g1108
sg75
(lp1120
S':'
asbag68
(g89
g70
NtRp1121
(dp1122
g73
(dp1123
sg82
g1108
sg75
(lp1124
g68
(g69
g70
NtRp1125
(dp1126
g73
(dp1127
g81
I4
ssg82
g1121
sg75
(lp1128
S'en-US,en;q=0.8,vi;q=0.6,fr-FR;q=0.4,fr;q=0.2'
p1129
asbasbasbag68
(g84
g70
NtRp1130
(dp1131
g73
(dp1132
sg82
g869
sg75
(lp1133
g68
(g89
g70
NtRp1134
(dp1135
g73
(dp1136
g93
g94
ssg82
g1130
sg75
(lp1137
S'http_cache_control'
p1138
asbag68
(g89
g70
NtRp1139
(dp1140
g73
(dp1141
g100
g101
ssg82
g1130
sg75
(lp1142
S':'
asbag68
(g89
g70
NtRp1143
(dp1144
g73
(dp1145
sg82
g1130
sg75
(lp1146
g68
(g69
g70
NtRp1147
(dp1148
g73
(dp1149
g81
I4
ssg82
g1143
sg75
(lp1150
S'max-age=0'
p1151
asbasbasbag68
(g84
g70
NtRp1152
(dp1153
g73
(dp1154
sg82
g869
sg75
(lp1155
g68
(g89
g70
NtRp1156
(dp1157
g73
(dp1158
g93
g94
ssg82
g1152
sg75
(lp1159
S'http_connection'
p1160
asbag68
(g89
g70
NtRp1161
(dp1162
g73
(dp1163
g100
g101
ssg82
g1152
sg75
(lp1164
S':'
asbag68
(g89
g70
NtRp1165
(dp1166
g73
(dp1167
sg82
g1152
sg75
(lp1168
g68
(g69
g70
NtRp1169
(dp1170
g73
(dp1171
g81
I4
ssg82
g1165
sg75
(lp1172
S'keep-alive'
p1173
asbasbasbag68
(g84
g70
NtRp1174
(dp1175
g73
(dp1176
sg82
g869
sg75
(lp1177
g68
(g89
g70
NtRp1178
(dp1179
g73
(dp1180
g93
g94
ssg82
g1174
sg75
(lp1181
S'http_cookie'
p1182
asbag68
(g89
g70
NtRp1183
(dp1184
g73
(dp1185
g100
g101
ssg82
g1174
sg75
(lp1186
S':'
asbag68
(g89
g70
NtRp1187
(dp1188
g73
(dp1189
sg82
g1174
sg75
(lp1190
g68
(g69
g70
NtRp1191
(dp1192
g73
(dp1193
g81
I4
ssg82
g1187
sg75
(lp1194
S'session_id_welcome=127.0.0.1-79d5828c-c17a-4224-96b8-25d49468e5fc; session_id_admin=127.0.0.1-09abd0ca-c550-4c89-9a05-f31195dc8a18; session_id_igor=127.0.0.1-7e374fcc-c0ad-47a8-97eb-9426e7976fee'
p1195
asbasbasbag68
(g84
g70
NtRp1196
(dp1197
g73
(dp1198
sg82
g869
sg75
(lp1199
g68
(g89
g70
NtRp1200
(dp1201
g73
(dp1202
g93
g94
ssg82
g1196
sg75
(lp1203
S'http_host'
p1204
asbag68
(g89
g70
NtRp1205
(dp1206
g73
(dp1207
g100
g101
ssg82
g1196
sg75
(lp1208
S':'
asbag68
(g89
g70
NtRp1209
(dp1210
g73
(dp1211
sg82
g1196
sg75
(lp1212
g68
(g69
g70
NtRp1213
(dp1214
g73
(dp1215
g81
I4
ssg82
g1209
sg75
(lp1216
S'127.0.0.1:8000'
p1217
asbasbasbag68
(g84
g70
NtRp1218
(dp1219
g73
(dp1220
sg82
g869
sg75
(lp1221
g68
(g89
g70
NtRp1222
(dp1223
g73
(dp1224
g93
g94
ssg82
g1218
sg75
(lp1225
S'http_user_agent'
p1226
asbag68
(g89
g70
NtRp1227
(dp1228
g73
(dp1229
g100
g101
ssg82
g1218
sg75
(lp1230
S':'
asbag68
(g89
g70
NtRp1231
(dp1232
g73
(dp1233
sg82
g1218
sg75
(lp1234
g68
(g69
g70
NtRp1235
(dp1236
g73
(dp1237
g81
I4
ssg82
g1231
sg75
(lp1238
S'Mozilla/5.0 (Windows NT 6.1; WOW64) AppleWebKit/536.11 (KHTML, like Gecko) Chrome/20.0.1132.57 Safari/536.11'
p1239
asbasbasbag68
(g84
g70
NtRp1240
(dp1241
g73
(dp1242
sg82
g869
sg75
(lp1243
g68
(g89
g70
NtRp1244
(dp1245
g73
(dp1246
g93
g94
ssg82
g1240
sg75
(lp1247
S'is_jython'
p1248
asbag68
(g89
g70
NtRp1249
(dp1250
g73
(dp1251
g100
g101
ssg82
g1240
sg75
(lp1252
S':'
asbag68
(g89
g70
NtRp1253
(dp1254
g73
(dp1255
sg82
g1240
sg75
(lp1256
g68
(g69
g70
NtRp1257
(dp1258
g73
(dp1259
g81
I4
ssg82
g1253
sg75
(lp1260
g111
asbasbasbag68
(g84
g70
NtRp1261
(dp1262
g73
(dp1263
sg82
g869
sg75
(lp1264
g68
(g89
g70
NtRp1265
(dp1266
g73
(dp1267
g93
g94
ssg82
g1261
sg75
(lp1268
S'is_pypy'
p1269
asbag68
(g89
g70
NtRp1270
(dp1271
g73
(dp1272
g100
g101
ssg82
g1261
sg75
(lp1273
S':'
asbag68
(g89
g70
NtRp1274
(dp1275
g73
(dp1276
sg82
g1261
sg75
(lp1277
g68
(g69
g70
NtRp1278
(dp1279
g73
(dp1280
g81
I4
ssg82
g1274
sg75
(lp1281
g111
asbasbasbag68
(g84
g70
NtRp1282
(dp1283
g73
(dp1284
sg82
g869
sg75
(lp1285
g68
(g89
g70
NtRp1286
(dp1287
g73
(dp1288
g93
g94
ssg82
g1282
sg75
(lp1289
S'path_info'
p1290
asbag68
(g89
g70
NtRp1291
(dp1292
g73
(dp1293
g100
g101
ssg82
g1282
sg75
(lp1294
S':'
asbag68
(g89
g70
NtRp1295
(dp1296
g73
(dp1297
sg82
g1282
sg75
(lp1298
g68
(g69
g70
NtRp1299
(dp1300
g73
(dp1301
g81
I4
ssg82
g1295
sg75
(lp1302
S'/igor/jobs/accept_job/1/2/2'
p1303
asbasbasbag68
(g84
g70
NtRp1304
(dp1305
g73
(dp1306
sg82
g869
sg75
(lp1307
g68
(g89
g70
NtRp1308
(dp1309
g73
(dp1310
g93
g94
ssg82
g1304
sg75
(lp1311
S'query_string'
p1312
asbag68
(g89
g70
NtRp1313
(dp1314
g73
(dp1315
g100
g101
ssg82
g1304
sg75
(lp1316
S':'
asbag68
(g89
g70
NtRp1317
(dp1318
g73
(dp1319
sg82
g1304
sg75
(lp1320
g68
(g69
g70
NtRp1321
(dp1322
g73
(dp1323
g81
I4
ssg82
g1317
sg75
(lp1324
S''
asbasbasbag68
(g84
g70
NtRp1325
(dp1326
g73
(dp1327
sg82
g869
sg75
(lp1328
g68
(g89
g70
NtRp1329
(dp1330
g73
(dp1331
g93
g94
ssg82
g1325
sg75
(lp1332
S'remote_addr'
p1333
asbag68
(g89
g70
NtRp1334
(dp1335
g73
(dp1336
g100
g101
ssg82
g1325
sg75
(lp1337
S':'
asbag68
(g89
g70
NtRp1338
(dp1339
g73
(dp1340
sg82
g1325
sg75
(lp1341
g68
(g69
g70
NtRp1342
(dp1343
g73
(dp1344
g81
I4
ssg82
g1338
sg75
(lp1345
g237
asbasbasbag68
(g84
g70
NtRp1346
(dp1347
g73
(dp1348
sg82
g869
sg75
(lp1349
g68
(g89
g70
NtRp1350
(dp1351
g73
(dp1352
g93
g94
ssg82
g1346
sg75
(lp1353
S'remote_port'
p1354
asbag68
(g89
g70
NtRp1355
(dp1356
g73
(dp1357
g100
g101
ssg82
g1346
sg75
(lp1358
S':'
asbag68
(g89
g70
NtRp1359
(dp1360
g73
(dp1361
sg82
g1346
sg75
(lp1362
g68
(g69
g70
NtRp1363
(dp1364
g73
(dp1365
g81
I4
ssg82
g1359
sg75
(lp1366
S'19043'
p1367
asbasbasbag68
(g84
g70
NtRp1368
(dp1369
g73
(dp1370
sg82
g869
sg75
(lp1371
g68
(g89
g70
NtRp1372
(dp1373
g73
(dp1374
g93
g94
ssg82
g1368
sg75
(lp1375
S'request_method'
p1376
asbag68
(g89
g70
NtRp1377
(dp1378
g73
(dp1379
g100
g101
ssg82
g1368
sg75
(lp1380
S':'
asbag68
(g89
g70
NtRp1381
(dp1382
g73
(dp1383
sg82
g1368
sg75
(lp1384
g68
(g69
g70
NtRp1385
(dp1386
g73
(dp1387
g81
I4
ssg82
g1381
sg75
(lp1388
S'GET'
p1389
asbasbasbag68
(g84
g70
NtRp1390
(dp1391
g73
(dp1392
sg82
g869
sg75
(lp1393
g68
(g89
g70
NtRp1394
(dp1395
g73
(dp1396
g93
g94
ssg82
g1390
sg75
(lp1397
S'script_name'
p1398
asbag68
(g89
g70
NtRp1399
(dp1400
g73
(dp1401
g100
g101
ssg82
g1390
sg75
(lp1402
S':'
asbag68
(g89
g70
NtRp1403
(dp1404
g73
(dp1405
sg82
g1390
sg75
(lp1406
g68
(g69
g70
NtRp1407
(dp1408
g73
(dp1409
g81
I4
ssg82
g1403
sg75
(lp1410
S''
asbasbasbag68
(g84
g70
NtRp1411
(dp1412
g73
(dp1413
sg82
g869
sg75
(lp1414
g68
(g89
g70
NtRp1415
(dp1416
g73
(dp1417
g93
g94
ssg82
g1411
sg75
(lp1418
S'server_name'
p1419
asbag68
(g89
g70
NtRp1420
(dp1421
g73
(dp1422
g100
g101
ssg82
g1411
sg75
(lp1423
S':'
asbag68
(g89
g70
NtRp1424
(dp1425
g73
(dp1426
sg82
g1411
sg75
(lp1427
g68
(g69
g70
NtRp1428
(dp1429
g73
(dp1430
g81
I4
ssg82
g1424
sg75
(lp1431
S'PHUCNH-PC'
p1432
asbasbasbag68
(g84
g70
NtRp1433
(dp1434
g73
(dp1435
sg82
g869
sg75
(lp1436
g68
(g89
g70
NtRp1437
(dp1438
g73
(dp1439
g93
g94
ssg82
g1433
sg75
(lp1440
S'server_port'
p1441
asbag68
(g89
g70
NtRp1442
(dp1443
g73
(dp1444
g100
g101
ssg82
g1433
sg75
(lp1445
S':'
asbag68
(g89
g70
NtRp1446
(dp1447
g73
(dp1448
sg82
g1433
sg75
(lp1449
g68
(g69
g70
NtRp1450
(dp1451
g73
(dp1452
g81
I4
ssg82
g1446
sg75
(lp1453
S'8000'
p1454
asbasbasbag68
(g84
g70
NtRp1455
(dp1456
g73
(dp1457
sg82
g869
sg75
(lp1458
g68
(g89
g70
NtRp1459
(dp1460
g73
(dp1461
g93
g94
ssg82
g1455
sg75
(lp1462
S'server_protocol'
p1463
asbag68
(g89
g70
NtRp1464
(dp1465
g73
(dp1466
g100
g101
ssg82
g1455
sg75
(lp1467
S':'
asbag68
(g89
g70
NtRp1468
(dp1469
g73
(dp1470
sg82
g1455
sg75
(lp1471
g68
(g69
g70
NtRp1472
(dp1473
g73
(dp1474
g81
I4
ssg82
g1468
sg75
(lp1475
S'HTTP/1.1'
p1476
asbasbasbag68
(g84
g70
NtRp1477
(dp1478
g73
(dp1479
sg82
g869
sg75
(lp1480
g68
(g89
g70
NtRp1481
(dp1482
g73
(dp1483
g93
g94
ssg82
g1477
sg75
(lp1484
S'server_software'
p1485
asbag68
(g89
g70
NtRp1486
(dp1487
g73
(dp1488
g100
g101
ssg82
g1477
sg75
(lp1489
S':'
asbag68
(g89
g70
NtRp1490
(dp1491
g73
(dp1492
sg82
g1477
sg75
(lp1493
g68
(g69
g70
NtRp1494
(dp1495
g73
(dp1496
g81
I4
ssg82
g1490
sg75
(lp1497
S'Rocket 1.2.4'
p1498
asbasbasbag68
(g84
g70
NtRp1499
(dp1500
g73
(dp1501
sg82
g869
sg75
(lp1502
g68
(g89
g70
NtRp1503
(dp1504
g73
(dp1505
g93
g94
ssg82
g1499
sg75
(lp1506
S'web2py_crontype'
p1507
asbag68
(g89
g70
NtRp1508
(dp1509
g73
(dp1510
g100
g101
ssg82
g1499
sg75
(lp1511
S':'
asbag68
(g89
g70
NtRp1512
(dp1513
g73
(dp1514
sg82
g1499
sg75
(lp1515
g68
(g69
g70
NtRp1516
(dp1517
g73
(dp1518
g81
I4
ssg82
g1512
sg75
(lp1519
S'hard'
p1520
asbasbasbag68
(g84
g70
NtRp1521
(dp1522
g73
(dp1523
sg82
g869
sg75
(lp1524
g68
(g89
g70
NtRp1525
(dp1526
g73
(dp1527
g93
g94
ssg82
g1521
sg75
(lp1528
S'web2py_path'
p1529
asbag68
(g89
g70
NtRp1530
(dp1531
g73
(dp1532
g100
g101
ssg82
g1521
sg75
(lp1533
S':'
asbag68
(g89
g70
NtRp1534
(dp1535
g73
(dp1536
sg82
g1521
sg75
(lp1537
g68
(g69
g70
NtRp1538
(dp1539
g73
(dp1540
g81
I4
ssg82
g1534
sg75
(lp1541
g916
asbasbasbag68
(g84
g70
NtRp1542
(dp1543
g73
(dp1544
sg82
g869
sg75
(lp1545
g68
(g89
g70
NtRp1546
(dp1547
g73
(dp1548
g93
g94
ssg82
g1542
sg75
(lp1549
S'web2py_version'
p1550
asbag68
(g89
g70
NtRp1551
(dp1552
g73
(dp1553
g100
g101
ssg82
g1542
sg75
(lp1554
S':'
asbag68
(g89
g70
NtRp1555
(dp1556
g73
(dp1557
sg82
g1542
sg75
(lp1558
g68
(g69
g70
NtRp1559
(dp1560
g73
(dp1561
g81
I4
ssg82
g1555
sg75
(lp1562
g68
(g77
g70
NtRp1563
(dp1564
g73
(dp1565
g81
I3
ssg82
Nsg75
(lp1566
g68
(g84
g70
NtRp1567
(dp1568
g73
(dp1569
sg82
g1563
sg75
(lp1570
g68
(g89
g70
NtRp1571
(dp1572
g73
(dp1573
sg82
g1567
sg75
(lp1574
g68
(g69
g70
NtRp1575
(dp1576
g73
(dp1577
g81
I3
ssg82
g1571
sg75
(lp1578
S'1'
asbasbasbag68
(g84
g70
NtRp1579
(dp1580
g73
(dp1581
sg82
g1563
sg75
(lp1582
g68
(g89
g70
NtRp1583
(dp1584
g73
(dp1585
sg82
g1579
sg75
(lp1586
g68
(g69
g70
NtRp1587
(dp1588
g73
(dp1589
g81
I3
ssg82
g1583
sg75
(lp1590
S'99'
p1591
asbasbasbag68
(g84
g70
NtRp1592
(dp1593
g73
(dp1594
sg82
g1563
sg75
(lp1595
g68
(g89
g70
NtRp1596
(dp1597
g73
(dp1598
sg82
g1592
sg75
(lp1599
g68
(g69
g70
NtRp1600
(dp1601
g73
(dp1602
g81
I3
ssg82
g1596
sg75
(lp1603
S'7'
asbasbasbag68
(g84
g70
NtRp1604
(dp1605
g73
(dp1606
sg82
g1563
sg75
(lp1607
g68
(g89
g70
NtRp1608
(dp1609
g73
(dp1610
sg82
g1604
sg75
(lp1611
g68
(g69
g70
NtRp1612
(dp1613
g73
(dp1614
g81
I3
ssg82
g1608
sg75
(lp1615
S'datetime.datetime(2012, 3, 4, 22, 12, 8)'
p1616
asbasbasbag68
(g84
g70
NtRp1617
(dp1618
g73
(dp1619
sg82
g1563
sg75
(lp1620
g68
(g89
g70
NtRp1621
(dp1622
g73
(dp1623
sg82
g1617
sg75
(lp1624
g68
(g69
g70
NtRp1625
(dp1626
g73
(dp1627
g81
I3
ssg82
g1621
sg75
(lp1628
S'stable'
p1629
asbasbasbasbasbasbasbag68
(g84
g70
NtRp1630
(dp1631
g73
(dp1632
sg82
g869
sg75
(lp1633
g68
(g89
g70
NtRp1634
(dp1635
g73
(dp1636
g93
g94
ssg82
g1630
sg75
(lp1637
S'wsgi_errors'
p1638
asbag68
(g89
g70
NtRp1639
(dp1640
g73
(dp1641
g100
g101
ssg82
g1630
sg75
(lp1642
S':'
asbag68
(g89
g70
NtRp1643
(dp1644
g73
(dp1645
sg82
g1630
sg75
(lp1646
g68
(g69
g70
NtRp1647
(dp1648
g73
(dp1649
g81
I4
ssg82
g1643
sg75
(lp1650
S"<open file '<stderr>', mode 'w' at 0x0000000001D4E1E0>"
p1651
asbasbasbag68
(g84
g70
NtRp1652
(dp1653
g73
(dp1654
sg82
g869
sg75
(lp1655
g68
(g89
g70
NtRp1656
(dp1657
g73
(dp1658
g93
g94
ssg82
g1652
sg75
(lp1659
S'wsgi_file_wrapper'
p1660
asbag68
(g89
g70
NtRp1661
(dp1662
g73
(dp1663
g100
g101
ssg82
g1652
sg75
(lp1664
S':'
asbag68
(g89
g70
NtRp1665
(dp1666
g73
(dp1667
sg82
g1652
sg75
(lp1668
g68
(g69
g70
NtRp1669
(dp1670
g73
(dp1671
g81
I4
ssg82
g1665
sg75
(lp1672
S'<class wsgiref.util.FileWrapper at 0x0000000003420AC8>'
p1673
asbasbasbag68
(g84
g70
NtRp1674
(dp1675
g73
(dp1676
sg82
g869
sg75
(lp1677
g68
(g89
g70
NtRp1678
(dp1679
g73
(dp1680
g93
g94
ssg82
g1674
sg75
(lp1681
S'wsgi_input'
p1682
asbag68
(g89
g70
NtRp1683
(dp1684
g73
(dp1685
g100
g101
ssg82
g1674
sg75
(lp1686
S':'
asbag68
(g89
g70
NtRp1687
(dp1688
g73
(dp1689
sg82
g1674
sg75
(lp1690
g68
(g69
g70
NtRp1691
(dp1692
g73
(dp1693
g81
I4
ssg82
g1687
sg75
(lp1694
S'<socket._fileobject object at 0x0000000005FDD2A0>'
p1695
asbasbasbag68
(g84
g70
NtRp1696
(dp1697
g73
(dp1698
sg82
g869
sg75
(lp1699
g68
(g89
g70
NtRp1700
(dp1701
g73
(dp1702
g93
g94
ssg82
g1696
sg75
(lp1703
S'wsgi_multiprocess'
p1704
asbag68
(g89
g70
NtRp1705
(dp1706
g73
(dp1707
g100
g101
ssg82
g1696
sg75
(lp1708
S':'
asbag68
(g89
g70
NtRp1709
(dp1710
g73
(dp1711
sg82
g1696
sg75
(lp1712
g68
(g69
g70
NtRp1713
(dp1714
g73
(dp1715
g81
I4
ssg82
g1709
sg75
(lp1716
g111
asbasbasbag68
(g84
g70
NtRp1717
(dp1718
g73
(dp1719
sg82
g869
sg75
(lp1720
g68
(g89
g70
NtRp1721
(dp1722
g73
(dp1723
g93
g94
ssg82
g1717
sg75
(lp1724
S'wsgi_multithread'
p1725
asbag68
(g89
g70
NtRp1726
(dp1727
g73
(dp1728
g100
g101
ssg82
g1717
sg75
(lp1729
S':'
asbag68
(g89
g70
NtRp1730
(dp1731
g73
(dp1732
sg82
g1717
sg75
(lp1733
g68
(g69
g70
NtRp1734
(dp1735
g73
(dp1736
g81
I4
ssg82
g1730
sg75
(lp1737
S'True'
p1738
asbasbasbag68
(g84
g70
NtRp1739
(dp1740
g73
(dp1741
sg82
g869
sg75
(lp1742
g68
(g89
g70
NtRp1743
(dp1744
g73
(dp1745
g93
g94
ssg82
g1739
sg75
(lp1746
S'wsgi_run_once'
p1747
asbag68
(g89
g70
NtRp1748
(dp1749
g73
(dp1750
g100
g101
ssg82
g1739
sg75
(lp1751
S':'
asbag68
(g89
g70
NtRp1752
(dp1753
g73
(dp1754
sg82
g1739
sg75
(lp1755
g68
(g69
g70
NtRp1756
(dp1757
g73
(dp1758
g81
I4
ssg82
g1752
sg75
(lp1759
g111
asbasbasbag68
(g84
g70
NtRp1760
(dp1761
g73
(dp1762
sg82
g869
sg75
(lp1763
g68
(g89
g70
NtRp1764
(dp1765
g73
(dp1766
g93
g94
ssg82
g1760
sg75
(lp1767
S'wsgi_url_scheme'
p1768
asbag68
(g89
g70
NtRp1769
(dp1770
g73
(dp1771
g100
g101
ssg82
g1760
sg75
(lp1772
S':'
asbag68
(g89
g70
NtRp1773
(dp1774
g73
(dp1775
sg82
g1760
sg75
(lp1776
g68
(g69
g70
NtRp1777
(dp1778
g73
(dp1779
g81
I4
ssg82
g1773
sg75
(lp1780
S'http'
p1781
asbasbasbag68
(g84
g70
NtRp1782
(dp1783
g73
(dp1784
sg82
g869
sg75
(lp1785
g68
(g89
g70
NtRp1786
(dp1787
g73
(dp1788
g93
g94
ssg82
g1782
sg75
(lp1789
S'wsgi_version'
p1790
asbag68
(g89
g70
NtRp1791
(dp1792
g73
(dp1793
g100
g101
ssg82
g1782
sg75
(lp1794
S':'
asbag68
(g89
g70
NtRp1795
(dp1796
g73
(dp1797
sg82
g1782
sg75
(lp1798
g68
(g69
g70
NtRp1799
(dp1800
g73
(dp1801
g81
I4
ssg82
g1795
sg75
(lp1802
g68
(g77
g70
NtRp1803
(dp1804
g73
(dp1805
g81
I3
ssg82
Nsg75
(lp1806
g68
(g84
g70
NtRp1807
(dp1808
g73
(dp1809
sg82
g1803
sg75
(lp1810
g68
(g89
g70
NtRp1811
(dp1812
g73
(dp1813
sg82
g1807
sg75
(lp1814
g68
(g69
g70
NtRp1815
(dp1816
g73
(dp1817
g81
I3
ssg82
g1811
sg75
(lp1818
S'1'
asbasbasbag68
(g84
g70
NtRp1819
(dp1820
g73
(dp1821
sg82
g1803
sg75
(lp1822
g68
(g89
g70
NtRp1823
(dp1824
g73
(dp1825
sg82
g1819
sg75
(lp1826
g68
(g69
g70
NtRp1827
(dp1828
g73
(dp1829
g81
I3
ssg82
g1823
sg75
(lp1830
S'0'
asbasbasbasbasbasbasbasbasbasbasbag68
(g84
g70
NtRp1831
(dp1832
g73
(dp1833
sg82
g78
sg75
(lp1834
g68
(g89
g70
NtRp1835
(dp1836
g73
(dp1837
g93
g94
ssg82
g1831
sg75
(lp1838
S'extension'
p1839
asbag68
(g89
g70
NtRp1840
(dp1841
g73
(dp1842
g100
g101
ssg82
g1831
sg75
(lp1843
S':'
asbag68
(g89
g70
NtRp1844
(dp1845
g73
(dp1846
sg82
g1831
sg75
(lp1847
g68
(g69
g70
NtRp1848
(dp1849
g73
(dp1850
g81
I5
ssg82
g1844
sg75
(lp1851
S'html'
p1852
asbasbasbag68
(g84
g70
NtRp1853
(dp1854
g73
(dp1855
sg82
g78
sg75
(lp1856
g68
(g89
g70
NtRp1857
(dp1858
g73
(dp1859
g93
g94
ssg82
g1853
sg75
(lp1860
S'folder'
p1861
asbag68
(g89
g70
NtRp1862
(dp1863
g73
(dp1864
g100
g101
ssg82
g1853
sg75
(lp1865
S':'
asbag68
(g89
g70
NtRp1866
(dp1867
g73
(dp1868
sg82
g1853
sg75
(lp1869
g68
(g69
g70
NtRp1870
(dp1871
g73
(dp1872
g81
I5
ssg82
g1866
sg75
(lp1873
S'D:\\workspace\\ca\\IgoR\\C_Sources\\Server\\igor-assistant-ca-2012\\applications\\igor\\'
p1874
asbasbasbag68
(g84
g70
NtRp1875
(dp1876
g73
(dp1877
sg82
g78
sg75
(lp1878
g68
(g89
g70
NtRp1879
(dp1880
g73
(dp1881
g93
g94
ssg82
g1875
sg75
(lp1882
S'function'
p1883
asbag68
(g89
g70
NtRp1884
(dp1885
g73
(dp1886
g100
g101
ssg82
g1875
sg75
(lp1887
S':'
asbag68
(g89
g70
NtRp1888
(dp1889
g73
(dp1890
sg82
g1875
sg75
(lp1891
g68
(g69
g70
NtRp1892
(dp1893
g73
(dp1894
g81
I5
ssg82
g1888
sg75
(lp1895
S'accept_job'
p1896
asbasbasbag68
(g84
g70
NtRp1897
(dp1898
g73
(dp1899
sg82
g78
sg75
(lp1900
g68
(g89
g70
NtRp1901
(dp1902
g73
(dp1903
g93
g94
ssg82
g1897
sg75
(lp1904
S'get_vars'
p1905
asbag68
(g89
g70
NtRp1906
(dp1907
g73
(dp1908
g100
g101
ssg82
g1897
sg75
(lp1909
S':'
asbag68
(g89
g70
NtRp1910
(dp1911
g73
(dp1912
sg82
g1897
sg75
(lp1913
g68
(g69
g70
NtRp1914
(dp1915
g73
(dp1916
g81
I5
ssg82
g1910
sg75
(lp1917
g68
(g77
g70
NtRp1918
(dp1919
g73
(dp1920
g81
I4
ssg82
Nsg75
(lp1921
sbasbasbasbag68
(g84
g70
NtRp1922
(dp1923
g73
(dp1924
sg82
g78
sg75
(lp1925
g68
(g89
g70
NtRp1926
(dp1927
g73
(dp1928
g93
g94
ssg82
g1922
sg75
(lp1929
S'global_settings'
p1930
asbag68
(g89
g70
NtRp1931
(dp1932
g73
(dp1933
g100
g101
ssg82
g1922
sg75
(lp1934
S':'
asbag68
(g89
g70
NtRp1935
(dp1936
g73
(dp1937
sg82
g1922
sg75
(lp1938
g68
(g69
g70
NtRp1939
(dp1940
g73
(dp1941
g81
I5
ssg82
g1935
sg75
(lp1942
g68
(g77
g70
NtRp1943
(dp1944
g73
(dp1945
g81
I4
ssg82
Nsg75
(lp1946
g68
(g84
g70
NtRp1947
(dp1948
g73
(dp1949
sg82
g1943
sg75
(lp1950
g68
(g89
g70
NtRp1951
(dp1952
g73
(dp1953
g93
g94
ssg82
g1947
sg75
(lp1954
g881
asbag68
(g89
g70
NtRp1955
(dp1956
g73
(dp1957
g100
g101
ssg82
g1947
sg75
(lp1958
S':'
asbag68
(g89
g70
NtRp1959
(dp1960
g73
(dp1961
sg82
g1947
sg75
(lp1962
g68
(g69
g70
NtRp1963
(dp1964
g73
(dp1965
g81
I4
ssg82
g1959
sg75
(lp1966
S"set(['D:\\\\workspace\\\\ca\\\\IgoR\\\\C_Sources\\\\Server\\\\igor-assistant-ca-2012\\\\applications\\\\admin\\\\', 'D:\\\\workspace\\\\ca\\\\IgoR\\\\C_Sources\\\\Server\\\\igor-assistant-ca-2012\\\\applications\\\\igor\\\\', 'D:\\\\workspace\\\\ca\\\\IgoR\\\\C_Sources\\\\Server\\\\igor-assistant-ca-2012\\\\applications\\\\welcome\\\\'])"
p1967
asbasbasbag68
(g84
g70
NtRp1968
(dp1969
g73
(dp1970
sg82
g1943
sg75
(lp1971
g68
(g89
g70
NtRp1972
(dp1973
g73
(dp1974
g93
g94
ssg82
g1968
sg75
(lp1975
g903
asbag68
(g89
g70
NtRp1976
(dp1977
g73
(dp1978
g100
g101
ssg82
g1968
sg75
(lp1979
S':'
asbag68
(g89
g70
NtRp1980
(dp1981
g73
(dp1982
sg82
g1968
sg75
(lp1983
g68
(g69
g70
NtRp1984
(dp1985
g73
(dp1986
g81
I4
ssg82
g1980
sg75
(lp1987
g916
asbasbasbag68
(g84
g70
NtRp1988
(dp1989
g73
(dp1990
sg82
g1943
sg75
(lp1991
g68
(g89
g70
NtRp1992
(dp1993
g73
(dp1994
g93
g94
ssg82
g1988
sg75
(lp1995
g925
asbag68
(g89
g70
NtRp1996
(dp1997
g73
(dp1998
g100
g101
ssg82
g1988
sg75
(lp1999
S':'
asbag68
(g89
g70
NtRp2000
(dp2001
g73
(dp2002
sg82
g1988
sg75
(lp2003
g68
(g69
g70
NtRp2004
(dp2005
g73
(dp2006
g81
I4
ssg82
g2000
sg75
(lp2007
g68
(g77
g70
NtRp2008
(dp2009
g73
(dp2010
g81
I3
ssg82
Nsg75
(lp2011
g68
(g84
g70
NtRp2012
(dp2013
g73
(dp2014
sg82
g2008
sg75
(lp2015
g68
(g89
g70
NtRp2016
(dp2017
g73
(dp2018
sg82
g2012
sg75
(lp2019
g68
(g69
g70
NtRp2020
(dp2021
g73
(dp2022
g81
I3
ssg82
g2016
sg75
(lp2023
g954
asbasbasbasbasbasbasbag68
(g84
g70
NtRp2024
(dp2025
g73
(dp2026
sg82
g1943
sg75
(lp2027
g68
(g89
g70
NtRp2028
(dp2029
g73
(dp2030
g93
g94
ssg82
g2024
sg75
(lp2031
g963
asbag68
(g89
g70
NtRp2032
(dp2033
g73
(dp2034
g100
g101
ssg82
g2024
sg75
(lp2035
S':'
asbag68
(g89
g70
NtRp2036
(dp2037
g73
(dp2038
sg82
g2024
sg75
(lp2039
g68
(g69
g70
NtRp2040
(dp2041
g73
(dp2042
g81
I4
ssg82
g2036
sg75
(lp2043
S"<Values at 0x3563d88: {'verbose': False, 'ip': '127.0.0.1', 'shutdown_timeout': 5, 'taskbar': False, 'nocron': False, 'pid_filename': 'httpserver.pid', 'maxthreads': None, 'softcron': False, 'server_name': 'PHUCNH-PC', 'bpython': False, 'nogui': False, 'port': 8000, 'extcron': False, 'debuglevel': 30, 'test': None, 'folder': 'D:\\\\workspace\\\\ca\\\\IgoR\\\\C_Sources\\\\Server\\\\igor-assistant-ca-2012', 'config': '', 'import_models': False, 'winservice': '', 'shell': None, 'run': '', 'log_filename': 'httpserver.log', 'args': [''], 'socket_timeout': 5, 'ssl_ca_certificate': None, 'scheduler': None, 'profiler_filename': None, 'ssl_private_key': '', 'password': '<ask>', 'request_queue_size': 5, 'ssl_certificate': '', 'cronjob': False, 'numthreads': None, 'quiet': False, 'interfaces': None, 'minthreads': None, 'timeout': 10, 'plain': False, 'nobanner': False}>"
p2044
asbasbasbag68
(g84
g70
NtRp2045
(dp2046
g73
(dp2047
sg82
g1943
sg75
(lp2048
g68
(g89
g70
NtRp2049
(dp2050
g73
(dp2051
g93
g94
ssg82
g2045
sg75
(lp2052
g985
asbag68
(g89
g70
NtRp2053
(dp2054
g73
(dp2055
g100
g101
ssg82
g2045
sg75
(lp2056
S':'
asbag68
(g89
g70
NtRp2057
(dp2058
g73
(dp2059
sg82
g2045
sg75
(lp2060
g68
(g69
g70
NtRp2061
(dp2062
g73
(dp2063
g81
I4
ssg82
g2057
sg75
(lp2064
S'set([])'
p2065
asbasbasbag68
(g84
g70
NtRp2066
(dp2067
g73
(dp2068
sg82
g1943
sg75
(lp2069
g68
(g89
g70
NtRp2070
(dp2071
g73
(dp2072
g93
g94
ssg82
g2066
sg75
(lp2073
g1007
asbag68
(g89
g70
NtRp2074
(dp2075
g73
(dp2076
g100
g101
ssg82
g2066
sg75
(lp2077
S':'
asbag68
(g89
g70
NtRp2078
(dp2079
g73
(dp2080
sg82
g2066
sg75
(lp2081
g68
(g69
g70
NtRp2082
(dp2083
g73
(dp2084
g81
I4
ssg82
g2078
sg75
(lp2085
g111
asbasbasbag68
(g84
g70
NtRp2086
(dp2087
g73
(dp2088
sg82
g1943
sg75
(lp2089
g68
(g89
g70
NtRp2090
(dp2091
g73
(dp2092
g93
g94
ssg82
g2086
sg75
(lp2093
g1028
asbag68
(g89
g70
NtRp2094
(dp2095
g73
(dp2096
g100
g101
ssg82
g2086
sg75
(lp2097
S':'
asbag68
(g89
g70
NtRp2098
(dp2099
g73
(dp2100
sg82
g2086
sg75
(lp2101
g68
(g69
g70
NtRp2102
(dp2103
g73
(dp2104
g81
I4
ssg82
g2098
sg75
(lp2105
g1041
asbasbasbag68
(g84
g70
NtRp2106
(dp2107
g73
(dp2108
sg82
g1943
sg75
(lp2109
g68
(g89
g70
NtRp2110
(dp2111
g73
(dp2112
g93
g94
ssg82
g2106
sg75
(lp2113
g1248
asbag68
(g89
g70
NtRp2114
(dp2115
g73
(dp2116
g100
g101
ssg82
g2106
sg75
(lp2117
S':'
asbag68
(g89
g70
NtRp2118
(dp2119
g73
(dp2120
sg82
g2106
sg75
(lp2121
g68
(g69
g70
NtRp2122
(dp2123
g73
(dp2124
g81
I4
ssg82
g2118
sg75
(lp2125
g111
asbasbasbag68
(g84
g70
NtRp2126
(dp2127
g73
(dp2128
sg82
g1943
sg75
(lp2129
g68
(g89
g70
NtRp2130
(dp2131
g73
(dp2132
g93
g94
ssg82
g2126
sg75
(lp2133
g1269
asbag68
(g89
g70
NtRp2134
(dp2135
g73
(dp2136
g100
g101
ssg82
g2126
sg75
(lp2137
S':'
asbag68
(g89
g70
NtRp2138
(dp2139
g73
(dp2140
sg82
g2126
sg75
(lp2141
g68
(g69
g70
NtRp2142
(dp2143
g73
(dp2144
g81
I4
ssg82
g2138
sg75
(lp2145
g111
asbasbasbag68
(g84
g70
NtRp2146
(dp2147
g73
(dp2148
sg82
g1943
sg75
(lp2149
g68
(g89
g70
NtRp2150
(dp2151
g73
(dp2152
g93
g94
ssg82
g2146
sg75
(lp2153
g1507
asbag68
(g89
g70
NtRp2154
(dp2155
g73
(dp2156
g100
g101
ssg82
g2146
sg75
(lp2157
S':'
asbag68
(g89
g70
NtRp2158
(dp2159
g73
(dp2160
sg82
g2146
sg75
(lp2161
g68
(g69
g70
NtRp2162
(dp2163
g73
(dp2164
g81
I4
ssg82
g2158
sg75
(lp2165
g1520
asbasbasbag68
(g84
g70
NtRp2166
(dp2167
g73
(dp2168
sg82
g1943
sg75
(lp2169
g68
(g89
g70
NtRp2170
(dp2171
g73
(dp2172
g93
g94
ssg82
g2166
sg75
(lp2173
g1550
asbag68
(g89
g70
NtRp2174
(dp2175
g73
(dp2176
g100
g101
ssg82
g2166
sg75
(lp2177
S':'
asbag68
(g89
g70
NtRp2178
(dp2179
g73
(dp2180
sg82
g2166
sg75
(lp2181
g68
(g69
g70
NtRp2182
(dp2183
g73
(dp2184
g81
I4
ssg82
g2178
sg75
(lp2185
g68
(g77
g70
NtRp2186
(dp2187
g73
(dp2188
g81
I3
ssg82
Nsg75
(lp2189
g68
(g84
g70
NtRp2190
(dp2191
g73
(dp2192
sg82
g2186
sg75
(lp2193
g68
(g89
g70
NtRp2194
(dp2195
g73
(dp2196
sg82
g2190
sg75
(lp2197
g68
(g69
g70
NtRp2198
(dp2199
g73
(dp2200
g81
I3
ssg82
g2194
sg75
(lp2201
S'1'
asbasbasbag68
(g84
g70
NtRp2202
(dp2203
g73
(dp2204
sg82
g2186
sg75
(lp2205
g68
(g89
g70
NtRp2206
(dp2207
g73
(dp2208
sg82
g2202
sg75
(lp2209
g68
(g69
g70
NtRp2210
(dp2211
g73
(dp2212
g81
I3
ssg82
g2206
sg75
(lp2213
S'99'
p2214
asbasbasbag68
(g84
g70
NtRp2215
(dp2216
g73
(dp2217
sg82
g2186
sg75
(lp2218
g68
(g89
g70
NtRp2219
(dp2220
g73
(dp2221
sg82
g2215
sg75
(lp2222
g68
(g69
g70
NtRp2223
(dp2224
g73
(dp2225
g81
I3
ssg82
g2219
sg75
(lp2226
S'7'
asbasbasbag68
(g84
g70
NtRp2227
(dp2228
g73
(dp2229
sg82
g2186
sg75
(lp2230
g68
(g89
g70
NtRp2231
(dp2232
g73
(dp2233
sg82
g2227
sg75
(lp2234
g68
(g69
g70
NtRp2235
(dp2236
g73
(dp2237
g81
I3
ssg82
g2231
sg75
(lp2238
S'datetime.datetime(2012, 3, 4, 22, 12, 8)'
p2239
asbasbasbag68
(g84
g70
NtRp2240
(dp2241
g73
(dp2242
sg82
g2186
sg75
(lp2243
g68
(g89
g70
NtRp2244
(dp2245
g73
(dp2246
sg82
g2240
sg75
(lp2247
g68
(g69
g70
NtRp2248
(dp2249
g73
(dp2250
g81
I3
ssg82
g2244
sg75
(lp2251
g1629
asbasbasbasbasbasbasbasbasbasbasbag68
(g84
g70
NtRp2252
(dp2253
g73
(dp2254
sg82
g78
sg75
(lp2255
g68
(g89
g70
NtRp2256
(dp2257
g73
(dp2258
g93
g94
ssg82
g2252
sg75
(lp2259
S'is_https'
p2260
asbag68
(g89
g70
NtRp2261
(dp2262
g73
(dp2263
g100
g101
ssg82
g2252
sg75
(lp2264
S':'
asbag68
(g89
g70
NtRp2265
(dp2266
g73
(dp2267
sg82
g2252
sg75
(lp2268
g68
(g69
g70
NtRp2269
(dp2270
g73
(dp2271
g81
I5
ssg82
g2265
sg75
(lp2272
g111
asbasbasbag68
(g84
g70
NtRp2273
(dp2274
g73
(dp2275
sg82
g78
sg75
(lp2276
g68
(g89
g70
NtRp2277
(dp2278
g73
(dp2279
g93
g94
ssg82
g2273
sg75
(lp2280
S'is_local'
p2281
asbag68
(g89
g70
NtRp2282
(dp2283
g73
(dp2284
g100
g101
ssg82
g2273
sg75
(lp2285
S':'
asbag68
(g89
g70
NtRp2286
(dp2287
g73
(dp2288
sg82
g2273
sg75
(lp2289
g68
(g69
g70
NtRp2290
(dp2291
g73
(dp2292
g81
I5
ssg82
g2286
sg75
(lp2293
g1738
asbasbasbag68
(g84
g70
NtRp2294
(dp2295
g73
(dp2296
sg82
g78
sg75
(lp2297
g68
(g89
g70
NtRp2298
(dp2299
g73
(dp2300
g93
g94
ssg82
g2294
sg75
(lp2301
S'is_restful'
p2302
asbag68
(g89
g70
NtRp2303
(dp2304
g73
(dp2305
g100
g101
ssg82
g2294
sg75
(lp2306
S':'
asbag68
(g89
g70
NtRp2307
(dp2308
g73
(dp2309
sg82
g2294
sg75
(lp2310
g68
(g69
g70
NtRp2311
(dp2312
g73
(dp2313
g81
I5
ssg82
g2307
sg75
(lp2314
g111
asbasbasbag68
(g84
g70
NtRp2315
(dp2316
g73
(dp2317
sg82
g78
sg75
(lp2318
g68
(g89
g70
NtRp2319
(dp2320
g73
(dp2321
g93
g94
ssg82
g2315
sg75
(lp2322
S'now'
p2323
asbag68
(g89
g70
NtRp2324
(dp2325
g73
(dp2326
g100
g101
ssg82
g2315
sg75
(lp2327
S':'
asbag68
(g89
g70
NtRp2328
(dp2329
g73
(dp2330
sg82
g2315
sg75
(lp2331
g68
(g69
g70
NtRp2332
(dp2333
g73
(dp2334
g81
I5
ssg82
g2328
sg75
(lp2335
S'datetime.datetime(2012, 7, 30, 21, 6, 23, 872000)'
p2336
asbasbasbag68
(g84
g70
NtRp2337
(dp2338
g73
(dp2339
sg82
g78
sg75
(lp2340
g68
(g89
g70
NtRp2341
(dp2342
g73
(dp2343
g93
g94
ssg82
g2337
sg75
(lp2344
S'post_vars'
p2345
asbag68
(g89
g70
NtRp2346
(dp2347
g73
(dp2348
g100
g101
ssg82
g2337
sg75
(lp2349
S':'
asbag68
(g89
g70
NtRp2350
(dp2351
g73
(dp2352
sg82
g2337
sg75
(lp2353
g68
(g69
g70
NtRp2354
(dp2355
g73
(dp2356
g81
I5
ssg82
g2350
sg75
(lp2357
g68
(g77
g70
NtRp2358
(dp2359
g73
(dp2360
g81
I4
ssg82
Nsg75
(lp2361
sbasbasbasbag68
(g84
g70
NtRp2362
(dp2363
g73
(dp2364
sg82
g78
sg75
(lp2365
g68
(g89
g70
NtRp2366
(dp2367
g73
(dp2368
g93
g94
ssg82
g2362
sg75
(lp2369
S'raw_args'
p2370
asbag68
(g89
g70
NtRp2371
(dp2372
g73
(dp2373
g100
g101
ssg82
g2362
sg75
(lp2374
S':'
asbag68
(g89
g70
NtRp2375
(dp2376
g73
(dp2377
sg82
g2362
sg75
(lp2378
g68
(g69
g70
NtRp2379
(dp2380
g73
(dp2381
g81
I5
ssg82
g2375
sg75
(lp2382
S'1/2/2'
p2383
asbasbasbag68
(g84
g70
NtRp2384
(dp2385
g73
(dp2386
sg82
g78
sg75
(lp2387
g68
(g89
g70
NtRp2388
(dp2389
g73
(dp2390
g93
g94
ssg82
g2384
sg75
(lp2391
S'url'
p2392
asbag68
(g89
g70
NtRp2393
(dp2394
g73
(dp2395
g100
g101
ssg82
g2384
sg75
(lp2396
S':'
asbag68
(g89
g70
NtRp2397
(dp2398
g73
(dp2399
sg82
g2384
sg75
(lp2400
g68
(g69
g70
NtRp2401
(dp2402
g73
(dp2403
g81
I5
ssg82
g2397
sg75
(lp2404
S'/igor/jobs/accept_job/1/2/2'
p2405
asbasbasbag68
(g84
g70
NtRp2406
(dp2407
g73
(dp2408
sg82
g78
sg75
(lp2409
g68
(g89
g70
NtRp2410
(dp2411
g73
(dp2412
g93
g94
ssg82
g2406
sg75
(lp2413
S'utcnow'
p2414
asbag68
(g89
g70
NtRp2415
(dp2416
g73
(dp2417
g100
g101
ssg82
g2406
sg75
(lp2418
S':'
asbag68
(g89
g70
NtRp2419
(dp2420
g73
(dp2421
sg82
g2406
sg75
(lp2422
g68
(g69
g70
NtRp2423
(dp2424
g73
(dp2425
g81
I5
ssg82
g2419
sg75
(lp2426
S'datetime.datetime(2012, 7, 30, 14, 6, 23, 872000)'
p2427
asbasbasbag68
(g84
g70
NtRp2428
(dp2429
g73
(dp2430
sg82
g78
sg75
(lp2431
g68
(g89
g70
NtRp2432
(dp2433
g73
(dp2434
g93
g94
ssg82
g2428
sg75
(lp2435
S'uuid'
p2436
asbag68
(g89
g70
NtRp2437
(dp2438
g73
(dp2439
g100
g101
ssg82
g2428
sg75
(lp2440
S':'
asbag68
(g89
g70
NtRp2441
(dp2442
g73
(dp2443
sg82
g2428
sg75
(lp2444
g68
(g69
g70
NtRp2445
(dp2446
g73
(dp2447
g81
I5
ssg82
g2441
sg75
(lp2448
S'igor/127.0.0.1.2012-07-30.21-06-23.1f44627d-5a4b-4fe8-9b8c-a7a576fbaa62'
p2449
asbasbasbag68
(g84
g70
NtRp2450
(dp2451
g73
(dp2452
sg82
g78
sg75
(lp2453
g68
(g89
g70
NtRp2454
(dp2455
g73
(dp2456
g93
g94
ssg82
g2450
sg75
(lp2457
S'vars'
p2458
asbag68
(g89
g70
NtRp2459
(dp2460
g73
(dp2461
g100
g101
ssg82
g2450
sg75
(lp2462
S':'
asbag68
(g89
g70
NtRp2463
(dp2464
g73
(dp2465
sg82
g2450
sg75
(lp2466
g68
(g69
g70
NtRp2467
(dp2468
g73
(dp2469
g81
I5
ssg82
g2463
sg75
(lp2470
g68
(g77
g70
NtRp2471
(dp2472
g73
(dp2473
g81
I4
ssg82
Nsg75
(lp2474
sbasbasbasbag68
(g84
g70
NtRp2475
(dp2476
g73
(dp2477
sg82
g78
sg75
(lp2478
g68
(g89
g70
NtRp2479
(dp2480
g73
(dp2481
g93
g94
ssg82
g2475
sg75
(lp2482
S'wsgi'
p2483
asbag68
(g89
g70
NtRp2484
(dp2485
g73
(dp2486
g100
g101
ssg82
g2475
sg75
(lp2487
S':'
asbag68
(g89
g70
NtRp2488
(dp2489
g73
(dp2490
sg82
g2475
sg75
(lp2491
g68
(g69
g70
NtRp2492
(dp2493
g73
(dp2494
g81
I5
ssg82
g2488
sg75
(lp2495
g68
(g77
g70
NtRp2496
(dp2497
g73
(dp2498
g81
I4
ssg82
Nsg75
(lp2499
g68
(g84
g70
NtRp2500
(dp2501
g73
(dp2502
sg82
g2496
sg75
(lp2503
g68
(g89
g70
NtRp2504
(dp2505
g73
(dp2506
g93
g94
ssg82
g2500
sg75
(lp2507
S'environ'
p2508
asbag68
(g89
g70
NtRp2509
(dp2510
g73
(dp2511
g100
g101
ssg82
g2500
sg75
(lp2512
S':'
asbag68
(g89
g70
NtRp2513
(dp2514
g73
(dp2515
sg82
g2500
sg75
(lp2516
g68
(g69
g70
NtRp2517
(dp2518
g73
(dp2519
g81
I4
ssg82
g2513
sg75
(lp2520
g68
(g77
g70
NtRp2521
(dp2522
g73
(dp2523
g81
I3
ssg82
Nsg75
(lp2524
g68
(g84
g70
NtRp2525
(dp2526
g73
(dp2527
sg82
g2521
sg75
(lp2528
g68
(g89
g70
NtRp2529
(dp2530
g73
(dp2531
g93
g94
ssg82
g2525
sg75
(lp2532
S'HTTP_ACCEPT'
p2533
asbag68
(g89
g70
NtRp2534
(dp2535
g73
(dp2536
g100
g101
ssg82
g2525
sg75
(lp2537
S':'
asbag68
(g89
g70
NtRp2538
(dp2539
g73
(dp2540
sg82
g2525
sg75
(lp2541
g68
(g69
g70
NtRp2542
(dp2543
g73
(dp2544
g81
I3
ssg82
g2538
sg75
(lp2545
g1063
asbasbasbag68
(g84
g70
NtRp2546
(dp2547
g73
(dp2548
sg82
g2521
sg75
(lp2549
g68
(g89
g70
NtRp2550
(dp2551
g73
(dp2552
g93
g94
ssg82
g2546
sg75
(lp2553
S'HTTP_ACCEPT_CHARSET'
p2554
asbag68
(g89
g70
NtRp2555
(dp2556
g73
(dp2557
g100
g101
ssg82
g2546
sg75
(lp2558
S':'
asbag68
(g89
g70
NtRp2559
(dp2560
g73
(dp2561
sg82
g2546
sg75
(lp2562
g68
(g69
g70
NtRp2563
(dp2564
g73
(dp2565
g81
I3
ssg82
g2559
sg75
(lp2566
g1085
asbasbasbag68
(g84
g70
NtRp2567
(dp2568
g73
(dp2569
sg82
g2521
sg75
(lp2570
g68
(g89
g70
NtRp2571
(dp2572
g73
(dp2573
g93
g94
ssg82
g2567
sg75
(lp2574
S'HTTP_ACCEPT_ENCODING'
p2575
asbag68
(g89
g70
NtRp2576
(dp2577
g73
(dp2578
g100
g101
ssg82
g2567
sg75
(lp2579
S':'
asbag68
(g89
g70
NtRp2580
(dp2581
g73
(dp2582
sg82
g2567
sg75
(lp2583
g68
(g69
g70
NtRp2584
(dp2585
g73
(dp2586
g81
I3
ssg82
g2580
sg75
(lp2587
g1107
asbasbasbag68
(g84
g70
NtRp2588
(dp2589
g73
(dp2590
sg82
g2521
sg75
(lp2591
g68
(g89
g70
NtRp2592
(dp2593
g73
(dp2594
g93
g94
ssg82
g2588
sg75
(lp2595
S'HTTP_ACCEPT_LANGUAGE'
p2596
asbag68
(g89
g70
NtRp2597
(dp2598
g73
(dp2599
g100
g101
ssg82
g2588
sg75
(lp2600
S':'
asbag68
(g89
g70
NtRp2601
(dp2602
g73
(dp2603
sg82
g2588
sg75
(lp2604
g68
(g69
g70
NtRp2605
(dp2606
g73
(dp2607
g81
I3
ssg82
g2601
sg75
(lp2608
g1129
asbasbasbag68
(g84
g70
NtRp2609
(dp2610
g73
(dp2611
sg82
g2521
sg75
(lp2612
g68
(g89
g70
NtRp2613
(dp2614
g73
(dp2615
g93
g94
ssg82
g2609
sg75
(lp2616
S'HTTP_CACHE_CONTROL'
p2617
asbag68
(g89
g70
NtRp2618
(dp2619
g73
(dp2620
g100
g101
ssg82
g2609
sg75
(lp2621
S':'
asbag68
(g89
g70
NtRp2622
(dp2623
g73
(dp2624
sg82
g2609
sg75
(lp2625
g68
(g69
g70
NtRp2626
(dp2627
g73
(dp2628
g81
I3
ssg82
g2622
sg75
(lp2629
g1151
asbasbasbag68
(g84
g70
NtRp2630
(dp2631
g73
(dp2632
sg82
g2521
sg75
(lp2633
g68
(g89
g70
NtRp2634
(dp2635
g73
(dp2636
g93
g94
ssg82
g2630
sg75
(lp2637
S'HTTP_CONNECTION'
p2638
asbag68
(g89
g70
NtRp2639
(dp2640
g73
(dp2641
g100
g101
ssg82
g2630
sg75
(lp2642
S':'
asbag68
(g89
g70
NtRp2643
(dp2644
g73
(dp2645
sg82
g2630
sg75
(lp2646
g68
(g69
g70
NtRp2647
(dp2648
g73
(dp2649
g81
I3
ssg82
g2643
sg75
(lp2650
g1173
asbasbasbag68
(g84
g70
NtRp2651
(dp2652
g73
(dp2653
sg82
g2521
sg75
(lp2654
g68
(g89
g70
NtRp2655
(dp2656
g73
(dp2657
g93
g94
ssg82
g2651
sg75
(lp2658
S'HTTP_COOKIE'
p2659
asbag68
(g89
g70
NtRp2660
(dp2661
g73
(dp2662
g100
g101
ssg82
g2651
sg75
(lp2663
S':'
asbag68
(g89
g70
NtRp2664
(dp2665
g73
(dp2666
sg82
g2651
sg75
(lp2667
g68
(g69
g70
NtRp2668
(dp2669
g73
(dp2670
g81
I3
ssg82
g2664
sg75
(lp2671
g1195
asbasbasbag68
(g84
g70
NtRp2672
(dp2673
g73
(dp2674
sg82
g2521
sg75
(lp2675
g68
(g89
g70
NtRp2676
(dp2677
g73
(dp2678
g93
g94
ssg82
g2672
sg75
(lp2679
S'HTTP_HOST'
p2680
asbag68
(g89
g70
NtRp2681
(dp2682
g73
(dp2683
g100
g101
ssg82
g2672
sg75
(lp2684
S':'
asbag68
(g89
g70
NtRp2685
(dp2686
g73
(dp2687
sg82
g2672
sg75
(lp2688
g68
(g69
g70
NtRp2689
(dp2690
g73
(dp2691
g81
I3
ssg82
g2685
sg75
(lp2692
g1217
asbasbasbag68
(g84
g70
NtRp2693
(dp2694
g73
(dp2695
sg82
g2521
sg75
(lp2696
g68
(g89
g70
NtRp2697
(dp2698
g73
(dp2699
g93
g94
ssg82
g2693
sg75
(lp2700
S'HTTP_USER_AGENT'
p2701
asbag68
(g89
g70
NtRp2702
(dp2703
g73
(dp2704
g100
g101
ssg82
g2693
sg75
(lp2705
S':'
asbag68
(g89
g70
NtRp2706
(dp2707
g73
(dp2708
sg82
g2693
sg75
(lp2709
g68
(g69
g70
NtRp2710
(dp2711
g73
(dp2712
g81
I3
ssg82
g2706
sg75
(lp2713
g1239
asbasbasbag68
(g84
g70
NtRp2714
(dp2715
g73
(dp2716
sg82
g2521
sg75
(lp2717
g68
(g89
g70
NtRp2718
(dp2719
g73
(dp2720
g93
g94
ssg82
g2714
sg75
(lp2721
S'PATH_INFO'
p2722
asbag68
(g89
g70
NtRp2723
(dp2724
g73
(dp2725
g100
g101
ssg82
g2714
sg75
(lp2726
S':'
asbag68
(g89
g70
NtRp2727
(dp2728
g73
(dp2729
sg82
g2714
sg75
(lp2730
g68
(g69
g70
NtRp2731
(dp2732
g73
(dp2733
g81
I3
ssg82
g2727
sg75
(lp2734
g1303
asbasbasbag68
(g84
g70
NtRp2735
(dp2736
g73
(dp2737
sg82
g2521
sg75
(lp2738
g68
(g89
g70
NtRp2739
(dp2740
g73
(dp2741
g93
g94
ssg82
g2735
sg75
(lp2742
S'QUERY_STRING'
p2743
asbag68
(g89
g70
NtRp2744
(dp2745
g73
(dp2746
g100
g101
ssg82
g2735
sg75
(lp2747
S':'
asbag68
(g89
g70
NtRp2748
(dp2749
g73
(dp2750
sg82
g2735
sg75
(lp2751
g68
(g69
g70
NtRp2752
(dp2753
g73
(dp2754
g81
I3
ssg82
g2748
sg75
(lp2755
S''
asbasbasbag68
(g84
g70
NtRp2756
(dp2757
g73
(dp2758
sg82
g2521
sg75
(lp2759
g68
(g89
g70
NtRp2760
(dp2761
g73
(dp2762
g93
g94
ssg82
g2756
sg75
(lp2763
S'REMOTE_ADDR'
p2764
asbag68
(g89
g70
NtRp2765
(dp2766
g73
(dp2767
g100
g101
ssg82
g2756
sg75
(lp2768
S':'
asbag68
(g89
g70
NtRp2769
(dp2770
g73
(dp2771
sg82
g2756
sg75
(lp2772
g68
(g69
g70
NtRp2773
(dp2774
g73
(dp2775
g81
I3
ssg82
g2769
sg75
(lp2776
g237
asbasbasbag68
(g84
g70
NtRp2777
(dp2778
g73
(dp2779
sg82
g2521
sg75
(lp2780
g68
(g89
g70
NtRp2781
(dp2782
g73
(dp2783
g93
g94
ssg82
g2777
sg75
(lp2784
S'REMOTE_PORT'
p2785
asbag68
(g89
g70
NtRp2786
(dp2787
g73
(dp2788
g100
g101
ssg82
g2777
sg75
(lp2789
S':'
asbag68
(g89
g70
NtRp2790
(dp2791
g73
(dp2792
sg82
g2777
sg75
(lp2793
g68
(g69
g70
NtRp2794
(dp2795
g73
(dp2796
g81
I3
ssg82
g2790
sg75
(lp2797
g1367
asbasbasbag68
(g84
g70
NtRp2798
(dp2799
g73
(dp2800
sg82
g2521
sg75
(lp2801
g68
(g89
g70
NtRp2802
(dp2803
g73
(dp2804
g93
g94
ssg82
g2798
sg75
(lp2805
S'REQUEST_METHOD'
p2806
asbag68
(g89
g70
NtRp2807
(dp2808
g73
(dp2809
g100
g101
ssg82
g2798
sg75
(lp2810
S':'
asbag68
(g89
g70
NtRp2811
(dp2812
g73
(dp2813
sg82
g2798
sg75
(lp2814
g68
(g69
g70
NtRp2815
(dp2816
g73
(dp2817
g81
I3
ssg82
g2811
sg75
(lp2818
g1389
asbasbasbag68
(g84
g70
NtRp2819
(dp2820
g73
(dp2821
sg82
g2521
sg75
(lp2822
g68
(g89
g70
NtRp2823
(dp2824
g73
(dp2825
g93
g94
ssg82
g2819
sg75
(lp2826
S'SCRIPT_NAME'
p2827
asbag68
(g89
g70
NtRp2828
(dp2829
g73
(dp2830
g100
g101
ssg82
g2819
sg75
(lp2831
S':'
asbag68
(g89
g70
NtRp2832
(dp2833
g73
(dp2834
sg82
g2819
sg75
(lp2835
g68
(g69
g70
NtRp2836
(dp2837
g73
(dp2838
g81
I3
ssg82
g2832
sg75
(lp2839
S''
asbasbasbag68
(g84
g70
NtRp2840
(dp2841
g73
(dp2842
sg82
g2521
sg75
(lp2843
g68
(g89
g70
NtRp2844
(dp2845
g73
(dp2846
g93
g94
ssg82
g2840
sg75
(lp2847
S'SERVER_NAME'
p2848
asbag68
(g89
g70
NtRp2849
(dp2850
g73
(dp2851
g100
g101
ssg82
g2840
sg75
(lp2852
S':'
asbag68
(g89
g70
NtRp2853
(dp2854
g73
(dp2855
sg82
g2840
sg75
(lp2856
g68
(g69
g70
NtRp2857
(dp2858
g73
(dp2859
g81
I3
ssg82
g2853
sg75
(lp2860
g1432
asbasbasbag68
(g84
g70
NtRp2861
(dp2862
g73
(dp2863
sg82
g2521
sg75
(lp2864
g68
(g89
g70
NtRp2865
(dp2866
g73
(dp2867
g93
g94
ssg82
g2861
sg75
(lp2868
S'SERVER_PORT'
p2869
asbag68
(g89
g70
NtRp2870
(dp2871
g73
(dp2872
g100
g101
ssg82
g2861
sg75
(lp2873
S':'
asbag68
(g89
g70
NtRp2874
(dp2875
g73
(dp2876
sg82
g2861
sg75
(lp2877
g68
(g69
g70
NtRp2878
(dp2879
g73
(dp2880
g81
I3
ssg82
g2874
sg75
(lp2881
g1454
asbasbasbag68
(g84
g70
NtRp2882
(dp2883
g73
(dp2884
sg82
g2521
sg75
(lp2885
g68
(g89
g70
NtRp2886
(dp2887
g73
(dp2888
g93
g94
ssg82
g2882
sg75
(lp2889
S'SERVER_PROTOCOL'
p2890
asbag68
(g89
g70
NtRp2891
(dp2892
g73
(dp2893
g100
g101
ssg82
g2882
sg75
(lp2894
S':'
asbag68
(g89
g70
NtRp2895
(dp2896
g73
(dp2897
sg82
g2882
sg75
(lp2898
g68
(g69
g70
NtRp2899
(dp2900
g73
(dp2901
g81
I3
ssg82
g2895
sg75
(lp2902
g1476
asbasbasbag68
(g84
g70
NtRp2903
(dp2904
g73
(dp2905
sg82
g2521
sg75
(lp2906
g68
(g89
g70
NtRp2907
(dp2908
g73
(dp2909
g93
g94
ssg82
g2903
sg75
(lp2910
S'SERVER_SOFTWARE'
p2911
asbag68
(g89
g70
NtRp2912
(dp2913
g73
(dp2914
g100
g101
ssg82
g2903
sg75
(lp2915
S':'
asbag68
(g89
g70
NtRp2916
(dp2917
g73
(dp2918
sg82
g2903
sg75
(lp2919
g68
(g69
g70
NtRp2920
(dp2921
g73
(dp2922
g81
I3
ssg82
g2916
sg75
(lp2923
g1498
asbasbasbag68
(g84
g70
NtRp2924
(dp2925
g73
(dp2926
sg82
g2521
sg75
(lp2927
g68
(g89
g70
NtRp2928
(dp2929
g73
(dp2930
g93
g94
ssg82
g2924
sg75
(lp2931
S'wsgi.errors'
p2932
asbag68
(g89
g70
NtRp2933
(dp2934
g73
(dp2935
g100
g101
ssg82
g2924
sg75
(lp2936
S':'
asbag68
(g89
g70
NtRp2937
(dp2938
g73
(dp2939
sg82
g2924
sg75
(lp2940
g68
(g69
g70
NtRp2941
(dp2942
g73
(dp2943
g81
I3
ssg82
g2937
sg75
(lp2944
S"<open file '<stderr>', mode 'w' at 0x0000000001D4E1E0>"
p2945
asbasbasbag68
(g84
g70
NtRp2946
(dp2947
g73
(dp2948
sg82
g2521
sg75
(lp2949
g68
(g89
g70
NtRp2950
(dp2951
g73
(dp2952
g93
g94
ssg82
g2946
sg75
(lp2953
S'wsgi.file_wrapper'
p2954
asbag68
(g89
g70
NtRp2955
(dp2956
g73
(dp2957
g100
g101
ssg82
g2946
sg75
(lp2958
S':'
asbag68
(g89
g70
NtRp2959
(dp2960
g73
(dp2961
sg82
g2946
sg75
(lp2962
g68
(g69
g70
NtRp2963
(dp2964
g73
(dp2965
g81
I3
ssg82
g2959
sg75
(lp2966
S'<class wsgiref.util.FileWrapper at 0x0000000003420AC8>'
p2967
asbasbasbag68
(g84
g70
NtRp2968
(dp2969
g73
(dp2970
sg82
g2521
sg75
(lp2971
g68
(g89
g70
NtRp2972
(dp2973
g73
(dp2974
g93
g94
ssg82
g2968
sg75
(lp2975
S'wsgi.input'
p2976
asbag68
(g89
g70
NtRp2977
(dp2978
g73
(dp2979
g100
g101
ssg82
g2968
sg75
(lp2980
S':'
asbag68
(g89
g70
NtRp2981
(dp2982
g73
(dp2983
sg82
g2968
sg75
(lp2984
g68
(g69
g70
NtRp2985
(dp2986
g73
(dp2987
g81
I3
ssg82
g2981
sg75
(lp2988
S'<cStringIO.StringO object at 0x0000000005DCE030>'
p2989
asbasbasbag68
(g84
g70
NtRp2990
(dp2991
g73
(dp2992
sg82
g2521
sg75
(lp2993
g68
(g89
g70
NtRp2994
(dp2995
g73
(dp2996
g93
g94
ssg82
g2990
sg75
(lp2997
S'wsgi.multiprocess'
p2998
asbag68
(g89
g70
NtRp2999
(dp3000
g73
(dp3001
g100
g101
ssg82
g2990
sg75
(lp3002
S':'
asbag68
(g89
g70
NtRp3003
(dp3004
g73
(dp3005
sg82
g2990
sg75
(lp3006
g68
(g69
g70
NtRp3007
(dp3008
g73
(dp3009
g81
I3
ssg82
g3003
sg75
(lp3010
g111
asbasbasbag68
(g84
g70
NtRp3011
(dp3012
g73
(dp3013
sg82
g2521
sg75
(lp3014
g68
(g89
g70
NtRp3015
(dp3016
g73
(dp3017
g93
g94
ssg82
g3011
sg75
(lp3018
S'wsgi.multithread'
p3019
asbag68
(g89
g70
NtRp3020
(dp3021
g73
(dp3022
g100
g101
ssg82
g3011
sg75
(lp3023
S':'
asbag68
(g89
g70
NtRp3024
(dp3025
g73
(dp3026
sg82
g3011
sg75
(lp3027
g68
(g69
g70
NtRp3028
(dp3029
g73
(dp3030
g81
I3
ssg82
g3024
sg75
(lp3031
g1738
asbasbasbag68
(g84
g70
NtRp3032
(dp3033
g73
(dp3034
sg82
g2521
sg75
(lp3035
g68
(g89
g70
NtRp3036
(dp3037
g73
(dp3038
g93
g94
ssg82
g3032
sg75
(lp3039
S'wsgi.run_once'
p3040
asbag68
(g89
g70
NtRp3041
(dp3042
g73
(dp3043
g100
g101
ssg82
g3032
sg75
(lp3044
S':'
asbag68
(g89
g70
NtRp3045
(dp3046
g73
(dp3047
sg82
g3032
sg75
(lp3048
g68
(g69
g70
NtRp3049
(dp3050
g73
(dp3051
g81
I3
ssg82
g3045
sg75
(lp3052
g111
asbasbasbag68
(g84
g70
NtRp3053
(dp3054
g73
(dp3055
sg82
g2521
sg75
(lp3056
g68
(g89
g70
NtRp3057
(dp3058
g73
(dp3059
g93
g94
ssg82
g3053
sg75
(lp3060
S'wsgi.url_scheme'
p3061
asbag68
(g89
g70
NtRp3062
(dp3063
g73
(dp3064
g100
g101
ssg82
g3053
sg75
(lp3065
S':'
asbag68
(g89
g70
NtRp3066
(dp3067
g73
(dp3068
sg82
g3053
sg75
(lp3069
g68
(g69
g70
NtRp3070
(dp3071
g73
(dp3072
g81
I3
ssg82
g3066
sg75
(lp3073
g1781
asbasbasbag68
(g84
g70
NtRp3074
(dp3075
g73
(dp3076
sg82
g2521
sg75
(lp3077
g68
(g89
g70
NtRp3078
(dp3079
g73
(dp3080
g93
g94
ssg82
g3074
sg75
(lp3081
S'wsgi.version'
p3082
asbag68
(g89
g70
NtRp3083
(dp3084
g73
(dp3085
g100
g101
ssg82
g3074
sg75
(lp3086
S':'
asbag68
(g89
g70
NtRp3087
(dp3088
g73
(dp3089
sg82
g3074
sg75
(lp3090
g68
(g69
g70
NtRp3091
(dp3092
g73
(dp3093
g81
I3
ssg82
g3087
sg75
(lp3094
S'1'
asbasbasbasbasbasbasbasbasbasbasbasbasbsS'frames'
p3095
(lp3096
(dp3097
S'file'
p3098
S'D:\\workspace\\ca\\IgoR\\C_Sources\\Server\\igor-assistant-ca-2012\\gluon\\restricted.py'
p3099
sS'dump'
p3100
(dp3101
S'code'
p3102
S"'# -*- coding: utf-8 -*-\\n# this file is released ...rn\\n\\n\\nresponse._vars=response._caller(accept_job)\\n'"
p3103
sS'layer'
p3104
S"r'D:\\workspace\\ca\\IgoR\\C_Sources\\Server\\igor-assistant-ca-2012\\applications\\igor\\controllers/jobs.py'"
p3105
sS'global compile2'
p3106
S'<function compile2>'
p3107
sS'ccode'
p3108
S'undefined'
p3109
ssS'lnum'
p3110
I204
sS'lines'
p3111
(dp3112
I199
S"    environment['__name__'] = '__restricted__'"
p3113
sI200
S'    try:'
p3114
sI201
S'        if type(code) == types.CodeType:'
p3115
sI202
S'            ccode = code'
p3116
sI203
S'        else:'
p3117
sI204
S'            ccode = compile2(code,layer)'
p3118
sI205
S'        exec ccode in environment'
p3119
sI206
S'    except HTTP:'
p3120
sI207
S'        raise'
p3121
sI208
S'    except RestrictedError:'
p3122
ssS'call'
p3123
S"(code='# -*- coding: utf-8 -*-\\n# this file is released ...rn\\n\\n\\nresponse._vars=response._caller(accept_job)\\n', environment={'A': <class 'gluon.html.A'>, 'Auth': <class 'gluon.tools.Auth'>, 'B': <class 'gluon.html.B'>, 'BEAUTIFY': <class 'gluon.html.BEAUTIFY'>, 'BODY': <class 'gluon.html.BODY'>, 'BR': <class 'gluon.html.BR'>, 'BUTTON': <class 'gluon.html.BUTTON'>, 'CAT': <class 'gluon.html.CAT'>, 'CENTER': <class 'gluon.html.CENTER'>, 'CLEANUP': <class 'gluon.validators.CLEANUP'>, ...}, layer=r'D:\\workspace\\ca\\IgoR\\C_Sources\\Server\\igor-assistant-ca-2012\\applications\\igor\\controllers/jobs.py')"
p3124
sS'func'
p3125
S'restricted'
p3126
sa(dp3127
g3098
S'D:\\workspace\\ca\\IgoR\\C_Sources\\Server\\igor-assistant-ca-2012\\gluon\\restricted.py'
p3128
sg3100
(dp3129
S'builtincompile'
p3130
S'<built-in function compile>'
p3131
sS'code'
p3132
S"'# -*- coding: utf-8 -*-\\n# this file is released ...rn\\n\\n\\nresponse._vars=response._caller(accept_job)\\n'"
p3133
sS'code.rstrip'
p3134
S'<built-in method rstrip of str object>'
p3135
sS').replace'
p3136
g3109
sS'layer'
p3137
S"r'D:\\workspace\\ca\\IgoR\\C_Sources\\Server\\igor-assistant-ca-2012\\applications\\igor\\controllers/jobs.py'"
p3138
ssg3110
I189
sg3111
(dp3139
I192
S'    """'
p3140
sI193
S'    runs code in environment and returns the output. if an exception occurs'
p3141
sI184
S''
sI185
S'def compile2(code,layer):'
p3142
sI186
S'    """'
p3143
sI187
S"    The +'\\n' is necessary else compile fails when code ends in a comment."
p3144
sI188
S'    """'
p3145
sI189
S"    return compile(code.rstrip().replace('\\r\\n','\\n')+'\\n', layer, 'exec')"
p3146
sI190
S''
sI191
S"def restricted(code, environment=None, layer='Unknown'):"
p3147
ssg3123
S"(code='# -*- coding: utf-8 -*-\\n# this file is released ...rn\\n\\n\\nresponse._vars=response._caller(accept_job)\\n', layer=r'D:\\workspace\\ca\\IgoR\\C_Sources\\Server\\igor-assistant-ca-2012\\applications\\igor\\controllers/jobs.py')"
p3148
sg3125
S'compile2'
p3149
sasS'pyver'
p3150
S'Python 2.7.3: C:\\Python27\\python.exe'
p3151
sS'session'
p3152
g68
(g69
g70
NtRp3153
(dp3154
g73
(dp3155
sg75
(lp3156
g68
(g77
g70
NtRp3157
(dp3158
g73
(dp3159
g81
I5
ssg82
Nsg75
(lp3160
sbasbsS'etype'
p3161
S"<type 'exceptions.IndentationError'>"
p3162
sS'date'
p3163
S'Mon Jul 30 21:06:23 2012'
p3164
sS'response'
p3165
g68
(g69
g70
NtRp3166
(dp3167
g73
(dp3168
sg75
(lp3169
g68
(g77
g70
NtRp3170
(dp3171
g73
(dp3172
g81
I5
ssg82
Nsg75
(lp3173
g68
(g84
g70
NtRp3174
(dp3175
g73
(dp3176
sg82
g3170
sg75
(lp3177
g68
(g89
g70
NtRp3178
(dp3179
g73
(dp3180
g93
g94
ssg82
g3174
sg75
(lp3181
g202
asbag68
(g89
g70
NtRp3182
(dp3183
g73
(dp3184
g100
g101
ssg82
g3174
sg75
(lp3185
S':'
asbag68
(g89
g70
NtRp3186
(dp3187
g73
(dp3188
sg82
g3174
sg75
(lp3189
g68
(g69
g70
NtRp3190
(dp3191
g73
(dp3192
g81
I5
ssg82
g3186
sg75
(lp3193
S'<cStringIO.StringO object at 0x0000000005DCE068>'
p3194
asbasbasbag68
(g84
g70
NtRp3195
(dp3196
g73
(dp3197
sg82
g3170
sg75
(lp3198
g68
(g89
g70
NtRp3199
(dp3200
g73
(dp3201
g93
g94
ssg82
g3195
sg75
(lp3202
g268
asbag68
(g89
g70
NtRp3203
(dp3204
g73
(dp3205
g100
g101
ssg82
g3195
sg75
(lp3206
S':'
asbag68
(g89
g70
NtRp3207
(dp3208
g73
(dp3209
sg82
g3195
sg75
(lp3210
g68
(g69
g70
NtRp3211
(dp3212
g73
(dp3213
g81
I5
ssg82
g3207
sg75
(lp3214
g68
(g77
g70
NtRp3215
(dp3216
g73
(dp3217
g81
I4
ssg82
Nsg75
(lp3218
g68
(g84
g70
NtRp3219
(dp3220
g73
(dp3221
sg82
g3215
sg75
(lp3222
g68
(g89
g70
NtRp3223
(dp3224
g73
(dp3225
g93
g94
ssg82
g3219
sg75
(lp3226
S'session_id_igor'
p3227
asbag68
(g89
g70
NtRp3228
(dp3229
g73
(dp3230
g100
g101
ssg82
g3219
sg75
(lp3231
S':'
asbag68
(g89
g70
NtRp3232
(dp3233
g73
(dp3234
sg82
g3219
sg75
(lp3235
g68
(g69
g70
NtRp3236
(dp3237
g73
(dp3238
g81
I4
ssg82
g3232
sg75
(lp3239
g68
(g77
g70
NtRp3240
(dp3241
g73
(dp3242
g81
I3
ssg82
Nsg75
(lp3243
g68
(g84
g70
NtRp3244
(dp3245
g73
(dp3246
sg82
g3240
sg75
(lp3247
g68
(g89
g70
NtRp3248
(dp3249
g73
(dp3250
g93
g94
ssg82
g3244
sg75
(lp3251
g318
asbag68
(g89
g70
NtRp3252
(dp3253
g73
(dp3254
g100
g101
ssg82
g3244
sg75
(lp3255
S':'
asbag68
(g89
g70
NtRp3256
(dp3257
g73
(dp3258
sg82
g3244
sg75
(lp3259
g68
(g69
g70
NtRp3260
(dp3261
g73
(dp3262
g81
I3
ssg82
g3256
sg75
(lp3263
S''
asbasbasbag68
(g84
g70
NtRp3264
(dp3265
g73
(dp3266
sg82
g3240
sg75
(lp3267
g68
(g89
g70
NtRp3268
(dp3269
g73
(dp3270
g93
g94
ssg82
g3264
sg75
(lp3271
g339
asbag68
(g89
g70
NtRp3272
(dp3273
g73
(dp3274
g100
g101
ssg82
g3264
sg75
(lp3275
S':'
asbag68
(g89
g70
NtRp3276
(dp3277
g73
(dp3278
sg82
g3264
sg75
(lp3279
g68
(g69
g70
NtRp3280
(dp3281
g73
(dp3282
g81
I3
ssg82
g3276
sg75
(lp3283
S''
asbasbasbag68
(g84
g70
NtRp3284
(dp3285
g73
(dp3286
sg82
g3240
sg75
(lp3287
g68
(g89
g70
NtRp3288
(dp3289
g73
(dp3290
g93
g94
ssg82
g3284
sg75
(lp3291
g360
asbag68
(g89
g70
NtRp3292
(dp3293
g73
(dp3294
g100
g101
ssg82
g3284
sg75
(lp3295
S':'
asbag68
(g89
g70
NtRp3296
(dp3297
g73
(dp3298
sg82
g3284
sg75
(lp3299
g68
(g69
g70
NtRp3300
(dp3301
g73
(dp3302
g81
I3
ssg82
g3296
sg75
(lp3303
S''
asbasbasbag68
(g84
g70
NtRp3304
(dp3305
g73
(dp3306
sg82
g3240
sg75
(lp3307
g68
(g89
g70
NtRp3308
(dp3309
g73
(dp3310
g93
g94
ssg82
g3304
sg75
(lp3311
g381
asbag68
(g89
g70
NtRp3312
(dp3313
g73
(dp3314
g100
g101
ssg82
g3304
sg75
(lp3315
S':'
asbag68
(g89
g70
NtRp3316
(dp3317
g73
(dp3318
sg82
g3304
sg75
(lp3319
g68
(g69
g70
NtRp3320
(dp3321
g73
(dp3322
g81
I3
ssg82
g3316
sg75
(lp3323
S''
asbasbasbag68
(g84
g70
NtRp3324
(dp3325
g73
(dp3326
sg82
g3240
sg75
(lp3327
g68
(g89
g70
NtRp3328
(dp3329
g73
(dp3330
g93
g94
ssg82
g3324
sg75
(lp3331
g402
asbag68
(g89
g70
NtRp3332
(dp3333
g73
(dp3334
g100
g101
ssg82
g3324
sg75
(lp3335
S':'
asbag68
(g89
g70
NtRp3336
(dp3337
g73
(dp3338
sg82
g3324
sg75
(lp3339
g68
(g69
g70
NtRp3340
(dp3341
g73
(dp3342
g81
I3
ssg82
g3336
sg75
(lp3343
S''
asbasbasbag68
(g84
g70
NtRp3344
(dp3345
g73
(dp3346
sg82
g3240
sg75
(lp3347
g68
(g89
g70
NtRp3348
(dp3349
g73
(dp3350
g93
g94
ssg82
g3344
sg75
(lp3351
g423
asbag68
(g89
g70
NtRp3352
(dp3353
g73
(dp3354
g100
g101
ssg82
g3344
sg75
(lp3355
S':'
asbag68
(g89
g70
NtRp3356
(dp3357
g73
(dp3358
sg82
g3344
sg75
(lp3359
g68
(g69
g70
NtRp3360
(dp3361
g73
(dp3362
g81
I3
ssg82
g3356
sg75
(lp3363
S'/'
asbasbasbag68
(g84
g70
NtRp3364
(dp3365
g73
(dp3366
sg82
g3240
sg75
(lp3367
g68
(g89
g70
NtRp3368
(dp3369
g73
(dp3370
g93
g94
ssg82
g3364
sg75
(lp3371
g444
asbag68
(g89
g70
NtRp3372
(dp3373
g73
(dp3374
g100
g101
ssg82
g3364
sg75
(lp3375
S':'
asbag68
(g89
g70
NtRp3376
(dp3377
g73
(dp3378
sg82
g3364
sg75
(lp3379
g68
(g69
g70
NtRp3380
(dp3381
g73
(dp3382
g81
I3
ssg82
g3376
sg75
(lp3383
S''
asbasbasbag68
(g84
g70
NtRp3384
(dp3385
g73
(dp3386
sg82
g3240
sg75
(lp3387
g68
(g89
g70
NtRp3388
(dp3389
g73
(dp3390
g93
g94
ssg82
g3384
sg75
(lp3391
g465
asbag68
(g89
g70
NtRp3392
(dp3393
g73
(dp3394
g100
g101
ssg82
g3384
sg75
(lp3395
S':'
asbag68
(g89
g70
NtRp3396
(dp3397
g73
(dp3398
sg82
g3384
sg75
(lp3399
g68
(g69
g70
NtRp3400
(dp3401
g73
(dp3402
g81
I3
ssg82
g3396
sg75
(lp3403
S''
asbasbasbasbasbasbasbasbasbasbasbag68
(g84
g70
NtRp3404
(dp3405
g73
(dp3406
sg82
g3170
sg75
(lp3407
g68
(g89
g70
NtRp3408
(dp3409
g73
(dp3410
g93
g94
ssg82
g3404
sg75
(lp3411
S'delimiters'
p3412
asbag68
(g89
g70
NtRp3413
(dp3414
g73
(dp3415
g100
g101
ssg82
g3404
sg75
(lp3416
S':'
asbag68
(g89
g70
NtRp3417
(dp3418
g73
(dp3419
sg82
g3404
sg75
(lp3420
g68
(g69
g70
NtRp3421
(dp3422
g73
(dp3423
g81
I5
ssg82
g3417
sg75
(lp3424
g68
(g77
g70
NtRp3425
(dp3426
g73
(dp3427
g81
I4
ssg82
Nsg75
(lp3428
g68
(g84
g70
NtRp3429
(dp3430
g73
(dp3431
sg82
g3425
sg75
(lp3432
g68
(g89
g70
NtRp3433
(dp3434
g73
(dp3435
sg82
g3429
sg75
(lp3436
g68
(g69
g70
NtRp3437
(dp3438
g73
(dp3439
g81
I4
ssg82
g3433
sg75
(lp3440
S'{{'
p3441
asbasbasbag68
(g84
g70
NtRp3442
(dp3443
g73
(dp3444
sg82
g3425
sg75
(lp3445
g68
(g89
g70
NtRp3446
(dp3447
g73
(dp3448
sg82
g3442
sg75
(lp3449
g68
(g69
g70
NtRp3450
(dp3451
g73
(dp3452
g81
I4
ssg82
g3446
sg75
(lp3453
S'}}'
p3454
asbasbasbasbasbasbasbag68
(g84
g70
NtRp3455
(dp3456
g73
(dp3457
sg82
g3170
sg75
(lp3458
g68
(g89
g70
NtRp3459
(dp3460
g73
(dp3461
g93
g94
ssg82
g3455
sg75
(lp3462
S'files'
p3463
asbag68
(g89
g70
NtRp3464
(dp3465
g73
(dp3466
g100
g101
ssg82
g3455
sg75
(lp3467
S':'
asbag68
(g89
g70
NtRp3468
(dp3469
g73
(dp3470
sg82
g3455
sg75
(lp3471
g68
(g69
g70
NtRp3472
(dp3473
g73
(dp3474
g81
I5
ssg82
g3468
sg75
(lp3475
g68
(g77
g70
NtRp3476
(dp3477
g73
(dp3478
g81
I4
ssg82
Nsg75
(lp3479
sbasbasbasbag68
(g84
g70
NtRp3480
(dp3481
g73
(dp3482
sg82
g3170
sg75
(lp3483
g68
(g89
g70
NtRp3484
(dp3485
g73
(dp3486
g93
g94
ssg82
g3480
sg75
(lp3487
S'flash'
p3488
asbag68
(g89
g70
NtRp3489
(dp3490
g73
(dp3491
g100
g101
ssg82
g3480
sg75
(lp3492
S':'
asbag68
(g89
g70
NtRp3493
(dp3494
g73
(dp3495
sg82
g3480
sg75
(lp3496
g68
(g69
g70
NtRp3497
(dp3498
g73
(dp3499
g81
I5
ssg82
g3493
sg75
(lp3500
S''
asbasbasbag68
(g84
g70
NtRp3501
(dp3502
g73
(dp3503
sg82
g3170
sg75
(lp3504
g68
(g89
g70
NtRp3505
(dp3506
g73
(dp3507
g93
g94
ssg82
g3501
sg75
(lp3508
S'generic_patterns'
p3509
asbag68
(g89
g70
NtRp3510
(dp3511
g73
(dp3512
g100
g101
ssg82
g3501
sg75
(lp3513
S':'
asbag68
(g89
g70
NtRp3514
(dp3515
g73
(dp3516
sg82
g3501
sg75
(lp3517
g68
(g69
g70
NtRp3518
(dp3519
g73
(dp3520
g81
I5
ssg82
g3514
sg75
(lp3521
g68
(g77
g70
NtRp3522
(dp3523
g73
(dp3524
g81
I4
ssg82
Nsg75
(lp3525
g68
(g84
g70
NtRp3526
(dp3527
g73
(dp3528
sg82
g3522
sg75
(lp3529
g68
(g89
g70
NtRp3530
(dp3531
g73
(dp3532
sg82
g3526
sg75
(lp3533
g68
(g69
g70
NtRp3534
(dp3535
g73
(dp3536
g81
I4
ssg82
g3530
sg75
(lp3537
S'*'
asbasbasbasbasbasbasbag68
(g84
g70
NtRp3538
(dp3539
g73
(dp3540
sg82
g3170
sg75
(lp3541
g68
(g89
g70
NtRp3542
(dp3543
g73
(dp3544
g93
g94
ssg82
g3538
sg75
(lp3545
S'headers'
p3546
asbag68
(g89
g70
NtRp3547
(dp3548
g73
(dp3549
g100
g101
ssg82
g3538
sg75
(lp3550
S':'
asbag68
(g89
g70
NtRp3551
(dp3552
g73
(dp3553
sg82
g3538
sg75
(lp3554
g68
(g69
g70
NtRp3555
(dp3556
g73
(dp3557
g81
I5
ssg82
g3551
sg75
(lp3558
g68
(g77
g70
NtRp3559
(dp3560
g73
(dp3561
g81
I4
ssg82
Nsg75
(lp3562
g68
(g84
g70
NtRp3563
(dp3564
g73
(dp3565
sg82
g3559
sg75
(lp3566
g68
(g89
g70
NtRp3567
(dp3568
g73
(dp3569
g93
g94
ssg82
g3563
sg75
(lp3570
S'Cache-Control'
p3571
asbag68
(g89
g70
NtRp3572
(dp3573
g73
(dp3574
g100
g101
ssg82
g3563
sg75
(lp3575
S':'
asbag68
(g89
g70
NtRp3576
(dp3577
g73
(dp3578
sg82
g3563
sg75
(lp3579
g68
(g69
g70
NtRp3580
(dp3581
g73
(dp3582
g81
I4
ssg82
g3576
sg75
(lp3583
S'no-store, no-cache, must-revalidate, post-check=0, pre-check=0'
p3584
asbasbasbag68
(g84
g70
NtRp3585
(dp3586
g73
(dp3587
sg82
g3559
sg75
(lp3588
g68
(g89
g70
NtRp3589
(dp3590
g73
(dp3591
g93
g94
ssg82
g3585
sg75
(lp3592
S'Content-Type'
p3593
asbag68
(g89
g70
NtRp3594
(dp3595
g73
(dp3596
g100
g101
ssg82
g3585
sg75
(lp3597
S':'
asbag68
(g89
g70
NtRp3598
(dp3599
g73
(dp3600
sg82
g3585
sg75
(lp3601
g68
(g69
g70
NtRp3602
(dp3603
g73
(dp3604
g81
I4
ssg82
g3598
sg75
(lp3605
S'text/html; charset=utf-8'
p3606
asbasbasbag68
(g84
g70
NtRp3607
(dp3608
g73
(dp3609
sg82
g3559
sg75
(lp3610
g68
(g89
g70
NtRp3611
(dp3612
g73
(dp3613
g93
g94
ssg82
g3607
sg75
(lp3614
S'Expires'
p3615
asbag68
(g89
g70
NtRp3616
(dp3617
g73
(dp3618
g100
g101
ssg82
g3607
sg75
(lp3619
S':'
asbag68
(g89
g70
NtRp3620
(dp3621
g73
(dp3622
sg82
g3607
sg75
(lp3623
g68
(g69
g70
NtRp3624
(dp3625
g73
(dp3626
g81
I4
ssg82
g3620
sg75
(lp3627
S'Mon, 30 Jul 2012 14:06:23 GMT'
p3628
asbasbasbag68
(g84
g70
NtRp3629
(dp3630
g73
(dp3631
sg82
g3559
sg75
(lp3632
g68
(g89
g70
NtRp3633
(dp3634
g73
(dp3635
g93
g94
ssg82
g3629
sg75
(lp3636
S'Pragma'
p3637
asbag68
(g89
g70
NtRp3638
(dp3639
g73
(dp3640
g100
g101
ssg82
g3629
sg75
(lp3641
S':'
asbag68
(g89
g70
NtRp3642
(dp3643
g73
(dp3644
sg82
g3629
sg75
(lp3645
g68
(g69
g70
NtRp3646
(dp3647
g73
(dp3648
g81
I4
ssg82
g3642
sg75
(lp3649
S'no-cache'
p3650
asbasbasbag68
(g84
g70
NtRp3651
(dp3652
g73
(dp3653
sg82
g3559
sg75
(lp3654
g68
(g89
g70
NtRp3655
(dp3656
g73
(dp3657
g93
g94
ssg82
g3651
sg75
(lp3658
S'X-Powered-By'
p3659
asbag68
(g89
g70
NtRp3660
(dp3661
g73
(dp3662
g100
g101
ssg82
g3651
sg75
(lp3663
S':'
asbag68
(g89
g70
NtRp3664
(dp3665
g73
(dp3666
sg82
g3651
sg75
(lp3667
g68
(g69
g70
NtRp3668
(dp3669
g73
(dp3670
g81
I4
ssg82
g3664
sg75
(lp3671
S'web2py'
p3672
asbasbasbasbasbasbasbag68
(g84
g70
NtRp3673
(dp3674
g73
(dp3675
sg82
g3170
sg75
(lp3676
g68
(g89
g70
NtRp3677
(dp3678
g73
(dp3679
g93
g94
ssg82
g3673
sg75
(lp3680
S'menu'
p3681
asbag68
(g89
g70
NtRp3682
(dp3683
g73
(dp3684
g100
g101
ssg82
g3673
sg75
(lp3685
S':'
asbag68
(g89
g70
NtRp3686
(dp3687
g73
(dp3688
sg82
g3673
sg75
(lp3689
g68
(g69
g70
NtRp3690
(dp3691
g73
(dp3692
g81
I5
ssg82
g3686
sg75
(lp3693
g68
(g77
g70
NtRp3694
(dp3695
g73
(dp3696
g81
I4
ssg82
Nsg75
(lp3697
g68
(g84
g70
NtRp3698
(dp3699
g73
(dp3700
sg82
g3694
sg75
(lp3701
g68
(g89
g70
NtRp3702
(dp3703
g73
(dp3704
sg82
g3698
sg75
(lp3705
g68
(g69
g70
NtRp3706
(dp3707
g73
(dp3708
g81
I4
ssg82
g3702
sg75
(lp3709
g68
(g77
g70
NtRp3710
(dp3711
g73
(dp3712
g81
I3
ssg82
Nsg75
(lp3713
g68
(g84
g70
NtRp3714
(dp3715
g73
(dp3716
sg82
g3710
sg75
(lp3717
g68
(g89
g70
NtRp3718
(dp3719
g73
(dp3720
sg82
g3714
sg75
(lp3721
g68
(g69
g70
NtRp3722
(dp3723
g73
(dp3724
g81
I3
ssg82
g3718
sg75
(lp3725
cgluon.languages
lazyT_unpickle
p3726
(S't\x04\x00\x00\x00Home'
tRp3727
asbasbasbag68
(g84
g70
NtRp3728
(dp3729
g73
(dp3730
sg82
g3710
sg75
(lp3731
g68
(g89
g70
NtRp3732
(dp3733
g73
(dp3734
sg82
g3728
sg75
(lp3735
g68
(g69
g70
NtRp3736
(dp3737
g73
(dp3738
g81
I3
ssg82
g3732
sg75
(lp3739
g111
asbasbasbag68
(g84
g70
NtRp3740
(dp3741
g73
(dp3742
sg82
g3710
sg75
(lp3743
g68
(g89
g70
NtRp3744
(dp3745
g73
(dp3746
sg82
g3740
sg75
(lp3747
g68
(g69
g70
NtRp3748
(dp3749
g73
(dp3750
g81
I3
ssg82
g3744
sg75
(lp3751
S'/igor/default/index'
p3752
asbasbasbag68
(g84
g70
NtRp3753
(dp3754
g73
(dp3755
sg82
g3710
sg75
(lp3756
g68
(g89
g70
NtRp3757
(dp3758
g73
(dp3759
sg82
g3753
sg75
(lp3760
g68
(g69
g70
NtRp3761
(dp3762
g73
(dp3763
g81
I3
ssg82
g3757
sg75
(lp3764
g68
(g77
g70
NtRp3765
(dp3766
g73
(dp3767
g81
I2
ssg82
Nsg75
(lp3768
sbasbasbasbasbasbasbasbag68
(g84
g70
NtRp3769
(dp3770
g73
(dp3771
sg82
g3694
sg75
(lp3772
g68
(g89
g70
NtRp3773
(dp3774
g73
(dp3775
sg82
g3769
sg75
(lp3776
g68
(g69
g70
NtRp3777
(dp3778
g73
(dp3779
g81
I4
ssg82
g3773
sg75
(lp3780
g68
(g77
g70
NtRp3781
(dp3782
g73
(dp3783
g81
I3
ssg82
Nsg75
(lp3784
g68
(g84
g70
NtRp3785
(dp3786
g73
(dp3787
sg82
g3781
sg75
(lp3788
g68
(g89
g70
NtRp3789
(dp3790
g73
(dp3791
sg82
g3785
sg75
(lp3792
g68
(g69
g70
NtRp3793
(dp3794
g73
(dp3795
g81
I3
ssg82
g3789
sg75
(lp3796
g68
(cgluon.html
SPAN
p3797
g70
NtRp3798
(dp3799
g73
(dp3800
g93
S'color:yellow'
p3801
ssg82
Nsg75
(lp3802
g3672
asbasbasbasbag68
(g84
g70
NtRp3803
(dp3804
g73
(dp3805
sg82
g3781
sg75
(lp3806
g68
(g89
g70
NtRp3807
(dp3808
g73
(dp3809
sg82
g3803
sg75
(lp3810
g68
(g69
g70
NtRp3811
(dp3812
g73
(dp3813
g81
I3
ssg82
g3807
sg75
(lp3814
g111
asbasbasbag68
(g84
g70
NtRp3815
(dp3816
g73
(dp3817
sg82
g3781
sg75
(lp3818
g68
(g89
g70
NtRp3819
(dp3820
g73
(dp3821
sg82
g3815
sg75
(lp3822
g68
(g69
g70
NtRp3823
(dp3824
g73
(dp3825
g81
I3
ssg82
g3819
sg75
(lp3826
S'None'
p3827
asbasbasbag68
(g84
g70
NtRp3828
(dp3829
g73
(dp3830
sg82
g3781
sg75
(lp3831
g68
(g89
g70
NtRp3832
(dp3833
g73
(dp3834
sg82
g3828
sg75
(lp3835
g68
(g69
g70
NtRp3836
(dp3837
g73
(dp3838
g81
I3
ssg82
g3832
sg75
(lp3839
g68
(g77
g70
NtRp3840
(dp3841
g73
(dp3842
g81
I2
ssg82
Nsg75
(lp3843
g68
(g84
g70
NtRp3844
(dp3845
g73
(dp3846
sg82
g3840
sg75
(lp3847
g68
(g89
g70
NtRp3848
(dp3849
g73
(dp3850
sg82
g3844
sg75
(lp3851
g68
(g69
g70
NtRp3852
(dp3853
g73
(dp3854
g81
I2
ssg82
g3848
sg75
(lp3855
g68
(g77
g70
NtRp3856
(dp3857
g73
(dp3858
g81
I1
ssg82
Nsg75
(lp3859
g68
(g84
g70
NtRp3860
(dp3861
g73
(dp3862
sg82
g3856
sg75
(lp3863
g68
(g89
g70
NtRp3864
(dp3865
g73
(dp3866
sg82
g3860
sg75
(lp3867
g68
(g69
g70
NtRp3868
(dp3869
g73
(dp3870
g81
I1
ssg82
g3864
sg75
(lp3871
g3726
(S's\x08\x00\x00\x00My Sites'
tRp3872
asbasbasbag68
(g84
g70
NtRp3873
(dp3874
g73
(dp3875
sg82
g3856
sg75
(lp3876
g68
(g89
g70
NtRp3877
(dp3878
g73
(dp3879
sg82
g3873
sg75
(lp3880
g68
(g69
g70
NtRp3881
(dp3882
g73
(dp3883
g81
I1
ssg82
g3877
sg75
(lp3884
I00
asbasbasbag68
(g84
g70
NtRp3885
(dp3886
g73
(dp3887
sg82
g3856
sg75
(lp3888
g68
(g89
g70
NtRp3889
(dp3890
g73
(dp3891
sg82
g3885
sg75
(lp3892
g68
(g69
g70
NtRp3893
(dp3894
g73
(dp3895
g81
I1
ssg82
g3889
sg75
(lp3896
S'/admin/default/site'
p3897
asbasbasbasbasbasbasbag68
(g84
g70
NtRp3898
(dp3899
g73
(dp3900
sg82
g3840
sg75
(lp3901
g68
(g89
g70
NtRp3902
(dp3903
g73
(dp3904
sg82
g3898
sg75
(lp3905
g68
(g69
g70
NtRp3906
(dp3907
g73
(dp3908
g81
I2
ssg82
g3902
sg75
(lp3909
g68
(g77
g70
NtRp3910
(dp3911
g73
(dp3912
g81
I1
ssg82
Nsg75
(lp3913
g68
(g84
g70
NtRp3914
(dp3915
g73
(dp3916
sg82
g3910
sg75
(lp3917
g68
(g89
g70
NtRp3918
(dp3919
g73
(dp3920
sg82
g3914
sg75
(lp3921
g68
(g69
g70
NtRp3922
(dp3923
g73
(dp3924
g81
I1
ssg82
g3918
sg75
(lp3925
g3726
(S's\x08\x00\x00\x00This App'
tRp3926
asbasbasbag68
(g84
g70
NtRp3927
(dp3928
g73
(dp3929
sg82
g3910
sg75
(lp3930
g68
(g89
g70
NtRp3931
(dp3932
g73
(dp3933
sg82
g3927
sg75
(lp3934
g68
(g69
g70
NtRp3935
(dp3936
g73
(dp3937
g81
I1
ssg82
g3931
sg75
(lp3938
I00
asbasbasbag68
(g84
g70
NtRp3939
(dp3940
g73
(dp3941
sg82
g3910
sg75
(lp3942
g68
(g89
g70
NtRp3943
(dp3944
g73
(dp3945
sg82
g3939
sg75
(lp3946
g68
(g69
g70
NtRp3947
(dp3948
g73
(dp3949
g81
I1
ssg82
g3943
sg75
(lp3950
S'/admin/default/design/igor'
p3951
asbasbasbag68
(g84
g70
NtRp3952
(dp3953
g73
(dp3954
sg82
g3910
sg75
(lp3955
g68
(g89
g70
NtRp3956
(dp3957
g73
(dp3958
sg82
g3952
sg75
(lp3959
g68
(g69
g70
NtRp3960
(dp3961
g73
(dp3962
g81
I1
ssg82
g3956
sg75
(lp3963
(lp3964
(g3726
(S't\n\x00\x00\x00Controller'
tRp3965
I00
S'/admin/default/edit/igor/controllers/jobs.py'
tp3966
a(g3726
(S't\x04\x00\x00\x00View'
tRp3967
I00
S'/admin/default/edit/igor/views/jobs/accept_job.html'
tp3968
a(g3726
(S't\x06\x00\x00\x00Layout'
tRp3969
I00
S'/admin/default/edit/igor/views/layout.html'
tp3970
a(g3726
(S't\n\x00\x00\x00Stylesheet'
tRp3971
I00
S'/admin/default/edit/igor/static/css/web2py.css'
tp3972
a(g3726
(S's\x08\x00\x00\x00DB Model'
tRp3973
I00
S'/admin/default/edit/igor/models/db.py'
tp3974
a(g3726
(S's\n\x00\x00\x00Menu Model'
tRp3975
I00
S'/admin/default/edit/igor/models/menu.py'
tp3976
a(g3726
(S't\x08\x00\x00\x00Database'
tRp3977
I00
S'/igor/appadmin/index'
tp3978
a(g3726
(S't\x06\x00\x00\x00Errors'
tRp3979
I00
S'/admin/default/errors/igor'
tp3980
a(g3726
(S't\x05\x00\x00\x00About'
tRp3981
I00
S'/admin/default/about/igor'
tp3982
aasbasbasbasbasbasbasbag68
(g84
g70
NtRp3983
(dp3984
g73
(dp3985
sg82
g3840
sg75
(lp3986
g68
(g89
g70
NtRp3987
(dp3988
g73
(dp3989
sg82
g3983
sg75
(lp3990
g68
(g69
g70
NtRp3991
(dp3992
g73
(dp3993
g81
I2
ssg82
g3987
sg75
(lp3994
g68
(g77
g70
NtRp3995
(dp3996
g73
(dp3997
g81
I1
ssg82
Nsg75
(lp3998
g68
(g84
g70
NtRp3999
(dp4000
g73
(dp4001
sg82
g3995
sg75
(lp4002
g68
(g89
g70
NtRp4003
(dp4004
g73
(dp4005
sg82
g3999
sg75
(lp4006
g68
(g69
g70
NtRp4007
(dp4008
g73
(dp4009
g81
I1
ssg82
g4003
sg75
(lp4010
S'web2py.com'
p4011
asbasbasbag68
(g84
g70
NtRp4012
(dp4013
g73
(dp4014
sg82
g3995
sg75
(lp4015
g68
(g89
g70
NtRp4016
(dp4017
g73
(dp4018
sg82
g4012
sg75
(lp4019
g68
(g69
g70
NtRp4020
(dp4021
g73
(dp4022
g81
I1
ssg82
g4016
sg75
(lp4023
I00
asbasbasbag68
(g84
g70
NtRp4024
(dp4025
g73
(dp4026
sg82
g3995
sg75
(lp4027
g68
(g89
g70
NtRp4028
(dp4029
g73
(dp4030
sg82
g4024
sg75
(lp4031
g68
(g69
g70
NtRp4032
(dp4033
g73
(dp4034
g81
I1
ssg82
g4028
sg75
(lp4035
S'http://www.web2py.com'
p4036
asbasbasbag68
(g84
g70
NtRp4037
(dp4038
g73
(dp4039
sg82
g3995
sg75
(lp4040
g68
(g89
g70
NtRp4041
(dp4042
g73
(dp4043
sg82
g4037
sg75
(lp4044
g68
(g69
g70
NtRp4045
(dp4046
g73
(dp4047
g81
I1
ssg82
g4041
sg75
(lp4048
(lp4049
(g3726
(S't\x08\x00\x00\x00Download'
tRp4050
I00
S'http://www.web2py.com/examples/default/download'
p4051
tp4052
a(g3726
(S't\x07\x00\x00\x00Support'
tRp4053
I00
S'http://www.web2py.com/examples/default/support'
p4054
tp4055
a(g3726
(S't\x04\x00\x00\x00Demo'
tRp4056
I00
S'http://web2py.com/demo_admin'
p4057
tp4058
a(g3726
(S's\x0e\x00\x00\x00Quick Examples'
tRp4059
I00
S'http://web2py.com/examples/default/examples'
p4060
tp4061
a(g3726
(S't\x03\x00\x00\x00FAQ'
tRp4062
I00
S'http://web2py.com/AlterEgo'
p4063
tp4064
a(g3726
(S't\x06\x00\x00\x00Videos'
tRp4065
I00
S'http://www.web2py.com/examples/default/videos/'
p4066
tp4067
a(g3726
(S's\x11\x00\x00\x00Free Applications'
tRp4068
I00
S'http://web2py.com/appliances'
p4069
tp4070
a(g3726
(S't\x07\x00\x00\x00Plugins'
tRp4071
I00
S'http://web2py.com/plugins'
p4072
tp4073
a(g3726
(S't\x07\x00\x00\x00Layouts'
tRp4074
I00
S'http://web2py.com/layouts'
p4075
tp4076
a(g3726
(S't\x07\x00\x00\x00Recipes'
tRp4077
I00
S'http://web2pyslices.com/'
p4078
tp4079
a(g3726
(S't\x08\x00\x00\x00Semantic'
tRp4080
I00
S'http://web2py.com/semantic'
p4081
tp4082
aasbasbasbasbasbasbasbag68
(g84
g70
NtRp4083
(dp4084
g73
(dp4085
sg82
g3840
sg75
(lp4086
g68
(g89
g70
NtRp4087
(dp4088
g73
(dp4089
sg82
g4083
sg75
(lp4090
g68
(g69
g70
NtRp4091
(dp4092
g73
(dp4093
g81
I2
ssg82
g4087
sg75
(lp4094
g68
(g77
g70
NtRp4095
(dp4096
g73
(dp4097
g81
I1
ssg82
Nsg75
(lp4098
g68
(g84
g70
NtRp4099
(dp4100
g73
(dp4101
sg82
g4095
sg75
(lp4102
g68
(g89
g70
NtRp4103
(dp4104
g73
(dp4105
sg82
g4099
sg75
(lp4106
g68
(g69
g70
NtRp4107
(dp4108
g73
(dp4109
g81
I1
ssg82
g4103
sg75
(lp4110
g3726
(S't\r\x00\x00\x00Documentation'
tRp4111
asbasbasbag68
(g84
g70
NtRp4112
(dp4113
g73
(dp4114
sg82
g4095
sg75
(lp4115
g68
(g89
g70
NtRp4116
(dp4117
g73
(dp4118
sg82
g4112
sg75
(lp4119
g68
(g69
g70
NtRp4120
(dp4121
g73
(dp4122
g81
I1
ssg82
g4116
sg75
(lp4123
I00
asbasbasbag68
(g84
g70
NtRp4124
(dp4125
g73
(dp4126
sg82
g4095
sg75
(lp4127
g68
(g89
g70
NtRp4128
(dp4129
g73
(dp4130
sg82
g4124
sg75
(lp4131
g68
(g69
g70
NtRp4132
(dp4133
g73
(dp4134
g81
I1
ssg82
g4128
sg75
(lp4135
S'http://www.web2py.com/book'
p4136
asbasbasbag68
(g84
g70
NtRp4137
(dp4138
g73
(dp4139
sg82
g4095
sg75
(lp4140
g68
(g89
g70
NtRp4141
(dp4142
g73
(dp4143
sg82
g4137
sg75
(lp4144
g68
(g69
g70
NtRp4145
(dp4146
g73
(dp4147
g81
I1
ssg82
g4141
sg75
(lp4148
(lp4149
(g3726
(S't\x07\x00\x00\x00Preface'
tRp4150
I00
S'http://www.web2py.com/book/default/chapter/00'
p4151
tp4152
a(g3726
(S't\x0c\x00\x00\x00Introduction'
tRp4153
I00
S'http://www.web2py.com/book/default/chapter/01'
p4154
tp4155
a(g3726
(S't\x06\x00\x00\x00Python'
tRp4156
I00
S'http://www.web2py.com/book/default/chapter/02'
p4157
tp4158
a(g3726
(S't\x08\x00\x00\x00Overview'
tRp4159
I00
S'http://www.web2py.com/book/default/chapter/03'
p4160
tp4161
a(g3726
(S's\x08\x00\x00\x00The Core'
tRp4162
I00
S'http://www.web2py.com/book/default/chapter/04'
p4163
tp4164
a(g3726
(S's\t\x00\x00\x00The Views'
tRp4165
I00
S'http://www.web2py.com/book/default/chapter/05'
p4166
tp4167
a(g3726
(S't\x08\x00\x00\x00Database'
tRp4168
I00
S'http://www.web2py.com/book/default/chapter/06'
p4169
tp4170
a(g3726
(S's\x14\x00\x00\x00Forms and Validators'
tRp4171
I00
S'http://www.web2py.com/book/default/chapter/07'
p4172
tp4173
a(g3726
(S's\r\x00\x00\x00Email and SMS'
tRp4174
I00
S'http://www.web2py.com/book/default/chapter/08'
p4175
tp4176
a(g3726
(S's\x0e\x00\x00\x00Access Control'
tRp4177
I00
S'http://www.web2py.com/book/default/chapter/09'
p4178
tp4179
a(g3726
(S't\x08\x00\x00\x00Services'
tRp4180
I00
S'http://www.web2py.com/book/default/chapter/10'
p4181
tp4182
a(g3726
(S's\x0c\x00\x00\x00Ajax Recipes'
tRp4183
I00
S'http://www.web2py.com/book/default/chapter/11'
p4184
tp4185
a(g3726
(S's\x16\x00\x00\x00Components and Plugins'
tRp4186
I00
S'http://www.web2py.com/book/default/chapter/12'
p4187
tp4188
a(g3726
(S's\x12\x00\x00\x00Deployment Recipes'
tRp4189
I00
S'http://www.web2py.com/book/default/chapter/13'
p4190
tp4191
a(g3726
(S's\r\x00\x00\x00Other Recipes'
tRp4192
I00
S'http://www.web2py.com/book/default/chapter/14'
p4193
tp4194
a(g3726
(S's\r\x00\x00\x00Buy this book'
tRp4195
I00
S'http://stores.lulu.com/web2py'
p4196
tp4197
aasbasbasbasbasbasbasbag68
(g84
g70
NtRp4198
(dp4199
g73
(dp4200
sg82
g3840
sg75
(lp4201
g68
(g89
g70
NtRp4202
(dp4203
g73
(dp4204
sg82
g4198
sg75
(lp4205
g68
(g69
g70
NtRp4206
(dp4207
g73
(dp4208
g81
I2
ssg82
g4202
sg75
(lp4209
g68
(g77
g70
NtRp4210
(dp4211
g73
(dp4212
g81
I1
ssg82
Nsg75
(lp4213
g68
(g84
g70
NtRp4214
(dp4215
g73
(dp4216
sg82
g4210
sg75
(lp4217
g68
(g89
g70
NtRp4218
(dp4219
g73
(dp4220
sg82
g4214
sg75
(lp4221
g68
(g69
g70
NtRp4222
(dp4223
g73
(dp4224
g81
I1
ssg82
g4218
sg75
(lp4225
g3726
(S't\t\x00\x00\x00Community'
tRp4226
asbasbasbag68
(g84
g70
NtRp4227
(dp4228
g73
(dp4229
sg82
g4210
sg75
(lp4230
g68
(g89
g70
NtRp4231
(dp4232
g73
(dp4233
sg82
g4227
sg75
(lp4234
g68
(g69
g70
NtRp4235
(dp4236
g73
(dp4237
g81
I1
ssg82
g4231
sg75
(lp4238
I00
asbasbasbag68
(g84
g70
NtRp4239
(dp4240
g73
(dp4241
sg82
g4210
sg75
(lp4242
g68
(g89
g70
NtRp4243
(dp4244
g73
(dp4245
sg82
g4239
sg75
(lp4246
g68
(g69
g70
NtRp4247
(dp4248
g73
(dp4249
g81
I1
ssg82
g4243
sg75
(lp4250
Nasbasbasbag68
(g84
g70
NtRp4251
(dp4252
g73
(dp4253
sg82
g4210
sg75
(lp4254
g68
(g89
g70
NtRp4255
(dp4256
g73
(dp4257
sg82
g4251
sg75
(lp4258
g68
(g69
g70
NtRp4259
(dp4260
g73
(dp4261
g81
I1
ssg82
g4255
sg75
(lp4262
(lp4263
(g3726
(S't\x06\x00\x00\x00Groups'
tRp4264
I00
S'http://www.web2py.com/examples/default/usergroups'
p4265
tp4266
a(g3726
(S't\x07\x00\x00\x00Twitter'
tRp4267
I00
S'http://twitter.com/web2py'
p4268
tp4269
a(g3726
(S's\t\x00\x00\x00Live Chat'
tRp4270
I00
S'http://webchat.freenode.net/?channels=web2py'
p4271
tp4272
aasbasbasbasbasbasbasbag68
(g84
g70
NtRp4273
(dp4274
g73
(dp4275
sg82
g3840
sg75
(lp4276
g68
(g89
g70
NtRp4277
(dp4278
g73
(dp4279
sg82
g4273
sg75
(lp4280
g68
(g69
g70
NtRp4281
(dp4282
g73
(dp4283
g81
I2
ssg82
g4277
sg75
(lp4284
g68
(g77
g70
NtRp4285
(dp4286
g73
(dp4287
g81
I1
ssg82
Nsg75
(lp4288
g68
(g84
g70
NtRp4289
(dp4290
g73
(dp4291
sg82
g4285
sg75
(lp4292
g68
(g89
g70
NtRp4293
(dp4294
g73
(dp4295
sg82
g4289
sg75
(lp4296
g68
(g69
g70
NtRp4297
(dp4298
g73
(dp4299
g81
I1
ssg82
g4293
sg75
(lp4300
g3726
(S't\x07\x00\x00\x00Plugins'
tRp4301
asbasbasbag68
(g84
g70
NtRp4302
(dp4303
g73
(dp4304
sg82
g4285
sg75
(lp4305
g68
(g89
g70
NtRp4306
(dp4307
g73
(dp4308
sg82
g4302
sg75
(lp4309
g68
(g69
g70
NtRp4310
(dp4311
g73
(dp4312
g81
I1
ssg82
g4306
sg75
(lp4313
I00
asbasbasbag68
(g84
g70
NtRp4314
(dp4315
g73
(dp4316
sg82
g4285
sg75
(lp4317
g68
(g89
g70
NtRp4318
(dp4319
g73
(dp4320
sg82
g4314
sg75
(lp4321
g68
(g69
g70
NtRp4322
(dp4323
g73
(dp4324
g81
I1
ssg82
g4318
sg75
(lp4325
Nasbasbasbag68
(g84
g70
NtRp4326
(dp4327
g73
(dp4328
sg82
g4285
sg75
(lp4329
g68
(g89
g70
NtRp4330
(dp4331
g73
(dp4332
sg82
g4326
sg75
(lp4333
g68
(g69
g70
NtRp4334
(dp4335
g73
(dp4336
g81
I1
ssg82
g4330
sg75
(lp4337
(lp4338
(S'plugin_wiki'
p4339
I00
S'http://web2py.com/examples/default/download'
p4340
tp4341
a(g3726
(S's\r\x00\x00\x00Other Plugins'
tRp4342
I00
g4072
tp4343
a(g3726
(S's\x0e\x00\x00\x00Layout Plugins'
tRp4344
I00
g4075
tp4345
aasbasbasbasbasbasbasbasbasbasbasbasbasbasbasbasbasbasbasbag68
(g84
g70
NtRp4346
(dp4347
g73
(dp4348
sg82
g3170
sg75
(lp4349
g68
(g89
g70
NtRp4350
(dp4351
g73
(dp4352
g93
g94
ssg82
g4346
sg75
(lp4353
S'meta'
p4354
asbag68
(g89
g70
NtRp4355
(dp4356
g73
(dp4357
g100
g101
ssg82
g4346
sg75
(lp4358
S':'
asbag68
(g89
g70
NtRp4359
(dp4360
g73
(dp4361
sg82
g4346
sg75
(lp4362
g68
(g69
g70
NtRp4363
(dp4364
g73
(dp4365
g81
I5
ssg82
g4359
sg75
(lp4366
g68
(g77
g70
NtRp4367
(dp4368
g73
(dp4369
g81
I4
ssg82
Nsg75
(lp4370
g68
(g84
g70
NtRp4371
(dp4372
g73
(dp4373
sg82
g4367
sg75
(lp4374
g68
(g89
g70
NtRp4375
(dp4376
g73
(dp4377
g93
g94
ssg82
g4371
sg75
(lp4378
S'author'
p4379
asbag68
(g89
g70
NtRp4380
(dp4381
g73
(dp4382
g100
g101
ssg82
g4371
sg75
(lp4383
S':'
asbag68
(g89
g70
NtRp4384
(dp4385
g73
(dp4386
sg82
g4371
sg75
(lp4387
g68
(g69
g70
NtRp4388
(dp4389
g73
(dp4390
g81
I4
ssg82
g4384
sg75
(lp4391
S'Your Name <you@example.com>'
p4392
asbasbasbag68
(g84
g70
NtRp4393
(dp4394
g73
(dp4395
sg82
g4367
sg75
(lp4396
g68
(g89
g70
NtRp4397
(dp4398
g73
(dp4399
g93
g94
ssg82
g4393
sg75
(lp4400
S'copyright'
p4401
asbag68
(g89
g70
NtRp4402
(dp4403
g73
(dp4404
g100
g101
ssg82
g4393
sg75
(lp4405
S':'
asbag68
(g89
g70
NtRp4406
(dp4407
g73
(dp4408
sg82
g4393
sg75
(lp4409
g68
(g69
g70
NtRp4410
(dp4411
g73
(dp4412
g81
I4
ssg82
g4406
sg75
(lp4413
S'Copyright 2011'
p4414
asbasbasbag68
(g84
g70
NtRp4415
(dp4416
g73
(dp4417
sg82
g4367
sg75
(lp4418
g68
(g89
g70
NtRp4419
(dp4420
g73
(dp4421
g93
g94
ssg82
g4415
sg75
(lp4422
S'description'
p4423
asbag68
(g89
g70
NtRp4424
(dp4425
g73
(dp4426
g100
g101
ssg82
g4415
sg75
(lp4427
S':'
asbag68
(g89
g70
NtRp4428
(dp4429
g73
(dp4430
sg82
g4415
sg75
(lp4431
g68
(g69
g70
NtRp4432
(dp4433
g73
(dp4434
g81
I4
ssg82
g4428
sg75
(lp4435
S'a cool new app'
p4436
asbasbasbag68
(g84
g70
NtRp4437
(dp4438
g73
(dp4439
sg82
g4367
sg75
(lp4440
g68
(g89
g70
NtRp4441
(dp4442
g73
(dp4443
g93
g94
ssg82
g4437
sg75
(lp4444
S'generator'
p4445
asbag68
(g89
g70
NtRp4446
(dp4447
g73
(dp4448
g100
g101
ssg82
g4437
sg75
(lp4449
S':'
asbag68
(g89
g70
NtRp4450
(dp4451
g73
(dp4452
sg82
g4437
sg75
(lp4453
g68
(g69
g70
NtRp4454
(dp4455
g73
(dp4456
g81
I4
ssg82
g4450
sg75
(lp4457
S'Web2py Web Framework'
p4458
asbasbasbag68
(g84
g70
NtRp4459
(dp4460
g73
(dp4461
sg82
g4367
sg75
(lp4462
g68
(g89
g70
NtRp4463
(dp4464
g73
(dp4465
g93
g94
ssg82
g4459
sg75
(lp4466
S'keywords'
p4467
asbag68
(g89
g70
NtRp4468
(dp4469
g73
(dp4470
g100
g101
ssg82
g4459
sg75
(lp4471
S':'
asbag68
(g89
g70
NtRp4472
(dp4473
g73
(dp4474
sg82
g4459
sg75
(lp4475
g68
(g69
g70
NtRp4476
(dp4477
g73
(dp4478
g81
I4
ssg82
g4472
sg75
(lp4479
S'web2py, python, framework'
p4480
asbasbasbasbasbasbasbag68
(g84
g70
NtRp4481
(dp4482
g73
(dp4483
sg82
g3170
sg75
(lp4484
g68
(g89
g70
NtRp4485
(dp4486
g73
(dp4487
g93
g94
ssg82
g4481
sg75
(lp4488
S'postprocessing'
p4489
asbag68
(g89
g70
NtRp4490
(dp4491
g73
(dp4492
g100
g101
ssg82
g4481
sg75
(lp4493
S':'
asbag68
(g89
g70
NtRp4494
(dp4495
g73
(dp4496
sg82
g4481
sg75
(lp4497
g68
(g69
g70
NtRp4498
(dp4499
g73
(dp4500
g81
I5
ssg82
g4494
sg75
(lp4501
g68
(g77
g70
NtRp4502
(dp4503
g73
(dp4504
g81
I4
ssg82
Nsg75
(lp4505
sbasbasbasbag68
(g84
g70
NtRp4506
(dp4507
g73
(dp4508
sg82
g3170
sg75
(lp4509
g68
(g89
g70
NtRp4510
(dp4511
g73
(dp4512
g93
g94
ssg82
g4506
sg75
(lp4513
S'session_filename'
p4514
asbag68
(g89
g70
NtRp4515
(dp4516
g73
(dp4517
g100
g101
ssg82
g4506
sg75
(lp4518
S':'
asbag68
(g89
g70
NtRp4519
(dp4520
g73
(dp4521
sg82
g4506
sg75
(lp4522
g68
(g69
g70
NtRp4523
(dp4524
g73
(dp4525
g81
I5
ssg82
g4519
sg75
(lp4526
S'D:\\workspace\\ca\\IgoR\\C_Sources\\Server\\igor-assistant-ca-2012\\applications\\igor\\sessions\\127.0.0.1-143e89d2-8118-4d12-a636-6b264ead3070'
p4527
asbasbasbag68
(g84
g70
NtRp4528
(dp4529
g73
(dp4530
sg82
g3170
sg75
(lp4531
g68
(g89
g70
NtRp4532
(dp4533
g73
(dp4534
g93
g94
ssg82
g4528
sg75
(lp4535
S'session_id'
p4536
asbag68
(g89
g70
NtRp4537
(dp4538
g73
(dp4539
g100
g101
ssg82
g4528
sg75
(lp4540
S':'
asbag68
(g89
g70
NtRp4541
(dp4542
g73
(dp4543
sg82
g4528
sg75
(lp4544
g68
(g69
g70
NtRp4545
(dp4546
g73
(dp4547
g81
I5
ssg82
g4541
sg75
(lp4548
S'127.0.0.1-143e89d2-8118-4d12-a636-6b264ead3070'
p4549
asbasbasbag68
(g84
g70
NtRp4550
(dp4551
g73
(dp4552
sg82
g3170
sg75
(lp4553
g68
(g89
g70
NtRp4554
(dp4555
g73
(dp4556
g93
g94
ssg82
g4550
sg75
(lp4557
S'session_id_name'
p4558
asbag68
(g89
g70
NtRp4559
(dp4560
g73
(dp4561
g100
g101
ssg82
g4550
sg75
(lp4562
S':'
asbag68
(g89
g70
NtRp4563
(dp4564
g73
(dp4565
sg82
g4550
sg75
(lp4566
g68
(g69
g70
NtRp4567
(dp4568
g73
(dp4569
g81
I5
ssg82
g4563
sg75
(lp4570
g3227
asbasbasbag68
(g84
g70
NtRp4571
(dp4572
g73
(dp4573
sg82
g3170
sg75
(lp4574
g68
(g89
g70
NtRp4575
(dp4576
g73
(dp4577
g93
g94
ssg82
g4571
sg75
(lp4578
S'session_new'
p4579
asbag68
(g89
g70
NtRp4580
(dp4581
g73
(dp4582
g100
g101
ssg82
g4571
sg75
(lp4583
S':'
asbag68
(g89
g70
NtRp4584
(dp4585
g73
(dp4586
sg82
g4571
sg75
(lp4587
g68
(g69
g70
NtRp4588
(dp4589
g73
(dp4590
g81
I5
ssg82
g4584
sg75
(lp4591
g1738
asbasbasbag68
(g84
g70
NtRp4592
(dp4593
g73
(dp4594
sg82
g3170
sg75
(lp4595
g68
(g89
g70
NtRp4596
(dp4597
g73
(dp4598
g93
g94
ssg82
g4592
sg75
(lp4599
S'status'
p4600
asbag68
(g89
g70
NtRp4601
(dp4602
g73
(dp4603
g100
g101
ssg82
g4592
sg75
(lp4604
S':'
asbag68
(g89
g70
NtRp4605
(dp4606
g73
(dp4607
sg82
g4592
sg75
(lp4608
g68
(g69
g70
NtRp4609
(dp4610
g73
(dp4611
g81
I5
ssg82
g4605
sg75
(lp4612
S'200'
p4613
asbasbasbag68
(g84
g70
NtRp4614
(dp4615
g73
(dp4616
sg82
g3170
sg75
(lp4617
g68
(g89
g70
NtRp4618
(dp4619
g73
(dp4620
g93
g94
ssg82
g4614
sg75
(lp4621
S'subtitle'
p4622
asbag68
(g89
g70
NtRp4623
(dp4624
g73
(dp4625
g100
g101
ssg82
g4614
sg75
(lp4626
S':'
asbag68
(g89
g70
NtRp4627
(dp4628
g73
(dp4629
sg82
g4614
sg75
(lp4630
g68
(g69
g70
NtRp4631
(dp4632
g73
(dp4633
g81
I5
ssg82
g4627
sg75
(lp4634
g3726
(S's\r\x00\x00\x00customize me!'
tRp4635
asbasbasbag68
(g84
g70
NtRp4636
(dp4637
g73
(dp4638
sg82
g3170
sg75
(lp4639
g68
(g89
g70
NtRp4640
(dp4641
g73
(dp4642
g93
g94
ssg82
g4636
sg75
(lp4643
S'title'
p4644
asbag68
(g89
g70
NtRp4645
(dp4646
g73
(dp4647
g100
g101
ssg82
g4636
sg75
(lp4648
S':'
asbag68
(g89
g70
NtRp4649
(dp4650
g73
(dp4651
sg82
g4636
sg75
(lp4652
g68
(g69
g70
NtRp4653
(dp4654
g73
(dp4655
g81
I5
ssg82
g4649
sg75
(lp4656
S'Igor'
p4657
asbasbasbag68
(g84
g70
NtRp4658
(dp4659
g73
(dp4660
sg82
g3170
sg75
(lp4661
g68
(g89
g70
NtRp4662
(dp4663
g73
(dp4664
g93
g94
ssg82
g4658
sg75
(lp4665
g2436
asbag68
(g89
g70
NtRp4666
(dp4667
g73
(dp4668
g100
g101
ssg82
g4658
sg75
(lp4669
S':'
asbag68
(g89
g70
NtRp4670
(dp4671
g73
(dp4672
sg82
g4658
sg75
(lp4673
g68
(g69
g70
NtRp4674
(dp4675
g73
(dp4676
g81
I5
ssg82
g4670
sg75
(lp4677
g2449
asbasbasbag68
(g84
g70
NtRp4678
(dp4679
g73
(dp4680
sg82
g3170
sg75
(lp4681
g68
(g89
g70
NtRp4682
(dp4683
g73
(dp4684
g93
g94
ssg82
g4678
sg75
(lp4685
S'view'
p4686
asbag68
(g89
g70
NtRp4687
(dp4688
g73
(dp4689
g100
g101
ssg82
g4678
sg75
(lp4690
S':'
asbag68
(g89
g70
NtRp4691
(dp4692
g73
(dp4693
sg82
g4678
sg75
(lp4694
g68
(g69
g70
NtRp4695
(dp4696
g73
(dp4697
g81
I5
ssg82
g4691
sg75
(lp4698
S'jobs/accept_job.html'
p4699
asbasbasbasbasbsS'locals'
p4700
(dp4701
g4
S"r'D:\\workspace\\ca\\IgoR\\C_Sources\\Server\\igor-assistant-ca-2012\\applications\\igor\\controllers/jobs.py'"
p4702
sg6
S"'# -*- coding: utf-8 -*-\\n# this file is released ...rn\\n\\n\\nresponse._vars=response._caller(accept_job)\\n'"
p4703
sssS'traceback'
p4704
S'Traceback (most recent call last):\n  File "D:\\workspace\\ca\\IgoR\\C_Sources\\Server\\igor-assistant-ca-2012\\gluon\\restricted.py", line 204, in restricted\n    ccode = compile2(code,layer)\n  File "D:\\workspace\\ca\\IgoR\\C_Sources\\Server\\igor-assistant-ca-2012\\gluon\\restricted.py", line 189, in compile2\n    return compile(code.rstrip().replace(\'\\r\\n\',\'\\n\')+\'\\n\', layer, \'exec\')\n  File "D:\\workspace\\ca\\IgoR\\C_Sources\\Server\\igor-assistant-ca-2012\\applications\\igor\\controllers/jobs.py", line 249\n    else:\n       ^\nIndentationError: expected an indented block\n'
p4705
s.