(dp1
S'output'
p2
S"<type 'exceptions.NameError'> global name 'get_class_of_user' is not defined"
p3
sS'layer'
p4
S'/home/tuna/cyberagent/IgoR/C_Sources/Server/igor-assistant-ca-2012/applications/igor/controllers/project.py'
p5
sS'code'
p6
S'# -*- coding: utf-8 -*-\n# this file is released under public domain and you can use without limitations\n\n#########################################################################\n## This is subject controller\n## Author: phucnh, tuna\n#########################################################################\n\nfrom message_packager import *\nfrom gluon.dal import Rows\nfrom gluon.tools import Service\nimport gluon.contenttype\n \nservice = Service()\n\ndef call():\n\tsession.forget()\n\n\treturn service()\n\n@service.jsonp\n@service.json\ndef get_projects(user_id, term = 0):\n\t# Validate input \n\tif (not user_id.isdigit()):\n\t\treturn MessagePackager.get_packaged_message (\n\t\t\tMessageStatus.ERROR, \n\t\t\t"user id must be numberic")\n\n\tif (int (user_id) < 0):\n\t\treturn MessagePackager.get_packaged_message (\n\t\t\tMessageStatus.ERROR, \n\t\t\t"user id can not less than 0")\n\n\t###\n\tif (term == 0):\n\t\tterm = get_current_term()\n\n\tclasses = get_class_of_user(user_id, term, day_of_week)\n\n\tprojects = list()\n\n\tfor classs in classes:\n\t\tproject = db(db.test.class_subject == classs and\n\t\t\tdb.test.test_type == 2).select()\n\t\tprojects.append(project)\n\n\t#projects = format_client_data(projects)\n\n\treturn MessagePackager.get_packaged_message(MessageStatus.OK, projects)\n\n\n@service.jsonp\n@service.json\ndef get_project_detail(project_id):\n\t# Validate input \n\tif (not project_id.isdigit()):\n\t\treturn MessagePackager.get_packaged_message (\n\t\t\tMessageStatus.ERROR, \n\t\t\t"project id must be numberic")\n\n\tif (int (project_id) < 0):\n\t\treturn MessagePackager.get_packaged_message (\n\t\t\tMessageStatus.ERROR, \n\t\t\t"project id can not less than 0")\t\n\t###\n\tproject = db(db.test.id == project_id and\n\t\tdb.test.test_type == 2).select()\n\n\t#project = format_client_data(project)\n\n\treturn MessagePackager.get_packaged_message(MessageStatus.OK, project)\n\n@service.jsonp\n@service.json\ndef get_project_by_class(class_id):\n\t# Validate input \n\tif (not class_id.isdigit()):\n\t\treturn MessagePackager.get_packaged_message (\n\t\t\tMessageStatus.ERROR, \n\t\t\t"class id must be numberic")\n\n\tif (int (class_id) < 0):\n\t\treturn MessagePackager.get_packaged_message (\n\t\t\tMessageStatus.ERROR, \n\t\t\t"class id can not less than 0")\t\n\t###\n\t\n\tproject = db(db.test.class_subject == class_id and\n\t\tdb.test.test_type == 2).select()\n\n\t#project = format_client_data(project)\n\n\treturn MessagePackager.get_packaged_message(MessageStatus.OK, project)\n\n@service.jsonp\n@service.json\ndef get_project_by_user_class(user_id, class_id):\n\t# Validate input \n\tif (not class_id.isdigit()):\n\t\treturn MessagePackager.get_packaged_message (\n\t\t\tMessageStatus.ERROR, \n\t\t\t"class id must be numberic")\n\n\tif (int (class_id) < 0):\n\t\treturn MessagePackager.get_packaged_message (\n\t\t\tMessageStatus.ERROR, \n\t\t\t"class id can not less than 0")\n\n\tif (not user_id.isdigit()):\n\t\treturn MessagePackager.get_packaged_message (\n\t\t\tMessageStatus.ERROR, \n\t\t\t"user id must be numberic")\n\n\tif (int (user_id) < 0):\n\t\treturn MessagePackager.get_packaged_message (\n\t\t\tMessageStatus.ERROR, \n\t\t\t"user id can not less than 0")\n\n\t###\n\n\tclasses = get_class_of_user(user_id, 0, None)\n\n\n\tfor classs in classes:\n\t\tproject = db(db.test.class_subject == classs and\n\t\t\tdb.test.test_type == 2).select()\n\t\tif (project.class_subject == class_id):\n\t\t\t#project = format_client_data(project)\n\t\t\treturn MessagePackager.get_packaged_message (\n\t\t\t\tMessageStatus.OK, project)\n\n\treturn MessagePackager.get_packaged_message (\n\t\tMessageStatus.ERROR, "can not find project")\n\n\n# def format_client_data(projects):\n# \tif (projects == None):\n# \t\treturn\n\n# \tclient_data = list()\n\n# \tfor project in projects:\n\n# \t\tsubject = db(db.subject.id == class_subject.subject).select().first()\n# \t\tclass_schedulers = db(db.class_scheduler.class_subject == class_subject.id).select()\n\t\t\n# \t\tif (subject == None):\n# \t\t\tcontinue\n# \t\t# print class_schedulers\n# \t\tfor class_scheduler in class_schedulers:\n\t\t\t\n# \t\t\t# Get session list (integer)\n# \t\t\tsessions = get_class_sessions(class_scheduler.period)\n\n# \t\t\t# Morning session\n# \t\t\tmorning = [session for session in sessions if session <= 6]\n# \t\t\tafternoon = [session for session in sessions if session >= 7]\n\n\n# \t\t\tif (morning):\n# \t\t\t\tclient = class_data_format(\n# \t\t\t\t\tclass_subject, class_scheduler,\n# \t\t\t\t\tsubject, morning, "Morning")\n\t\t\t\t\n# \t\t\t\tclient_data.append(client)\n\n# \t\t\tif (afternoon):\n# \t\t\t\tafternoon = map(lambda s: s - 6, afternoon)\n# \t\t\t\tclient = class_data_format(\n# \t\t\t\t\tclass_subject, class_scheduler,\n# \t\t\t\t\tsubject, afternoon, "Afternoon")\n\n# \t\t\t\tclient_data.append (client)\n\n# \treturn client_data\nresponse._vars=response._caller(call)\n'
p7
sS'snapshot'
p8
(dp9
S'exception'
p10
(dp11
S'__hash__'
p12
S"<method-wrapper '__hash__' of exceptions.NameError object>"
p13
sS'__setattr__'
p14
S"<method-wrapper '__setattr__' of exceptions.NameError object>"
p15
sS'__reduce_ex__'
p16
S'<built-in method __reduce_ex__ of exceptions.NameError object>'
p17
sS'__getslice__'
p18
S"<method-wrapper '__getslice__' of exceptions.NameError object>"
p19
sS'__getitem__'
p20
S"<method-wrapper '__getitem__' of exceptions.NameError object>"
p21
sS'__setstate__'
p22
S'<built-in method __setstate__ of exceptions.NameError object>'
p23
sS'args'
p24
S'("global name \'get_class_of_user\' is not defined",)'
p25
sS'__reduce__'
p26
S'<built-in method __reduce__ of exceptions.NameError object>'
p27
sS'__str__'
p28
S"<method-wrapper '__str__' of exceptions.NameError object>"
p29
sS'__format__'
p30
S'<built-in method __format__ of exceptions.NameError object>'
p31
sS'__getattribute__'
p32
S"<method-wrapper '__getattribute__' of exceptions.NameError object>"
p33
sS'__class__'
p34
S"<type 'exceptions.NameError'>"
p35
sS'__unicode__'
p36
S'<built-in method __unicode__ of exceptions.NameError object>'
p37
sS'__delattr__'
p38
S"<method-wrapper '__delattr__' of exceptions.NameError object>"
p39
sS'__subclasshook__'
p40
S'<built-in method __subclasshook__ of type object>'
p41
sS'__repr__'
p42
S"<method-wrapper '__repr__' of exceptions.NameError object>"
p43
sS'__dict__'
p44
S'{}'
p45
sS'__sizeof__'
p46
S'<built-in method __sizeof__ of exceptions.NameError object>'
p47
sS'__doc__'
p48
S"'Name not found globally.'"
p49
sS'__init__'
p50
S"<method-wrapper '__init__' of exceptions.NameError object>"
p51
sS'__new__'
p52
S'<built-in method __new__ of type object>'
p53
ssS'evalue'
p54
S"global name 'get_class_of_user' is not defined"
p55
sS'request'
p56
ccopy_reg
_reconstructor
p57
(cgluon.html
BEAUTIFY
p58
c__builtin__
object
p59
NtRp60
(dp61
S'attributes'
p62
(dp63
sS'components'
p64
(lp65
g57
(cgluon.html
TABLE
p66
g59
NtRp67
(dp68
g62
(dp69
S'level'
p70
I5
ssS'parent'
p71
Nsg64
(lp72
g57
(cgluon.html
TR
p73
g59
NtRp74
(dp75
g62
(dp76
sg71
g67
sg64
(lp77
g57
(cgluon.html
TD
p78
g59
NtRp79
(dp80
g62
(dp81
S'_style'
p82
S'font-weight:bold;vertical-align:top'
p83
ssg71
g74
sg64
(lp84
S'ajax'
p85
asbag57
(g78
g59
NtRp86
(dp87
g62
(dp88
S'_valign'
p89
S'top'
p90
ssg71
g74
sg64
(lp91
S':'
asbag57
(g78
g59
NtRp92
(dp93
g62
(dp94
sg71
g74
sg64
(lp95
g57
(g58
g59
NtRp96
(dp97
g62
(dp98
g70
I5
ssg71
g92
sg64
(lp99
S'False'
p100
asbasbasbag57
(g73
g59
NtRp101
(dp102
g62
(dp103
sg71
g67
sg64
(lp104
g57
(g78
g59
NtRp105
(dp106
g62
(dp107
g82
g83
ssg71
g101
sg64
(lp108
S'application'
p109
asbag57
(g78
g59
NtRp110
(dp111
g62
(dp112
g89
g90
ssg71
g101
sg64
(lp113
S':'
asbag57
(g78
g59
NtRp114
(dp115
g62
(dp116
sg71
g101
sg64
(lp117
g57
(g58
g59
NtRp118
(dp119
g62
(dp120
g70
I5
ssg71
g114
sg64
(lp121
S'igor'
p122
asbasbasbag57
(g73
g59
NtRp123
(dp124
g62
(dp125
sg71
g67
sg64
(lp126
g57
(g78
g59
NtRp127
(dp128
g62
(dp129
g82
g83
ssg71
g123
sg64
(lp130
g24
asbag57
(g78
g59
NtRp131
(dp132
g62
(dp133
g89
g90
ssg71
g123
sg64
(lp134
S':'
asbag57
(g78
g59
NtRp135
(dp136
g62
(dp137
sg71
g123
sg64
(lp138
g57
(g58
g59
NtRp139
(dp140
g62
(dp141
g70
I5
ssg71
g135
sg64
(lp142
g57
(g66
g59
NtRp143
(dp144
g62
(dp145
g70
I4
ssg71
Nsg64
(lp146
g57
(g73
g59
NtRp147
(dp148
g62
(dp149
sg71
g143
sg64
(lp150
g57
(g78
g59
NtRp151
(dp152
g62
(dp153
sg71
g147
sg64
(lp154
g57
(g58
g59
NtRp155
(dp156
g62
(dp157
g70
I4
ssg71
g151
sg64
(lp158
S'json'
p159
asbasbasbag57
(g73
g59
NtRp160
(dp161
g62
(dp162
sg71
g143
sg64
(lp163
g57
(g78
g59
NtRp164
(dp165
g62
(dp166
sg71
g160
sg64
(lp167
g57
(g58
g59
NtRp168
(dp169
g62
(dp170
g70
I4
ssg71
g164
sg64
(lp171
S'get_projects'
p172
asbasbasbag57
(g73
g59
NtRp173
(dp174
g62
(dp175
sg71
g143
sg64
(lp176
g57
(g78
g59
NtRp177
(dp178
g62
(dp179
sg71
g173
sg64
(lp180
g57
(g58
g59
NtRp181
(dp182
g62
(dp183
g70
I4
ssg71
g177
sg64
(lp184
S'2'
asbasbasbag57
(g73
g59
NtRp185
(dp186
g62
(dp187
sg71
g143
sg64
(lp188
g57
(g78
g59
NtRp189
(dp190
g62
(dp191
sg71
g185
sg64
(lp192
g57
(g58
g59
NtRp193
(dp194
g62
(dp195
g70
I4
ssg71
g189
sg64
(lp196
S'0'
asbasbasbasbasbasbasbag57
(g73
g59
NtRp197
(dp198
g62
(dp199
sg71
g67
sg64
(lp200
g57
(g78
g59
NtRp201
(dp202
g62
(dp203
g82
g83
ssg71
g197
sg64
(lp204
S'body'
p205
asbag57
(g78
g59
NtRp206
(dp207
g62
(dp208
g89
g90
ssg71
g197
sg64
(lp209
S':'
asbag57
(g78
g59
NtRp210
(dp211
g62
(dp212
sg71
g197
sg64
(lp213
g57
(g58
g59
NtRp214
(dp215
g62
(dp216
g70
I5
ssg71
g210
sg64
(lp217
S'<cStringIO.StringO object at 0x7f469c3c9e30>'
p218
asbasbasbag57
(g73
g59
NtRp219
(dp220
g62
(dp221
sg71
g67
sg64
(lp222
g57
(g78
g59
NtRp223
(dp224
g62
(dp225
g82
g83
ssg71
g219
sg64
(lp226
S'client'
p227
asbag57
(g78
g59
NtRp228
(dp229
g62
(dp230
g89
g90
ssg71
g219
sg64
(lp231
S':'
asbag57
(g78
g59
NtRp232
(dp233
g62
(dp234
sg71
g219
sg64
(lp235
g57
(g58
g59
NtRp236
(dp237
g62
(dp238
g70
I5
ssg71
g232
sg64
(lp239
S'127.0.0.1'
p240
asbasbasbag57
(g73
g59
NtRp241
(dp242
g62
(dp243
sg71
g67
sg64
(lp244
g57
(g78
g59
NtRp245
(dp246
g62
(dp247
g82
g83
ssg71
g241
sg64
(lp248
S'controller'
p249
asbag57
(g78
g59
NtRp250
(dp251
g62
(dp252
g89
g90
ssg71
g241
sg64
(lp253
S':'
asbag57
(g78
g59
NtRp254
(dp255
g62
(dp256
sg71
g241
sg64
(lp257
g57
(g58
g59
NtRp258
(dp259
g62
(dp260
g70
I5
ssg71
g254
sg64
(lp261
S'project'
p262
asbasbasbag57
(g73
g59
NtRp263
(dp264
g62
(dp265
sg71
g67
sg64
(lp266
g57
(g78
g59
NtRp267
(dp268
g62
(dp269
g82
g83
ssg71
g263
sg64
(lp270
S'cookies'
p271
asbag57
(g78
g59
NtRp272
(dp273
g62
(dp274
g89
g90
ssg71
g263
sg64
(lp275
S':'
asbag57
(g78
g59
NtRp276
(dp277
g62
(dp278
sg71
g263
sg64
(lp279
g57
(g58
g59
NtRp280
(dp281
g62
(dp282
g70
I5
ssg71
g276
sg64
(lp283
g57
(g66
g59
NtRp284
(dp285
g62
(dp286
g70
I4
ssg71
Nsg64
(lp287
g57
(g73
g59
NtRp288
(dp289
g62
(dp290
sg71
g284
sg64
(lp291
g57
(g78
g59
NtRp292
(dp293
g62
(dp294
g82
g83
ssg71
g288
sg64
(lp295
S'session_id_admin'
p296
asbag57
(g78
g59
NtRp297
(dp298
g62
(dp299
g89
g90
ssg71
g288
sg64
(lp300
S':'
asbag57
(g78
g59
NtRp301
(dp302
g62
(dp303
sg71
g288
sg64
(lp304
g57
(g58
g59
NtRp305
(dp306
g62
(dp307
g70
I4
ssg71
g301
sg64
(lp308
g57
(g66
g59
NtRp309
(dp310
g62
(dp311
g70
I3
ssg71
Nsg64
(lp312
g57
(g73
g59
NtRp313
(dp314
g62
(dp315
sg71
g309
sg64
(lp316
g57
(g78
g59
NtRp317
(dp318
g62
(dp319
g82
g83
ssg71
g313
sg64
(lp320
S'comment'
p321
asbag57
(g78
g59
NtRp322
(dp323
g62
(dp324
g89
g90
ssg71
g313
sg64
(lp325
S':'
asbag57
(g78
g59
NtRp326
(dp327
g62
(dp328
sg71
g313
sg64
(lp329
g57
(g58
g59
NtRp330
(dp331
g62
(dp332
g70
I3
ssg71
g326
sg64
(lp333
S''
asbasbasbag57
(g73
g59
NtRp334
(dp335
g62
(dp336
sg71
g309
sg64
(lp337
g57
(g78
g59
NtRp338
(dp339
g62
(dp340
g82
g83
ssg71
g334
sg64
(lp341
S'domain'
p342
asbag57
(g78
g59
NtRp343
(dp344
g62
(dp345
g89
g90
ssg71
g334
sg64
(lp346
S':'
asbag57
(g78
g59
NtRp347
(dp348
g62
(dp349
sg71
g334
sg64
(lp350
g57
(g58
g59
NtRp351
(dp352
g62
(dp353
g70
I3
ssg71
g347
sg64
(lp354
S''
asbasbasbag57
(g73
g59
NtRp355
(dp356
g62
(dp357
sg71
g309
sg64
(lp358
g57
(g78
g59
NtRp359
(dp360
g62
(dp361
g82
g83
ssg71
g355
sg64
(lp362
S'expires'
p363
asbag57
(g78
g59
NtRp364
(dp365
g62
(dp366
g89
g90
ssg71
g355
sg64
(lp367
S':'
asbag57
(g78
g59
NtRp368
(dp369
g62
(dp370
sg71
g355
sg64
(lp371
g57
(g58
g59
NtRp372
(dp373
g62
(dp374
g70
I3
ssg71
g368
sg64
(lp375
S''
asbasbasbag57
(g73
g59
NtRp376
(dp377
g62
(dp378
sg71
g309
sg64
(lp379
g57
(g78
g59
NtRp380
(dp381
g62
(dp382
g82
g83
ssg71
g376
sg64
(lp383
S'httponly'
p384
asbag57
(g78
g59
NtRp385
(dp386
g62
(dp387
g89
g90
ssg71
g376
sg64
(lp388
S':'
asbag57
(g78
g59
NtRp389
(dp390
g62
(dp391
sg71
g376
sg64
(lp392
g57
(g58
g59
NtRp393
(dp394
g62
(dp395
g70
I3
ssg71
g389
sg64
(lp396
S''
asbasbasbag57
(g73
g59
NtRp397
(dp398
g62
(dp399
sg71
g309
sg64
(lp400
g57
(g78
g59
NtRp401
(dp402
g62
(dp403
g82
g83
ssg71
g397
sg64
(lp404
S'max-age'
p405
asbag57
(g78
g59
NtRp406
(dp407
g62
(dp408
g89
g90
ssg71
g397
sg64
(lp409
S':'
asbag57
(g78
g59
NtRp410
(dp411
g62
(dp412
sg71
g397
sg64
(lp413
g57
(g58
g59
NtRp414
(dp415
g62
(dp416
g70
I3
ssg71
g410
sg64
(lp417
S''
asbasbasbag57
(g73
g59
NtRp418
(dp419
g62
(dp420
sg71
g309
sg64
(lp421
g57
(g78
g59
NtRp422
(dp423
g62
(dp424
g82
g83
ssg71
g418
sg64
(lp425
S'path'
p426
asbag57
(g78
g59
NtRp427
(dp428
g62
(dp429
g89
g90
ssg71
g418
sg64
(lp430
S':'
asbag57
(g78
g59
NtRp431
(dp432
g62
(dp433
sg71
g418
sg64
(lp434
g57
(g58
g59
NtRp435
(dp436
g62
(dp437
g70
I3
ssg71
g431
sg64
(lp438
S''
asbasbasbag57
(g73
g59
NtRp439
(dp440
g62
(dp441
sg71
g309
sg64
(lp442
g57
(g78
g59
NtRp443
(dp444
g62
(dp445
g82
g83
ssg71
g439
sg64
(lp446
S'secure'
p447
asbag57
(g78
g59
NtRp448
(dp449
g62
(dp450
g89
g90
ssg71
g439
sg64
(lp451
S':'
asbag57
(g78
g59
NtRp452
(dp453
g62
(dp454
sg71
g439
sg64
(lp455
g57
(g58
g59
NtRp456
(dp457
g62
(dp458
g70
I3
ssg71
g452
sg64
(lp459
S''
asbasbasbag57
(g73
g59
NtRp460
(dp461
g62
(dp462
sg71
g309
sg64
(lp463
g57
(g78
g59
NtRp464
(dp465
g62
(dp466
g82
g83
ssg71
g460
sg64
(lp467
S'version'
p468
asbag57
(g78
g59
NtRp469
(dp470
g62
(dp471
g89
g90
ssg71
g460
sg64
(lp472
S':'
asbag57
(g78
g59
NtRp473
(dp474
g62
(dp475
sg71
g460
sg64
(lp476
g57
(g58
g59
NtRp477
(dp478
g62
(dp479
g70
I3
ssg71
g473
sg64
(lp480
S''
asbasbasbasbasbasbasbasbasbasbasbag57
(g73
g59
NtRp481
(dp482
g62
(dp483
sg71
g67
sg64
(lp484
g57
(g78
g59
NtRp485
(dp486
g62
(dp487
g82
g83
ssg71
g481
sg64
(lp488
S'env'
p489
asbag57
(g78
g59
NtRp490
(dp491
g62
(dp492
g89
g90
ssg71
g481
sg64
(lp493
S':'
asbag57
(g78
g59
NtRp494
(dp495
g62
(dp496
sg71
g481
sg64
(lp497
g57
(g58
g59
NtRp498
(dp499
g62
(dp500
g70
I5
ssg71
g494
sg64
(lp501
g57
(g66
g59
NtRp502
(dp503
g62
(dp504
g70
I4
ssg71
Nsg64
(lp505
g57
(g73
g59
NtRp506
(dp507
g62
(dp508
sg71
g502
sg64
(lp509
g57
(g78
g59
NtRp510
(dp511
g62
(dp512
g82
g83
ssg71
g506
sg64
(lp513
S'app_folders'
p514
asbag57
(g78
g59
NtRp515
(dp516
g62
(dp517
g89
g90
ssg71
g506
sg64
(lp518
S':'
asbag57
(g78
g59
NtRp519
(dp520
g62
(dp521
sg71
g506
sg64
(lp522
g57
(g58
g59
NtRp523
(dp524
g62
(dp525
g70
I4
ssg71
g519
sg64
(lp526
S"set(['/home/tuna/cyberagent/IgoR/C_Sources/Server/igor-assistant-ca-2012/applications/admin/', '/home/tuna/cyberagent/IgoR/C_Sources/Server/igor-assistant-ca-2012/applications/igor/', '/home/tuna/cyberagent/IgoR/C_Sources/Server/igor-assistant-ca-2012/applications/welcome/'])"
p527
asbasbasbag57
(g73
g59
NtRp528
(dp529
g62
(dp530
sg71
g502
sg64
(lp531
g57
(g78
g59
NtRp532
(dp533
g62
(dp534
g82
g83
ssg71
g528
sg64
(lp535
S'applications_parent'
p536
asbag57
(g78
g59
NtRp537
(dp538
g62
(dp539
g89
g90
ssg71
g528
sg64
(lp540
S':'
asbag57
(g78
g59
NtRp541
(dp542
g62
(dp543
sg71
g528
sg64
(lp544
g57
(g58
g59
NtRp545
(dp546
g62
(dp547
g70
I4
ssg71
g541
sg64
(lp548
S'/home/tuna/cyberagent/IgoR/C_Sources/Server/igor-assistant-ca-2012'
p549
asbasbasbag57
(g73
g59
NtRp550
(dp551
g62
(dp552
sg71
g502
sg64
(lp553
g57
(g78
g59
NtRp554
(dp555
g62
(dp556
g82
g83
ssg71
g550
sg64
(lp557
S'cmd_args'
p558
asbag57
(g78
g59
NtRp559
(dp560
g62
(dp561
g89
g90
ssg71
g550
sg64
(lp562
S':'
asbag57
(g78
g59
NtRp563
(dp564
g62
(dp565
sg71
g550
sg64
(lp566
g57
(g58
g59
NtRp567
(dp568
g62
(dp569
g70
I4
ssg71
g563
sg64
(lp570
g57
(g66
g59
NtRp571
(dp572
g62
(dp573
g70
I3
ssg71
Nsg64
(lp574
sbasbasbasbag57
(g73
g59
NtRp575
(dp576
g62
(dp577
sg71
g502
sg64
(lp578
g57
(g78
g59
NtRp579
(dp580
g62
(dp581
g82
g83
ssg71
g575
sg64
(lp582
S'cmd_options'
p583
asbag57
(g78
g59
NtRp584
(dp585
g62
(dp586
g89
g90
ssg71
g575
sg64
(lp587
S':'
asbag57
(g78
g59
NtRp588
(dp589
g62
(dp590
sg71
g575
sg64
(lp591
g57
(g58
g59
NtRp592
(dp593
g62
(dp594
g70
I4
ssg71
g588
sg64
(lp595
S"<Values at 0x23f4998: {'verbose': False, 'ip': '127.0.0.1', 'shutdown_timeout': 5, 'taskbar': False, 'nocron': False, 'pid_filename': 'httpserver.pid', 'maxthreads': None, 'softcron': False, 'server_name': 'tuna.com', 'bpython': False, 'nogui': False, 'port': 8000, 'extcron': False, 'debuglevel': 30, 'test': None, 'folder': '/home/tuna/cyberagent/IgoR/C_Sources/Server/igor-assistant-ca-2012', 'config': '', 'import_models': False, 'winservice': '', 'shell': None, 'run': '', 'log_filename': 'httpserver.log', 'args': [''], 'socket_timeout': 5, 'ssl_ca_certificate': None, 'scheduler': None, 'profiler_filename': None, 'ssl_private_key': '', 'password': '<ask>', 'request_queue_size': 5, 'ssl_certificate': '', 'cronjob': False, 'numthreads': None, 'quiet': False, 'interfaces': None, 'minthreads': None, 'timeout': 10, 'plain': False, 'nobanner': False}>"
p596
asbasbasbag57
(g73
g59
NtRp597
(dp598
g62
(dp599
sg71
g502
sg64
(lp600
g57
(g78
g59
NtRp601
(dp602
g62
(dp603
g82
g83
ssg71
g597
sg64
(lp604
S'db_sessions'
p605
asbag57
(g78
g59
NtRp606
(dp607
g62
(dp608
g89
g90
ssg71
g597
sg64
(lp609
S':'
asbag57
(g78
g59
NtRp610
(dp611
g62
(dp612
sg71
g597
sg64
(lp613
g57
(g58
g59
NtRp614
(dp615
g62
(dp616
g70
I4
ssg71
g610
sg64
(lp617
S'set([])'
p618
asbasbasbag57
(g73
g59
NtRp619
(dp620
g62
(dp621
sg71
g502
sg64
(lp622
g57
(g78
g59
NtRp623
(dp624
g62
(dp625
g82
g83
ssg71
g619
sg64
(lp626
S'debugging'
p627
asbag57
(g78
g59
NtRp628
(dp629
g62
(dp630
g89
g90
ssg71
g619
sg64
(lp631
S':'
asbag57
(g78
g59
NtRp632
(dp633
g62
(dp634
sg71
g619
sg64
(lp635
g57
(g58
g59
NtRp636
(dp637
g62
(dp638
g70
I4
ssg71
g632
sg64
(lp639
g100
asbasbasbag57
(g73
g59
NtRp640
(dp641
g62
(dp642
sg71
g502
sg64
(lp643
g57
(g78
g59
NtRp644
(dp645
g62
(dp646
g82
g83
ssg71
g640
sg64
(lp647
S'gluon_parent'
p648
asbag57
(g78
g59
NtRp649
(dp650
g62
(dp651
g89
g90
ssg71
g640
sg64
(lp652
S':'
asbag57
(g78
g59
NtRp653
(dp654
g62
(dp655
sg71
g640
sg64
(lp656
g57
(g58
g59
NtRp657
(dp658
g62
(dp659
g70
I4
ssg71
g653
sg64
(lp660
S'/home/tuna/cyberagent/IgoR/C_Sources/Server/igor-assistant-ca-2012'
p661
asbasbasbag57
(g73
g59
NtRp662
(dp663
g62
(dp664
sg71
g502
sg64
(lp665
g57
(g78
g59
NtRp666
(dp667
g62
(dp668
g82
g83
ssg71
g662
sg64
(lp669
S'http_accept'
p670
asbag57
(g78
g59
NtRp671
(dp672
g62
(dp673
g89
g90
ssg71
g662
sg64
(lp674
S':'
asbag57
(g78
g59
NtRp675
(dp676
g62
(dp677
sg71
g662
sg64
(lp678
g57
(g58
g59
NtRp679
(dp680
g62
(dp681
g70
I4
ssg71
g675
sg64
(lp682
S'text/html,application/xhtml+xml,application/xml;q=0.9,*/*;q=0.8'
p683
asbasbasbag57
(g73
g59
NtRp684
(dp685
g62
(dp686
sg71
g502
sg64
(lp687
g57
(g78
g59
NtRp688
(dp689
g62
(dp690
g82
g83
ssg71
g684
sg64
(lp691
S'http_accept_encoding'
p692
asbag57
(g78
g59
NtRp693
(dp694
g62
(dp695
g89
g90
ssg71
g684
sg64
(lp696
S':'
asbag57
(g78
g59
NtRp697
(dp698
g62
(dp699
sg71
g684
sg64
(lp700
g57
(g58
g59
NtRp701
(dp702
g62
(dp703
g70
I4
ssg71
g697
sg64
(lp704
S'gzip, deflate'
p705
asbasbasbag57
(g73
g59
NtRp706
(dp707
g62
(dp708
sg71
g502
sg64
(lp709
g57
(g78
g59
NtRp710
(dp711
g62
(dp712
g82
g83
ssg71
g706
sg64
(lp713
S'http_accept_language'
p714
asbag57
(g78
g59
NtRp715
(dp716
g62
(dp717
g89
g90
ssg71
g706
sg64
(lp718
S':'
asbag57
(g78
g59
NtRp719
(dp720
g62
(dp721
sg71
g706
sg64
(lp722
g57
(g58
g59
NtRp723
(dp724
g62
(dp725
g70
I4
ssg71
g719
sg64
(lp726
S'en-us,en;q=0.5'
p727
asbasbasbag57
(g73
g59
NtRp728
(dp729
g62
(dp730
sg71
g502
sg64
(lp731
g57
(g78
g59
NtRp732
(dp733
g62
(dp734
g82
g83
ssg71
g728
sg64
(lp735
S'http_connection'
p736
asbag57
(g78
g59
NtRp737
(dp738
g62
(dp739
g89
g90
ssg71
g728
sg64
(lp740
S':'
asbag57
(g78
g59
NtRp741
(dp742
g62
(dp743
sg71
g728
sg64
(lp744
g57
(g58
g59
NtRp745
(dp746
g62
(dp747
g70
I4
ssg71
g741
sg64
(lp748
S'keep-alive'
p749
asbasbasbag57
(g73
g59
NtRp750
(dp751
g62
(dp752
sg71
g502
sg64
(lp753
g57
(g78
g59
NtRp754
(dp755
g62
(dp756
g82
g83
ssg71
g750
sg64
(lp757
S'http_cookie'
p758
asbag57
(g78
g59
NtRp759
(dp760
g62
(dp761
g89
g90
ssg71
g750
sg64
(lp762
S':'
asbag57
(g78
g59
NtRp763
(dp764
g62
(dp765
sg71
g750
sg64
(lp766
g57
(g58
g59
NtRp767
(dp768
g62
(dp769
g70
I4
ssg71
g763
sg64
(lp770
S'session_id_admin=127.0.0.1-f1e6ac74-2937-432d-9dc6-d39d210ef8c2'
p771
asbasbasbag57
(g73
g59
NtRp772
(dp773
g62
(dp774
sg71
g502
sg64
(lp775
g57
(g78
g59
NtRp776
(dp777
g62
(dp778
g82
g83
ssg71
g772
sg64
(lp779
S'http_host'
p780
asbag57
(g78
g59
NtRp781
(dp782
g62
(dp783
g89
g90
ssg71
g772
sg64
(lp784
S':'
asbag57
(g78
g59
NtRp785
(dp786
g62
(dp787
sg71
g772
sg64
(lp788
g57
(g58
g59
NtRp789
(dp790
g62
(dp791
g70
I4
ssg71
g785
sg64
(lp792
S'127.0.0.1:8000'
p793
asbasbasbag57
(g73
g59
NtRp794
(dp795
g62
(dp796
sg71
g502
sg64
(lp797
g57
(g78
g59
NtRp798
(dp799
g62
(dp800
g82
g83
ssg71
g794
sg64
(lp801
S'http_user_agent'
p802
asbag57
(g78
g59
NtRp803
(dp804
g62
(dp805
g89
g90
ssg71
g794
sg64
(lp806
S':'
asbag57
(g78
g59
NtRp807
(dp808
g62
(dp809
sg71
g794
sg64
(lp810
g57
(g58
g59
NtRp811
(dp812
g62
(dp813
g70
I4
ssg71
g807
sg64
(lp814
S'Mozilla/5.0 (X11; Linux x86_64; rv:14.0) Gecko/20100101 Firefox/14.0.1'
p815
asbasbasbag57
(g73
g59
NtRp816
(dp817
g62
(dp818
sg71
g502
sg64
(lp819
g57
(g78
g59
NtRp820
(dp821
g62
(dp822
g82
g83
ssg71
g816
sg64
(lp823
S'is_jython'
p824
asbag57
(g78
g59
NtRp825
(dp826
g62
(dp827
g89
g90
ssg71
g816
sg64
(lp828
S':'
asbag57
(g78
g59
NtRp829
(dp830
g62
(dp831
sg71
g816
sg64
(lp832
g57
(g58
g59
NtRp833
(dp834
g62
(dp835
g70
I4
ssg71
g829
sg64
(lp836
g100
asbasbasbag57
(g73
g59
NtRp837
(dp838
g62
(dp839
sg71
g502
sg64
(lp840
g57
(g78
g59
NtRp841
(dp842
g62
(dp843
g82
g83
ssg71
g837
sg64
(lp844
S'is_pypy'
p845
asbag57
(g78
g59
NtRp846
(dp847
g62
(dp848
g89
g90
ssg71
g837
sg64
(lp849
S':'
asbag57
(g78
g59
NtRp850
(dp851
g62
(dp852
sg71
g837
sg64
(lp853
g57
(g58
g59
NtRp854
(dp855
g62
(dp856
g70
I4
ssg71
g850
sg64
(lp857
g100
asbasbasbag57
(g73
g59
NtRp858
(dp859
g62
(dp860
sg71
g502
sg64
(lp861
g57
(g78
g59
NtRp862
(dp863
g62
(dp864
g82
g83
ssg71
g858
sg64
(lp865
S'path_info'
p866
asbag57
(g78
g59
NtRp867
(dp868
g62
(dp869
g89
g90
ssg71
g858
sg64
(lp870
S':'
asbag57
(g78
g59
NtRp871
(dp872
g62
(dp873
sg71
g858
sg64
(lp874
g57
(g58
g59
NtRp875
(dp876
g62
(dp877
g70
I4
ssg71
g871
sg64
(lp878
S'/igor/project/call/json/get_projects/2/0'
p879
asbasbasbag57
(g73
g59
NtRp880
(dp881
g62
(dp882
sg71
g502
sg64
(lp883
g57
(g78
g59
NtRp884
(dp885
g62
(dp886
g82
g83
ssg71
g880
sg64
(lp887
S'query_string'
p888
asbag57
(g78
g59
NtRp889
(dp890
g62
(dp891
g89
g90
ssg71
g880
sg64
(lp892
S':'
asbag57
(g78
g59
NtRp893
(dp894
g62
(dp895
sg71
g880
sg64
(lp896
g57
(g58
g59
NtRp897
(dp898
g62
(dp899
g70
I4
ssg71
g893
sg64
(lp900
S''
asbasbasbag57
(g73
g59
NtRp901
(dp902
g62
(dp903
sg71
g502
sg64
(lp904
g57
(g78
g59
NtRp905
(dp906
g62
(dp907
g82
g83
ssg71
g901
sg64
(lp908
S'remote_addr'
p909
asbag57
(g78
g59
NtRp910
(dp911
g62
(dp912
g89
g90
ssg71
g901
sg64
(lp913
S':'
asbag57
(g78
g59
NtRp914
(dp915
g62
(dp916
sg71
g901
sg64
(lp917
g57
(g58
g59
NtRp918
(dp919
g62
(dp920
g70
I4
ssg71
g914
sg64
(lp921
g240
asbasbasbag57
(g73
g59
NtRp922
(dp923
g62
(dp924
sg71
g502
sg64
(lp925
g57
(g78
g59
NtRp926
(dp927
g62
(dp928
g82
g83
ssg71
g922
sg64
(lp929
S'remote_port'
p930
asbag57
(g78
g59
NtRp931
(dp932
g62
(dp933
g89
g90
ssg71
g922
sg64
(lp934
S':'
asbag57
(g78
g59
NtRp935
(dp936
g62
(dp937
sg71
g922
sg64
(lp938
g57
(g58
g59
NtRp939
(dp940
g62
(dp941
g70
I4
ssg71
g935
sg64
(lp942
S'53318'
p943
asbasbasbag57
(g73
g59
NtRp944
(dp945
g62
(dp946
sg71
g502
sg64
(lp947
g57
(g78
g59
NtRp948
(dp949
g62
(dp950
g82
g83
ssg71
g944
sg64
(lp951
S'request_method'
p952
asbag57
(g78
g59
NtRp953
(dp954
g62
(dp955
g89
g90
ssg71
g944
sg64
(lp956
S':'
asbag57
(g78
g59
NtRp957
(dp958
g62
(dp959
sg71
g944
sg64
(lp960
g57
(g58
g59
NtRp961
(dp962
g62
(dp963
g70
I4
ssg71
g957
sg64
(lp964
S'GET'
p965
asbasbasbag57
(g73
g59
NtRp966
(dp967
g62
(dp968
sg71
g502
sg64
(lp969
g57
(g78
g59
NtRp970
(dp971
g62
(dp972
g82
g83
ssg71
g966
sg64
(lp973
S'script_name'
p974
asbag57
(g78
g59
NtRp975
(dp976
g62
(dp977
g89
g90
ssg71
g966
sg64
(lp978
S':'
asbag57
(g78
g59
NtRp979
(dp980
g62
(dp981
sg71
g966
sg64
(lp982
g57
(g58
g59
NtRp983
(dp984
g62
(dp985
g70
I4
ssg71
g979
sg64
(lp986
S''
asbasbasbag57
(g73
g59
NtRp987
(dp988
g62
(dp989
sg71
g502
sg64
(lp990
g57
(g78
g59
NtRp991
(dp992
g62
(dp993
g82
g83
ssg71
g987
sg64
(lp994
S'server_name'
p995
asbag57
(g78
g59
NtRp996
(dp997
g62
(dp998
g89
g90
ssg71
g987
sg64
(lp999
S':'
asbag57
(g78
g59
NtRp1000
(dp1001
g62
(dp1002
sg71
g987
sg64
(lp1003
g57
(g58
g59
NtRp1004
(dp1005
g62
(dp1006
g70
I4
ssg71
g1000
sg64
(lp1007
S'tuna.com'
p1008
asbasbasbag57
(g73
g59
NtRp1009
(dp1010
g62
(dp1011
sg71
g502
sg64
(lp1012
g57
(g78
g59
NtRp1013
(dp1014
g62
(dp1015
g82
g83
ssg71
g1009
sg64
(lp1016
S'server_port'
p1017
asbag57
(g78
g59
NtRp1018
(dp1019
g62
(dp1020
g89
g90
ssg71
g1009
sg64
(lp1021
S':'
asbag57
(g78
g59
NtRp1022
(dp1023
g62
(dp1024
sg71
g1009
sg64
(lp1025
g57
(g58
g59
NtRp1026
(dp1027
g62
(dp1028
g70
I4
ssg71
g1022
sg64
(lp1029
S'8000'
p1030
asbasbasbag57
(g73
g59
NtRp1031
(dp1032
g62
(dp1033
sg71
g502
sg64
(lp1034
g57
(g78
g59
NtRp1035
(dp1036
g62
(dp1037
g82
g83
ssg71
g1031
sg64
(lp1038
S'server_protocol'
p1039
asbag57
(g78
g59
NtRp1040
(dp1041
g62
(dp1042
g89
g90
ssg71
g1031
sg64
(lp1043
S':'
asbag57
(g78
g59
NtRp1044
(dp1045
g62
(dp1046
sg71
g1031
sg64
(lp1047
g57
(g58
g59
NtRp1048
(dp1049
g62
(dp1050
g70
I4
ssg71
g1044
sg64
(lp1051
S'HTTP/1.1'
p1052
asbasbasbag57
(g73
g59
NtRp1053
(dp1054
g62
(dp1055
sg71
g502
sg64
(lp1056
g57
(g78
g59
NtRp1057
(dp1058
g62
(dp1059
g82
g83
ssg71
g1053
sg64
(lp1060
S'server_software'
p1061
asbag57
(g78
g59
NtRp1062
(dp1063
g62
(dp1064
g89
g90
ssg71
g1053
sg64
(lp1065
S':'
asbag57
(g78
g59
NtRp1066
(dp1067
g62
(dp1068
sg71
g1053
sg64
(lp1069
g57
(g58
g59
NtRp1070
(dp1071
g62
(dp1072
g70
I4
ssg71
g1066
sg64
(lp1073
S'Rocket 1.2.4'
p1074
asbasbasbag57
(g73
g59
NtRp1075
(dp1076
g62
(dp1077
sg71
g502
sg64
(lp1078
g57
(g78
g59
NtRp1079
(dp1080
g62
(dp1081
g82
g83
ssg71
g1075
sg64
(lp1082
S'web2py_crontype'
p1083
asbag57
(g78
g59
NtRp1084
(dp1085
g62
(dp1086
g89
g90
ssg71
g1075
sg64
(lp1087
S':'
asbag57
(g78
g59
NtRp1088
(dp1089
g62
(dp1090
sg71
g1075
sg64
(lp1091
g57
(g58
g59
NtRp1092
(dp1093
g62
(dp1094
g70
I4
ssg71
g1088
sg64
(lp1095
S'hard'
p1096
asbasbasbag57
(g73
g59
NtRp1097
(dp1098
g62
(dp1099
sg71
g502
sg64
(lp1100
g57
(g78
g59
NtRp1101
(dp1102
g62
(dp1103
g82
g83
ssg71
g1097
sg64
(lp1104
S'web2py_path'
p1105
asbag57
(g78
g59
NtRp1106
(dp1107
g62
(dp1108
g89
g90
ssg71
g1097
sg64
(lp1109
S':'
asbag57
(g78
g59
NtRp1110
(dp1111
g62
(dp1112
sg71
g1097
sg64
(lp1113
g57
(g58
g59
NtRp1114
(dp1115
g62
(dp1116
g70
I4
ssg71
g1110
sg64
(lp1117
g549
asbasbasbag57
(g73
g59
NtRp1118
(dp1119
g62
(dp1120
sg71
g502
sg64
(lp1121
g57
(g78
g59
NtRp1122
(dp1123
g62
(dp1124
g82
g83
ssg71
g1118
sg64
(lp1125
S'web2py_version'
p1126
asbag57
(g78
g59
NtRp1127
(dp1128
g62
(dp1129
g89
g90
ssg71
g1118
sg64
(lp1130
S':'
asbag57
(g78
g59
NtRp1131
(dp1132
g62
(dp1133
sg71
g1118
sg64
(lp1134
g57
(g58
g59
NtRp1135
(dp1136
g62
(dp1137
g70
I4
ssg71
g1131
sg64
(lp1138
g57
(g66
g59
NtRp1139
(dp1140
g62
(dp1141
g70
I3
ssg71
Nsg64
(lp1142
g57
(g73
g59
NtRp1143
(dp1144
g62
(dp1145
sg71
g1139
sg64
(lp1146
g57
(g78
g59
NtRp1147
(dp1148
g62
(dp1149
sg71
g1143
sg64
(lp1150
g57
(g58
g59
NtRp1151
(dp1152
g62
(dp1153
g70
I3
ssg71
g1147
sg64
(lp1154
S'1'
asbasbasbag57
(g73
g59
NtRp1155
(dp1156
g62
(dp1157
sg71
g1139
sg64
(lp1158
g57
(g78
g59
NtRp1159
(dp1160
g62
(dp1161
sg71
g1155
sg64
(lp1162
g57
(g58
g59
NtRp1163
(dp1164
g62
(dp1165
g70
I3
ssg71
g1159
sg64
(lp1166
S'99'
p1167
asbasbasbag57
(g73
g59
NtRp1168
(dp1169
g62
(dp1170
sg71
g1139
sg64
(lp1171
g57
(g78
g59
NtRp1172
(dp1173
g62
(dp1174
sg71
g1168
sg64
(lp1175
g57
(g58
g59
NtRp1176
(dp1177
g62
(dp1178
g70
I3
ssg71
g1172
sg64
(lp1179
S'7'
asbasbasbag57
(g73
g59
NtRp1180
(dp1181
g62
(dp1182
sg71
g1139
sg64
(lp1183
g57
(g78
g59
NtRp1184
(dp1185
g62
(dp1186
sg71
g1180
sg64
(lp1187
g57
(g58
g59
NtRp1188
(dp1189
g62
(dp1190
g70
I3
ssg71
g1184
sg64
(lp1191
S'datetime.datetime(2012, 3, 4, 22, 12, 8)'
p1192
asbasbasbag57
(g73
g59
NtRp1193
(dp1194
g62
(dp1195
sg71
g1139
sg64
(lp1196
g57
(g78
g59
NtRp1197
(dp1198
g62
(dp1199
sg71
g1193
sg64
(lp1200
g57
(g58
g59
NtRp1201
(dp1202
g62
(dp1203
g70
I3
ssg71
g1197
sg64
(lp1204
S'stable'
p1205
asbasbasbasbasbasbasbag57
(g73
g59
NtRp1206
(dp1207
g62
(dp1208
sg71
g502
sg64
(lp1209
g57
(g78
g59
NtRp1210
(dp1211
g62
(dp1212
g82
g83
ssg71
g1206
sg64
(lp1213
S'wsgi_errors'
p1214
asbag57
(g78
g59
NtRp1215
(dp1216
g62
(dp1217
g89
g90
ssg71
g1206
sg64
(lp1218
S':'
asbag57
(g78
g59
NtRp1219
(dp1220
g62
(dp1221
sg71
g1206
sg64
(lp1222
g57
(g58
g59
NtRp1223
(dp1224
g62
(dp1225
g70
I4
ssg71
g1219
sg64
(lp1226
S"<open file '<stderr>', mode 'w' at 0x7f46c33da270>"
p1227
asbasbasbag57
(g73
g59
NtRp1228
(dp1229
g62
(dp1230
sg71
g502
sg64
(lp1231
g57
(g78
g59
NtRp1232
(dp1233
g62
(dp1234
g82
g83
ssg71
g1228
sg64
(lp1235
S'wsgi_file_wrapper'
p1236
asbag57
(g78
g59
NtRp1237
(dp1238
g62
(dp1239
g89
g90
ssg71
g1228
sg64
(lp1240
S':'
asbag57
(g78
g59
NtRp1241
(dp1242
g62
(dp1243
sg71
g1228
sg64
(lp1244
g57
(g58
g59
NtRp1245
(dp1246
g62
(dp1247
g70
I4
ssg71
g1241
sg64
(lp1248
S'<class wsgiref.util.FileWrapper at 0x22d1940>'
p1249
asbasbasbag57
(g73
g59
NtRp1250
(dp1251
g62
(dp1252
sg71
g502
sg64
(lp1253
g57
(g78
g59
NtRp1254
(dp1255
g62
(dp1256
g82
g83
ssg71
g1250
sg64
(lp1257
S'wsgi_input'
p1258
asbag57
(g78
g59
NtRp1259
(dp1260
g62
(dp1261
g89
g90
ssg71
g1250
sg64
(lp1262
S':'
asbag57
(g78
g59
NtRp1263
(dp1264
g62
(dp1265
sg71
g1250
sg64
(lp1266
g57
(g58
g59
NtRp1267
(dp1268
g62
(dp1269
g70
I4
ssg71
g1263
sg64
(lp1270
S'<socket._fileobject object at 0x7f4688319ed0>'
p1271
asbasbasbag57
(g73
g59
NtRp1272
(dp1273
g62
(dp1274
sg71
g502
sg64
(lp1275
g57
(g78
g59
NtRp1276
(dp1277
g62
(dp1278
g82
g83
ssg71
g1272
sg64
(lp1279
S'wsgi_multiprocess'
p1280
asbag57
(g78
g59
NtRp1281
(dp1282
g62
(dp1283
g89
g90
ssg71
g1272
sg64
(lp1284
S':'
asbag57
(g78
g59
NtRp1285
(dp1286
g62
(dp1287
sg71
g1272
sg64
(lp1288
g57
(g58
g59
NtRp1289
(dp1290
g62
(dp1291
g70
I4
ssg71
g1285
sg64
(lp1292
g100
asbasbasbag57
(g73
g59
NtRp1293
(dp1294
g62
(dp1295
sg71
g502
sg64
(lp1296
g57
(g78
g59
NtRp1297
(dp1298
g62
(dp1299
g82
g83
ssg71
g1293
sg64
(lp1300
S'wsgi_multithread'
p1301
asbag57
(g78
g59
NtRp1302
(dp1303
g62
(dp1304
g89
g90
ssg71
g1293
sg64
(lp1305
S':'
asbag57
(g78
g59
NtRp1306
(dp1307
g62
(dp1308
sg71
g1293
sg64
(lp1309
g57
(g58
g59
NtRp1310
(dp1311
g62
(dp1312
g70
I4
ssg71
g1306
sg64
(lp1313
S'True'
p1314
asbasbasbag57
(g73
g59
NtRp1315
(dp1316
g62
(dp1317
sg71
g502
sg64
(lp1318
g57
(g78
g59
NtRp1319
(dp1320
g62
(dp1321
g82
g83
ssg71
g1315
sg64
(lp1322
S'wsgi_run_once'
p1323
asbag57
(g78
g59
NtRp1324
(dp1325
g62
(dp1326
g89
g90
ssg71
g1315
sg64
(lp1327
S':'
asbag57
(g78
g59
NtRp1328
(dp1329
g62
(dp1330
sg71
g1315
sg64
(lp1331
g57
(g58
g59
NtRp1332
(dp1333
g62
(dp1334
g70
I4
ssg71
g1328
sg64
(lp1335
g100
asbasbasbag57
(g73
g59
NtRp1336
(dp1337
g62
(dp1338
sg71
g502
sg64
(lp1339
g57
(g78
g59
NtRp1340
(dp1341
g62
(dp1342
g82
g83
ssg71
g1336
sg64
(lp1343
S'wsgi_url_scheme'
p1344
asbag57
(g78
g59
NtRp1345
(dp1346
g62
(dp1347
g89
g90
ssg71
g1336
sg64
(lp1348
S':'
asbag57
(g78
g59
NtRp1349
(dp1350
g62
(dp1351
sg71
g1336
sg64
(lp1352
g57
(g58
g59
NtRp1353
(dp1354
g62
(dp1355
g70
I4
ssg71
g1349
sg64
(lp1356
S'http'
p1357
asbasbasbag57
(g73
g59
NtRp1358
(dp1359
g62
(dp1360
sg71
g502
sg64
(lp1361
g57
(g78
g59
NtRp1362
(dp1363
g62
(dp1364
g82
g83
ssg71
g1358
sg64
(lp1365
S'wsgi_version'
p1366
asbag57
(g78
g59
NtRp1367
(dp1368
g62
(dp1369
g89
g90
ssg71
g1358
sg64
(lp1370
S':'
asbag57
(g78
g59
NtRp1371
(dp1372
g62
(dp1373
sg71
g1358
sg64
(lp1374
g57
(g58
g59
NtRp1375
(dp1376
g62
(dp1377
g70
I4
ssg71
g1371
sg64
(lp1378
g57
(g66
g59
NtRp1379
(dp1380
g62
(dp1381
g70
I3
ssg71
Nsg64
(lp1382
g57
(g73
g59
NtRp1383
(dp1384
g62
(dp1385
sg71
g1379
sg64
(lp1386
g57
(g78
g59
NtRp1387
(dp1388
g62
(dp1389
sg71
g1383
sg64
(lp1390
g57
(g58
g59
NtRp1391
(dp1392
g62
(dp1393
g70
I3
ssg71
g1387
sg64
(lp1394
S'1'
asbasbasbag57
(g73
g59
NtRp1395
(dp1396
g62
(dp1397
sg71
g1379
sg64
(lp1398
g57
(g78
g59
NtRp1399
(dp1400
g62
(dp1401
sg71
g1395
sg64
(lp1402
g57
(g58
g59
NtRp1403
(dp1404
g62
(dp1405
g70
I3
ssg71
g1399
sg64
(lp1406
S'0'
asbasbasbasbasbasbasbasbasbasbasbag57
(g73
g59
NtRp1407
(dp1408
g62
(dp1409
sg71
g67
sg64
(lp1410
g57
(g78
g59
NtRp1411
(dp1412
g62
(dp1413
g82
g83
ssg71
g1407
sg64
(lp1414
S'extension'
p1415
asbag57
(g78
g59
NtRp1416
(dp1417
g62
(dp1418
g89
g90
ssg71
g1407
sg64
(lp1419
S':'
asbag57
(g78
g59
NtRp1420
(dp1421
g62
(dp1422
sg71
g1407
sg64
(lp1423
g57
(g58
g59
NtRp1424
(dp1425
g62
(dp1426
g70
I5
ssg71
g1420
sg64
(lp1427
S'html'
p1428
asbasbasbag57
(g73
g59
NtRp1429
(dp1430
g62
(dp1431
sg71
g67
sg64
(lp1432
g57
(g78
g59
NtRp1433
(dp1434
g62
(dp1435
g82
g83
ssg71
g1429
sg64
(lp1436
S'folder'
p1437
asbag57
(g78
g59
NtRp1438
(dp1439
g62
(dp1440
g89
g90
ssg71
g1429
sg64
(lp1441
S':'
asbag57
(g78
g59
NtRp1442
(dp1443
g62
(dp1444
sg71
g1429
sg64
(lp1445
g57
(g58
g59
NtRp1446
(dp1447
g62
(dp1448
g70
I5
ssg71
g1442
sg64
(lp1449
S'/home/tuna/cyberagent/IgoR/C_Sources/Server/igor-assistant-ca-2012/applications/igor/'
p1450
asbasbasbag57
(g73
g59
NtRp1451
(dp1452
g62
(dp1453
sg71
g67
sg64
(lp1454
g57
(g78
g59
NtRp1455
(dp1456
g62
(dp1457
g82
g83
ssg71
g1451
sg64
(lp1458
S'function'
p1459
asbag57
(g78
g59
NtRp1460
(dp1461
g62
(dp1462
g89
g90
ssg71
g1451
sg64
(lp1463
S':'
asbag57
(g78
g59
NtRp1464
(dp1465
g62
(dp1466
sg71
g1451
sg64
(lp1467
g57
(g58
g59
NtRp1468
(dp1469
g62
(dp1470
g70
I5
ssg71
g1464
sg64
(lp1471
S'call'
p1472
asbasbasbag57
(g73
g59
NtRp1473
(dp1474
g62
(dp1475
sg71
g67
sg64
(lp1476
g57
(g78
g59
NtRp1477
(dp1478
g62
(dp1479
g82
g83
ssg71
g1473
sg64
(lp1480
S'get_vars'
p1481
asbag57
(g78
g59
NtRp1482
(dp1483
g62
(dp1484
g89
g90
ssg71
g1473
sg64
(lp1485
S':'
asbag57
(g78
g59
NtRp1486
(dp1487
g62
(dp1488
sg71
g1473
sg64
(lp1489
g57
(g58
g59
NtRp1490
(dp1491
g62
(dp1492
g70
I5
ssg71
g1486
sg64
(lp1493
g57
(g66
g59
NtRp1494
(dp1495
g62
(dp1496
g70
I4
ssg71
Nsg64
(lp1497
sbasbasbasbag57
(g73
g59
NtRp1498
(dp1499
g62
(dp1500
sg71
g67
sg64
(lp1501
g57
(g78
g59
NtRp1502
(dp1503
g62
(dp1504
g82
g83
ssg71
g1498
sg64
(lp1505
S'global_settings'
p1506
asbag57
(g78
g59
NtRp1507
(dp1508
g62
(dp1509
g89
g90
ssg71
g1498
sg64
(lp1510
S':'
asbag57
(g78
g59
NtRp1511
(dp1512
g62
(dp1513
sg71
g1498
sg64
(lp1514
g57
(g58
g59
NtRp1515
(dp1516
g62
(dp1517
g70
I5
ssg71
g1511
sg64
(lp1518
g57
(g66
g59
NtRp1519
(dp1520
g62
(dp1521
g70
I4
ssg71
Nsg64
(lp1522
g57
(g73
g59
NtRp1523
(dp1524
g62
(dp1525
sg71
g1519
sg64
(lp1526
g57
(g78
g59
NtRp1527
(dp1528
g62
(dp1529
g82
g83
ssg71
g1523
sg64
(lp1530
g514
asbag57
(g78
g59
NtRp1531
(dp1532
g62
(dp1533
g89
g90
ssg71
g1523
sg64
(lp1534
S':'
asbag57
(g78
g59
NtRp1535
(dp1536
g62
(dp1537
sg71
g1523
sg64
(lp1538
g57
(g58
g59
NtRp1539
(dp1540
g62
(dp1541
g70
I4
ssg71
g1535
sg64
(lp1542
S"set(['/home/tuna/cyberagent/IgoR/C_Sources/Server/igor-assistant-ca-2012/applications/admin/', '/home/tuna/cyberagent/IgoR/C_Sources/Server/igor-assistant-ca-2012/applications/igor/', '/home/tuna/cyberagent/IgoR/C_Sources/Server/igor-assistant-ca-2012/applications/welcome/'])"
p1543
asbasbasbag57
(g73
g59
NtRp1544
(dp1545
g62
(dp1546
sg71
g1519
sg64
(lp1547
g57
(g78
g59
NtRp1548
(dp1549
g62
(dp1550
g82
g83
ssg71
g1544
sg64
(lp1551
g536
asbag57
(g78
g59
NtRp1552
(dp1553
g62
(dp1554
g89
g90
ssg71
g1544
sg64
(lp1555
S':'
asbag57
(g78
g59
NtRp1556
(dp1557
g62
(dp1558
sg71
g1544
sg64
(lp1559
g57
(g58
g59
NtRp1560
(dp1561
g62
(dp1562
g70
I4
ssg71
g1556
sg64
(lp1563
g549
asbasbasbag57
(g73
g59
NtRp1564
(dp1565
g62
(dp1566
sg71
g1519
sg64
(lp1567
g57
(g78
g59
NtRp1568
(dp1569
g62
(dp1570
g82
g83
ssg71
g1564
sg64
(lp1571
g558
asbag57
(g78
g59
NtRp1572
(dp1573
g62
(dp1574
g89
g90
ssg71
g1564
sg64
(lp1575
S':'
asbag57
(g78
g59
NtRp1576
(dp1577
g62
(dp1578
sg71
g1564
sg64
(lp1579
g57
(g58
g59
NtRp1580
(dp1581
g62
(dp1582
g70
I4
ssg71
g1576
sg64
(lp1583
g57
(g66
g59
NtRp1584
(dp1585
g62
(dp1586
g70
I3
ssg71
Nsg64
(lp1587
sbasbasbasbag57
(g73
g59
NtRp1588
(dp1589
g62
(dp1590
sg71
g1519
sg64
(lp1591
g57
(g78
g59
NtRp1592
(dp1593
g62
(dp1594
g82
g83
ssg71
g1588
sg64
(lp1595
g583
asbag57
(g78
g59
NtRp1596
(dp1597
g62
(dp1598
g89
g90
ssg71
g1588
sg64
(lp1599
S':'
asbag57
(g78
g59
NtRp1600
(dp1601
g62
(dp1602
sg71
g1588
sg64
(lp1603
g57
(g58
g59
NtRp1604
(dp1605
g62
(dp1606
g70
I4
ssg71
g1600
sg64
(lp1607
S"<Values at 0x23f4998: {'verbose': False, 'ip': '127.0.0.1', 'shutdown_timeout': 5, 'taskbar': False, 'nocron': False, 'pid_filename': 'httpserver.pid', 'maxthreads': None, 'softcron': False, 'server_name': 'tuna.com', 'bpython': False, 'nogui': False, 'port': 8000, 'extcron': False, 'debuglevel': 30, 'test': None, 'folder': '/home/tuna/cyberagent/IgoR/C_Sources/Server/igor-assistant-ca-2012', 'config': '', 'import_models': False, 'winservice': '', 'shell': None, 'run': '', 'log_filename': 'httpserver.log', 'args': [''], 'socket_timeout': 5, 'ssl_ca_certificate': None, 'scheduler': None, 'profiler_filename': None, 'ssl_private_key': '', 'password': '<ask>', 'request_queue_size': 5, 'ssl_certificate': '', 'cronjob': False, 'numthreads': None, 'quiet': False, 'interfaces': None, 'minthreads': None, 'timeout': 10, 'plain': False, 'nobanner': False}>"
p1608
asbasbasbag57
(g73
g59
NtRp1609
(dp1610
g62
(dp1611
sg71
g1519
sg64
(lp1612
g57
(g78
g59
NtRp1613
(dp1614
g62
(dp1615
g82
g83
ssg71
g1609
sg64
(lp1616
g605
asbag57
(g78
g59
NtRp1617
(dp1618
g62
(dp1619
g89
g90
ssg71
g1609
sg64
(lp1620
S':'
asbag57
(g78
g59
NtRp1621
(dp1622
g62
(dp1623
sg71
g1609
sg64
(lp1624
g57
(g58
g59
NtRp1625
(dp1626
g62
(dp1627
g70
I4
ssg71
g1621
sg64
(lp1628
S'set([])'
p1629
asbasbasbag57
(g73
g59
NtRp1630
(dp1631
g62
(dp1632
sg71
g1519
sg64
(lp1633
g57
(g78
g59
NtRp1634
(dp1635
g62
(dp1636
g82
g83
ssg71
g1630
sg64
(lp1637
g627
asbag57
(g78
g59
NtRp1638
(dp1639
g62
(dp1640
g89
g90
ssg71
g1630
sg64
(lp1641
S':'
asbag57
(g78
g59
NtRp1642
(dp1643
g62
(dp1644
sg71
g1630
sg64
(lp1645
g57
(g58
g59
NtRp1646
(dp1647
g62
(dp1648
g70
I4
ssg71
g1642
sg64
(lp1649
g100
asbasbasbag57
(g73
g59
NtRp1650
(dp1651
g62
(dp1652
sg71
g1519
sg64
(lp1653
g57
(g78
g59
NtRp1654
(dp1655
g62
(dp1656
g82
g83
ssg71
g1650
sg64
(lp1657
g648
asbag57
(g78
g59
NtRp1658
(dp1659
g62
(dp1660
g89
g90
ssg71
g1650
sg64
(lp1661
S':'
asbag57
(g78
g59
NtRp1662
(dp1663
g62
(dp1664
sg71
g1650
sg64
(lp1665
g57
(g58
g59
NtRp1666
(dp1667
g62
(dp1668
g70
I4
ssg71
g1662
sg64
(lp1669
g661
asbasbasbag57
(g73
g59
NtRp1670
(dp1671
g62
(dp1672
sg71
g1519
sg64
(lp1673
g57
(g78
g59
NtRp1674
(dp1675
g62
(dp1676
g82
g83
ssg71
g1670
sg64
(lp1677
g824
asbag57
(g78
g59
NtRp1678
(dp1679
g62
(dp1680
g89
g90
ssg71
g1670
sg64
(lp1681
S':'
asbag57
(g78
g59
NtRp1682
(dp1683
g62
(dp1684
sg71
g1670
sg64
(lp1685
g57
(g58
g59
NtRp1686
(dp1687
g62
(dp1688
g70
I4
ssg71
g1682
sg64
(lp1689
g100
asbasbasbag57
(g73
g59
NtRp1690
(dp1691
g62
(dp1692
sg71
g1519
sg64
(lp1693
g57
(g78
g59
NtRp1694
(dp1695
g62
(dp1696
g82
g83
ssg71
g1690
sg64
(lp1697
g845
asbag57
(g78
g59
NtRp1698
(dp1699
g62
(dp1700
g89
g90
ssg71
g1690
sg64
(lp1701
S':'
asbag57
(g78
g59
NtRp1702
(dp1703
g62
(dp1704
sg71
g1690
sg64
(lp1705
g57
(g58
g59
NtRp1706
(dp1707
g62
(dp1708
g70
I4
ssg71
g1702
sg64
(lp1709
g100
asbasbasbag57
(g73
g59
NtRp1710
(dp1711
g62
(dp1712
sg71
g1519
sg64
(lp1713
g57
(g78
g59
NtRp1714
(dp1715
g62
(dp1716
g82
g83
ssg71
g1710
sg64
(lp1717
g1083
asbag57
(g78
g59
NtRp1718
(dp1719
g62
(dp1720
g89
g90
ssg71
g1710
sg64
(lp1721
S':'
asbag57
(g78
g59
NtRp1722
(dp1723
g62
(dp1724
sg71
g1710
sg64
(lp1725
g57
(g58
g59
NtRp1726
(dp1727
g62
(dp1728
g70
I4
ssg71
g1722
sg64
(lp1729
g1096
asbasbasbag57
(g73
g59
NtRp1730
(dp1731
g62
(dp1732
sg71
g1519
sg64
(lp1733
g57
(g78
g59
NtRp1734
(dp1735
g62
(dp1736
g82
g83
ssg71
g1730
sg64
(lp1737
g1126
asbag57
(g78
g59
NtRp1738
(dp1739
g62
(dp1740
g89
g90
ssg71
g1730
sg64
(lp1741
S':'
asbag57
(g78
g59
NtRp1742
(dp1743
g62
(dp1744
sg71
g1730
sg64
(lp1745
g57
(g58
g59
NtRp1746
(dp1747
g62
(dp1748
g70
I4
ssg71
g1742
sg64
(lp1749
g57
(g66
g59
NtRp1750
(dp1751
g62
(dp1752
g70
I3
ssg71
Nsg64
(lp1753
g57
(g73
g59
NtRp1754
(dp1755
g62
(dp1756
sg71
g1750
sg64
(lp1757
g57
(g78
g59
NtRp1758
(dp1759
g62
(dp1760
sg71
g1754
sg64
(lp1761
g57
(g58
g59
NtRp1762
(dp1763
g62
(dp1764
g70
I3
ssg71
g1758
sg64
(lp1765
S'1'
asbasbasbag57
(g73
g59
NtRp1766
(dp1767
g62
(dp1768
sg71
g1750
sg64
(lp1769
g57
(g78
g59
NtRp1770
(dp1771
g62
(dp1772
sg71
g1766
sg64
(lp1773
g57
(g58
g59
NtRp1774
(dp1775
g62
(dp1776
g70
I3
ssg71
g1770
sg64
(lp1777
S'99'
p1778
asbasbasbag57
(g73
g59
NtRp1779
(dp1780
g62
(dp1781
sg71
g1750
sg64
(lp1782
g57
(g78
g59
NtRp1783
(dp1784
g62
(dp1785
sg71
g1779
sg64
(lp1786
g57
(g58
g59
NtRp1787
(dp1788
g62
(dp1789
g70
I3
ssg71
g1783
sg64
(lp1790
S'7'
asbasbasbag57
(g73
g59
NtRp1791
(dp1792
g62
(dp1793
sg71
g1750
sg64
(lp1794
g57
(g78
g59
NtRp1795
(dp1796
g62
(dp1797
sg71
g1791
sg64
(lp1798
g57
(g58
g59
NtRp1799
(dp1800
g62
(dp1801
g70
I3
ssg71
g1795
sg64
(lp1802
S'datetime.datetime(2012, 3, 4, 22, 12, 8)'
p1803
asbasbasbag57
(g73
g59
NtRp1804
(dp1805
g62
(dp1806
sg71
g1750
sg64
(lp1807
g57
(g78
g59
NtRp1808
(dp1809
g62
(dp1810
sg71
g1804
sg64
(lp1811
g57
(g58
g59
NtRp1812
(dp1813
g62
(dp1814
g70
I3
ssg71
g1808
sg64
(lp1815
g1205
asbasbasbasbasbasbasbasbasbasbasbag57
(g73
g59
NtRp1816
(dp1817
g62
(dp1818
sg71
g67
sg64
(lp1819
g57
(g78
g59
NtRp1820
(dp1821
g62
(dp1822
g82
g83
ssg71
g1816
sg64
(lp1823
S'is_https'
p1824
asbag57
(g78
g59
NtRp1825
(dp1826
g62
(dp1827
g89
g90
ssg71
g1816
sg64
(lp1828
S':'
asbag57
(g78
g59
NtRp1829
(dp1830
g62
(dp1831
sg71
g1816
sg64
(lp1832
g57
(g58
g59
NtRp1833
(dp1834
g62
(dp1835
g70
I5
ssg71
g1829
sg64
(lp1836
g100
asbasbasbag57
(g73
g59
NtRp1837
(dp1838
g62
(dp1839
sg71
g67
sg64
(lp1840
g57
(g78
g59
NtRp1841
(dp1842
g62
(dp1843
g82
g83
ssg71
g1837
sg64
(lp1844
S'is_local'
p1845
asbag57
(g78
g59
NtRp1846
(dp1847
g62
(dp1848
g89
g90
ssg71
g1837
sg64
(lp1849
S':'
asbag57
(g78
g59
NtRp1850
(dp1851
g62
(dp1852
sg71
g1837
sg64
(lp1853
g57
(g58
g59
NtRp1854
(dp1855
g62
(dp1856
g70
I5
ssg71
g1850
sg64
(lp1857
g1314
asbasbasbag57
(g73
g59
NtRp1858
(dp1859
g62
(dp1860
sg71
g67
sg64
(lp1861
g57
(g78
g59
NtRp1862
(dp1863
g62
(dp1864
g82
g83
ssg71
g1858
sg64
(lp1865
S'is_restful'
p1866
asbag57
(g78
g59
NtRp1867
(dp1868
g62
(dp1869
g89
g90
ssg71
g1858
sg64
(lp1870
S':'
asbag57
(g78
g59
NtRp1871
(dp1872
g62
(dp1873
sg71
g1858
sg64
(lp1874
g57
(g58
g59
NtRp1875
(dp1876
g62
(dp1877
g70
I5
ssg71
g1871
sg64
(lp1878
g100
asbasbasbag57
(g73
g59
NtRp1879
(dp1880
g62
(dp1881
sg71
g67
sg64
(lp1882
g57
(g78
g59
NtRp1883
(dp1884
g62
(dp1885
g82
g83
ssg71
g1879
sg64
(lp1886
S'now'
p1887
asbag57
(g78
g59
NtRp1888
(dp1889
g62
(dp1890
g89
g90
ssg71
g1879
sg64
(lp1891
S':'
asbag57
(g78
g59
NtRp1892
(dp1893
g62
(dp1894
sg71
g1879
sg64
(lp1895
g57
(g58
g59
NtRp1896
(dp1897
g62
(dp1898
g70
I5
ssg71
g1892
sg64
(lp1899
S'datetime.datetime(2012, 8, 3, 0, 55, 33, 813990)'
p1900
asbasbasbag57
(g73
g59
NtRp1901
(dp1902
g62
(dp1903
sg71
g67
sg64
(lp1904
g57
(g78
g59
NtRp1905
(dp1906
g62
(dp1907
g82
g83
ssg71
g1901
sg64
(lp1908
S'post_vars'
p1909
asbag57
(g78
g59
NtRp1910
(dp1911
g62
(dp1912
g89
g90
ssg71
g1901
sg64
(lp1913
S':'
asbag57
(g78
g59
NtRp1914
(dp1915
g62
(dp1916
sg71
g1901
sg64
(lp1917
g57
(g58
g59
NtRp1918
(dp1919
g62
(dp1920
g70
I5
ssg71
g1914
sg64
(lp1921
g57
(g66
g59
NtRp1922
(dp1923
g62
(dp1924
g70
I4
ssg71
Nsg64
(lp1925
sbasbasbasbag57
(g73
g59
NtRp1926
(dp1927
g62
(dp1928
sg71
g67
sg64
(lp1929
g57
(g78
g59
NtRp1930
(dp1931
g62
(dp1932
g82
g83
ssg71
g1926
sg64
(lp1933
S'raw_args'
p1934
asbag57
(g78
g59
NtRp1935
(dp1936
g62
(dp1937
g89
g90
ssg71
g1926
sg64
(lp1938
S':'
asbag57
(g78
g59
NtRp1939
(dp1940
g62
(dp1941
sg71
g1926
sg64
(lp1942
g57
(g58
g59
NtRp1943
(dp1944
g62
(dp1945
g70
I5
ssg71
g1939
sg64
(lp1946
S'json/get_projects/2/0'
p1947
asbasbasbag57
(g73
g59
NtRp1948
(dp1949
g62
(dp1950
sg71
g67
sg64
(lp1951
g57
(g78
g59
NtRp1952
(dp1953
g62
(dp1954
g82
g83
ssg71
g1948
sg64
(lp1955
S'url'
p1956
asbag57
(g78
g59
NtRp1957
(dp1958
g62
(dp1959
g89
g90
ssg71
g1948
sg64
(lp1960
S':'
asbag57
(g78
g59
NtRp1961
(dp1962
g62
(dp1963
sg71
g1948
sg64
(lp1964
g57
(g58
g59
NtRp1965
(dp1966
g62
(dp1967
g70
I5
ssg71
g1961
sg64
(lp1968
S'/igor/project/call/json/get_projects/2/0'
p1969
asbasbasbag57
(g73
g59
NtRp1970
(dp1971
g62
(dp1972
sg71
g67
sg64
(lp1973
g57
(g78
g59
NtRp1974
(dp1975
g62
(dp1976
g82
g83
ssg71
g1970
sg64
(lp1977
S'utcnow'
p1978
asbag57
(g78
g59
NtRp1979
(dp1980
g62
(dp1981
g89
g90
ssg71
g1970
sg64
(lp1982
S':'
asbag57
(g78
g59
NtRp1983
(dp1984
g62
(dp1985
sg71
g1970
sg64
(lp1986
g57
(g58
g59
NtRp1987
(dp1988
g62
(dp1989
g70
I5
ssg71
g1983
sg64
(lp1990
S'datetime.datetime(2012, 8, 2, 17, 55, 33, 814052)'
p1991
asbasbasbag57
(g73
g59
NtRp1992
(dp1993
g62
(dp1994
sg71
g67
sg64
(lp1995
g57
(g78
g59
NtRp1996
(dp1997
g62
(dp1998
g82
g83
ssg71
g1992
sg64
(lp1999
S'uuid'
p2000
asbag57
(g78
g59
NtRp2001
(dp2002
g62
(dp2003
g89
g90
ssg71
g1992
sg64
(lp2004
S':'
asbag57
(g78
g59
NtRp2005
(dp2006
g62
(dp2007
sg71
g1992
sg64
(lp2008
g57
(g58
g59
NtRp2009
(dp2010
g62
(dp2011
g70
I5
ssg71
g2005
sg64
(lp2012
S'igor/127.0.0.1.2012-08-03.00-55-33.97f33acb-8502-476e-8470-b5df8c8bc16f'
p2013
asbasbasbag57
(g73
g59
NtRp2014
(dp2015
g62
(dp2016
sg71
g67
sg64
(lp2017
g57
(g78
g59
NtRp2018
(dp2019
g62
(dp2020
g82
g83
ssg71
g2014
sg64
(lp2021
S'vars'
p2022
asbag57
(g78
g59
NtRp2023
(dp2024
g62
(dp2025
g89
g90
ssg71
g2014
sg64
(lp2026
S':'
asbag57
(g78
g59
NtRp2027
(dp2028
g62
(dp2029
sg71
g2014
sg64
(lp2030
g57
(g58
g59
NtRp2031
(dp2032
g62
(dp2033
g70
I5
ssg71
g2027
sg64
(lp2034
g57
(g66
g59
NtRp2035
(dp2036
g62
(dp2037
g70
I4
ssg71
Nsg64
(lp2038
sbasbasbasbag57
(g73
g59
NtRp2039
(dp2040
g62
(dp2041
sg71
g67
sg64
(lp2042
g57
(g78
g59
NtRp2043
(dp2044
g62
(dp2045
g82
g83
ssg71
g2039
sg64
(lp2046
S'wsgi'
p2047
asbag57
(g78
g59
NtRp2048
(dp2049
g62
(dp2050
g89
g90
ssg71
g2039
sg64
(lp2051
S':'
asbag57
(g78
g59
NtRp2052
(dp2053
g62
(dp2054
sg71
g2039
sg64
(lp2055
g57
(g58
g59
NtRp2056
(dp2057
g62
(dp2058
g70
I5
ssg71
g2052
sg64
(lp2059
g57
(g66
g59
NtRp2060
(dp2061
g62
(dp2062
g70
I4
ssg71
Nsg64
(lp2063
g57
(g73
g59
NtRp2064
(dp2065
g62
(dp2066
sg71
g2060
sg64
(lp2067
g57
(g78
g59
NtRp2068
(dp2069
g62
(dp2070
g82
g83
ssg71
g2064
sg64
(lp2071
S'environ'
p2072
asbag57
(g78
g59
NtRp2073
(dp2074
g62
(dp2075
g89
g90
ssg71
g2064
sg64
(lp2076
S':'
asbag57
(g78
g59
NtRp2077
(dp2078
g62
(dp2079
sg71
g2064
sg64
(lp2080
g57
(g58
g59
NtRp2081
(dp2082
g62
(dp2083
g70
I4
ssg71
g2077
sg64
(lp2084
g57
(g66
g59
NtRp2085
(dp2086
g62
(dp2087
g70
I3
ssg71
Nsg64
(lp2088
g57
(g73
g59
NtRp2089
(dp2090
g62
(dp2091
sg71
g2085
sg64
(lp2092
g57
(g78
g59
NtRp2093
(dp2094
g62
(dp2095
g82
g83
ssg71
g2089
sg64
(lp2096
S'HTTP_ACCEPT'
p2097
asbag57
(g78
g59
NtRp2098
(dp2099
g62
(dp2100
g89
g90
ssg71
g2089
sg64
(lp2101
S':'
asbag57
(g78
g59
NtRp2102
(dp2103
g62
(dp2104
sg71
g2089
sg64
(lp2105
g57
(g58
g59
NtRp2106
(dp2107
g62
(dp2108
g70
I3
ssg71
g2102
sg64
(lp2109
g683
asbasbasbag57
(g73
g59
NtRp2110
(dp2111
g62
(dp2112
sg71
g2085
sg64
(lp2113
g57
(g78
g59
NtRp2114
(dp2115
g62
(dp2116
g82
g83
ssg71
g2110
sg64
(lp2117
S'HTTP_ACCEPT_ENCODING'
p2118
asbag57
(g78
g59
NtRp2119
(dp2120
g62
(dp2121
g89
g90
ssg71
g2110
sg64
(lp2122
S':'
asbag57
(g78
g59
NtRp2123
(dp2124
g62
(dp2125
sg71
g2110
sg64
(lp2126
g57
(g58
g59
NtRp2127
(dp2128
g62
(dp2129
g70
I3
ssg71
g2123
sg64
(lp2130
g705
asbasbasbag57
(g73
g59
NtRp2131
(dp2132
g62
(dp2133
sg71
g2085
sg64
(lp2134
g57
(g78
g59
NtRp2135
(dp2136
g62
(dp2137
g82
g83
ssg71
g2131
sg64
(lp2138
S'HTTP_ACCEPT_LANGUAGE'
p2139
asbag57
(g78
g59
NtRp2140
(dp2141
g62
(dp2142
g89
g90
ssg71
g2131
sg64
(lp2143
S':'
asbag57
(g78
g59
NtRp2144
(dp2145
g62
(dp2146
sg71
g2131
sg64
(lp2147
g57
(g58
g59
NtRp2148
(dp2149
g62
(dp2150
g70
I3
ssg71
g2144
sg64
(lp2151
g727
asbasbasbag57
(g73
g59
NtRp2152
(dp2153
g62
(dp2154
sg71
g2085
sg64
(lp2155
g57
(g78
g59
NtRp2156
(dp2157
g62
(dp2158
g82
g83
ssg71
g2152
sg64
(lp2159
S'HTTP_CONNECTION'
p2160
asbag57
(g78
g59
NtRp2161
(dp2162
g62
(dp2163
g89
g90
ssg71
g2152
sg64
(lp2164
S':'
asbag57
(g78
g59
NtRp2165
(dp2166
g62
(dp2167
sg71
g2152
sg64
(lp2168
g57
(g58
g59
NtRp2169
(dp2170
g62
(dp2171
g70
I3
ssg71
g2165
sg64
(lp2172
g749
asbasbasbag57
(g73
g59
NtRp2173
(dp2174
g62
(dp2175
sg71
g2085
sg64
(lp2176
g57
(g78
g59
NtRp2177
(dp2178
g62
(dp2179
g82
g83
ssg71
g2173
sg64
(lp2180
S'HTTP_COOKIE'
p2181
asbag57
(g78
g59
NtRp2182
(dp2183
g62
(dp2184
g89
g90
ssg71
g2173
sg64
(lp2185
S':'
asbag57
(g78
g59
NtRp2186
(dp2187
g62
(dp2188
sg71
g2173
sg64
(lp2189
g57
(g58
g59
NtRp2190
(dp2191
g62
(dp2192
g70
I3
ssg71
g2186
sg64
(lp2193
g771
asbasbasbag57
(g73
g59
NtRp2194
(dp2195
g62
(dp2196
sg71
g2085
sg64
(lp2197
g57
(g78
g59
NtRp2198
(dp2199
g62
(dp2200
g82
g83
ssg71
g2194
sg64
(lp2201
S'HTTP_HOST'
p2202
asbag57
(g78
g59
NtRp2203
(dp2204
g62
(dp2205
g89
g90
ssg71
g2194
sg64
(lp2206
S':'
asbag57
(g78
g59
NtRp2207
(dp2208
g62
(dp2209
sg71
g2194
sg64
(lp2210
g57
(g58
g59
NtRp2211
(dp2212
g62
(dp2213
g70
I3
ssg71
g2207
sg64
(lp2214
g793
asbasbasbag57
(g73
g59
NtRp2215
(dp2216
g62
(dp2217
sg71
g2085
sg64
(lp2218
g57
(g78
g59
NtRp2219
(dp2220
g62
(dp2221
g82
g83
ssg71
g2215
sg64
(lp2222
S'HTTP_USER_AGENT'
p2223
asbag57
(g78
g59
NtRp2224
(dp2225
g62
(dp2226
g89
g90
ssg71
g2215
sg64
(lp2227
S':'
asbag57
(g78
g59
NtRp2228
(dp2229
g62
(dp2230
sg71
g2215
sg64
(lp2231
g57
(g58
g59
NtRp2232
(dp2233
g62
(dp2234
g70
I3
ssg71
g2228
sg64
(lp2235
g815
asbasbasbag57
(g73
g59
NtRp2236
(dp2237
g62
(dp2238
sg71
g2085
sg64
(lp2239
g57
(g78
g59
NtRp2240
(dp2241
g62
(dp2242
g82
g83
ssg71
g2236
sg64
(lp2243
S'PATH_INFO'
p2244
asbag57
(g78
g59
NtRp2245
(dp2246
g62
(dp2247
g89
g90
ssg71
g2236
sg64
(lp2248
S':'
asbag57
(g78
g59
NtRp2249
(dp2250
g62
(dp2251
sg71
g2236
sg64
(lp2252
g57
(g58
g59
NtRp2253
(dp2254
g62
(dp2255
g70
I3
ssg71
g2249
sg64
(lp2256
g879
asbasbasbag57
(g73
g59
NtRp2257
(dp2258
g62
(dp2259
sg71
g2085
sg64
(lp2260
g57
(g78
g59
NtRp2261
(dp2262
g62
(dp2263
g82
g83
ssg71
g2257
sg64
(lp2264
S'QUERY_STRING'
p2265
asbag57
(g78
g59
NtRp2266
(dp2267
g62
(dp2268
g89
g90
ssg71
g2257
sg64
(lp2269
S':'
asbag57
(g78
g59
NtRp2270
(dp2271
g62
(dp2272
sg71
g2257
sg64
(lp2273
g57
(g58
g59
NtRp2274
(dp2275
g62
(dp2276
g70
I3
ssg71
g2270
sg64
(lp2277
S''
asbasbasbag57
(g73
g59
NtRp2278
(dp2279
g62
(dp2280
sg71
g2085
sg64
(lp2281
g57
(g78
g59
NtRp2282
(dp2283
g62
(dp2284
g82
g83
ssg71
g2278
sg64
(lp2285
S'REMOTE_ADDR'
p2286
asbag57
(g78
g59
NtRp2287
(dp2288
g62
(dp2289
g89
g90
ssg71
g2278
sg64
(lp2290
S':'
asbag57
(g78
g59
NtRp2291
(dp2292
g62
(dp2293
sg71
g2278
sg64
(lp2294
g57
(g58
g59
NtRp2295
(dp2296
g62
(dp2297
g70
I3
ssg71
g2291
sg64
(lp2298
g240
asbasbasbag57
(g73
g59
NtRp2299
(dp2300
g62
(dp2301
sg71
g2085
sg64
(lp2302
g57
(g78
g59
NtRp2303
(dp2304
g62
(dp2305
g82
g83
ssg71
g2299
sg64
(lp2306
S'REMOTE_PORT'
p2307
asbag57
(g78
g59
NtRp2308
(dp2309
g62
(dp2310
g89
g90
ssg71
g2299
sg64
(lp2311
S':'
asbag57
(g78
g59
NtRp2312
(dp2313
g62
(dp2314
sg71
g2299
sg64
(lp2315
g57
(g58
g59
NtRp2316
(dp2317
g62
(dp2318
g70
I3
ssg71
g2312
sg64
(lp2319
g943
asbasbasbag57
(g73
g59
NtRp2320
(dp2321
g62
(dp2322
sg71
g2085
sg64
(lp2323
g57
(g78
g59
NtRp2324
(dp2325
g62
(dp2326
g82
g83
ssg71
g2320
sg64
(lp2327
S'REQUEST_METHOD'
p2328
asbag57
(g78
g59
NtRp2329
(dp2330
g62
(dp2331
g89
g90
ssg71
g2320
sg64
(lp2332
S':'
asbag57
(g78
g59
NtRp2333
(dp2334
g62
(dp2335
sg71
g2320
sg64
(lp2336
g57
(g58
g59
NtRp2337
(dp2338
g62
(dp2339
g70
I3
ssg71
g2333
sg64
(lp2340
g965
asbasbasbag57
(g73
g59
NtRp2341
(dp2342
g62
(dp2343
sg71
g2085
sg64
(lp2344
g57
(g78
g59
NtRp2345
(dp2346
g62
(dp2347
g82
g83
ssg71
g2341
sg64
(lp2348
S'SCRIPT_NAME'
p2349
asbag57
(g78
g59
NtRp2350
(dp2351
g62
(dp2352
g89
g90
ssg71
g2341
sg64
(lp2353
S':'
asbag57
(g78
g59
NtRp2354
(dp2355
g62
(dp2356
sg71
g2341
sg64
(lp2357
g57
(g58
g59
NtRp2358
(dp2359
g62
(dp2360
g70
I3
ssg71
g2354
sg64
(lp2361
S''
asbasbasbag57
(g73
g59
NtRp2362
(dp2363
g62
(dp2364
sg71
g2085
sg64
(lp2365
g57
(g78
g59
NtRp2366
(dp2367
g62
(dp2368
g82
g83
ssg71
g2362
sg64
(lp2369
S'SERVER_NAME'
p2370
asbag57
(g78
g59
NtRp2371
(dp2372
g62
(dp2373
g89
g90
ssg71
g2362
sg64
(lp2374
S':'
asbag57
(g78
g59
NtRp2375
(dp2376
g62
(dp2377
sg71
g2362
sg64
(lp2378
g57
(g58
g59
NtRp2379
(dp2380
g62
(dp2381
g70
I3
ssg71
g2375
sg64
(lp2382
g1008
asbasbasbag57
(g73
g59
NtRp2383
(dp2384
g62
(dp2385
sg71
g2085
sg64
(lp2386
g57
(g78
g59
NtRp2387
(dp2388
g62
(dp2389
g82
g83
ssg71
g2383
sg64
(lp2390
S'SERVER_PORT'
p2391
asbag57
(g78
g59
NtRp2392
(dp2393
g62
(dp2394
g89
g90
ssg71
g2383
sg64
(lp2395
S':'
asbag57
(g78
g59
NtRp2396
(dp2397
g62
(dp2398
sg71
g2383
sg64
(lp2399
g57
(g58
g59
NtRp2400
(dp2401
g62
(dp2402
g70
I3
ssg71
g2396
sg64
(lp2403
g1030
asbasbasbag57
(g73
g59
NtRp2404
(dp2405
g62
(dp2406
sg71
g2085
sg64
(lp2407
g57
(g78
g59
NtRp2408
(dp2409
g62
(dp2410
g82
g83
ssg71
g2404
sg64
(lp2411
S'SERVER_PROTOCOL'
p2412
asbag57
(g78
g59
NtRp2413
(dp2414
g62
(dp2415
g89
g90
ssg71
g2404
sg64
(lp2416
S':'
asbag57
(g78
g59
NtRp2417
(dp2418
g62
(dp2419
sg71
g2404
sg64
(lp2420
g57
(g58
g59
NtRp2421
(dp2422
g62
(dp2423
g70
I3
ssg71
g2417
sg64
(lp2424
g1052
asbasbasbag57
(g73
g59
NtRp2425
(dp2426
g62
(dp2427
sg71
g2085
sg64
(lp2428
g57
(g78
g59
NtRp2429
(dp2430
g62
(dp2431
g82
g83
ssg71
g2425
sg64
(lp2432
S'SERVER_SOFTWARE'
p2433
asbag57
(g78
g59
NtRp2434
(dp2435
g62
(dp2436
g89
g90
ssg71
g2425
sg64
(lp2437
S':'
asbag57
(g78
g59
NtRp2438
(dp2439
g62
(dp2440
sg71
g2425
sg64
(lp2441
g57
(g58
g59
NtRp2442
(dp2443
g62
(dp2444
g70
I3
ssg71
g2438
sg64
(lp2445
g1074
asbasbasbag57
(g73
g59
NtRp2446
(dp2447
g62
(dp2448
sg71
g2085
sg64
(lp2449
g57
(g78
g59
NtRp2450
(dp2451
g62
(dp2452
g82
g83
ssg71
g2446
sg64
(lp2453
S'wsgi.errors'
p2454
asbag57
(g78
g59
NtRp2455
(dp2456
g62
(dp2457
g89
g90
ssg71
g2446
sg64
(lp2458
S':'
asbag57
(g78
g59
NtRp2459
(dp2460
g62
(dp2461
sg71
g2446
sg64
(lp2462
g57
(g58
g59
NtRp2463
(dp2464
g62
(dp2465
g70
I3
ssg71
g2459
sg64
(lp2466
S"<open file '<stderr>', mode 'w' at 0x7f46c33da270>"
p2467
asbasbasbag57
(g73
g59
NtRp2468
(dp2469
g62
(dp2470
sg71
g2085
sg64
(lp2471
g57
(g78
g59
NtRp2472
(dp2473
g62
(dp2474
g82
g83
ssg71
g2468
sg64
(lp2475
S'wsgi.file_wrapper'
p2476
asbag57
(g78
g59
NtRp2477
(dp2478
g62
(dp2479
g89
g90
ssg71
g2468
sg64
(lp2480
S':'
asbag57
(g78
g59
NtRp2481
(dp2482
g62
(dp2483
sg71
g2468
sg64
(lp2484
g57
(g58
g59
NtRp2485
(dp2486
g62
(dp2487
g70
I3
ssg71
g2481
sg64
(lp2488
S'<class wsgiref.util.FileWrapper at 0x22d1940>'
p2489
asbasbasbag57
(g73
g59
NtRp2490
(dp2491
g62
(dp2492
sg71
g2085
sg64
(lp2493
g57
(g78
g59
NtRp2494
(dp2495
g62
(dp2496
g82
g83
ssg71
g2490
sg64
(lp2497
S'wsgi.input'
p2498
asbag57
(g78
g59
NtRp2499
(dp2500
g62
(dp2501
g89
g90
ssg71
g2490
sg64
(lp2502
S':'
asbag57
(g78
g59
NtRp2503
(dp2504
g62
(dp2505
sg71
g2490
sg64
(lp2506
g57
(g58
g59
NtRp2507
(dp2508
g62
(dp2509
g70
I3
ssg71
g2503
sg64
(lp2510
S'<cStringIO.StringO object at 0x7f469c3c9e30>'
p2511
asbasbasbag57
(g73
g59
NtRp2512
(dp2513
g62
(dp2514
sg71
g2085
sg64
(lp2515
g57
(g78
g59
NtRp2516
(dp2517
g62
(dp2518
g82
g83
ssg71
g2512
sg64
(lp2519
S'wsgi.multiprocess'
p2520
asbag57
(g78
g59
NtRp2521
(dp2522
g62
(dp2523
g89
g90
ssg71
g2512
sg64
(lp2524
S':'
asbag57
(g78
g59
NtRp2525
(dp2526
g62
(dp2527
sg71
g2512
sg64
(lp2528
g57
(g58
g59
NtRp2529
(dp2530
g62
(dp2531
g70
I3
ssg71
g2525
sg64
(lp2532
g100
asbasbasbag57
(g73
g59
NtRp2533
(dp2534
g62
(dp2535
sg71
g2085
sg64
(lp2536
g57
(g78
g59
NtRp2537
(dp2538
g62
(dp2539
g82
g83
ssg71
g2533
sg64
(lp2540
S'wsgi.multithread'
p2541
asbag57
(g78
g59
NtRp2542
(dp2543
g62
(dp2544
g89
g90
ssg71
g2533
sg64
(lp2545
S':'
asbag57
(g78
g59
NtRp2546
(dp2547
g62
(dp2548
sg71
g2533
sg64
(lp2549
g57
(g58
g59
NtRp2550
(dp2551
g62
(dp2552
g70
I3
ssg71
g2546
sg64
(lp2553
g1314
asbasbasbag57
(g73
g59
NtRp2554
(dp2555
g62
(dp2556
sg71
g2085
sg64
(lp2557
g57
(g78
g59
NtRp2558
(dp2559
g62
(dp2560
g82
g83
ssg71
g2554
sg64
(lp2561
S'wsgi.run_once'
p2562
asbag57
(g78
g59
NtRp2563
(dp2564
g62
(dp2565
g89
g90
ssg71
g2554
sg64
(lp2566
S':'
asbag57
(g78
g59
NtRp2567
(dp2568
g62
(dp2569
sg71
g2554
sg64
(lp2570
g57
(g58
g59
NtRp2571
(dp2572
g62
(dp2573
g70
I3
ssg71
g2567
sg64
(lp2574
g100
asbasbasbag57
(g73
g59
NtRp2575
(dp2576
g62
(dp2577
sg71
g2085
sg64
(lp2578
g57
(g78
g59
NtRp2579
(dp2580
g62
(dp2581
g82
g83
ssg71
g2575
sg64
(lp2582
S'wsgi.url_scheme'
p2583
asbag57
(g78
g59
NtRp2584
(dp2585
g62
(dp2586
g89
g90
ssg71
g2575
sg64
(lp2587
S':'
asbag57
(g78
g59
NtRp2588
(dp2589
g62
(dp2590
sg71
g2575
sg64
(lp2591
g57
(g58
g59
NtRp2592
(dp2593
g62
(dp2594
g70
I3
ssg71
g2588
sg64
(lp2595
g1357
asbasbasbag57
(g73
g59
NtRp2596
(dp2597
g62
(dp2598
sg71
g2085
sg64
(lp2599
g57
(g78
g59
NtRp2600
(dp2601
g62
(dp2602
g82
g83
ssg71
g2596
sg64
(lp2603
S'wsgi.version'
p2604
asbag57
(g78
g59
NtRp2605
(dp2606
g62
(dp2607
g89
g90
ssg71
g2596
sg64
(lp2608
S':'
asbag57
(g78
g59
NtRp2609
(dp2610
g62
(dp2611
sg71
g2596
sg64
(lp2612
g57
(g58
g59
NtRp2613
(dp2614
g62
(dp2615
g70
I3
ssg71
g2609
sg64
(lp2616
S'1'
asbasbasbasbasbasbasbasbasbasbasbasbasbsS'frames'
p2617
(lp2618
(dp2619
S'file'
p2620
S'/home/tuna/cyberagent/IgoR/C_Sources/Server/igor-assistant-ca-2012/gluon/restricted.py'
p2621
sS'dump'
p2622
(dp2623
S'environment'
p2624
S"{'A': <class 'gluon.html.A'>, 'Auth': <class 'gluon.tools.Auth'>, 'B': <class 'gluon.html.B'>, 'BEAUTIFY': <class 'gluon.html.BEAUTIFY'>, 'BODY': <class 'gluon.html.BODY'>, 'BR': <class 'gluon.html.BR'>, 'BUTTON': <class 'gluon.html.BUTTON'>, 'CAT': <class 'gluon.html.CAT'>, 'CENTER': <class 'gluon.html.CENTER'>, 'CLEANUP': <class 'gluon.validators.CLEANUP'>, ...}"
p2625
sS'ccode'
p2626
S'<code object <module> at 0x7f46842fe930, file "/...pplications/igor/controllers/project.py", line 9>'
p2627
ssS'lnum'
p2628
I205
sS'lines'
p2629
(dp2630
I200
S'    try:'
p2631
sI201
S'        if type(code) == types.CodeType:'
p2632
sI202
S'            ccode = code'
p2633
sI203
S'        else:'
p2634
sI204
S'            ccode = compile2(code,layer)'
p2635
sI205
S'        exec ccode in environment'
p2636
sI206
S'    except HTTP:'
p2637
sI207
S'        raise'
p2638
sI208
S'    except RestrictedError:'
p2639
sI209
S'        # do not encapsulate (obfuscate) the original RestrictedError'
p2640
ssS'call'
p2641
S"(code='# -*- coding: utf-8 -*-\\n# this file is released ...lient_data\\nresponse._vars=response._caller(call)\\n', environment={'A': <class 'gluon.html.A'>, 'Auth': <class 'gluon.tools.Auth'>, 'B': <class 'gluon.html.B'>, 'BEAUTIFY': <class 'gluon.html.BEAUTIFY'>, 'BODY': <class 'gluon.html.BODY'>, 'BR': <class 'gluon.html.BR'>, 'BUTTON': <class 'gluon.html.BUTTON'>, 'CAT': <class 'gluon.html.CAT'>, 'CENTER': <class 'gluon.html.CENTER'>, 'CLEANUP': <class 'gluon.validators.CLEANUP'>, ...}, layer='/home/tuna/cyberagent/IgoR/C_Sources/Server/igor...-ca-2012/applications/igor/controllers/project.py')"
p2642
sS'func'
p2643
S'restricted'
p2644
sa(dp2645
g2620
S'/home/tuna/cyberagent/IgoR/C_Sources/Server/igor-assistant-ca-2012/applications/igor/controllers/project.py'
p2646
sg2622
(dp2647
sg2628
I177
sg2629
(dp2648
I167
S''
sI168
S'# \t\t\tif (afternoon):'
p2649
sI169
S'# \t\t\t\tafternoon = map(lambda s: s - 6, afternoon)'
p2650
sI170
S'# \t\t\t\tclient = class_data_format('
p2651
sI171
S'# \t\t\t\t\tclass_subject, class_scheduler,'
p2652
sI172
S'# \t\t\t\t\tsubject, afternoon, "Afternoon")'
p2653
sI173
S''
sI174
S'# \t\t\t\tclient_data.append (client)'
p2654
sI175
S''
sI176
S'# \treturn client_data'
p2655
ssg2641
S'()'
p2656
sg2643
S'<module>'
p2657
sa(dp2658
g2620
S'/home/tuna/cyberagent/IgoR/C_Sources/Server/igor-assistant-ca-2012/gluon/globals.py'
p2659
sg2622
(dp2660
S'self'
p2661
S'undefined'
p2662
sS'f'
S'<function call>'
p2663
ssg2628
I173
sg2629
(dp2664
I168
S'        self.menu = []             # used by the default view layout'
p2665
sI169
S'        self.files = []            # used by web2py_ajax.html'
p2666
sI170
S'        self.generic_patterns = [] # patterns to allow generic views'
p2667
sI171
S"        self.delimiters = ('{{','}}')"
p2668
sI172
S'        self._vars = None'
p2669
sI173
S'        self._caller = lambda f: f()'
p2670
sI174
S'        self._view_environment = None'
p2671
sI175
S'        self._custom_commit = None'
p2672
sI176
S'        self._custom_rollback = None'
p2673
sI177
S''
ssg2641
S'(f=<function call>)'
p2674
sg2643
S'<lambda>'
p2675
sa(dp2676
g2620
S'/home/tuna/cyberagent/IgoR/C_Sources/Server/igor-assistant-ca-2012/applications/igor/controllers/project.py'
p2677
sg2622
(dp2678
S'global service'
p2679
S'<gluon.tools.Service object>'
p2680
ssg2628
I19
sg2629
(dp2681
I14
S'service = Service()'
p2682
sI15
S''
sI16
S'def call():'
p2683
sI17
S'\tsession.forget()'
p2684
sI18
S''
sI19
S'\treturn service()'
p2685
sI20
S''
sI21
S'@service.jsonp'
p2686
sI22
S'@service.json'
p2687
sI23
S'def get_projects(user_id, term = 0):'
p2688
ssg2641
S'()'
p2689
sg2643
g2641
sa(dp2690
g2620
S'/home/tuna/cyberagent/IgoR/C_Sources/Server/igor-assistant-ca-2012/gluon/tools.py'
p2691
sg2622
(dp2692
S'request.args'
p2693
S"['json', 'get_projects', '2', '0']"
p2694
sS'self.serve_json'
p2695
S'<bound method Service.serve_json of <gluon.tools.Service object>>'
p2696
sS'self'
p2697
S'<gluon.tools.Service object>'
p2698
sS'request'
p2699
S"<Storage {'body': <cStringIO.StringO object at 0..._vars': <Storage {}>, 'post_vars': <Storage {}>}>"
p2700
ssg2628
I4015
sg2629
(dp2701
I4010
S"        elif arg0 == 'csv':"
p2702
sI4011
S'            return self.serve_csv(request.args[1:])'
p2703
sI4012
S"        elif arg0 == 'xml':"
p2704
sI4013
S'            return self.serve_xml(request.args[1:])'
p2705
sI4014
S"        elif arg0 == 'json':"
p2706
sI4015
S'            return self.serve_json(request.args[1:])'
p2707
sI4016
S'        # phucnh add 20120730'
p2708
sI4017
S"        elif arg0 == 'jsonp':"
p2709
sI4018
S'            return self.serve_jsonp(request.args[1:])'
p2710
sI4019
S'        # end phucnh add 20120730'
p2711
ssg2641
S'(self=<gluon.tools.Service object>)'
p2712
sg2643
S'__call__'
p2713
sa(dp2714
g2620
S'/home/tuna/cyberagent/IgoR/C_Sources/Server/igor-assistant-ca-2012/gluon/tools.py'
p2715
sg2622
(dp2716
S'args'
p2717
S"['get_projects', '2', '0']"
p2718
sS'd'
g45
sS'self'
p2719
S'<gluon.tools.Service object>'
p2720
sS'global universal_caller'
p2721
S'<function universal_caller>'
p2722
sS'self.json_procedures'
p2723
S"{'get_project_by_class': <function get_project_by_class>, 'get_project_by_user_class': <function get_project_by_user_class>, 'get_project_detail': <function get_project_detail>, 'get_projects': <function get_projects>}"
p2724
sS's'
g2662
ssg2628
I3808
sg2629
(dp2725
I3808
S'            s = universal_caller(self.json_procedures[args[0]],*args[1:],**d)'
p2726
sI3809
S"            if hasattr(s, 'as_list'):"
p2727
sI3810
S'                s = s.as_list()'
p2728
sI3811
S'            return response.json(s)'
p2729
sI3812
S'        self.error()'
p2730
sI3803
S"        response.headers['Content-Type'] = 'application/json; charset=utf-8'"
p2731
sI3804
S'        if not args:'
p2732
sI3805
S'            args = request.args'
p2733
sI3806
S'        d = dict(request.vars)'
p2734
sI3807
S'        if args and args[0] in self.json_procedures:'
p2735
ssg2641
S"(self=<gluon.tools.Service object>, args=['get_projects', '2', '0'])"
p2736
sg2643
S'serve_json'
p2737
sa(dp2738
g2620
S'/home/tuna/cyberagent/IgoR/C_Sources/Server/igor-assistant-ca-2012/gluon/tools.py'
p2739
sg2622
(dp2740
S'arg_dict'
p2741
S"{'term': '0', 'user_id': '2'}"
p2742
sS'f'
S'<function get_projects>'
p2743
ssg2628
I3490
sg2629
(dp2744
I3488
S'                arg_dict[arg_name] = b[arg_name]'
p2745
sI3489
S''
sI3490
S'        return f(**arg_dict)'
p2746
sI3491
S''
sI3492
S'    # Raise an error, the function cannot be called.'
p2747
sI3493
S'    raise HTTP(404, "Object does not exist")'
p2748
sI3494
S''
sI3485
S'        # However, we need to update the arg_dict with the values from the named arguments as well.'
p2749
sI3486
S'        for arg_name in named_args:'
p2750
sI3487
S'            if b.has_key(arg_name):'
p2751
ssg2641
S"(f=<function get_projects>, *a=('2', '0'), **b={})"
p2752
sg2643
S'universal_caller'
p2753
sa(dp2754
g2620
S'/home/tuna/cyberagent/IgoR/C_Sources/Server/igor-assistant-ca-2012/applications/igor/controllers/project.py'
p2755
sg2622
(dp2756
S'get_class_of_user'
p2757
g2662
sS'classes'
p2758
g2662
sS'user_id'
p2759
S"'2'"
p2760
sS'term'
p2761
S"'0'"
p2762
sS'day_of_week'
p2763
g2662
ssg2628
I39
sg2629
(dp2764
I34
S''
sI35
S'\t###'
p2765
sI36
S'\tif (term == 0):'
p2766
sI37
S'\t\tterm = get_current_term()'
p2767
sI38
S''
sI39
S'\tclasses = get_class_of_user(user_id, term, day_of_week)'
p2768
sI40
S''
sI41
S'\tprojects = list()'
p2769
sI42
S''
sI43
S'\tfor classs in classes:'
p2770
ssg2641
S"(user_id='2', term='0')"
p2771
sg2643
S'get_projects'
p2772
sasS'pyver'
p2773
S'Python 2.7.3: /usr/bin/python'
p2774
sS'session'
p2775
g57
(g58
g59
NtRp2776
(dp2777
g62
(dp2778
sg64
(lp2779
g57
(g66
g59
NtRp2780
(dp2781
g62
(dp2782
g70
I5
ssg71
Nsg64
(lp2783
sbasbsS'etype'
p2784
S"<type 'exceptions.NameError'>"
p2785
sS'date'
p2786
S'Fri Aug  3 00:55:33 2012'
p2787
sS'response'
p2788
g57
(g58
g59
NtRp2789
(dp2790
g62
(dp2791
sg64
(lp2792
g57
(g66
g59
NtRp2793
(dp2794
g62
(dp2795
g70
I5
ssg71
Nsg64
(lp2796
g57
(g73
g59
NtRp2797
(dp2798
g62
(dp2799
sg71
g2793
sg64
(lp2800
g57
(g78
g59
NtRp2801
(dp2802
g62
(dp2803
g82
g83
ssg71
g2797
sg64
(lp2804
g205
asbag57
(g78
g59
NtRp2805
(dp2806
g62
(dp2807
g89
g90
ssg71
g2797
sg64
(lp2808
S':'
asbag57
(g78
g59
NtRp2809
(dp2810
g62
(dp2811
sg71
g2797
sg64
(lp2812
g57
(g58
g59
NtRp2813
(dp2814
g62
(dp2815
g70
I5
ssg71
g2809
sg64
(lp2816
S'<cStringIO.StringO object at 0x7f469c3c9b20>'
p2817
asbasbasbag57
(g73
g59
NtRp2818
(dp2819
g62
(dp2820
sg71
g2793
sg64
(lp2821
g57
(g78
g59
NtRp2822
(dp2823
g62
(dp2824
g82
g83
ssg71
g2818
sg64
(lp2825
g271
asbag57
(g78
g59
NtRp2826
(dp2827
g62
(dp2828
g89
g90
ssg71
g2818
sg64
(lp2829
S':'
asbag57
(g78
g59
NtRp2830
(dp2831
g62
(dp2832
sg71
g2818
sg64
(lp2833
g57
(g58
g59
NtRp2834
(dp2835
g62
(dp2836
g70
I5
ssg71
g2830
sg64
(lp2837
g57
(g66
g59
NtRp2838
(dp2839
g62
(dp2840
g70
I4
ssg71
Nsg64
(lp2841
g57
(g73
g59
NtRp2842
(dp2843
g62
(dp2844
sg71
g2838
sg64
(lp2845
g57
(g78
g59
NtRp2846
(dp2847
g62
(dp2848
g82
g83
ssg71
g2842
sg64
(lp2849
S'session_id_igor'
p2850
asbag57
(g78
g59
NtRp2851
(dp2852
g62
(dp2853
g89
g90
ssg71
g2842
sg64
(lp2854
S':'
asbag57
(g78
g59
NtRp2855
(dp2856
g62
(dp2857
sg71
g2842
sg64
(lp2858
g57
(g58
g59
NtRp2859
(dp2860
g62
(dp2861
g70
I4
ssg71
g2855
sg64
(lp2862
g57
(g66
g59
NtRp2863
(dp2864
g62
(dp2865
g70
I3
ssg71
Nsg64
(lp2866
g57
(g73
g59
NtRp2867
(dp2868
g62
(dp2869
sg71
g2863
sg64
(lp2870
g57
(g78
g59
NtRp2871
(dp2872
g62
(dp2873
g82
g83
ssg71
g2867
sg64
(lp2874
g321
asbag57
(g78
g59
NtRp2875
(dp2876
g62
(dp2877
g89
g90
ssg71
g2867
sg64
(lp2878
S':'
asbag57
(g78
g59
NtRp2879
(dp2880
g62
(dp2881
sg71
g2867
sg64
(lp2882
g57
(g58
g59
NtRp2883
(dp2884
g62
(dp2885
g70
I3
ssg71
g2879
sg64
(lp2886
S''
asbasbasbag57
(g73
g59
NtRp2887
(dp2888
g62
(dp2889
sg71
g2863
sg64
(lp2890
g57
(g78
g59
NtRp2891
(dp2892
g62
(dp2893
g82
g83
ssg71
g2887
sg64
(lp2894
g342
asbag57
(g78
g59
NtRp2895
(dp2896
g62
(dp2897
g89
g90
ssg71
g2887
sg64
(lp2898
S':'
asbag57
(g78
g59
NtRp2899
(dp2900
g62
(dp2901
sg71
g2887
sg64
(lp2902
g57
(g58
g59
NtRp2903
(dp2904
g62
(dp2905
g70
I3
ssg71
g2899
sg64
(lp2906
S''
asbasbasbag57
(g73
g59
NtRp2907
(dp2908
g62
(dp2909
sg71
g2863
sg64
(lp2910
g57
(g78
g59
NtRp2911
(dp2912
g62
(dp2913
g82
g83
ssg71
g2907
sg64
(lp2914
g363
asbag57
(g78
g59
NtRp2915
(dp2916
g62
(dp2917
g89
g90
ssg71
g2907
sg64
(lp2918
S':'
asbag57
(g78
g59
NtRp2919
(dp2920
g62
(dp2921
sg71
g2907
sg64
(lp2922
g57
(g58
g59
NtRp2923
(dp2924
g62
(dp2925
g70
I3
ssg71
g2919
sg64
(lp2926
S''
asbasbasbag57
(g73
g59
NtRp2927
(dp2928
g62
(dp2929
sg71
g2863
sg64
(lp2930
g57
(g78
g59
NtRp2931
(dp2932
g62
(dp2933
g82
g83
ssg71
g2927
sg64
(lp2934
g384
asbag57
(g78
g59
NtRp2935
(dp2936
g62
(dp2937
g89
g90
ssg71
g2927
sg64
(lp2938
S':'
asbag57
(g78
g59
NtRp2939
(dp2940
g62
(dp2941
sg71
g2927
sg64
(lp2942
g57
(g58
g59
NtRp2943
(dp2944
g62
(dp2945
g70
I3
ssg71
g2939
sg64
(lp2946
S''
asbasbasbag57
(g73
g59
NtRp2947
(dp2948
g62
(dp2949
sg71
g2863
sg64
(lp2950
g57
(g78
g59
NtRp2951
(dp2952
g62
(dp2953
g82
g83
ssg71
g2947
sg64
(lp2954
g405
asbag57
(g78
g59
NtRp2955
(dp2956
g62
(dp2957
g89
g90
ssg71
g2947
sg64
(lp2958
S':'
asbag57
(g78
g59
NtRp2959
(dp2960
g62
(dp2961
sg71
g2947
sg64
(lp2962
g57
(g58
g59
NtRp2963
(dp2964
g62
(dp2965
g70
I3
ssg71
g2959
sg64
(lp2966
S''
asbasbasbag57
(g73
g59
NtRp2967
(dp2968
g62
(dp2969
sg71
g2863
sg64
(lp2970
g57
(g78
g59
NtRp2971
(dp2972
g62
(dp2973
g82
g83
ssg71
g2967
sg64
(lp2974
g426
asbag57
(g78
g59
NtRp2975
(dp2976
g62
(dp2977
g89
g90
ssg71
g2967
sg64
(lp2978
S':'
asbag57
(g78
g59
NtRp2979
(dp2980
g62
(dp2981
sg71
g2967
sg64
(lp2982
g57
(g58
g59
NtRp2983
(dp2984
g62
(dp2985
g70
I3
ssg71
g2979
sg64
(lp2986
S'/'
asbasbasbag57
(g73
g59
NtRp2987
(dp2988
g62
(dp2989
sg71
g2863
sg64
(lp2990
g57
(g78
g59
NtRp2991
(dp2992
g62
(dp2993
g82
g83
ssg71
g2987
sg64
(lp2994
g447
asbag57
(g78
g59
NtRp2995
(dp2996
g62
(dp2997
g89
g90
ssg71
g2987
sg64
(lp2998
S':'
asbag57
(g78
g59
NtRp2999
(dp3000
g62
(dp3001
sg71
g2987
sg64
(lp3002
g57
(g58
g59
NtRp3003
(dp3004
g62
(dp3005
g70
I3
ssg71
g2999
sg64
(lp3006
S''
asbasbasbag57
(g73
g59
NtRp3007
(dp3008
g62
(dp3009
sg71
g2863
sg64
(lp3010
g57
(g78
g59
NtRp3011
(dp3012
g62
(dp3013
g82
g83
ssg71
g3007
sg64
(lp3014
g468
asbag57
(g78
g59
NtRp3015
(dp3016
g62
(dp3017
g89
g90
ssg71
g3007
sg64
(lp3018
S':'
asbag57
(g78
g59
NtRp3019
(dp3020
g62
(dp3021
sg71
g3007
sg64
(lp3022
g57
(g58
g59
NtRp3023
(dp3024
g62
(dp3025
g70
I3
ssg71
g3019
sg64
(lp3026
S''
asbasbasbasbasbasbasbasbasbasbasbag57
(g73
g59
NtRp3027
(dp3028
g62
(dp3029
sg71
g2793
sg64
(lp3030
g57
(g78
g59
NtRp3031
(dp3032
g62
(dp3033
g82
g83
ssg71
g3027
sg64
(lp3034
S'delimiters'
p3035
asbag57
(g78
g59
NtRp3036
(dp3037
g62
(dp3038
g89
g90
ssg71
g3027
sg64
(lp3039
S':'
asbag57
(g78
g59
NtRp3040
(dp3041
g62
(dp3042
sg71
g3027
sg64
(lp3043
g57
(g58
g59
NtRp3044
(dp3045
g62
(dp3046
g70
I5
ssg71
g3040
sg64
(lp3047
g57
(g66
g59
NtRp3048
(dp3049
g62
(dp3050
g70
I4
ssg71
Nsg64
(lp3051
g57
(g73
g59
NtRp3052
(dp3053
g62
(dp3054
sg71
g3048
sg64
(lp3055
g57
(g78
g59
NtRp3056
(dp3057
g62
(dp3058
sg71
g3052
sg64
(lp3059
g57
(g58
g59
NtRp3060
(dp3061
g62
(dp3062
g70
I4
ssg71
g3056
sg64
(lp3063
S'{{'
p3064
asbasbasbag57
(g73
g59
NtRp3065
(dp3066
g62
(dp3067
sg71
g3048
sg64
(lp3068
g57
(g78
g59
NtRp3069
(dp3070
g62
(dp3071
sg71
g3065
sg64
(lp3072
g57
(g58
g59
NtRp3073
(dp3074
g62
(dp3075
g70
I4
ssg71
g3069
sg64
(lp3076
S'}}'
p3077
asbasbasbasbasbasbasbag57
(g73
g59
NtRp3078
(dp3079
g62
(dp3080
sg71
g2793
sg64
(lp3081
g57
(g78
g59
NtRp3082
(dp3083
g62
(dp3084
g82
g83
ssg71
g3078
sg64
(lp3085
S'files'
p3086
asbag57
(g78
g59
NtRp3087
(dp3088
g62
(dp3089
g89
g90
ssg71
g3078
sg64
(lp3090
S':'
asbag57
(g78
g59
NtRp3091
(dp3092
g62
(dp3093
sg71
g3078
sg64
(lp3094
g57
(g58
g59
NtRp3095
(dp3096
g62
(dp3097
g70
I5
ssg71
g3091
sg64
(lp3098
g57
(g66
g59
NtRp3099
(dp3100
g62
(dp3101
g70
I4
ssg71
Nsg64
(lp3102
sbasbasbasbag57
(g73
g59
NtRp3103
(dp3104
g62
(dp3105
sg71
g2793
sg64
(lp3106
g57
(g78
g59
NtRp3107
(dp3108
g62
(dp3109
g82
g83
ssg71
g3103
sg64
(lp3110
S'flash'
p3111
asbag57
(g78
g59
NtRp3112
(dp3113
g62
(dp3114
g89
g90
ssg71
g3103
sg64
(lp3115
S':'
asbag57
(g78
g59
NtRp3116
(dp3117
g62
(dp3118
sg71
g3103
sg64
(lp3119
g57
(g58
g59
NtRp3120
(dp3121
g62
(dp3122
g70
I5
ssg71
g3116
sg64
(lp3123
S''
asbasbasbag57
(g73
g59
NtRp3124
(dp3125
g62
(dp3126
sg71
g2793
sg64
(lp3127
g57
(g78
g59
NtRp3128
(dp3129
g62
(dp3130
g82
g83
ssg71
g3124
sg64
(lp3131
S'generic_patterns'
p3132
asbag57
(g78
g59
NtRp3133
(dp3134
g62
(dp3135
g89
g90
ssg71
g3124
sg64
(lp3136
S':'
asbag57
(g78
g59
NtRp3137
(dp3138
g62
(dp3139
sg71
g3124
sg64
(lp3140
g57
(g58
g59
NtRp3141
(dp3142
g62
(dp3143
g70
I5
ssg71
g3137
sg64
(lp3144
g57
(g66
g59
NtRp3145
(dp3146
g62
(dp3147
g70
I4
ssg71
Nsg64
(lp3148
g57
(g73
g59
NtRp3149
(dp3150
g62
(dp3151
sg71
g3145
sg64
(lp3152
g57
(g78
g59
NtRp3153
(dp3154
g62
(dp3155
sg71
g3149
sg64
(lp3156
g57
(g58
g59
NtRp3157
(dp3158
g62
(dp3159
g70
I4
ssg71
g3153
sg64
(lp3160
S'*'
asbasbasbasbasbasbasbag57
(g73
g59
NtRp3161
(dp3162
g62
(dp3163
sg71
g2793
sg64
(lp3164
g57
(g78
g59
NtRp3165
(dp3166
g62
(dp3167
g82
g83
ssg71
g3161
sg64
(lp3168
S'headers'
p3169
asbag57
(g78
g59
NtRp3170
(dp3171
g62
(dp3172
g89
g90
ssg71
g3161
sg64
(lp3173
S':'
asbag57
(g78
g59
NtRp3174
(dp3175
g62
(dp3176
sg71
g3161
sg64
(lp3177
g57
(g58
g59
NtRp3178
(dp3179
g62
(dp3180
g70
I5
ssg71
g3174
sg64
(lp3181
g57
(g66
g59
NtRp3182
(dp3183
g62
(dp3184
g70
I4
ssg71
Nsg64
(lp3185
g57
(g73
g59
NtRp3186
(dp3187
g62
(dp3188
sg71
g3182
sg64
(lp3189
g57
(g78
g59
NtRp3190
(dp3191
g62
(dp3192
g82
g83
ssg71
g3186
sg64
(lp3193
S'Cache-Control'
p3194
asbag57
(g78
g59
NtRp3195
(dp3196
g62
(dp3197
g89
g90
ssg71
g3186
sg64
(lp3198
S':'
asbag57
(g78
g59
NtRp3199
(dp3200
g62
(dp3201
sg71
g3186
sg64
(lp3202
g57
(g58
g59
NtRp3203
(dp3204
g62
(dp3205
g70
I4
ssg71
g3199
sg64
(lp3206
S'no-store, no-cache, must-revalidate, post-check=0, pre-check=0'
p3207
asbasbasbag57
(g73
g59
NtRp3208
(dp3209
g62
(dp3210
sg71
g3182
sg64
(lp3211
g57
(g78
g59
NtRp3212
(dp3213
g62
(dp3214
g82
g83
ssg71
g3208
sg64
(lp3215
S'Content-Type'
p3216
asbag57
(g78
g59
NtRp3217
(dp3218
g62
(dp3219
g89
g90
ssg71
g3208
sg64
(lp3220
S':'
asbag57
(g78
g59
NtRp3221
(dp3222
g62
(dp3223
sg71
g3208
sg64
(lp3224
g57
(g58
g59
NtRp3225
(dp3226
g62
(dp3227
g70
I4
ssg71
g3221
sg64
(lp3228
S'application/json; charset=utf-8'
p3229
asbasbasbag57
(g73
g59
NtRp3230
(dp3231
g62
(dp3232
sg71
g3182
sg64
(lp3233
g57
(g78
g59
NtRp3234
(dp3235
g62
(dp3236
g82
g83
ssg71
g3230
sg64
(lp3237
S'Expires'
p3238
asbag57
(g78
g59
NtRp3239
(dp3240
g62
(dp3241
g89
g90
ssg71
g3230
sg64
(lp3242
S':'
asbag57
(g78
g59
NtRp3243
(dp3244
g62
(dp3245
sg71
g3230
sg64
(lp3246
g57
(g58
g59
NtRp3247
(dp3248
g62
(dp3249
g70
I4
ssg71
g3243
sg64
(lp3250
S'Thu, 02 Aug 2012 17:55:33 GMT'
p3251
asbasbasbag57
(g73
g59
NtRp3252
(dp3253
g62
(dp3254
sg71
g3182
sg64
(lp3255
g57
(g78
g59
NtRp3256
(dp3257
g62
(dp3258
g82
g83
ssg71
g3252
sg64
(lp3259
S'Pragma'
p3260
asbag57
(g78
g59
NtRp3261
(dp3262
g62
(dp3263
g89
g90
ssg71
g3252
sg64
(lp3264
S':'
asbag57
(g78
g59
NtRp3265
(dp3266
g62
(dp3267
sg71
g3252
sg64
(lp3268
g57
(g58
g59
NtRp3269
(dp3270
g62
(dp3271
g70
I4
ssg71
g3265
sg64
(lp3272
S'no-cache'
p3273
asbasbasbag57
(g73
g59
NtRp3274
(dp3275
g62
(dp3276
sg71
g3182
sg64
(lp3277
g57
(g78
g59
NtRp3278
(dp3279
g62
(dp3280
g82
g83
ssg71
g3274
sg64
(lp3281
S'X-Powered-By'
p3282
asbag57
(g78
g59
NtRp3283
(dp3284
g62
(dp3285
g89
g90
ssg71
g3274
sg64
(lp3286
S':'
asbag57
(g78
g59
NtRp3287
(dp3288
g62
(dp3289
sg71
g3274
sg64
(lp3290
g57
(g58
g59
NtRp3291
(dp3292
g62
(dp3293
g70
I4
ssg71
g3287
sg64
(lp3294
S'web2py'
p3295
asbasbasbasbasbasbasbag57
(g73
g59
NtRp3296
(dp3297
g62
(dp3298
sg71
g2793
sg64
(lp3299
g57
(g78
g59
NtRp3300
(dp3301
g62
(dp3302
g82
g83
ssg71
g3296
sg64
(lp3303
S'menu'
p3304
asbag57
(g78
g59
NtRp3305
(dp3306
g62
(dp3307
g89
g90
ssg71
g3296
sg64
(lp3308
S':'
asbag57
(g78
g59
NtRp3309
(dp3310
g62
(dp3311
sg71
g3296
sg64
(lp3312
g57
(g58
g59
NtRp3313
(dp3314
g62
(dp3315
g70
I5
ssg71
g3309
sg64
(lp3316
g57
(g66
g59
NtRp3317
(dp3318
g62
(dp3319
g70
I4
ssg71
Nsg64
(lp3320
g57
(g73
g59
NtRp3321
(dp3322
g62
(dp3323
sg71
g3317
sg64
(lp3324
g57
(g78
g59
NtRp3325
(dp3326
g62
(dp3327
sg71
g3321
sg64
(lp3328
g57
(g58
g59
NtRp3329
(dp3330
g62
(dp3331
g70
I4
ssg71
g3325
sg64
(lp3332
g57
(g66
g59
NtRp3333
(dp3334
g62
(dp3335
g70
I3
ssg71
Nsg64
(lp3336
g57
(g73
g59
NtRp3337
(dp3338
g62
(dp3339
sg71
g3333
sg64
(lp3340
g57
(g78
g59
NtRp3341
(dp3342
g62
(dp3343
sg71
g3337
sg64
(lp3344
g57
(g58
g59
NtRp3345
(dp3346
g62
(dp3347
g70
I3
ssg71
g3341
sg64
(lp3348
cgluon.languages
lazyT_unpickle
p3349
(S't\x04\x00\x00\x00Home'
tRp3350
asbasbasbag57
(g73
g59
NtRp3351
(dp3352
g62
(dp3353
sg71
g3333
sg64
(lp3354
g57
(g78
g59
NtRp3355
(dp3356
g62
(dp3357
sg71
g3351
sg64
(lp3358
g57
(g58
g59
NtRp3359
(dp3360
g62
(dp3361
g70
I3
ssg71
g3355
sg64
(lp3362
g100
asbasbasbag57
(g73
g59
NtRp3363
(dp3364
g62
(dp3365
sg71
g3333
sg64
(lp3366
g57
(g78
g59
NtRp3367
(dp3368
g62
(dp3369
sg71
g3363
sg64
(lp3370
g57
(g58
g59
NtRp3371
(dp3372
g62
(dp3373
g70
I3
ssg71
g3367
sg64
(lp3374
S'/igor/default/index'
p3375
asbasbasbag57
(g73
g59
NtRp3376
(dp3377
g62
(dp3378
sg71
g3333
sg64
(lp3379
g57
(g78
g59
NtRp3380
(dp3381
g62
(dp3382
sg71
g3376
sg64
(lp3383
g57
(g58
g59
NtRp3384
(dp3385
g62
(dp3386
g70
I3
ssg71
g3380
sg64
(lp3387
g57
(g66
g59
NtRp3388
(dp3389
g62
(dp3390
g70
I2
ssg71
Nsg64
(lp3391
sbasbasbasbasbasbasbasbag57
(g73
g59
NtRp3392
(dp3393
g62
(dp3394
sg71
g3317
sg64
(lp3395
g57
(g78
g59
NtRp3396
(dp3397
g62
(dp3398
sg71
g3392
sg64
(lp3399
g57
(g58
g59
NtRp3400
(dp3401
g62
(dp3402
g70
I4
ssg71
g3396
sg64
(lp3403
g57
(g66
g59
NtRp3404
(dp3405
g62
(dp3406
g70
I3
ssg71
Nsg64
(lp3407
g57
(g73
g59
NtRp3408
(dp3409
g62
(dp3410
sg71
g3404
sg64
(lp3411
g57
(g78
g59
NtRp3412
(dp3413
g62
(dp3414
sg71
g3408
sg64
(lp3415
g57
(g58
g59
NtRp3416
(dp3417
g62
(dp3418
g70
I3
ssg71
g3412
sg64
(lp3419
g57
(cgluon.html
SPAN
p3420
g59
NtRp3421
(dp3422
g62
(dp3423
g82
S'color:yellow'
p3424
ssg71
Nsg64
(lp3425
g3295
asbasbasbasbag57
(g73
g59
NtRp3426
(dp3427
g62
(dp3428
sg71
g3404
sg64
(lp3429
g57
(g78
g59
NtRp3430
(dp3431
g62
(dp3432
sg71
g3426
sg64
(lp3433
g57
(g58
g59
NtRp3434
(dp3435
g62
(dp3436
g70
I3
ssg71
g3430
sg64
(lp3437
g100
asbasbasbag57
(g73
g59
NtRp3438
(dp3439
g62
(dp3440
sg71
g3404
sg64
(lp3441
g57
(g78
g59
NtRp3442
(dp3443
g62
(dp3444
sg71
g3438
sg64
(lp3445
g57
(g58
g59
NtRp3446
(dp3447
g62
(dp3448
g70
I3
ssg71
g3442
sg64
(lp3449
S'None'
p3450
asbasbasbag57
(g73
g59
NtRp3451
(dp3452
g62
(dp3453
sg71
g3404
sg64
(lp3454
g57
(g78
g59
NtRp3455
(dp3456
g62
(dp3457
sg71
g3451
sg64
(lp3458
g57
(g58
g59
NtRp3459
(dp3460
g62
(dp3461
g70
I3
ssg71
g3455
sg64
(lp3462
g57
(g66
g59
NtRp3463
(dp3464
g62
(dp3465
g70
I2
ssg71
Nsg64
(lp3466
g57
(g73
g59
NtRp3467
(dp3468
g62
(dp3469
sg71
g3463
sg64
(lp3470
g57
(g78
g59
NtRp3471
(dp3472
g62
(dp3473
sg71
g3467
sg64
(lp3474
g57
(g58
g59
NtRp3475
(dp3476
g62
(dp3477
g70
I2
ssg71
g3471
sg64
(lp3478
g57
(g66
g59
NtRp3479
(dp3480
g62
(dp3481
g70
I1
ssg71
Nsg64
(lp3482
g57
(g73
g59
NtRp3483
(dp3484
g62
(dp3485
sg71
g3479
sg64
(lp3486
g57
(g78
g59
NtRp3487
(dp3488
g62
(dp3489
sg71
g3483
sg64
(lp3490
g57
(g58
g59
NtRp3491
(dp3492
g62
(dp3493
g70
I1
ssg71
g3487
sg64
(lp3494
g3349
(S's\x08\x00\x00\x00My Sites'
tRp3495
asbasbasbag57
(g73
g59
NtRp3496
(dp3497
g62
(dp3498
sg71
g3479
sg64
(lp3499
g57
(g78
g59
NtRp3500
(dp3501
g62
(dp3502
sg71
g3496
sg64
(lp3503
g57
(g58
g59
NtRp3504
(dp3505
g62
(dp3506
g70
I1
ssg71
g3500
sg64
(lp3507
I00
asbasbasbag57
(g73
g59
NtRp3508
(dp3509
g62
(dp3510
sg71
g3479
sg64
(lp3511
g57
(g78
g59
NtRp3512
(dp3513
g62
(dp3514
sg71
g3508
sg64
(lp3515
g57
(g58
g59
NtRp3516
(dp3517
g62
(dp3518
g70
I1
ssg71
g3512
sg64
(lp3519
S'/admin/default/site'
p3520
asbasbasbasbasbasbasbag57
(g73
g59
NtRp3521
(dp3522
g62
(dp3523
sg71
g3463
sg64
(lp3524
g57
(g78
g59
NtRp3525
(dp3526
g62
(dp3527
sg71
g3521
sg64
(lp3528
g57
(g58
g59
NtRp3529
(dp3530
g62
(dp3531
g70
I2
ssg71
g3525
sg64
(lp3532
g57
(g66
g59
NtRp3533
(dp3534
g62
(dp3535
g70
I1
ssg71
Nsg64
(lp3536
g57
(g73
g59
NtRp3537
(dp3538
g62
(dp3539
sg71
g3533
sg64
(lp3540
g57
(g78
g59
NtRp3541
(dp3542
g62
(dp3543
sg71
g3537
sg64
(lp3544
g57
(g58
g59
NtRp3545
(dp3546
g62
(dp3547
g70
I1
ssg71
g3541
sg64
(lp3548
g3349
(S's\x08\x00\x00\x00This App'
tRp3549
asbasbasbag57
(g73
g59
NtRp3550
(dp3551
g62
(dp3552
sg71
g3533
sg64
(lp3553
g57
(g78
g59
NtRp3554
(dp3555
g62
(dp3556
sg71
g3550
sg64
(lp3557
g57
(g58
g59
NtRp3558
(dp3559
g62
(dp3560
g70
I1
ssg71
g3554
sg64
(lp3561
I00
asbasbasbag57
(g73
g59
NtRp3562
(dp3563
g62
(dp3564
sg71
g3533
sg64
(lp3565
g57
(g78
g59
NtRp3566
(dp3567
g62
(dp3568
sg71
g3562
sg64
(lp3569
g57
(g58
g59
NtRp3570
(dp3571
g62
(dp3572
g70
I1
ssg71
g3566
sg64
(lp3573
S'/admin/default/design/igor'
p3574
asbasbasbag57
(g73
g59
NtRp3575
(dp3576
g62
(dp3577
sg71
g3533
sg64
(lp3578
g57
(g78
g59
NtRp3579
(dp3580
g62
(dp3581
sg71
g3575
sg64
(lp3582
g57
(g58
g59
NtRp3583
(dp3584
g62
(dp3585
g70
I1
ssg71
g3579
sg64
(lp3586
(lp3587
(g3349
(S't\n\x00\x00\x00Controller'
tRp3588
I00
S'/admin/default/edit/igor/controllers/project.py'
tp3589
a(g3349
(S't\x04\x00\x00\x00View'
tRp3590
I00
S'/admin/default/edit/igor/views/project/call.html'
tp3591
a(g3349
(S't\x06\x00\x00\x00Layout'
tRp3592
I00
S'/admin/default/edit/igor/views/layout.html'
tp3593
a(g3349
(S't\n\x00\x00\x00Stylesheet'
tRp3594
I00
S'/admin/default/edit/igor/static/css/web2py.css'
tp3595
a(g3349
(S's\x08\x00\x00\x00DB Model'
tRp3596
I00
S'/admin/default/edit/igor/models/db.py'
tp3597
a(g3349
(S's\n\x00\x00\x00Menu Model'
tRp3598
I00
S'/admin/default/edit/igor/models/menu.py'
tp3599
a(g3349
(S't\x08\x00\x00\x00Database'
tRp3600
I00
S'/igor/appadmin/index'
tp3601
a(g3349
(S't\x06\x00\x00\x00Errors'
tRp3602
I00
S'/admin/default/errors/igor'
tp3603
a(g3349
(S't\x05\x00\x00\x00About'
tRp3604
I00
S'/admin/default/about/igor'
tp3605
aasbasbasbasbasbasbasbag57
(g73
g59
NtRp3606
(dp3607
g62
(dp3608
sg71
g3463
sg64
(lp3609
g57
(g78
g59
NtRp3610
(dp3611
g62
(dp3612
sg71
g3606
sg64
(lp3613
g57
(g58
g59
NtRp3614
(dp3615
g62
(dp3616
g70
I2
ssg71
g3610
sg64
(lp3617
g57
(g66
g59
NtRp3618
(dp3619
g62
(dp3620
g70
I1
ssg71
Nsg64
(lp3621
g57
(g73
g59
NtRp3622
(dp3623
g62
(dp3624
sg71
g3618
sg64
(lp3625
g57
(g78
g59
NtRp3626
(dp3627
g62
(dp3628
sg71
g3622
sg64
(lp3629
g57
(g58
g59
NtRp3630
(dp3631
g62
(dp3632
g70
I1
ssg71
g3626
sg64
(lp3633
S'web2py.com'
p3634
asbasbasbag57
(g73
g59
NtRp3635
(dp3636
g62
(dp3637
sg71
g3618
sg64
(lp3638
g57
(g78
g59
NtRp3639
(dp3640
g62
(dp3641
sg71
g3635
sg64
(lp3642
g57
(g58
g59
NtRp3643
(dp3644
g62
(dp3645
g70
I1
ssg71
g3639
sg64
(lp3646
I00
asbasbasbag57
(g73
g59
NtRp3647
(dp3648
g62
(dp3649
sg71
g3618
sg64
(lp3650
g57
(g78
g59
NtRp3651
(dp3652
g62
(dp3653
sg71
g3647
sg64
(lp3654
g57
(g58
g59
NtRp3655
(dp3656
g62
(dp3657
g70
I1
ssg71
g3651
sg64
(lp3658
S'http://www.web2py.com'
p3659
asbasbasbag57
(g73
g59
NtRp3660
(dp3661
g62
(dp3662
sg71
g3618
sg64
(lp3663
g57
(g78
g59
NtRp3664
(dp3665
g62
(dp3666
sg71
g3660
sg64
(lp3667
g57
(g58
g59
NtRp3668
(dp3669
g62
(dp3670
g70
I1
ssg71
g3664
sg64
(lp3671
(lp3672
(g3349
(S't\x08\x00\x00\x00Download'
tRp3673
I00
S'http://www.web2py.com/examples/default/download'
p3674
tp3675
a(g3349
(S't\x07\x00\x00\x00Support'
tRp3676
I00
S'http://www.web2py.com/examples/default/support'
p3677
tp3678
a(g3349
(S't\x04\x00\x00\x00Demo'
tRp3679
I00
S'http://web2py.com/demo_admin'
p3680
tp3681
a(g3349
(S's\x0e\x00\x00\x00Quick Examples'
tRp3682
I00
S'http://web2py.com/examples/default/examples'
p3683
tp3684
a(g3349
(S't\x03\x00\x00\x00FAQ'
tRp3685
I00
S'http://web2py.com/AlterEgo'
p3686
tp3687
a(g3349
(S't\x06\x00\x00\x00Videos'
tRp3688
I00
S'http://www.web2py.com/examples/default/videos/'
p3689
tp3690
a(g3349
(S's\x11\x00\x00\x00Free Applications'
tRp3691
I00
S'http://web2py.com/appliances'
p3692
tp3693
a(g3349
(S't\x07\x00\x00\x00Plugins'
tRp3694
I00
S'http://web2py.com/plugins'
p3695
tp3696
a(g3349
(S't\x07\x00\x00\x00Layouts'
tRp3697
I00
S'http://web2py.com/layouts'
p3698
tp3699
a(g3349
(S't\x07\x00\x00\x00Recipes'
tRp3700
I00
S'http://web2pyslices.com/'
p3701
tp3702
a(g3349
(S't\x08\x00\x00\x00Semantic'
tRp3703
I00
S'http://web2py.com/semantic'
p3704
tp3705
aasbasbasbasbasbasbasbag57
(g73
g59
NtRp3706
(dp3707
g62
(dp3708
sg71
g3463
sg64
(lp3709
g57
(g78
g59
NtRp3710
(dp3711
g62
(dp3712
sg71
g3706
sg64
(lp3713
g57
(g58
g59
NtRp3714
(dp3715
g62
(dp3716
g70
I2
ssg71
g3710
sg64
(lp3717
g57
(g66
g59
NtRp3718
(dp3719
g62
(dp3720
g70
I1
ssg71
Nsg64
(lp3721
g57
(g73
g59
NtRp3722
(dp3723
g62
(dp3724
sg71
g3718
sg64
(lp3725
g57
(g78
g59
NtRp3726
(dp3727
g62
(dp3728
sg71
g3722
sg64
(lp3729
g57
(g58
g59
NtRp3730
(dp3731
g62
(dp3732
g70
I1
ssg71
g3726
sg64
(lp3733
g3349
(S't\r\x00\x00\x00Documentation'
tRp3734
asbasbasbag57
(g73
g59
NtRp3735
(dp3736
g62
(dp3737
sg71
g3718
sg64
(lp3738
g57
(g78
g59
NtRp3739
(dp3740
g62
(dp3741
sg71
g3735
sg64
(lp3742
g57
(g58
g59
NtRp3743
(dp3744
g62
(dp3745
g70
I1
ssg71
g3739
sg64
(lp3746
I00
asbasbasbag57
(g73
g59
NtRp3747
(dp3748
g62
(dp3749
sg71
g3718
sg64
(lp3750
g57
(g78
g59
NtRp3751
(dp3752
g62
(dp3753
sg71
g3747
sg64
(lp3754
g57
(g58
g59
NtRp3755
(dp3756
g62
(dp3757
g70
I1
ssg71
g3751
sg64
(lp3758
S'http://www.web2py.com/book'
p3759
asbasbasbag57
(g73
g59
NtRp3760
(dp3761
g62
(dp3762
sg71
g3718
sg64
(lp3763
g57
(g78
g59
NtRp3764
(dp3765
g62
(dp3766
sg71
g3760
sg64
(lp3767
g57
(g58
g59
NtRp3768
(dp3769
g62
(dp3770
g70
I1
ssg71
g3764
sg64
(lp3771
(lp3772
(g3349
(S't\x07\x00\x00\x00Preface'
tRp3773
I00
S'http://www.web2py.com/book/default/chapter/00'
p3774
tp3775
a(g3349
(S't\x0c\x00\x00\x00Introduction'
tRp3776
I00
S'http://www.web2py.com/book/default/chapter/01'
p3777
tp3778
a(g3349
(S't\x06\x00\x00\x00Python'
tRp3779
I00
S'http://www.web2py.com/book/default/chapter/02'
p3780
tp3781
a(g3349
(S't\x08\x00\x00\x00Overview'
tRp3782
I00
S'http://www.web2py.com/book/default/chapter/03'
p3783
tp3784
a(g3349
(S's\x08\x00\x00\x00The Core'
tRp3785
I00
S'http://www.web2py.com/book/default/chapter/04'
p3786
tp3787
a(g3349
(S's\t\x00\x00\x00The Views'
tRp3788
I00
S'http://www.web2py.com/book/default/chapter/05'
p3789
tp3790
a(g3349
(S't\x08\x00\x00\x00Database'
tRp3791
I00
S'http://www.web2py.com/book/default/chapter/06'
p3792
tp3793
a(g3349
(S's\x14\x00\x00\x00Forms and Validators'
tRp3794
I00
S'http://www.web2py.com/book/default/chapter/07'
p3795
tp3796
a(g3349
(S's\r\x00\x00\x00Email and SMS'
tRp3797
I00
S'http://www.web2py.com/book/default/chapter/08'
p3798
tp3799
a(g3349
(S's\x0e\x00\x00\x00Access Control'
tRp3800
I00
S'http://www.web2py.com/book/default/chapter/09'
p3801
tp3802
a(g3349
(S't\x08\x00\x00\x00Services'
tRp3803
I00
S'http://www.web2py.com/book/default/chapter/10'
p3804
tp3805
a(g3349
(S's\x0c\x00\x00\x00Ajax Recipes'
tRp3806
I00
S'http://www.web2py.com/book/default/chapter/11'
p3807
tp3808
a(g3349
(S's\x16\x00\x00\x00Components and Plugins'
tRp3809
I00
S'http://www.web2py.com/book/default/chapter/12'
p3810
tp3811
a(g3349
(S's\x12\x00\x00\x00Deployment Recipes'
tRp3812
I00
S'http://www.web2py.com/book/default/chapter/13'
p3813
tp3814
a(g3349
(S's\r\x00\x00\x00Other Recipes'
tRp3815
I00
S'http://www.web2py.com/book/default/chapter/14'
p3816
tp3817
a(g3349
(S's\r\x00\x00\x00Buy this book'
tRp3818
I00
S'http://stores.lulu.com/web2py'
p3819
tp3820
aasbasbasbasbasbasbasbag57
(g73
g59
NtRp3821
(dp3822
g62
(dp3823
sg71
g3463
sg64
(lp3824
g57
(g78
g59
NtRp3825
(dp3826
g62
(dp3827
sg71
g3821
sg64
(lp3828
g57
(g58
g59
NtRp3829
(dp3830
g62
(dp3831
g70
I2
ssg71
g3825
sg64
(lp3832
g57
(g66
g59
NtRp3833
(dp3834
g62
(dp3835
g70
I1
ssg71
Nsg64
(lp3836
g57
(g73
g59
NtRp3837
(dp3838
g62
(dp3839
sg71
g3833
sg64
(lp3840
g57
(g78
g59
NtRp3841
(dp3842
g62
(dp3843
sg71
g3837
sg64
(lp3844
g57
(g58
g59
NtRp3845
(dp3846
g62
(dp3847
g70
I1
ssg71
g3841
sg64
(lp3848
g3349
(S't\t\x00\x00\x00Community'
tRp3849
asbasbasbag57
(g73
g59
NtRp3850
(dp3851
g62
(dp3852
sg71
g3833
sg64
(lp3853
g57
(g78
g59
NtRp3854
(dp3855
g62
(dp3856
sg71
g3850
sg64
(lp3857
g57
(g58
g59
NtRp3858
(dp3859
g62
(dp3860
g70
I1
ssg71
g3854
sg64
(lp3861
I00
asbasbasbag57
(g73
g59
NtRp3862
(dp3863
g62
(dp3864
sg71
g3833
sg64
(lp3865
g57
(g78
g59
NtRp3866
(dp3867
g62
(dp3868
sg71
g3862
sg64
(lp3869
g57
(g58
g59
NtRp3870
(dp3871
g62
(dp3872
g70
I1
ssg71
g3866
sg64
(lp3873
Nasbasbasbag57
(g73
g59
NtRp3874
(dp3875
g62
(dp3876
sg71
g3833
sg64
(lp3877
g57
(g78
g59
NtRp3878
(dp3879
g62
(dp3880
sg71
g3874
sg64
(lp3881
g57
(g58
g59
NtRp3882
(dp3883
g62
(dp3884
g70
I1
ssg71
g3878
sg64
(lp3885
(lp3886
(g3349
(S't\x06\x00\x00\x00Groups'
tRp3887
I00
S'http://www.web2py.com/examples/default/usergroups'
p3888
tp3889
a(g3349
(S't\x07\x00\x00\x00Twitter'
tRp3890
I00
S'http://twitter.com/web2py'
p3891
tp3892
a(g3349
(S's\t\x00\x00\x00Live Chat'
tRp3893
I00
S'http://webchat.freenode.net/?channels=web2py'
p3894
tp3895
aasbasbasbasbasbasbasbag57
(g73
g59
NtRp3896
(dp3897
g62
(dp3898
sg71
g3463
sg64
(lp3899
g57
(g78
g59
NtRp3900
(dp3901
g62
(dp3902
sg71
g3896
sg64
(lp3903
g57
(g58
g59
NtRp3904
(dp3905
g62
(dp3906
g70
I2
ssg71
g3900
sg64
(lp3907
g57
(g66
g59
NtRp3908
(dp3909
g62
(dp3910
g70
I1
ssg71
Nsg64
(lp3911
g57
(g73
g59
NtRp3912
(dp3913
g62
(dp3914
sg71
g3908
sg64
(lp3915
g57
(g78
g59
NtRp3916
(dp3917
g62
(dp3918
sg71
g3912
sg64
(lp3919
g57
(g58
g59
NtRp3920
(dp3921
g62
(dp3922
g70
I1
ssg71
g3916
sg64
(lp3923
g3349
(S't\x07\x00\x00\x00Plugins'
tRp3924
asbasbasbag57
(g73
g59
NtRp3925
(dp3926
g62
(dp3927
sg71
g3908
sg64
(lp3928
g57
(g78
g59
NtRp3929
(dp3930
g62
(dp3931
sg71
g3925
sg64
(lp3932
g57
(g58
g59
NtRp3933
(dp3934
g62
(dp3935
g70
I1
ssg71
g3929
sg64
(lp3936
I00
asbasbasbag57
(g73
g59
NtRp3937
(dp3938
g62
(dp3939
sg71
g3908
sg64
(lp3940
g57
(g78
g59
NtRp3941
(dp3942
g62
(dp3943
sg71
g3937
sg64
(lp3944
g57
(g58
g59
NtRp3945
(dp3946
g62
(dp3947
g70
I1
ssg71
g3941
sg64
(lp3948
Nasbasbasbag57
(g73
g59
NtRp3949
(dp3950
g62
(dp3951
sg71
g3908
sg64
(lp3952
g57
(g78
g59
NtRp3953
(dp3954
g62
(dp3955
sg71
g3949
sg64
(lp3956
g57
(g58
g59
NtRp3957
(dp3958
g62
(dp3959
g70
I1
ssg71
g3953
sg64
(lp3960
(lp3961
(S'plugin_wiki'
p3962
I00
S'http://web2py.com/examples/default/download'
p3963
tp3964
a(g3349
(S's\r\x00\x00\x00Other Plugins'
tRp3965
I00
g3695
tp3966
a(g3349
(S's\x0e\x00\x00\x00Layout Plugins'
tRp3967
I00
g3698
tp3968
aasbasbasbasbasbasbasbasbasbasbasbasbasbasbasbasbasbasbasbag57
(g73
g59
NtRp3969
(dp3970
g62
(dp3971
sg71
g2793
sg64
(lp3972
g57
(g78
g59
NtRp3973
(dp3974
g62
(dp3975
g82
g83
ssg71
g3969
sg64
(lp3976
S'meta'
p3977
asbag57
(g78
g59
NtRp3978
(dp3979
g62
(dp3980
g89
g90
ssg71
g3969
sg64
(lp3981
S':'
asbag57
(g78
g59
NtRp3982
(dp3983
g62
(dp3984
sg71
g3969
sg64
(lp3985
g57
(g58
g59
NtRp3986
(dp3987
g62
(dp3988
g70
I5
ssg71
g3982
sg64
(lp3989
g57
(g66
g59
NtRp3990
(dp3991
g62
(dp3992
g70
I4
ssg71
Nsg64
(lp3993
g57
(g73
g59
NtRp3994
(dp3995
g62
(dp3996
sg71
g3990
sg64
(lp3997
g57
(g78
g59
NtRp3998
(dp3999
g62
(dp4000
g82
g83
ssg71
g3994
sg64
(lp4001
S'author'
p4002
asbag57
(g78
g59
NtRp4003
(dp4004
g62
(dp4005
g89
g90
ssg71
g3994
sg64
(lp4006
S':'
asbag57
(g78
g59
NtRp4007
(dp4008
g62
(dp4009
sg71
g3994
sg64
(lp4010
g57
(g58
g59
NtRp4011
(dp4012
g62
(dp4013
g70
I4
ssg71
g4007
sg64
(lp4014
S'Your Name <you@example.com>'
p4015
asbasbasbag57
(g73
g59
NtRp4016
(dp4017
g62
(dp4018
sg71
g3990
sg64
(lp4019
g57
(g78
g59
NtRp4020
(dp4021
g62
(dp4022
g82
g83
ssg71
g4016
sg64
(lp4023
S'copyright'
p4024
asbag57
(g78
g59
NtRp4025
(dp4026
g62
(dp4027
g89
g90
ssg71
g4016
sg64
(lp4028
S':'
asbag57
(g78
g59
NtRp4029
(dp4030
g62
(dp4031
sg71
g4016
sg64
(lp4032
g57
(g58
g59
NtRp4033
(dp4034
g62
(dp4035
g70
I4
ssg71
g4029
sg64
(lp4036
S'Copyright 2011'
p4037
asbasbasbag57
(g73
g59
NtRp4038
(dp4039
g62
(dp4040
sg71
g3990
sg64
(lp4041
g57
(g78
g59
NtRp4042
(dp4043
g62
(dp4044
g82
g83
ssg71
g4038
sg64
(lp4045
S'description'
p4046
asbag57
(g78
g59
NtRp4047
(dp4048
g62
(dp4049
g89
g90
ssg71
g4038
sg64
(lp4050
S':'
asbag57
(g78
g59
NtRp4051
(dp4052
g62
(dp4053
sg71
g4038
sg64
(lp4054
g57
(g58
g59
NtRp4055
(dp4056
g62
(dp4057
g70
I4
ssg71
g4051
sg64
(lp4058
S'a cool new app'
p4059
asbasbasbag57
(g73
g59
NtRp4060
(dp4061
g62
(dp4062
sg71
g3990
sg64
(lp4063
g57
(g78
g59
NtRp4064
(dp4065
g62
(dp4066
g82
g83
ssg71
g4060
sg64
(lp4067
S'generator'
p4068
asbag57
(g78
g59
NtRp4069
(dp4070
g62
(dp4071
g89
g90
ssg71
g4060
sg64
(lp4072
S':'
asbag57
(g78
g59
NtRp4073
(dp4074
g62
(dp4075
sg71
g4060
sg64
(lp4076
g57
(g58
g59
NtRp4077
(dp4078
g62
(dp4079
g70
I4
ssg71
g4073
sg64
(lp4080
S'Web2py Web Framework'
p4081
asbasbasbag57
(g73
g59
NtRp4082
(dp4083
g62
(dp4084
sg71
g3990
sg64
(lp4085
g57
(g78
g59
NtRp4086
(dp4087
g62
(dp4088
g82
g83
ssg71
g4082
sg64
(lp4089
S'keywords'
p4090
asbag57
(g78
g59
NtRp4091
(dp4092
g62
(dp4093
g89
g90
ssg71
g4082
sg64
(lp4094
S':'
asbag57
(g78
g59
NtRp4095
(dp4096
g62
(dp4097
sg71
g4082
sg64
(lp4098
g57
(g58
g59
NtRp4099
(dp4100
g62
(dp4101
g70
I4
ssg71
g4095
sg64
(lp4102
S'web2py, python, framework'
p4103
asbasbasbasbasbasbasbag57
(g73
g59
NtRp4104
(dp4105
g62
(dp4106
sg71
g2793
sg64
(lp4107
g57
(g78
g59
NtRp4108
(dp4109
g62
(dp4110
g82
g83
ssg71
g4104
sg64
(lp4111
S'postprocessing'
p4112
asbag57
(g78
g59
NtRp4113
(dp4114
g62
(dp4115
g89
g90
ssg71
g4104
sg64
(lp4116
S':'
asbag57
(g78
g59
NtRp4117
(dp4118
g62
(dp4119
sg71
g4104
sg64
(lp4120
g57
(g58
g59
NtRp4121
(dp4122
g62
(dp4123
g70
I5
ssg71
g4117
sg64
(lp4124
g57
(g66
g59
NtRp4125
(dp4126
g62
(dp4127
g70
I4
ssg71
Nsg64
(lp4128
sbasbasbasbag57
(g73
g59
NtRp4129
(dp4130
g62
(dp4131
sg71
g2793
sg64
(lp4132
g57
(g78
g59
NtRp4133
(dp4134
g62
(dp4135
g82
g83
ssg71
g4129
sg64
(lp4136
S'session_filename'
p4137
asbag57
(g78
g59
NtRp4138
(dp4139
g62
(dp4140
g89
g90
ssg71
g4129
sg64
(lp4141
S':'
asbag57
(g78
g59
NtRp4142
(dp4143
g62
(dp4144
sg71
g4129
sg64
(lp4145
g57
(g58
g59
NtRp4146
(dp4147
g62
(dp4148
g70
I5
ssg71
g4142
sg64
(lp4149
S'/home/tuna/cyberagent/IgoR/C_Sources/Server/igor-assistant-ca-2012/applications/igor/sessions/127.0.0.1-03ee7cf8-547a-4db7-acdc-43b72e4188c3'
p4150
asbasbasbag57
(g73
g59
NtRp4151
(dp4152
g62
(dp4153
sg71
g2793
sg64
(lp4154
g57
(g78
g59
NtRp4155
(dp4156
g62
(dp4157
g82
g83
ssg71
g4151
sg64
(lp4158
S'session_id'
p4159
asbag57
(g78
g59
NtRp4160
(dp4161
g62
(dp4162
g89
g90
ssg71
g4151
sg64
(lp4163
S':'
asbag57
(g78
g59
NtRp4164
(dp4165
g62
(dp4166
sg71
g4151
sg64
(lp4167
g57
(g58
g59
NtRp4168
(dp4169
g62
(dp4170
g70
I5
ssg71
g4164
sg64
(lp4171
S'127.0.0.1-03ee7cf8-547a-4db7-acdc-43b72e4188c3'
p4172
asbasbasbag57
(g73
g59
NtRp4173
(dp4174
g62
(dp4175
sg71
g2793
sg64
(lp4176
g57
(g78
g59
NtRp4177
(dp4178
g62
(dp4179
g82
g83
ssg71
g4173
sg64
(lp4180
S'session_id_name'
p4181
asbag57
(g78
g59
NtRp4182
(dp4183
g62
(dp4184
g89
g90
ssg71
g4173
sg64
(lp4185
S':'
asbag57
(g78
g59
NtRp4186
(dp4187
g62
(dp4188
sg71
g4173
sg64
(lp4189
g57
(g58
g59
NtRp4190
(dp4191
g62
(dp4192
g70
I5
ssg71
g4186
sg64
(lp4193
g2850
asbasbasbag57
(g73
g59
NtRp4194
(dp4195
g62
(dp4196
sg71
g2793
sg64
(lp4197
g57
(g78
g59
NtRp4198
(dp4199
g62
(dp4200
g82
g83
ssg71
g4194
sg64
(lp4201
S'session_new'
p4202
asbag57
(g78
g59
NtRp4203
(dp4204
g62
(dp4205
g89
g90
ssg71
g4194
sg64
(lp4206
S':'
asbag57
(g78
g59
NtRp4207
(dp4208
g62
(dp4209
sg71
g4194
sg64
(lp4210
g57
(g58
g59
NtRp4211
(dp4212
g62
(dp4213
g70
I5
ssg71
g4207
sg64
(lp4214
g1314
asbasbasbag57
(g73
g59
NtRp4215
(dp4216
g62
(dp4217
sg71
g2793
sg64
(lp4218
g57
(g78
g59
NtRp4219
(dp4220
g62
(dp4221
g82
g83
ssg71
g4215
sg64
(lp4222
S'status'
p4223
asbag57
(g78
g59
NtRp4224
(dp4225
g62
(dp4226
g89
g90
ssg71
g4215
sg64
(lp4227
S':'
asbag57
(g78
g59
NtRp4228
(dp4229
g62
(dp4230
sg71
g4215
sg64
(lp4231
g57
(g58
g59
NtRp4232
(dp4233
g62
(dp4234
g70
I5
ssg71
g4228
sg64
(lp4235
S'200'
p4236
asbasbasbag57
(g73
g59
NtRp4237
(dp4238
g62
(dp4239
sg71
g2793
sg64
(lp4240
g57
(g78
g59
NtRp4241
(dp4242
g62
(dp4243
g82
g83
ssg71
g4237
sg64
(lp4244
S'subtitle'
p4245
asbag57
(g78
g59
NtRp4246
(dp4247
g62
(dp4248
g89
g90
ssg71
g4237
sg64
(lp4249
S':'
asbag57
(g78
g59
NtRp4250
(dp4251
g62
(dp4252
sg71
g4237
sg64
(lp4253
g57
(g58
g59
NtRp4254
(dp4255
g62
(dp4256
g70
I5
ssg71
g4250
sg64
(lp4257
g3349
(S's\r\x00\x00\x00customize me!'
tRp4258
asbasbasbag57
(g73
g59
NtRp4259
(dp4260
g62
(dp4261
sg71
g2793
sg64
(lp4262
g57
(g78
g59
NtRp4263
(dp4264
g62
(dp4265
g82
g83
ssg71
g4259
sg64
(lp4266
S'title'
p4267
asbag57
(g78
g59
NtRp4268
(dp4269
g62
(dp4270
g89
g90
ssg71
g4259
sg64
(lp4271
S':'
asbag57
(g78
g59
NtRp4272
(dp4273
g62
(dp4274
sg71
g4259
sg64
(lp4275
g57
(g58
g59
NtRp4276
(dp4277
g62
(dp4278
g70
I5
ssg71
g4272
sg64
(lp4279
S'Igor'
p4280
asbasbasbag57
(g73
g59
NtRp4281
(dp4282
g62
(dp4283
sg71
g2793
sg64
(lp4284
g57
(g78
g59
NtRp4285
(dp4286
g62
(dp4287
g82
g83
ssg71
g4281
sg64
(lp4288
g2000
asbag57
(g78
g59
NtRp4289
(dp4290
g62
(dp4291
g89
g90
ssg71
g4281
sg64
(lp4292
S':'
asbag57
(g78
g59
NtRp4293
(dp4294
g62
(dp4295
sg71
g4281
sg64
(lp4296
g57
(g58
g59
NtRp4297
(dp4298
g62
(dp4299
g70
I5
ssg71
g4293
sg64
(lp4300
g2013
asbasbasbag57
(g73
g59
NtRp4301
(dp4302
g62
(dp4303
sg71
g2793
sg64
(lp4304
g57
(g78
g59
NtRp4305
(dp4306
g62
(dp4307
g82
g83
ssg71
g4301
sg64
(lp4308
S'view'
p4309
asbag57
(g78
g59
NtRp4310
(dp4311
g62
(dp4312
g89
g90
ssg71
g4301
sg64
(lp4313
S':'
asbag57
(g78
g59
NtRp4314
(dp4315
g62
(dp4316
sg71
g4301
sg64
(lp4317
g57
(g58
g59
NtRp4318
(dp4319
g62
(dp4320
g70
I5
ssg71
g4314
sg64
(lp4321
S'project/call.html'
p4322
asbasbasbasbasbsS'locals'
p4323
(dp4324
S'term'
p4325
S"'0'"
p4326
sS'user_id'
p4327
S"'2'"
p4328
sssS'traceback'
p4329
S'Traceback (most recent call last):\n  File "/home/tuna/cyberagent/IgoR/C_Sources/Server/igor-assistant-ca-2012/gluon/restricted.py", line 205, in restricted\n    exec ccode in environment\n  File "/home/tuna/cyberagent/IgoR/C_Sources/Server/igor-assistant-ca-2012/applications/igor/controllers/project.py", line 177, in <module>\n  File "/home/tuna/cyberagent/IgoR/C_Sources/Server/igor-assistant-ca-2012/gluon/globals.py", line 173, in <lambda>\n    self._caller = lambda f: f()\n  File "/home/tuna/cyberagent/IgoR/C_Sources/Server/igor-assistant-ca-2012/applications/igor/controllers/project.py", line 19, in call\n    return service()\n  File "/home/tuna/cyberagent/IgoR/C_Sources/Server/igor-assistant-ca-2012/gluon/tools.py", line 4015, in __call__\n    return self.serve_json(request.args[1:])\n  File "/home/tuna/cyberagent/IgoR/C_Sources/Server/igor-assistant-ca-2012/gluon/tools.py", line 3808, in serve_json\n    s = universal_caller(self.json_procedures[args[0]],*args[1:],**d)\n  File "/home/tuna/cyberagent/IgoR/C_Sources/Server/igor-assistant-ca-2012/gluon/tools.py", line 3490, in universal_caller\n    return f(**arg_dict)\n  File "/home/tuna/cyberagent/IgoR/C_Sources/Server/igor-assistant-ca-2012/applications/igor/controllers/project.py", line 39, in get_projects\n    classes = get_class_of_user(user_id, term, day_of_week)\nNameError: global name \'get_class_of_user\' is not defined\n'
p4330
s.