(dp1
S'output'
p2
S"<class 'sqlite3.OperationalError'> table user already exists"
p3
sS'layer'
p4
S'D:\\workspace\\CA\\IgoR\\C_Sources\\Server\\igor-assistant-ca-2012\\applications\\igor\\models\\db_igor.py'
p5
sS'code'
p6
S"#########################################################################\n## Define database tables\n## Author: phucnh\n#########################################################################\n\n# Define user\ndb.define_table('user', \n    Field('name', 'string'),\n    # Field('keywords', 'list:string'),\n    Field('class_group', 'string'), # TTM, KHMT ...\n    Field('student_code', 'string'),\n    Field('user_course', 'integer'),\n    Field('avatar', 'string'),\n    Field('auth', db.auth_user),\n    )\n\n# db.user.keywords.compute  = lambda r : str (r.name)\n\n# Define subject table\ndb.define_table('subject', \n    Field('name', 'string', length=50, notnull=True),\n    Field('note', 'text'),\n    Field('subject_code', 'string', length=20)\n    )\n\n# Define class_subject table\ndb.define_table('class_subject',\n    #Field('subject', 'integer'),\n    Field('subject', db.subject),\n    Field('location', 'string'),\n    Field('duration', 'integer'),\n    Field('is_finished', 'boolean'),\n    #Field('day_of_week', 'integer', requires=IS_IN_SET(DAY_OF_WEEK_CONST)),\n    Field('term', 'integer'),\n    Field('teacher', 'string'),\n    Field('class_code', 'string', length=20)\n    )\n\ndb.define_table('class_scheduler',\n    Field('class_subject', db.class_subject),\n    Field('day_of_week', 'integer', requires=IS_IN_SET(DAY_OF_WEEK_CONST)), # Monday = 0, Tuesday = 1 ...\n    Field('period', 'string'), # value is string: 1,2,3.\n    Field('location', 'string'), # if this is empty, default is class location \n    )\n\n# Define scheduler table\ndb.define_table('scheduler',\n    Field('owner', 'integer'),\n    Field('class_subject', db.class_subject),\n    #Field('day_of_week', 'integer', requires=IS_IN_SET(DAY_OF_WEEK_CONST)),\n    #Field('period', 'string'),\n    Field('term', 'integer')\n    )\n\n# Define notification table\ndb.define_table('notification',\n    Field('notification_class', 'integer', default = 0), # 0 - job notification, 1 - subject notification\n    Field('owner', 'integer'),\n    Field('user_share', 'integer', default = 0), # if (is share notification) user_share != 0\n    Field('is_read', 'boolean'),\n    Field('type', 'integer'), # 0 - personal (alarm), 1 - sharing job\n    Field('date', 'integer'),\n    Field('is_completed','boolean', default = False)\n    )\n\n# Define test table\ndb.define_table('test',\n    Field('class_subject', db.class_subject),\n    Field('test_type', 'integer', default = 0), # 0 - mid term test, 1 - end term test, 2 - project\n    Field('time', 'integer'),\n    Field('location', 'string'),\n    Field('project_due_date', 'integer', default = 0),\n    )\n\n# Define project member\ndb.define_table('project_member',\n    Field('class_subject', db.class_subject),\n    Field('user', 'integer'),\n    Field('note', 'text')\n    )\n\n# Define job table\ndb.define_table('job',\n    Field('name', 'string', length = 50, notnull = True),\n    Field('status', 'integer'),\n    Field('start_time', 'integer'),\n    Field('end_time', 'integer'),\n    Field('job_type', 'integer'), # 0 - subject job, 1 - personal job\n    Field('class_subject', db.class_subject, default = 0),\n    Field('date', 'integer'),\n    Field('repeat_date', 'string', default = '0'), # Ex: (1,2,3). If (repeat_date = 0) no repeat\n    Field('owner', 'integer'), # link with user table\n    Field('note', 'text'),\n    Field('location', 'string'),\n    Field('test', 'integer', default= 0)\n    )\n\n"
p7
sS'snapshot'
p8
(dp9
S'exception'
p10
(dp11
S'__module__'
p12
S"'sqlite3'"
p13
sS'__getslice__'
p14
S"<method-wrapper '__getslice__' of OperationalError object>"
p15
sS'__str__'
p16
S"<method-wrapper '__str__' of OperationalError object>"
p17
sS'__reduce__'
p18
S'<built-in method __reduce__ of OperationalError object>'
p19
sS'__dict__'
p20
S'{}'
p21
sS'__sizeof__'
p22
S'<built-in method __sizeof__ of OperationalError object>'
p23
sS'__weakref__'
p24
S'None'
p25
sS'__init__'
p26
S"<method-wrapper '__init__' of OperationalError object>"
p27
sS'__setattr__'
p28
S"<method-wrapper '__setattr__' of OperationalError object>"
p29
sS'__reduce_ex__'
p30
S'<built-in method __reduce_ex__ of OperationalError object>'
p31
sS'__new__'
p32
S'<built-in method __new__ of type object>'
p33
sS'__format__'
p34
S'<built-in method __format__ of OperationalError object>'
p35
sS'__class__'
p36
S"<class 'sqlite3.OperationalError'>"
p37
sS'__doc__'
p38
S'None'
p39
sS'__getitem__'
p40
S"<method-wrapper '__getitem__' of OperationalError object>"
p41
sS'__setstate__'
p42
S'<built-in method __setstate__ of OperationalError object>'
p43
sS'__getattribute__'
p44
S"<method-wrapper '__getattribute__' of OperationalError object>"
p45
sS'args'
p46
S"('table user already exists',)"
p47
sS'__subclasshook__'
p48
S'<built-in method __subclasshook__ of type object>'
p49
sS'__unicode__'
p50
S'<built-in method __unicode__ of OperationalError object>'
p51
sS'__delattr__'
p52
S"<method-wrapper '__delattr__' of OperationalError object>"
p53
sS'__repr__'
p54
S"<method-wrapper '__repr__' of OperationalError object>"
p55
sS'__hash__'
p56
S"<method-wrapper '__hash__' of OperationalError object>"
p57
ssS'evalue'
p58
S'table user already exists'
p59
sS'request'
p60
ccopy_reg
_reconstructor
p61
(cgluon.html
BEAUTIFY
p62
c__builtin__
object
p63
NtRp64
(dp65
S'attributes'
p66
(dp67
sS'components'
p68
(lp69
g61
(cgluon.html
TABLE
p70
g63
NtRp71
(dp72
g66
(dp73
S'level'
p74
I5
ssS'parent'
p75
Nsg68
(lp76
g61
(cgluon.html
TR
p77
g63
NtRp78
(dp79
g66
(dp80
sg75
g71
sg68
(lp81
g61
(cgluon.html
TD
p82
g63
NtRp83
(dp84
g66
(dp85
S'_style'
p86
S'font-weight:bold;vertical-align:top'
p87
ssg75
g78
sg68
(lp88
S'ajax'
p89
asbag61
(g82
g63
NtRp90
(dp91
g66
(dp92
S'_valign'
p93
S'top'
p94
ssg75
g78
sg68
(lp95
S':'
asbag61
(g82
g63
NtRp96
(dp97
g66
(dp98
sg75
g78
sg68
(lp99
g61
(g62
g63
NtRp100
(dp101
g66
(dp102
g74
I5
ssg75
g96
sg68
(lp103
S'False'
p104
asbasbasbag61
(g77
g63
NtRp105
(dp106
g66
(dp107
sg75
g71
sg68
(lp108
g61
(g82
g63
NtRp109
(dp110
g66
(dp111
g86
g87
ssg75
g105
sg68
(lp112
S'application'
p113
asbag61
(g82
g63
NtRp114
(dp115
g66
(dp116
g93
g94
ssg75
g105
sg68
(lp117
S':'
asbag61
(g82
g63
NtRp118
(dp119
g66
(dp120
sg75
g105
sg68
(lp121
g61
(g62
g63
NtRp122
(dp123
g66
(dp124
g74
I5
ssg75
g118
sg68
(lp125
S'igor'
p126
asbasbasbag61
(g77
g63
NtRp127
(dp128
g66
(dp129
sg75
g71
sg68
(lp130
g61
(g82
g63
NtRp131
(dp132
g66
(dp133
g86
g87
ssg75
g127
sg68
(lp134
g46
asbag61
(g82
g63
NtRp135
(dp136
g66
(dp137
g93
g94
ssg75
g127
sg68
(lp138
S':'
asbag61
(g82
g63
NtRp139
(dp140
g66
(dp141
sg75
g127
sg68
(lp142
g61
(g62
g63
NtRp143
(dp144
g66
(dp145
g74
I5
ssg75
g139
sg68
(lp146
g61
(g70
g63
NtRp147
(dp148
g66
(dp149
g74
I4
ssg75
Nsg68
(lp150
g61
(g77
g63
NtRp151
(dp152
g66
(dp153
sg75
g147
sg68
(lp154
g61
(g82
g63
NtRp155
(dp156
g66
(dp157
sg75
g151
sg68
(lp158
g61
(g62
g63
NtRp159
(dp160
g66
(dp161
g74
I4
ssg75
g155
sg68
(lp162
S'8'
asbasbasbasbasbasbasbag61
(g77
g63
NtRp163
(dp164
g66
(dp165
sg75
g71
sg68
(lp166
g61
(g82
g63
NtRp167
(dp168
g66
(dp169
g86
g87
ssg75
g163
sg68
(lp170
S'body'
p171
asbag61
(g82
g63
NtRp172
(dp173
g66
(dp174
g93
g94
ssg75
g163
sg68
(lp175
S':'
asbag61
(g82
g63
NtRp176
(dp177
g66
(dp178
sg75
g163
sg68
(lp179
g61
(g62
g63
NtRp180
(dp181
g66
(dp182
g74
I5
ssg75
g176
sg68
(lp183
S'<cStringIO.StringO object at 0x0000000003BD6928>'
p184
asbasbasbag61
(g77
g63
NtRp185
(dp186
g66
(dp187
sg75
g71
sg68
(lp188
g61
(g82
g63
NtRp189
(dp190
g66
(dp191
g86
g87
ssg75
g185
sg68
(lp192
S'client'
p193
asbag61
(g82
g63
NtRp194
(dp195
g66
(dp196
g93
g94
ssg75
g185
sg68
(lp197
S':'
asbag61
(g82
g63
NtRp198
(dp199
g66
(dp200
sg75
g185
sg68
(lp201
g61
(g62
g63
NtRp202
(dp203
g66
(dp204
g74
I5
ssg75
g198
sg68
(lp205
S'127.0.0.1'
p206
asbasbasbag61
(g77
g63
NtRp207
(dp208
g66
(dp209
sg75
g71
sg68
(lp210
g61
(g82
g63
NtRp211
(dp212
g66
(dp213
g86
g87
ssg75
g207
sg68
(lp214
S'controller'
p215
asbag61
(g82
g63
NtRp216
(dp217
g66
(dp218
g93
g94
ssg75
g207
sg68
(lp219
S':'
asbag61
(g82
g63
NtRp220
(dp221
g66
(dp222
sg75
g207
sg68
(lp223
g61
(g62
g63
NtRp224
(dp225
g66
(dp226
g74
I5
ssg75
g220
sg68
(lp227
S'class_subject'
p228
asbasbasbag61
(g77
g63
NtRp229
(dp230
g66
(dp231
sg75
g71
sg68
(lp232
g61
(g82
g63
NtRp233
(dp234
g66
(dp235
g86
g87
ssg75
g229
sg68
(lp236
S'cookies'
p237
asbag61
(g82
g63
NtRp238
(dp239
g66
(dp240
g93
g94
ssg75
g229
sg68
(lp241
S':'
asbag61
(g82
g63
NtRp242
(dp243
g66
(dp244
sg75
g229
sg68
(lp245
g61
(g62
g63
NtRp246
(dp247
g66
(dp248
g74
I5
ssg75
g242
sg68
(lp249
g61
(g70
g63
NtRp250
(dp251
g66
(dp252
g74
I4
ssg75
Nsg68
(lp253
g61
(g77
g63
NtRp254
(dp255
g66
(dp256
sg75
g250
sg68
(lp257
g61
(g82
g63
NtRp258
(dp259
g66
(dp260
g86
g87
ssg75
g254
sg68
(lp261
S'session_id_welcome'
p262
asbag61
(g82
g63
NtRp263
(dp264
g66
(dp265
g93
g94
ssg75
g254
sg68
(lp266
S':'
asbag61
(g82
g63
NtRp267
(dp268
g66
(dp269
sg75
g254
sg68
(lp270
g61
(g62
g63
NtRp271
(dp272
g66
(dp273
g74
I4
ssg75
g267
sg68
(lp274
g61
(g70
g63
NtRp275
(dp276
g66
(dp277
g74
I3
ssg75
Nsg68
(lp278
g61
(g77
g63
NtRp279
(dp280
g66
(dp281
sg75
g275
sg68
(lp282
g61
(g82
g63
NtRp283
(dp284
g66
(dp285
g86
g87
ssg75
g279
sg68
(lp286
S'comment'
p287
asbag61
(g82
g63
NtRp288
(dp289
g66
(dp290
g93
g94
ssg75
g279
sg68
(lp291
S':'
asbag61
(g82
g63
NtRp292
(dp293
g66
(dp294
sg75
g279
sg68
(lp295
g61
(g62
g63
NtRp296
(dp297
g66
(dp298
g74
I3
ssg75
g292
sg68
(lp299
S''
asbasbasbag61
(g77
g63
NtRp300
(dp301
g66
(dp302
sg75
g275
sg68
(lp303
g61
(g82
g63
NtRp304
(dp305
g66
(dp306
g86
g87
ssg75
g300
sg68
(lp307
S'domain'
p308
asbag61
(g82
g63
NtRp309
(dp310
g66
(dp311
g93
g94
ssg75
g300
sg68
(lp312
S':'
asbag61
(g82
g63
NtRp313
(dp314
g66
(dp315
sg75
g300
sg68
(lp316
g61
(g62
g63
NtRp317
(dp318
g66
(dp319
g74
I3
ssg75
g313
sg68
(lp320
S''
asbasbasbag61
(g77
g63
NtRp321
(dp322
g66
(dp323
sg75
g275
sg68
(lp324
g61
(g82
g63
NtRp325
(dp326
g66
(dp327
g86
g87
ssg75
g321
sg68
(lp328
S'expires'
p329
asbag61
(g82
g63
NtRp330
(dp331
g66
(dp332
g93
g94
ssg75
g321
sg68
(lp333
S':'
asbag61
(g82
g63
NtRp334
(dp335
g66
(dp336
sg75
g321
sg68
(lp337
g61
(g62
g63
NtRp338
(dp339
g66
(dp340
g74
I3
ssg75
g334
sg68
(lp341
S''
asbasbasbag61
(g77
g63
NtRp342
(dp343
g66
(dp344
sg75
g275
sg68
(lp345
g61
(g82
g63
NtRp346
(dp347
g66
(dp348
g86
g87
ssg75
g342
sg68
(lp349
S'httponly'
p350
asbag61
(g82
g63
NtRp351
(dp352
g66
(dp353
g93
g94
ssg75
g342
sg68
(lp354
S':'
asbag61
(g82
g63
NtRp355
(dp356
g66
(dp357
sg75
g342
sg68
(lp358
g61
(g62
g63
NtRp359
(dp360
g66
(dp361
g74
I3
ssg75
g355
sg68
(lp362
S''
asbasbasbag61
(g77
g63
NtRp363
(dp364
g66
(dp365
sg75
g275
sg68
(lp366
g61
(g82
g63
NtRp367
(dp368
g66
(dp369
g86
g87
ssg75
g363
sg68
(lp370
S'max-age'
p371
asbag61
(g82
g63
NtRp372
(dp373
g66
(dp374
g93
g94
ssg75
g363
sg68
(lp375
S':'
asbag61
(g82
g63
NtRp376
(dp377
g66
(dp378
sg75
g363
sg68
(lp379
g61
(g62
g63
NtRp380
(dp381
g66
(dp382
g74
I3
ssg75
g376
sg68
(lp383
S''
asbasbasbag61
(g77
g63
NtRp384
(dp385
g66
(dp386
sg75
g275
sg68
(lp387
g61
(g82
g63
NtRp388
(dp389
g66
(dp390
g86
g87
ssg75
g384
sg68
(lp391
S'path'
p392
asbag61
(g82
g63
NtRp393
(dp394
g66
(dp395
g93
g94
ssg75
g384
sg68
(lp396
S':'
asbag61
(g82
g63
NtRp397
(dp398
g66
(dp399
sg75
g384
sg68
(lp400
g61
(g62
g63
NtRp401
(dp402
g66
(dp403
g74
I3
ssg75
g397
sg68
(lp404
S''
asbasbasbag61
(g77
g63
NtRp405
(dp406
g66
(dp407
sg75
g275
sg68
(lp408
g61
(g82
g63
NtRp409
(dp410
g66
(dp411
g86
g87
ssg75
g405
sg68
(lp412
S'secure'
p413
asbag61
(g82
g63
NtRp414
(dp415
g66
(dp416
g93
g94
ssg75
g405
sg68
(lp417
S':'
asbag61
(g82
g63
NtRp418
(dp419
g66
(dp420
sg75
g405
sg68
(lp421
g61
(g62
g63
NtRp422
(dp423
g66
(dp424
g74
I3
ssg75
g418
sg68
(lp425
S''
asbasbasbag61
(g77
g63
NtRp426
(dp427
g66
(dp428
sg75
g275
sg68
(lp429
g61
(g82
g63
NtRp430
(dp431
g66
(dp432
g86
g87
ssg75
g426
sg68
(lp433
S'version'
p434
asbag61
(g82
g63
NtRp435
(dp436
g66
(dp437
g93
g94
ssg75
g426
sg68
(lp438
S':'
asbag61
(g82
g63
NtRp439
(dp440
g66
(dp441
sg75
g426
sg68
(lp442
g61
(g62
g63
NtRp443
(dp444
g66
(dp445
g74
I3
ssg75
g439
sg68
(lp446
S''
asbasbasbasbasbasbasbasbasbasbasbag61
(g77
g63
NtRp447
(dp448
g66
(dp449
sg75
g71
sg68
(lp450
g61
(g82
g63
NtRp451
(dp452
g66
(dp453
g86
g87
ssg75
g447
sg68
(lp454
S'env'
p455
asbag61
(g82
g63
NtRp456
(dp457
g66
(dp458
g93
g94
ssg75
g447
sg68
(lp459
S':'
asbag61
(g82
g63
NtRp460
(dp461
g66
(dp462
sg75
g447
sg68
(lp463
g61
(g62
g63
NtRp464
(dp465
g66
(dp466
g74
I5
ssg75
g460
sg68
(lp467
g61
(g70
g63
NtRp468
(dp469
g66
(dp470
g74
I4
ssg75
Nsg68
(lp471
g61
(g77
g63
NtRp472
(dp473
g66
(dp474
sg75
g468
sg68
(lp475
g61
(g82
g63
NtRp476
(dp477
g66
(dp478
g86
g87
ssg75
g472
sg68
(lp479
S'app_folders'
p480
asbag61
(g82
g63
NtRp481
(dp482
g66
(dp483
g93
g94
ssg75
g472
sg68
(lp484
S':'
asbag61
(g82
g63
NtRp485
(dp486
g66
(dp487
sg75
g472
sg68
(lp488
g61
(g62
g63
NtRp489
(dp490
g66
(dp491
g74
I4
ssg75
g485
sg68
(lp492
S"set(['D:\\\\workspace\\\\CA\\\\IgoR\\\\C_Sources\\\\Server\\\\igor-assistant-ca-2012\\\\applications\\\\igor\\\\', 'D:\\\\workspace\\\\CA\\\\IgoR\\\\C_Sources\\\\Server\\\\igor-assistant-ca-2012\\\\applications\\\\welcome\\\\'])"
p493
asbasbasbag61
(g77
g63
NtRp494
(dp495
g66
(dp496
sg75
g468
sg68
(lp497
g61
(g82
g63
NtRp498
(dp499
g66
(dp500
g86
g87
ssg75
g494
sg68
(lp501
S'applications_parent'
p502
asbag61
(g82
g63
NtRp503
(dp504
g66
(dp505
g93
g94
ssg75
g494
sg68
(lp506
S':'
asbag61
(g82
g63
NtRp507
(dp508
g66
(dp509
sg75
g494
sg68
(lp510
g61
(g62
g63
NtRp511
(dp512
g66
(dp513
g74
I4
ssg75
g507
sg68
(lp514
S'D:\\workspace\\CA\\IgoR\\C_Sources\\Server\\igor-assistant-ca-2012'
p515
asbasbasbag61
(g77
g63
NtRp516
(dp517
g66
(dp518
sg75
g468
sg68
(lp519
g61
(g82
g63
NtRp520
(dp521
g66
(dp522
g86
g87
ssg75
g516
sg68
(lp523
S'cmd_args'
p524
asbag61
(g82
g63
NtRp525
(dp526
g66
(dp527
g93
g94
ssg75
g516
sg68
(lp528
S':'
asbag61
(g82
g63
NtRp529
(dp530
g66
(dp531
sg75
g516
sg68
(lp532
g61
(g62
g63
NtRp533
(dp534
g66
(dp535
g74
I4
ssg75
g529
sg68
(lp536
g61
(g70
g63
NtRp537
(dp538
g66
(dp539
g74
I3
ssg75
Nsg68
(lp540
g61
(g77
g63
NtRp541
(dp542
g66
(dp543
sg75
g537
sg68
(lp544
g61
(g82
g63
NtRp545
(dp546
g66
(dp547
sg75
g541
sg68
(lp548
g61
(g62
g63
NtRp549
(dp550
g66
(dp551
g74
I3
ssg75
g545
sg68
(lp552
S'startserver'
p553
asbasbasbasbasbasbasbag61
(g77
g63
NtRp554
(dp555
g66
(dp556
sg75
g468
sg68
(lp557
g61
(g82
g63
NtRp558
(dp559
g66
(dp560
g86
g87
ssg75
g554
sg68
(lp561
S'cmd_options'
p562
asbag61
(g82
g63
NtRp563
(dp564
g66
(dp565
g93
g94
ssg75
g554
sg68
(lp566
S':'
asbag61
(g82
g63
NtRp567
(dp568
g66
(dp569
sg75
g554
sg68
(lp570
g61
(g62
g63
NtRp571
(dp572
g66
(dp573
g74
I4
ssg75
g567
sg68
(lp574
S"<Values at 0x373e348: {'verbose': False, 'ip': '127.0.0.1', 'shutdown_timeout': 5, 'taskbar': False, 'nocron': False, 'pid_filename': 'httpserver.pid', 'maxthreads': None, 'softcron': False, 'server_name': 'PHUCNH-PC', 'bpython': False, 'nogui': False, 'port': 8000, 'extcron': False, 'debuglevel': 30, 'test': None, 'folder': 'D:\\\\workspace\\\\CA\\\\IgoR\\\\C_Sources\\\\Server\\\\igor-assistant-ca-2012', 'config': '', 'import_models': False, 'winservice': '', 'shell': None, 'run': '', 'log_filename': 'httpserver.log', 'args': [''], 'socket_timeout': 5, 'ssl_ca_certificate': None, 'scheduler': None, 'profiler_filename': None, 'ssl_private_key': '', 'password': '<ask>', 'request_queue_size': 5, 'ssl_certificate': '', 'cronjob': False, 'numthreads': None, 'quiet': False, 'interfaces': None, 'minthreads': None, 'timeout': 10, 'plain': False, 'nobanner': False}>"
p575
asbasbasbag61
(g77
g63
NtRp576
(dp577
g66
(dp578
sg75
g468
sg68
(lp579
g61
(g82
g63
NtRp580
(dp581
g66
(dp582
g86
g87
ssg75
g576
sg68
(lp583
S'db_sessions'
p584
asbag61
(g82
g63
NtRp585
(dp586
g66
(dp587
g93
g94
ssg75
g576
sg68
(lp588
S':'
asbag61
(g82
g63
NtRp589
(dp590
g66
(dp591
sg75
g576
sg68
(lp592
g61
(g62
g63
NtRp593
(dp594
g66
(dp595
g74
I4
ssg75
g589
sg68
(lp596
S'set([])'
p597
asbasbasbag61
(g77
g63
NtRp598
(dp599
g66
(dp600
sg75
g468
sg68
(lp601
g61
(g82
g63
NtRp602
(dp603
g66
(dp604
g86
g87
ssg75
g598
sg68
(lp605
S'debugging'
p606
asbag61
(g82
g63
NtRp607
(dp608
g66
(dp609
g93
g94
ssg75
g598
sg68
(lp610
S':'
asbag61
(g82
g63
NtRp611
(dp612
g66
(dp613
sg75
g598
sg68
(lp614
g61
(g62
g63
NtRp615
(dp616
g66
(dp617
g74
I4
ssg75
g611
sg68
(lp618
g104
asbasbasbag61
(g77
g63
NtRp619
(dp620
g66
(dp621
sg75
g468
sg68
(lp622
g61
(g82
g63
NtRp623
(dp624
g66
(dp625
g86
g87
ssg75
g619
sg68
(lp626
S'gluon_parent'
p627
asbag61
(g82
g63
NtRp628
(dp629
g66
(dp630
g93
g94
ssg75
g619
sg68
(lp631
S':'
asbag61
(g82
g63
NtRp632
(dp633
g66
(dp634
sg75
g619
sg68
(lp635
g61
(g62
g63
NtRp636
(dp637
g66
(dp638
g74
I4
ssg75
g632
sg68
(lp639
S'D:\\workspace\\CA\\IgoR\\C_Sources\\Server\\igor-assistant-ca-2012'
p640
asbasbasbag61
(g77
g63
NtRp641
(dp642
g66
(dp643
sg75
g468
sg68
(lp644
g61
(g82
g63
NtRp645
(dp646
g66
(dp647
g86
g87
ssg75
g641
sg68
(lp648
S'http_accept'
p649
asbag61
(g82
g63
NtRp650
(dp651
g66
(dp652
g93
g94
ssg75
g641
sg68
(lp653
S':'
asbag61
(g82
g63
NtRp654
(dp655
g66
(dp656
sg75
g641
sg68
(lp657
g61
(g62
g63
NtRp658
(dp659
g66
(dp660
g74
I4
ssg75
g654
sg68
(lp661
S'text/html,application/xhtml+xml,application/xml;q=0.9,*/*;q=0.8'
p662
asbasbasbag61
(g77
g63
NtRp663
(dp664
g66
(dp665
sg75
g468
sg68
(lp666
g61
(g82
g63
NtRp667
(dp668
g66
(dp669
g86
g87
ssg75
g663
sg68
(lp670
S'http_accept_charset'
p671
asbag61
(g82
g63
NtRp672
(dp673
g66
(dp674
g93
g94
ssg75
g663
sg68
(lp675
S':'
asbag61
(g82
g63
NtRp676
(dp677
g66
(dp678
sg75
g663
sg68
(lp679
g61
(g62
g63
NtRp680
(dp681
g66
(dp682
g74
I4
ssg75
g676
sg68
(lp683
S'UTF-8,*;q=0.5'
p684
asbasbasbag61
(g77
g63
NtRp685
(dp686
g66
(dp687
sg75
g468
sg68
(lp688
g61
(g82
g63
NtRp689
(dp690
g66
(dp691
g86
g87
ssg75
g685
sg68
(lp692
S'http_accept_encoding'
p693
asbag61
(g82
g63
NtRp694
(dp695
g66
(dp696
g93
g94
ssg75
g685
sg68
(lp697
S':'
asbag61
(g82
g63
NtRp698
(dp699
g66
(dp700
sg75
g685
sg68
(lp701
g61
(g62
g63
NtRp702
(dp703
g66
(dp704
g74
I4
ssg75
g698
sg68
(lp705
S'gzip,deflate,sdch'
p706
asbasbasbag61
(g77
g63
NtRp707
(dp708
g66
(dp709
sg75
g468
sg68
(lp710
g61
(g82
g63
NtRp711
(dp712
g66
(dp713
g86
g87
ssg75
g707
sg68
(lp714
S'http_accept_language'
p715
asbag61
(g82
g63
NtRp716
(dp717
g66
(dp718
g93
g94
ssg75
g707
sg68
(lp719
S':'
asbag61
(g82
g63
NtRp720
(dp721
g66
(dp722
sg75
g707
sg68
(lp723
g61
(g62
g63
NtRp724
(dp725
g66
(dp726
g74
I4
ssg75
g720
sg68
(lp727
S'en-US,en;q=0.8,vi;q=0.6,fr-FR;q=0.4,fr;q=0.2'
p728
asbasbasbag61
(g77
g63
NtRp729
(dp730
g66
(dp731
sg75
g468
sg68
(lp732
g61
(g82
g63
NtRp733
(dp734
g66
(dp735
g86
g87
ssg75
g729
sg68
(lp736
S'http_connection'
p737
asbag61
(g82
g63
NtRp738
(dp739
g66
(dp740
g93
g94
ssg75
g729
sg68
(lp741
S':'
asbag61
(g82
g63
NtRp742
(dp743
g66
(dp744
sg75
g729
sg68
(lp745
g61
(g62
g63
NtRp746
(dp747
g66
(dp748
g74
I4
ssg75
g742
sg68
(lp749
S'keep-alive'
p750
asbasbasbag61
(g77
g63
NtRp751
(dp752
g66
(dp753
sg75
g468
sg68
(lp754
g61
(g82
g63
NtRp755
(dp756
g66
(dp757
g86
g87
ssg75
g751
sg68
(lp758
S'http_cookie'
p759
asbag61
(g82
g63
NtRp760
(dp761
g66
(dp762
g93
g94
ssg75
g751
sg68
(lp763
S':'
asbag61
(g82
g63
NtRp764
(dp765
g66
(dp766
sg75
g751
sg68
(lp767
g61
(g62
g63
NtRp768
(dp769
g66
(dp770
g74
I4
ssg75
g764
sg68
(lp771
S'session_id_welcome=127.0.0.1-2915a9a4-897c-4f4d-bd9f-0654f620dff9'
p772
asbasbasbag61
(g77
g63
NtRp773
(dp774
g66
(dp775
sg75
g468
sg68
(lp776
g61
(g82
g63
NtRp777
(dp778
g66
(dp779
g86
g87
ssg75
g773
sg68
(lp780
S'http_host'
p781
asbag61
(g82
g63
NtRp782
(dp783
g66
(dp784
g93
g94
ssg75
g773
sg68
(lp785
S':'
asbag61
(g82
g63
NtRp786
(dp787
g66
(dp788
sg75
g773
sg68
(lp789
g61
(g62
g63
NtRp790
(dp791
g66
(dp792
g74
I4
ssg75
g786
sg68
(lp793
S'127.0.0.1:8000'
p794
asbasbasbag61
(g77
g63
NtRp795
(dp796
g66
(dp797
sg75
g468
sg68
(lp798
g61
(g82
g63
NtRp799
(dp800
g66
(dp801
g86
g87
ssg75
g795
sg68
(lp802
S'http_user_agent'
p803
asbag61
(g82
g63
NtRp804
(dp805
g66
(dp806
g93
g94
ssg75
g795
sg68
(lp807
S':'
asbag61
(g82
g63
NtRp808
(dp809
g66
(dp810
sg75
g795
sg68
(lp811
g61
(g62
g63
NtRp812
(dp813
g66
(dp814
g74
I4
ssg75
g808
sg68
(lp815
S'Mozilla/5.0 (Windows NT 6.1; WOW64) AppleWebKit/536.11 (KHTML, like Gecko) Chrome/20.0.1132.57 Safari/536.11'
p816
asbasbasbag61
(g77
g63
NtRp817
(dp818
g66
(dp819
sg75
g468
sg68
(lp820
g61
(g82
g63
NtRp821
(dp822
g66
(dp823
g86
g87
ssg75
g817
sg68
(lp824
S'is_jython'
p825
asbag61
(g82
g63
NtRp826
(dp827
g66
(dp828
g93
g94
ssg75
g817
sg68
(lp829
S':'
asbag61
(g82
g63
NtRp830
(dp831
g66
(dp832
sg75
g817
sg68
(lp833
g61
(g62
g63
NtRp834
(dp835
g66
(dp836
g74
I4
ssg75
g830
sg68
(lp837
g104
asbasbasbag61
(g77
g63
NtRp838
(dp839
g66
(dp840
sg75
g468
sg68
(lp841
g61
(g82
g63
NtRp842
(dp843
g66
(dp844
g86
g87
ssg75
g838
sg68
(lp845
S'is_pypy'
p846
asbag61
(g82
g63
NtRp847
(dp848
g66
(dp849
g93
g94
ssg75
g838
sg68
(lp850
S':'
asbag61
(g82
g63
NtRp851
(dp852
g66
(dp853
sg75
g838
sg68
(lp854
g61
(g62
g63
NtRp855
(dp856
g66
(dp857
g74
I4
ssg75
g851
sg68
(lp858
g104
asbasbasbag61
(g77
g63
NtRp859
(dp860
g66
(dp861
sg75
g468
sg68
(lp862
g61
(g82
g63
NtRp863
(dp864
g66
(dp865
g86
g87
ssg75
g859
sg68
(lp866
S'path_info'
p867
asbag61
(g82
g63
NtRp868
(dp869
g66
(dp870
g93
g94
ssg75
g859
sg68
(lp871
S':'
asbag61
(g82
g63
NtRp872
(dp873
g66
(dp874
sg75
g859
sg68
(lp875
g61
(g62
g63
NtRp876
(dp877
g66
(dp878
g74
I4
ssg75
g872
sg68
(lp879
S'/igor/class_subject/get_classes_by_subject/8'
p880
asbasbasbag61
(g77
g63
NtRp881
(dp882
g66
(dp883
sg75
g468
sg68
(lp884
g61
(g82
g63
NtRp885
(dp886
g66
(dp887
g86
g87
ssg75
g881
sg68
(lp888
S'query_string'
p889
asbag61
(g82
g63
NtRp890
(dp891
g66
(dp892
g93
g94
ssg75
g881
sg68
(lp893
S':'
asbag61
(g82
g63
NtRp894
(dp895
g66
(dp896
sg75
g881
sg68
(lp897
g61
(g62
g63
NtRp898
(dp899
g66
(dp900
g74
I4
ssg75
g894
sg68
(lp901
S''
asbasbasbag61
(g77
g63
NtRp902
(dp903
g66
(dp904
sg75
g468
sg68
(lp905
g61
(g82
g63
NtRp906
(dp907
g66
(dp908
g86
g87
ssg75
g902
sg68
(lp909
S'remote_addr'
p910
asbag61
(g82
g63
NtRp911
(dp912
g66
(dp913
g93
g94
ssg75
g902
sg68
(lp914
S':'
asbag61
(g82
g63
NtRp915
(dp916
g66
(dp917
sg75
g902
sg68
(lp918
g61
(g62
g63
NtRp919
(dp920
g66
(dp921
g74
I4
ssg75
g915
sg68
(lp922
g206
asbasbasbag61
(g77
g63
NtRp923
(dp924
g66
(dp925
sg75
g468
sg68
(lp926
g61
(g82
g63
NtRp927
(dp928
g66
(dp929
g86
g87
ssg75
g923
sg68
(lp930
S'remote_port'
p931
asbag61
(g82
g63
NtRp932
(dp933
g66
(dp934
g93
g94
ssg75
g923
sg68
(lp935
S':'
asbag61
(g82
g63
NtRp936
(dp937
g66
(dp938
sg75
g923
sg68
(lp939
g61
(g62
g63
NtRp940
(dp941
g66
(dp942
g74
I4
ssg75
g936
sg68
(lp943
S'13063'
p944
asbasbasbag61
(g77
g63
NtRp945
(dp946
g66
(dp947
sg75
g468
sg68
(lp948
g61
(g82
g63
NtRp949
(dp950
g66
(dp951
g86
g87
ssg75
g945
sg68
(lp952
S'request_method'
p953
asbag61
(g82
g63
NtRp954
(dp955
g66
(dp956
g93
g94
ssg75
g945
sg68
(lp957
S':'
asbag61
(g82
g63
NtRp958
(dp959
g66
(dp960
sg75
g945
sg68
(lp961
g61
(g62
g63
NtRp962
(dp963
g66
(dp964
g74
I4
ssg75
g958
sg68
(lp965
S'GET'
p966
asbasbasbag61
(g77
g63
NtRp967
(dp968
g66
(dp969
sg75
g468
sg68
(lp970
g61
(g82
g63
NtRp971
(dp972
g66
(dp973
g86
g87
ssg75
g967
sg68
(lp974
S'script_name'
p975
asbag61
(g82
g63
NtRp976
(dp977
g66
(dp978
g93
g94
ssg75
g967
sg68
(lp979
S':'
asbag61
(g82
g63
NtRp980
(dp981
g66
(dp982
sg75
g967
sg68
(lp983
g61
(g62
g63
NtRp984
(dp985
g66
(dp986
g74
I4
ssg75
g980
sg68
(lp987
S''
asbasbasbag61
(g77
g63
NtRp988
(dp989
g66
(dp990
sg75
g468
sg68
(lp991
g61
(g82
g63
NtRp992
(dp993
g66
(dp994
g86
g87
ssg75
g988
sg68
(lp995
S'server_name'
p996
asbag61
(g82
g63
NtRp997
(dp998
g66
(dp999
g93
g94
ssg75
g988
sg68
(lp1000
S':'
asbag61
(g82
g63
NtRp1001
(dp1002
g66
(dp1003
sg75
g988
sg68
(lp1004
g61
(g62
g63
NtRp1005
(dp1006
g66
(dp1007
g74
I4
ssg75
g1001
sg68
(lp1008
S'PHUCNH-PC'
p1009
asbasbasbag61
(g77
g63
NtRp1010
(dp1011
g66
(dp1012
sg75
g468
sg68
(lp1013
g61
(g82
g63
NtRp1014
(dp1015
g66
(dp1016
g86
g87
ssg75
g1010
sg68
(lp1017
S'server_port'
p1018
asbag61
(g82
g63
NtRp1019
(dp1020
g66
(dp1021
g93
g94
ssg75
g1010
sg68
(lp1022
S':'
asbag61
(g82
g63
NtRp1023
(dp1024
g66
(dp1025
sg75
g1010
sg68
(lp1026
g61
(g62
g63
NtRp1027
(dp1028
g66
(dp1029
g74
I4
ssg75
g1023
sg68
(lp1030
S'8000'
p1031
asbasbasbag61
(g77
g63
NtRp1032
(dp1033
g66
(dp1034
sg75
g468
sg68
(lp1035
g61
(g82
g63
NtRp1036
(dp1037
g66
(dp1038
g86
g87
ssg75
g1032
sg68
(lp1039
S'server_protocol'
p1040
asbag61
(g82
g63
NtRp1041
(dp1042
g66
(dp1043
g93
g94
ssg75
g1032
sg68
(lp1044
S':'
asbag61
(g82
g63
NtRp1045
(dp1046
g66
(dp1047
sg75
g1032
sg68
(lp1048
g61
(g62
g63
NtRp1049
(dp1050
g66
(dp1051
g74
I4
ssg75
g1045
sg68
(lp1052
S'HTTP/1.1'
p1053
asbasbasbag61
(g77
g63
NtRp1054
(dp1055
g66
(dp1056
sg75
g468
sg68
(lp1057
g61
(g82
g63
NtRp1058
(dp1059
g66
(dp1060
g86
g87
ssg75
g1054
sg68
(lp1061
S'server_software'
p1062
asbag61
(g82
g63
NtRp1063
(dp1064
g66
(dp1065
g93
g94
ssg75
g1054
sg68
(lp1066
S':'
asbag61
(g82
g63
NtRp1067
(dp1068
g66
(dp1069
sg75
g1054
sg68
(lp1070
g61
(g62
g63
NtRp1071
(dp1072
g66
(dp1073
g74
I4
ssg75
g1067
sg68
(lp1074
S'Rocket 1.2.4'
p1075
asbasbasbag61
(g77
g63
NtRp1076
(dp1077
g66
(dp1078
sg75
g468
sg68
(lp1079
g61
(g82
g63
NtRp1080
(dp1081
g66
(dp1082
g86
g87
ssg75
g1076
sg68
(lp1083
S'web2py_crontype'
p1084
asbag61
(g82
g63
NtRp1085
(dp1086
g66
(dp1087
g93
g94
ssg75
g1076
sg68
(lp1088
S':'
asbag61
(g82
g63
NtRp1089
(dp1090
g66
(dp1091
sg75
g1076
sg68
(lp1092
g61
(g62
g63
NtRp1093
(dp1094
g66
(dp1095
g74
I4
ssg75
g1089
sg68
(lp1096
S'hard'
p1097
asbasbasbag61
(g77
g63
NtRp1098
(dp1099
g66
(dp1100
sg75
g468
sg68
(lp1101
g61
(g82
g63
NtRp1102
(dp1103
g66
(dp1104
g86
g87
ssg75
g1098
sg68
(lp1105
S'web2py_path'
p1106
asbag61
(g82
g63
NtRp1107
(dp1108
g66
(dp1109
g93
g94
ssg75
g1098
sg68
(lp1110
S':'
asbag61
(g82
g63
NtRp1111
(dp1112
g66
(dp1113
sg75
g1098
sg68
(lp1114
g61
(g62
g63
NtRp1115
(dp1116
g66
(dp1117
g74
I4
ssg75
g1111
sg68
(lp1118
g515
asbasbasbag61
(g77
g63
NtRp1119
(dp1120
g66
(dp1121
sg75
g468
sg68
(lp1122
g61
(g82
g63
NtRp1123
(dp1124
g66
(dp1125
g86
g87
ssg75
g1119
sg68
(lp1126
S'web2py_version'
p1127
asbag61
(g82
g63
NtRp1128
(dp1129
g66
(dp1130
g93
g94
ssg75
g1119
sg68
(lp1131
S':'
asbag61
(g82
g63
NtRp1132
(dp1133
g66
(dp1134
sg75
g1119
sg68
(lp1135
g61
(g62
g63
NtRp1136
(dp1137
g66
(dp1138
g74
I4
ssg75
g1132
sg68
(lp1139
g61
(g70
g63
NtRp1140
(dp1141
g66
(dp1142
g74
I3
ssg75
Nsg68
(lp1143
g61
(g77
g63
NtRp1144
(dp1145
g66
(dp1146
sg75
g1140
sg68
(lp1147
g61
(g82
g63
NtRp1148
(dp1149
g66
(dp1150
sg75
g1144
sg68
(lp1151
g61
(g62
g63
NtRp1152
(dp1153
g66
(dp1154
g74
I3
ssg75
g1148
sg68
(lp1155
S'1'
asbasbasbag61
(g77
g63
NtRp1156
(dp1157
g66
(dp1158
sg75
g1140
sg68
(lp1159
g61
(g82
g63
NtRp1160
(dp1161
g66
(dp1162
sg75
g1156
sg68
(lp1163
g61
(g62
g63
NtRp1164
(dp1165
g66
(dp1166
g74
I3
ssg75
g1160
sg68
(lp1167
S'99'
p1168
asbasbasbag61
(g77
g63
NtRp1169
(dp1170
g66
(dp1171
sg75
g1140
sg68
(lp1172
g61
(g82
g63
NtRp1173
(dp1174
g66
(dp1175
sg75
g1169
sg68
(lp1176
g61
(g62
g63
NtRp1177
(dp1178
g66
(dp1179
g74
I3
ssg75
g1173
sg68
(lp1180
S'7'
asbasbasbag61
(g77
g63
NtRp1181
(dp1182
g66
(dp1183
sg75
g1140
sg68
(lp1184
g61
(g82
g63
NtRp1185
(dp1186
g66
(dp1187
sg75
g1181
sg68
(lp1188
g61
(g62
g63
NtRp1189
(dp1190
g66
(dp1191
g74
I3
ssg75
g1185
sg68
(lp1192
S'datetime.datetime(2012, 3, 4, 22, 12, 8)'
p1193
asbasbasbag61
(g77
g63
NtRp1194
(dp1195
g66
(dp1196
sg75
g1140
sg68
(lp1197
g61
(g82
g63
NtRp1198
(dp1199
g66
(dp1200
sg75
g1194
sg68
(lp1201
g61
(g62
g63
NtRp1202
(dp1203
g66
(dp1204
g74
I3
ssg75
g1198
sg68
(lp1205
S'stable'
p1206
asbasbasbasbasbasbasbag61
(g77
g63
NtRp1207
(dp1208
g66
(dp1209
sg75
g468
sg68
(lp1210
g61
(g82
g63
NtRp1211
(dp1212
g66
(dp1213
g86
g87
ssg75
g1207
sg68
(lp1214
S'wsgi_errors'
p1215
asbag61
(g82
g63
NtRp1216
(dp1217
g66
(dp1218
g93
g94
ssg75
g1207
sg68
(lp1219
S':'
asbag61
(g82
g63
NtRp1220
(dp1221
g66
(dp1222
sg75
g1207
sg68
(lp1223
g61
(g62
g63
NtRp1224
(dp1225
g66
(dp1226
g74
I4
ssg75
g1220
sg68
(lp1227
S"<open file '<stderr>', mode 'w' at 0x0000000001C6E1E0>"
p1228
asbasbasbag61
(g77
g63
NtRp1229
(dp1230
g66
(dp1231
sg75
g468
sg68
(lp1232
g61
(g82
g63
NtRp1233
(dp1234
g66
(dp1235
g86
g87
ssg75
g1229
sg68
(lp1236
S'wsgi_file_wrapper'
p1237
asbag61
(g82
g63
NtRp1238
(dp1239
g66
(dp1240
g93
g94
ssg75
g1229
sg68
(lp1241
S':'
asbag61
(g82
g63
NtRp1242
(dp1243
g66
(dp1244
sg75
g1229
sg68
(lp1245
g61
(g62
g63
NtRp1246
(dp1247
g66
(dp1248
g74
I4
ssg75
g1242
sg68
(lp1249
S'<class wsgiref.util.FileWrapper at 0x0000000003598BE8>'
p1250
asbasbasbag61
(g77
g63
NtRp1251
(dp1252
g66
(dp1253
sg75
g468
sg68
(lp1254
g61
(g82
g63
NtRp1255
(dp1256
g66
(dp1257
g86
g87
ssg75
g1251
sg68
(lp1258
S'wsgi_input'
p1259
asbag61
(g82
g63
NtRp1260
(dp1261
g66
(dp1262
g93
g94
ssg75
g1251
sg68
(lp1263
S':'
asbag61
(g82
g63
NtRp1264
(dp1265
g66
(dp1266
sg75
g1251
sg68
(lp1267
g61
(g62
g63
NtRp1268
(dp1269
g66
(dp1270
g74
I4
ssg75
g1264
sg68
(lp1271
S'<socket._fileobject object at 0x0000000003C77480>'
p1272
asbasbasbag61
(g77
g63
NtRp1273
(dp1274
g66
(dp1275
sg75
g468
sg68
(lp1276
g61
(g82
g63
NtRp1277
(dp1278
g66
(dp1279
g86
g87
ssg75
g1273
sg68
(lp1280
S'wsgi_multiprocess'
p1281
asbag61
(g82
g63
NtRp1282
(dp1283
g66
(dp1284
g93
g94
ssg75
g1273
sg68
(lp1285
S':'
asbag61
(g82
g63
NtRp1286
(dp1287
g66
(dp1288
sg75
g1273
sg68
(lp1289
g61
(g62
g63
NtRp1290
(dp1291
g66
(dp1292
g74
I4
ssg75
g1286
sg68
(lp1293
g104
asbasbasbag61
(g77
g63
NtRp1294
(dp1295
g66
(dp1296
sg75
g468
sg68
(lp1297
g61
(g82
g63
NtRp1298
(dp1299
g66
(dp1300
g86
g87
ssg75
g1294
sg68
(lp1301
S'wsgi_multithread'
p1302
asbag61
(g82
g63
NtRp1303
(dp1304
g66
(dp1305
g93
g94
ssg75
g1294
sg68
(lp1306
S':'
asbag61
(g82
g63
NtRp1307
(dp1308
g66
(dp1309
sg75
g1294
sg68
(lp1310
g61
(g62
g63
NtRp1311
(dp1312
g66
(dp1313
g74
I4
ssg75
g1307
sg68
(lp1314
S'True'
p1315
asbasbasbag61
(g77
g63
NtRp1316
(dp1317
g66
(dp1318
sg75
g468
sg68
(lp1319
g61
(g82
g63
NtRp1320
(dp1321
g66
(dp1322
g86
g87
ssg75
g1316
sg68
(lp1323
S'wsgi_run_once'
p1324
asbag61
(g82
g63
NtRp1325
(dp1326
g66
(dp1327
g93
g94
ssg75
g1316
sg68
(lp1328
S':'
asbag61
(g82
g63
NtRp1329
(dp1330
g66
(dp1331
sg75
g1316
sg68
(lp1332
g61
(g62
g63
NtRp1333
(dp1334
g66
(dp1335
g74
I4
ssg75
g1329
sg68
(lp1336
g104
asbasbasbag61
(g77
g63
NtRp1337
(dp1338
g66
(dp1339
sg75
g468
sg68
(lp1340
g61
(g82
g63
NtRp1341
(dp1342
g66
(dp1343
g86
g87
ssg75
g1337
sg68
(lp1344
S'wsgi_url_scheme'
p1345
asbag61
(g82
g63
NtRp1346
(dp1347
g66
(dp1348
g93
g94
ssg75
g1337
sg68
(lp1349
S':'
asbag61
(g82
g63
NtRp1350
(dp1351
g66
(dp1352
sg75
g1337
sg68
(lp1353
g61
(g62
g63
NtRp1354
(dp1355
g66
(dp1356
g74
I4
ssg75
g1350
sg68
(lp1357
S'http'
p1358
asbasbasbag61
(g77
g63
NtRp1359
(dp1360
g66
(dp1361
sg75
g468
sg68
(lp1362
g61
(g82
g63
NtRp1363
(dp1364
g66
(dp1365
g86
g87
ssg75
g1359
sg68
(lp1366
S'wsgi_version'
p1367
asbag61
(g82
g63
NtRp1368
(dp1369
g66
(dp1370
g93
g94
ssg75
g1359
sg68
(lp1371
S':'
asbag61
(g82
g63
NtRp1372
(dp1373
g66
(dp1374
sg75
g1359
sg68
(lp1375
g61
(g62
g63
NtRp1376
(dp1377
g66
(dp1378
g74
I4
ssg75
g1372
sg68
(lp1379
g61
(g70
g63
NtRp1380
(dp1381
g66
(dp1382
g74
I3
ssg75
Nsg68
(lp1383
g61
(g77
g63
NtRp1384
(dp1385
g66
(dp1386
sg75
g1380
sg68
(lp1387
g61
(g82
g63
NtRp1388
(dp1389
g66
(dp1390
sg75
g1384
sg68
(lp1391
g61
(g62
g63
NtRp1392
(dp1393
g66
(dp1394
g74
I3
ssg75
g1388
sg68
(lp1395
S'1'
asbasbasbag61
(g77
g63
NtRp1396
(dp1397
g66
(dp1398
sg75
g1380
sg68
(lp1399
g61
(g82
g63
NtRp1400
(dp1401
g66
(dp1402
sg75
g1396
sg68
(lp1403
g61
(g62
g63
NtRp1404
(dp1405
g66
(dp1406
g74
I3
ssg75
g1400
sg68
(lp1407
S'0'
asbasbasbasbasbasbasbasbasbasbasbag61
(g77
g63
NtRp1408
(dp1409
g66
(dp1410
sg75
g71
sg68
(lp1411
g61
(g82
g63
NtRp1412
(dp1413
g66
(dp1414
g86
g87
ssg75
g1408
sg68
(lp1415
S'extension'
p1416
asbag61
(g82
g63
NtRp1417
(dp1418
g66
(dp1419
g93
g94
ssg75
g1408
sg68
(lp1420
S':'
asbag61
(g82
g63
NtRp1421
(dp1422
g66
(dp1423
sg75
g1408
sg68
(lp1424
g61
(g62
g63
NtRp1425
(dp1426
g66
(dp1427
g74
I5
ssg75
g1421
sg68
(lp1428
S'html'
p1429
asbasbasbag61
(g77
g63
NtRp1430
(dp1431
g66
(dp1432
sg75
g71
sg68
(lp1433
g61
(g82
g63
NtRp1434
(dp1435
g66
(dp1436
g86
g87
ssg75
g1430
sg68
(lp1437
S'folder'
p1438
asbag61
(g82
g63
NtRp1439
(dp1440
g66
(dp1441
g93
g94
ssg75
g1430
sg68
(lp1442
S':'
asbag61
(g82
g63
NtRp1443
(dp1444
g66
(dp1445
sg75
g1430
sg68
(lp1446
g61
(g62
g63
NtRp1447
(dp1448
g66
(dp1449
g74
I5
ssg75
g1443
sg68
(lp1450
S'D:\\workspace\\CA\\IgoR\\C_Sources\\Server\\igor-assistant-ca-2012\\applications\\igor\\'
p1451
asbasbasbag61
(g77
g63
NtRp1452
(dp1453
g66
(dp1454
sg75
g71
sg68
(lp1455
g61
(g82
g63
NtRp1456
(dp1457
g66
(dp1458
g86
g87
ssg75
g1452
sg68
(lp1459
S'function'
p1460
asbag61
(g82
g63
NtRp1461
(dp1462
g66
(dp1463
g93
g94
ssg75
g1452
sg68
(lp1464
S':'
asbag61
(g82
g63
NtRp1465
(dp1466
g66
(dp1467
sg75
g1452
sg68
(lp1468
g61
(g62
g63
NtRp1469
(dp1470
g66
(dp1471
g74
I5
ssg75
g1465
sg68
(lp1472
S'get_classes_by_subject'
p1473
asbasbasbag61
(g77
g63
NtRp1474
(dp1475
g66
(dp1476
sg75
g71
sg68
(lp1477
g61
(g82
g63
NtRp1478
(dp1479
g66
(dp1480
g86
g87
ssg75
g1474
sg68
(lp1481
S'get_vars'
p1482
asbag61
(g82
g63
NtRp1483
(dp1484
g66
(dp1485
g93
g94
ssg75
g1474
sg68
(lp1486
S':'
asbag61
(g82
g63
NtRp1487
(dp1488
g66
(dp1489
sg75
g1474
sg68
(lp1490
g61
(g62
g63
NtRp1491
(dp1492
g66
(dp1493
g74
I5
ssg75
g1487
sg68
(lp1494
g61
(g70
g63
NtRp1495
(dp1496
g66
(dp1497
g74
I4
ssg75
Nsg68
(lp1498
sbasbasbasbag61
(g77
g63
NtRp1499
(dp1500
g66
(dp1501
sg75
g71
sg68
(lp1502
g61
(g82
g63
NtRp1503
(dp1504
g66
(dp1505
g86
g87
ssg75
g1499
sg68
(lp1506
S'global_settings'
p1507
asbag61
(g82
g63
NtRp1508
(dp1509
g66
(dp1510
g93
g94
ssg75
g1499
sg68
(lp1511
S':'
asbag61
(g82
g63
NtRp1512
(dp1513
g66
(dp1514
sg75
g1499
sg68
(lp1515
g61
(g62
g63
NtRp1516
(dp1517
g66
(dp1518
g74
I5
ssg75
g1512
sg68
(lp1519
g61
(g70
g63
NtRp1520
(dp1521
g66
(dp1522
g74
I4
ssg75
Nsg68
(lp1523
g61
(g77
g63
NtRp1524
(dp1525
g66
(dp1526
sg75
g1520
sg68
(lp1527
g61
(g82
g63
NtRp1528
(dp1529
g66
(dp1530
g86
g87
ssg75
g1524
sg68
(lp1531
g480
asbag61
(g82
g63
NtRp1532
(dp1533
g66
(dp1534
g93
g94
ssg75
g1524
sg68
(lp1535
S':'
asbag61
(g82
g63
NtRp1536
(dp1537
g66
(dp1538
sg75
g1524
sg68
(lp1539
g61
(g62
g63
NtRp1540
(dp1541
g66
(dp1542
g74
I4
ssg75
g1536
sg68
(lp1543
S"set(['D:\\\\workspace\\\\CA\\\\IgoR\\\\C_Sources\\\\Server\\\\igor-assistant-ca-2012\\\\applications\\\\igor\\\\', 'D:\\\\workspace\\\\CA\\\\IgoR\\\\C_Sources\\\\Server\\\\igor-assistant-ca-2012\\\\applications\\\\welcome\\\\'])"
p1544
asbasbasbag61
(g77
g63
NtRp1545
(dp1546
g66
(dp1547
sg75
g1520
sg68
(lp1548
g61
(g82
g63
NtRp1549
(dp1550
g66
(dp1551
g86
g87
ssg75
g1545
sg68
(lp1552
g502
asbag61
(g82
g63
NtRp1553
(dp1554
g66
(dp1555
g93
g94
ssg75
g1545
sg68
(lp1556
S':'
asbag61
(g82
g63
NtRp1557
(dp1558
g66
(dp1559
sg75
g1545
sg68
(lp1560
g61
(g62
g63
NtRp1561
(dp1562
g66
(dp1563
g74
I4
ssg75
g1557
sg68
(lp1564
g515
asbasbasbag61
(g77
g63
NtRp1565
(dp1566
g66
(dp1567
sg75
g1520
sg68
(lp1568
g61
(g82
g63
NtRp1569
(dp1570
g66
(dp1571
g86
g87
ssg75
g1565
sg68
(lp1572
g524
asbag61
(g82
g63
NtRp1573
(dp1574
g66
(dp1575
g93
g94
ssg75
g1565
sg68
(lp1576
S':'
asbag61
(g82
g63
NtRp1577
(dp1578
g66
(dp1579
sg75
g1565
sg68
(lp1580
g61
(g62
g63
NtRp1581
(dp1582
g66
(dp1583
g74
I4
ssg75
g1577
sg68
(lp1584
g61
(g70
g63
NtRp1585
(dp1586
g66
(dp1587
g74
I3
ssg75
Nsg68
(lp1588
g61
(g77
g63
NtRp1589
(dp1590
g66
(dp1591
sg75
g1585
sg68
(lp1592
g61
(g82
g63
NtRp1593
(dp1594
g66
(dp1595
sg75
g1589
sg68
(lp1596
g61
(g62
g63
NtRp1597
(dp1598
g66
(dp1599
g74
I3
ssg75
g1593
sg68
(lp1600
g553
asbasbasbasbasbasbasbag61
(g77
g63
NtRp1601
(dp1602
g66
(dp1603
sg75
g1520
sg68
(lp1604
g61
(g82
g63
NtRp1605
(dp1606
g66
(dp1607
g86
g87
ssg75
g1601
sg68
(lp1608
g562
asbag61
(g82
g63
NtRp1609
(dp1610
g66
(dp1611
g93
g94
ssg75
g1601
sg68
(lp1612
S':'
asbag61
(g82
g63
NtRp1613
(dp1614
g66
(dp1615
sg75
g1601
sg68
(lp1616
g61
(g62
g63
NtRp1617
(dp1618
g66
(dp1619
g74
I4
ssg75
g1613
sg68
(lp1620
S"<Values at 0x373e348: {'verbose': False, 'ip': '127.0.0.1', 'shutdown_timeout': 5, 'taskbar': False, 'nocron': False, 'pid_filename': 'httpserver.pid', 'maxthreads': None, 'softcron': False, 'server_name': 'PHUCNH-PC', 'bpython': False, 'nogui': False, 'port': 8000, 'extcron': False, 'debuglevel': 30, 'test': None, 'folder': 'D:\\\\workspace\\\\CA\\\\IgoR\\\\C_Sources\\\\Server\\\\igor-assistant-ca-2012', 'config': '', 'import_models': False, 'winservice': '', 'shell': None, 'run': '', 'log_filename': 'httpserver.log', 'args': [''], 'socket_timeout': 5, 'ssl_ca_certificate': None, 'scheduler': None, 'profiler_filename': None, 'ssl_private_key': '', 'password': '<ask>', 'request_queue_size': 5, 'ssl_certificate': '', 'cronjob': False, 'numthreads': None, 'quiet': False, 'interfaces': None, 'minthreads': None, 'timeout': 10, 'plain': False, 'nobanner': False}>"
p1621
asbasbasbag61
(g77
g63
NtRp1622
(dp1623
g66
(dp1624
sg75
g1520
sg68
(lp1625
g61
(g82
g63
NtRp1626
(dp1627
g66
(dp1628
g86
g87
ssg75
g1622
sg68
(lp1629
g584
asbag61
(g82
g63
NtRp1630
(dp1631
g66
(dp1632
g93
g94
ssg75
g1622
sg68
(lp1633
S':'
asbag61
(g82
g63
NtRp1634
(dp1635
g66
(dp1636
sg75
g1622
sg68
(lp1637
g61
(g62
g63
NtRp1638
(dp1639
g66
(dp1640
g74
I4
ssg75
g1634
sg68
(lp1641
S'set([])'
p1642
asbasbasbag61
(g77
g63
NtRp1643
(dp1644
g66
(dp1645
sg75
g1520
sg68
(lp1646
g61
(g82
g63
NtRp1647
(dp1648
g66
(dp1649
g86
g87
ssg75
g1643
sg68
(lp1650
g606
asbag61
(g82
g63
NtRp1651
(dp1652
g66
(dp1653
g93
g94
ssg75
g1643
sg68
(lp1654
S':'
asbag61
(g82
g63
NtRp1655
(dp1656
g66
(dp1657
sg75
g1643
sg68
(lp1658
g61
(g62
g63
NtRp1659
(dp1660
g66
(dp1661
g74
I4
ssg75
g1655
sg68
(lp1662
g104
asbasbasbag61
(g77
g63
NtRp1663
(dp1664
g66
(dp1665
sg75
g1520
sg68
(lp1666
g61
(g82
g63
NtRp1667
(dp1668
g66
(dp1669
g86
g87
ssg75
g1663
sg68
(lp1670
g627
asbag61
(g82
g63
NtRp1671
(dp1672
g66
(dp1673
g93
g94
ssg75
g1663
sg68
(lp1674
S':'
asbag61
(g82
g63
NtRp1675
(dp1676
g66
(dp1677
sg75
g1663
sg68
(lp1678
g61
(g62
g63
NtRp1679
(dp1680
g66
(dp1681
g74
I4
ssg75
g1675
sg68
(lp1682
g640
asbasbasbag61
(g77
g63
NtRp1683
(dp1684
g66
(dp1685
sg75
g1520
sg68
(lp1686
g61
(g82
g63
NtRp1687
(dp1688
g66
(dp1689
g86
g87
ssg75
g1683
sg68
(lp1690
g825
asbag61
(g82
g63
NtRp1691
(dp1692
g66
(dp1693
g93
g94
ssg75
g1683
sg68
(lp1694
S':'
asbag61
(g82
g63
NtRp1695
(dp1696
g66
(dp1697
sg75
g1683
sg68
(lp1698
g61
(g62
g63
NtRp1699
(dp1700
g66
(dp1701
g74
I4
ssg75
g1695
sg68
(lp1702
g104
asbasbasbag61
(g77
g63
NtRp1703
(dp1704
g66
(dp1705
sg75
g1520
sg68
(lp1706
g61
(g82
g63
NtRp1707
(dp1708
g66
(dp1709
g86
g87
ssg75
g1703
sg68
(lp1710
g846
asbag61
(g82
g63
NtRp1711
(dp1712
g66
(dp1713
g93
g94
ssg75
g1703
sg68
(lp1714
S':'
asbag61
(g82
g63
NtRp1715
(dp1716
g66
(dp1717
sg75
g1703
sg68
(lp1718
g61
(g62
g63
NtRp1719
(dp1720
g66
(dp1721
g74
I4
ssg75
g1715
sg68
(lp1722
g104
asbasbasbag61
(g77
g63
NtRp1723
(dp1724
g66
(dp1725
sg75
g1520
sg68
(lp1726
g61
(g82
g63
NtRp1727
(dp1728
g66
(dp1729
g86
g87
ssg75
g1723
sg68
(lp1730
g1084
asbag61
(g82
g63
NtRp1731
(dp1732
g66
(dp1733
g93
g94
ssg75
g1723
sg68
(lp1734
S':'
asbag61
(g82
g63
NtRp1735
(dp1736
g66
(dp1737
sg75
g1723
sg68
(lp1738
g61
(g62
g63
NtRp1739
(dp1740
g66
(dp1741
g74
I4
ssg75
g1735
sg68
(lp1742
g1097
asbasbasbag61
(g77
g63
NtRp1743
(dp1744
g66
(dp1745
sg75
g1520
sg68
(lp1746
g61
(g82
g63
NtRp1747
(dp1748
g66
(dp1749
g86
g87
ssg75
g1743
sg68
(lp1750
g1127
asbag61
(g82
g63
NtRp1751
(dp1752
g66
(dp1753
g93
g94
ssg75
g1743
sg68
(lp1754
S':'
asbag61
(g82
g63
NtRp1755
(dp1756
g66
(dp1757
sg75
g1743
sg68
(lp1758
g61
(g62
g63
NtRp1759
(dp1760
g66
(dp1761
g74
I4
ssg75
g1755
sg68
(lp1762
g61
(g70
g63
NtRp1763
(dp1764
g66
(dp1765
g74
I3
ssg75
Nsg68
(lp1766
g61
(g77
g63
NtRp1767
(dp1768
g66
(dp1769
sg75
g1763
sg68
(lp1770
g61
(g82
g63
NtRp1771
(dp1772
g66
(dp1773
sg75
g1767
sg68
(lp1774
g61
(g62
g63
NtRp1775
(dp1776
g66
(dp1777
g74
I3
ssg75
g1771
sg68
(lp1778
S'1'
asbasbasbag61
(g77
g63
NtRp1779
(dp1780
g66
(dp1781
sg75
g1763
sg68
(lp1782
g61
(g82
g63
NtRp1783
(dp1784
g66
(dp1785
sg75
g1779
sg68
(lp1786
g61
(g62
g63
NtRp1787
(dp1788
g66
(dp1789
g74
I3
ssg75
g1783
sg68
(lp1790
S'99'
p1791
asbasbasbag61
(g77
g63
NtRp1792
(dp1793
g66
(dp1794
sg75
g1763
sg68
(lp1795
g61
(g82
g63
NtRp1796
(dp1797
g66
(dp1798
sg75
g1792
sg68
(lp1799
g61
(g62
g63
NtRp1800
(dp1801
g66
(dp1802
g74
I3
ssg75
g1796
sg68
(lp1803
S'7'
asbasbasbag61
(g77
g63
NtRp1804
(dp1805
g66
(dp1806
sg75
g1763
sg68
(lp1807
g61
(g82
g63
NtRp1808
(dp1809
g66
(dp1810
sg75
g1804
sg68
(lp1811
g61
(g62
g63
NtRp1812
(dp1813
g66
(dp1814
g74
I3
ssg75
g1808
sg68
(lp1815
S'datetime.datetime(2012, 3, 4, 22, 12, 8)'
p1816
asbasbasbag61
(g77
g63
NtRp1817
(dp1818
g66
(dp1819
sg75
g1763
sg68
(lp1820
g61
(g82
g63
NtRp1821
(dp1822
g66
(dp1823
sg75
g1817
sg68
(lp1824
g61
(g62
g63
NtRp1825
(dp1826
g66
(dp1827
g74
I3
ssg75
g1821
sg68
(lp1828
g1206
asbasbasbasbasbasbasbasbasbasbasbag61
(g77
g63
NtRp1829
(dp1830
g66
(dp1831
sg75
g71
sg68
(lp1832
g61
(g82
g63
NtRp1833
(dp1834
g66
(dp1835
g86
g87
ssg75
g1829
sg68
(lp1836
S'is_https'
p1837
asbag61
(g82
g63
NtRp1838
(dp1839
g66
(dp1840
g93
g94
ssg75
g1829
sg68
(lp1841
S':'
asbag61
(g82
g63
NtRp1842
(dp1843
g66
(dp1844
sg75
g1829
sg68
(lp1845
g61
(g62
g63
NtRp1846
(dp1847
g66
(dp1848
g74
I5
ssg75
g1842
sg68
(lp1849
g104
asbasbasbag61
(g77
g63
NtRp1850
(dp1851
g66
(dp1852
sg75
g71
sg68
(lp1853
g61
(g82
g63
NtRp1854
(dp1855
g66
(dp1856
g86
g87
ssg75
g1850
sg68
(lp1857
S'is_local'
p1858
asbag61
(g82
g63
NtRp1859
(dp1860
g66
(dp1861
g93
g94
ssg75
g1850
sg68
(lp1862
S':'
asbag61
(g82
g63
NtRp1863
(dp1864
g66
(dp1865
sg75
g1850
sg68
(lp1866
g61
(g62
g63
NtRp1867
(dp1868
g66
(dp1869
g74
I5
ssg75
g1863
sg68
(lp1870
g1315
asbasbasbag61
(g77
g63
NtRp1871
(dp1872
g66
(dp1873
sg75
g71
sg68
(lp1874
g61
(g82
g63
NtRp1875
(dp1876
g66
(dp1877
g86
g87
ssg75
g1871
sg68
(lp1878
S'is_restful'
p1879
asbag61
(g82
g63
NtRp1880
(dp1881
g66
(dp1882
g93
g94
ssg75
g1871
sg68
(lp1883
S':'
asbag61
(g82
g63
NtRp1884
(dp1885
g66
(dp1886
sg75
g1871
sg68
(lp1887
g61
(g62
g63
NtRp1888
(dp1889
g66
(dp1890
g74
I5
ssg75
g1884
sg68
(lp1891
g104
asbasbasbag61
(g77
g63
NtRp1892
(dp1893
g66
(dp1894
sg75
g71
sg68
(lp1895
g61
(g82
g63
NtRp1896
(dp1897
g66
(dp1898
g86
g87
ssg75
g1892
sg68
(lp1899
S'now'
p1900
asbag61
(g82
g63
NtRp1901
(dp1902
g66
(dp1903
g93
g94
ssg75
g1892
sg68
(lp1904
S':'
asbag61
(g82
g63
NtRp1905
(dp1906
g66
(dp1907
sg75
g1892
sg68
(lp1908
g61
(g62
g63
NtRp1909
(dp1910
g66
(dp1911
g74
I5
ssg75
g1905
sg68
(lp1912
S'datetime.datetime(2012, 7, 29, 22, 37, 42, 746000)'
p1913
asbasbasbag61
(g77
g63
NtRp1914
(dp1915
g66
(dp1916
sg75
g71
sg68
(lp1917
g61
(g82
g63
NtRp1918
(dp1919
g66
(dp1920
g86
g87
ssg75
g1914
sg68
(lp1921
S'post_vars'
p1922
asbag61
(g82
g63
NtRp1923
(dp1924
g66
(dp1925
g93
g94
ssg75
g1914
sg68
(lp1926
S':'
asbag61
(g82
g63
NtRp1927
(dp1928
g66
(dp1929
sg75
g1914
sg68
(lp1930
g61
(g62
g63
NtRp1931
(dp1932
g66
(dp1933
g74
I5
ssg75
g1927
sg68
(lp1934
g61
(g70
g63
NtRp1935
(dp1936
g66
(dp1937
g74
I4
ssg75
Nsg68
(lp1938
sbasbasbasbag61
(g77
g63
NtRp1939
(dp1940
g66
(dp1941
sg75
g71
sg68
(lp1942
g61
(g82
g63
NtRp1943
(dp1944
g66
(dp1945
g86
g87
ssg75
g1939
sg68
(lp1946
S'raw_args'
p1947
asbag61
(g82
g63
NtRp1948
(dp1949
g66
(dp1950
g93
g94
ssg75
g1939
sg68
(lp1951
S':'
asbag61
(g82
g63
NtRp1952
(dp1953
g66
(dp1954
sg75
g1939
sg68
(lp1955
g61
(g62
g63
NtRp1956
(dp1957
g66
(dp1958
g74
I5
ssg75
g1952
sg68
(lp1959
S'8'
asbasbasbag61
(g77
g63
NtRp1960
(dp1961
g66
(dp1962
sg75
g71
sg68
(lp1963
g61
(g82
g63
NtRp1964
(dp1965
g66
(dp1966
g86
g87
ssg75
g1960
sg68
(lp1967
S'url'
p1968
asbag61
(g82
g63
NtRp1969
(dp1970
g66
(dp1971
g93
g94
ssg75
g1960
sg68
(lp1972
S':'
asbag61
(g82
g63
NtRp1973
(dp1974
g66
(dp1975
sg75
g1960
sg68
(lp1976
g61
(g62
g63
NtRp1977
(dp1978
g66
(dp1979
g74
I5
ssg75
g1973
sg68
(lp1980
S'/igor/class_subject/get_classes_by_subject/8'
p1981
asbasbasbag61
(g77
g63
NtRp1982
(dp1983
g66
(dp1984
sg75
g71
sg68
(lp1985
g61
(g82
g63
NtRp1986
(dp1987
g66
(dp1988
g86
g87
ssg75
g1982
sg68
(lp1989
S'utcnow'
p1990
asbag61
(g82
g63
NtRp1991
(dp1992
g66
(dp1993
g93
g94
ssg75
g1982
sg68
(lp1994
S':'
asbag61
(g82
g63
NtRp1995
(dp1996
g66
(dp1997
sg75
g1982
sg68
(lp1998
g61
(g62
g63
NtRp1999
(dp2000
g66
(dp2001
g74
I5
ssg75
g1995
sg68
(lp2002
S'datetime.datetime(2012, 7, 29, 15, 37, 42, 746000)'
p2003
asbasbasbag61
(g77
g63
NtRp2004
(dp2005
g66
(dp2006
sg75
g71
sg68
(lp2007
g61
(g82
g63
NtRp2008
(dp2009
g66
(dp2010
g86
g87
ssg75
g2004
sg68
(lp2011
S'uuid'
p2012
asbag61
(g82
g63
NtRp2013
(dp2014
g66
(dp2015
g93
g94
ssg75
g2004
sg68
(lp2016
S':'
asbag61
(g82
g63
NtRp2017
(dp2018
g66
(dp2019
sg75
g2004
sg68
(lp2020
g61
(g62
g63
NtRp2021
(dp2022
g66
(dp2023
g74
I5
ssg75
g2017
sg68
(lp2024
S'igor/127.0.0.1.2012-07-29.22-37-42.8db37231-9b9c-4123-97c5-3a8ac95a8fb3'
p2025
asbasbasbag61
(g77
g63
NtRp2026
(dp2027
g66
(dp2028
sg75
g71
sg68
(lp2029
g61
(g82
g63
NtRp2030
(dp2031
g66
(dp2032
g86
g87
ssg75
g2026
sg68
(lp2033
S'vars'
p2034
asbag61
(g82
g63
NtRp2035
(dp2036
g66
(dp2037
g93
g94
ssg75
g2026
sg68
(lp2038
S':'
asbag61
(g82
g63
NtRp2039
(dp2040
g66
(dp2041
sg75
g2026
sg68
(lp2042
g61
(g62
g63
NtRp2043
(dp2044
g66
(dp2045
g74
I5
ssg75
g2039
sg68
(lp2046
g61
(g70
g63
NtRp2047
(dp2048
g66
(dp2049
g74
I4
ssg75
Nsg68
(lp2050
sbasbasbasbag61
(g77
g63
NtRp2051
(dp2052
g66
(dp2053
sg75
g71
sg68
(lp2054
g61
(g82
g63
NtRp2055
(dp2056
g66
(dp2057
g86
g87
ssg75
g2051
sg68
(lp2058
S'wsgi'
p2059
asbag61
(g82
g63
NtRp2060
(dp2061
g66
(dp2062
g93
g94
ssg75
g2051
sg68
(lp2063
S':'
asbag61
(g82
g63
NtRp2064
(dp2065
g66
(dp2066
sg75
g2051
sg68
(lp2067
g61
(g62
g63
NtRp2068
(dp2069
g66
(dp2070
g74
I5
ssg75
g2064
sg68
(lp2071
g61
(g70
g63
NtRp2072
(dp2073
g66
(dp2074
g74
I4
ssg75
Nsg68
(lp2075
g61
(g77
g63
NtRp2076
(dp2077
g66
(dp2078
sg75
g2072
sg68
(lp2079
g61
(g82
g63
NtRp2080
(dp2081
g66
(dp2082
g86
g87
ssg75
g2076
sg68
(lp2083
S'environ'
p2084
asbag61
(g82
g63
NtRp2085
(dp2086
g66
(dp2087
g93
g94
ssg75
g2076
sg68
(lp2088
S':'
asbag61
(g82
g63
NtRp2089
(dp2090
g66
(dp2091
sg75
g2076
sg68
(lp2092
g61
(g62
g63
NtRp2093
(dp2094
g66
(dp2095
g74
I4
ssg75
g2089
sg68
(lp2096
g61
(g70
g63
NtRp2097
(dp2098
g66
(dp2099
g74
I3
ssg75
Nsg68
(lp2100
g61
(g77
g63
NtRp2101
(dp2102
g66
(dp2103
sg75
g2097
sg68
(lp2104
g61
(g82
g63
NtRp2105
(dp2106
g66
(dp2107
g86
g87
ssg75
g2101
sg68
(lp2108
S'HTTP_ACCEPT'
p2109
asbag61
(g82
g63
NtRp2110
(dp2111
g66
(dp2112
g93
g94
ssg75
g2101
sg68
(lp2113
S':'
asbag61
(g82
g63
NtRp2114
(dp2115
g66
(dp2116
sg75
g2101
sg68
(lp2117
g61
(g62
g63
NtRp2118
(dp2119
g66
(dp2120
g74
I3
ssg75
g2114
sg68
(lp2121
g662
asbasbasbag61
(g77
g63
NtRp2122
(dp2123
g66
(dp2124
sg75
g2097
sg68
(lp2125
g61
(g82
g63
NtRp2126
(dp2127
g66
(dp2128
g86
g87
ssg75
g2122
sg68
(lp2129
S'HTTP_ACCEPT_CHARSET'
p2130
asbag61
(g82
g63
NtRp2131
(dp2132
g66
(dp2133
g93
g94
ssg75
g2122
sg68
(lp2134
S':'
asbag61
(g82
g63
NtRp2135
(dp2136
g66
(dp2137
sg75
g2122
sg68
(lp2138
g61
(g62
g63
NtRp2139
(dp2140
g66
(dp2141
g74
I3
ssg75
g2135
sg68
(lp2142
g684
asbasbasbag61
(g77
g63
NtRp2143
(dp2144
g66
(dp2145
sg75
g2097
sg68
(lp2146
g61
(g82
g63
NtRp2147
(dp2148
g66
(dp2149
g86
g87
ssg75
g2143
sg68
(lp2150
S'HTTP_ACCEPT_ENCODING'
p2151
asbag61
(g82
g63
NtRp2152
(dp2153
g66
(dp2154
g93
g94
ssg75
g2143
sg68
(lp2155
S':'
asbag61
(g82
g63
NtRp2156
(dp2157
g66
(dp2158
sg75
g2143
sg68
(lp2159
g61
(g62
g63
NtRp2160
(dp2161
g66
(dp2162
g74
I3
ssg75
g2156
sg68
(lp2163
g706
asbasbasbag61
(g77
g63
NtRp2164
(dp2165
g66
(dp2166
sg75
g2097
sg68
(lp2167
g61
(g82
g63
NtRp2168
(dp2169
g66
(dp2170
g86
g87
ssg75
g2164
sg68
(lp2171
S'HTTP_ACCEPT_LANGUAGE'
p2172
asbag61
(g82
g63
NtRp2173
(dp2174
g66
(dp2175
g93
g94
ssg75
g2164
sg68
(lp2176
S':'
asbag61
(g82
g63
NtRp2177
(dp2178
g66
(dp2179
sg75
g2164
sg68
(lp2180
g61
(g62
g63
NtRp2181
(dp2182
g66
(dp2183
g74
I3
ssg75
g2177
sg68
(lp2184
g728
asbasbasbag61
(g77
g63
NtRp2185
(dp2186
g66
(dp2187
sg75
g2097
sg68
(lp2188
g61
(g82
g63
NtRp2189
(dp2190
g66
(dp2191
g86
g87
ssg75
g2185
sg68
(lp2192
S'HTTP_CONNECTION'
p2193
asbag61
(g82
g63
NtRp2194
(dp2195
g66
(dp2196
g93
g94
ssg75
g2185
sg68
(lp2197
S':'
asbag61
(g82
g63
NtRp2198
(dp2199
g66
(dp2200
sg75
g2185
sg68
(lp2201
g61
(g62
g63
NtRp2202
(dp2203
g66
(dp2204
g74
I3
ssg75
g2198
sg68
(lp2205
g750
asbasbasbag61
(g77
g63
NtRp2206
(dp2207
g66
(dp2208
sg75
g2097
sg68
(lp2209
g61
(g82
g63
NtRp2210
(dp2211
g66
(dp2212
g86
g87
ssg75
g2206
sg68
(lp2213
S'HTTP_COOKIE'
p2214
asbag61
(g82
g63
NtRp2215
(dp2216
g66
(dp2217
g93
g94
ssg75
g2206
sg68
(lp2218
S':'
asbag61
(g82
g63
NtRp2219
(dp2220
g66
(dp2221
sg75
g2206
sg68
(lp2222
g61
(g62
g63
NtRp2223
(dp2224
g66
(dp2225
g74
I3
ssg75
g2219
sg68
(lp2226
g772
asbasbasbag61
(g77
g63
NtRp2227
(dp2228
g66
(dp2229
sg75
g2097
sg68
(lp2230
g61
(g82
g63
NtRp2231
(dp2232
g66
(dp2233
g86
g87
ssg75
g2227
sg68
(lp2234
S'HTTP_HOST'
p2235
asbag61
(g82
g63
NtRp2236
(dp2237
g66
(dp2238
g93
g94
ssg75
g2227
sg68
(lp2239
S':'
asbag61
(g82
g63
NtRp2240
(dp2241
g66
(dp2242
sg75
g2227
sg68
(lp2243
g61
(g62
g63
NtRp2244
(dp2245
g66
(dp2246
g74
I3
ssg75
g2240
sg68
(lp2247
g794
asbasbasbag61
(g77
g63
NtRp2248
(dp2249
g66
(dp2250
sg75
g2097
sg68
(lp2251
g61
(g82
g63
NtRp2252
(dp2253
g66
(dp2254
g86
g87
ssg75
g2248
sg68
(lp2255
S'HTTP_USER_AGENT'
p2256
asbag61
(g82
g63
NtRp2257
(dp2258
g66
(dp2259
g93
g94
ssg75
g2248
sg68
(lp2260
S':'
asbag61
(g82
g63
NtRp2261
(dp2262
g66
(dp2263
sg75
g2248
sg68
(lp2264
g61
(g62
g63
NtRp2265
(dp2266
g66
(dp2267
g74
I3
ssg75
g2261
sg68
(lp2268
g816
asbasbasbag61
(g77
g63
NtRp2269
(dp2270
g66
(dp2271
sg75
g2097
sg68
(lp2272
g61
(g82
g63
NtRp2273
(dp2274
g66
(dp2275
g86
g87
ssg75
g2269
sg68
(lp2276
S'PATH_INFO'
p2277
asbag61
(g82
g63
NtRp2278
(dp2279
g66
(dp2280
g93
g94
ssg75
g2269
sg68
(lp2281
S':'
asbag61
(g82
g63
NtRp2282
(dp2283
g66
(dp2284
sg75
g2269
sg68
(lp2285
g61
(g62
g63
NtRp2286
(dp2287
g66
(dp2288
g74
I3
ssg75
g2282
sg68
(lp2289
g880
asbasbasbag61
(g77
g63
NtRp2290
(dp2291
g66
(dp2292
sg75
g2097
sg68
(lp2293
g61
(g82
g63
NtRp2294
(dp2295
g66
(dp2296
g86
g87
ssg75
g2290
sg68
(lp2297
S'QUERY_STRING'
p2298
asbag61
(g82
g63
NtRp2299
(dp2300
g66
(dp2301
g93
g94
ssg75
g2290
sg68
(lp2302
S':'
asbag61
(g82
g63
NtRp2303
(dp2304
g66
(dp2305
sg75
g2290
sg68
(lp2306
g61
(g62
g63
NtRp2307
(dp2308
g66
(dp2309
g74
I3
ssg75
g2303
sg68
(lp2310
S''
asbasbasbag61
(g77
g63
NtRp2311
(dp2312
g66
(dp2313
sg75
g2097
sg68
(lp2314
g61
(g82
g63
NtRp2315
(dp2316
g66
(dp2317
g86
g87
ssg75
g2311
sg68
(lp2318
S'REMOTE_ADDR'
p2319
asbag61
(g82
g63
NtRp2320
(dp2321
g66
(dp2322
g93
g94
ssg75
g2311
sg68
(lp2323
S':'
asbag61
(g82
g63
NtRp2324
(dp2325
g66
(dp2326
sg75
g2311
sg68
(lp2327
g61
(g62
g63
NtRp2328
(dp2329
g66
(dp2330
g74
I3
ssg75
g2324
sg68
(lp2331
g206
asbasbasbag61
(g77
g63
NtRp2332
(dp2333
g66
(dp2334
sg75
g2097
sg68
(lp2335
g61
(g82
g63
NtRp2336
(dp2337
g66
(dp2338
g86
g87
ssg75
g2332
sg68
(lp2339
S'REMOTE_PORT'
p2340
asbag61
(g82
g63
NtRp2341
(dp2342
g66
(dp2343
g93
g94
ssg75
g2332
sg68
(lp2344
S':'
asbag61
(g82
g63
NtRp2345
(dp2346
g66
(dp2347
sg75
g2332
sg68
(lp2348
g61
(g62
g63
NtRp2349
(dp2350
g66
(dp2351
g74
I3
ssg75
g2345
sg68
(lp2352
g944
asbasbasbag61
(g77
g63
NtRp2353
(dp2354
g66
(dp2355
sg75
g2097
sg68
(lp2356
g61
(g82
g63
NtRp2357
(dp2358
g66
(dp2359
g86
g87
ssg75
g2353
sg68
(lp2360
S'REQUEST_METHOD'
p2361
asbag61
(g82
g63
NtRp2362
(dp2363
g66
(dp2364
g93
g94
ssg75
g2353
sg68
(lp2365
S':'
asbag61
(g82
g63
NtRp2366
(dp2367
g66
(dp2368
sg75
g2353
sg68
(lp2369
g61
(g62
g63
NtRp2370
(dp2371
g66
(dp2372
g74
I3
ssg75
g2366
sg68
(lp2373
g966
asbasbasbag61
(g77
g63
NtRp2374
(dp2375
g66
(dp2376
sg75
g2097
sg68
(lp2377
g61
(g82
g63
NtRp2378
(dp2379
g66
(dp2380
g86
g87
ssg75
g2374
sg68
(lp2381
S'SCRIPT_NAME'
p2382
asbag61
(g82
g63
NtRp2383
(dp2384
g66
(dp2385
g93
g94
ssg75
g2374
sg68
(lp2386
S':'
asbag61
(g82
g63
NtRp2387
(dp2388
g66
(dp2389
sg75
g2374
sg68
(lp2390
g61
(g62
g63
NtRp2391
(dp2392
g66
(dp2393
g74
I3
ssg75
g2387
sg68
(lp2394
S''
asbasbasbag61
(g77
g63
NtRp2395
(dp2396
g66
(dp2397
sg75
g2097
sg68
(lp2398
g61
(g82
g63
NtRp2399
(dp2400
g66
(dp2401
g86
g87
ssg75
g2395
sg68
(lp2402
S'SERVER_NAME'
p2403
asbag61
(g82
g63
NtRp2404
(dp2405
g66
(dp2406
g93
g94
ssg75
g2395
sg68
(lp2407
S':'
asbag61
(g82
g63
NtRp2408
(dp2409
g66
(dp2410
sg75
g2395
sg68
(lp2411
g61
(g62
g63
NtRp2412
(dp2413
g66
(dp2414
g74
I3
ssg75
g2408
sg68
(lp2415
g1009
asbasbasbag61
(g77
g63
NtRp2416
(dp2417
g66
(dp2418
sg75
g2097
sg68
(lp2419
g61
(g82
g63
NtRp2420
(dp2421
g66
(dp2422
g86
g87
ssg75
g2416
sg68
(lp2423
S'SERVER_PORT'
p2424
asbag61
(g82
g63
NtRp2425
(dp2426
g66
(dp2427
g93
g94
ssg75
g2416
sg68
(lp2428
S':'
asbag61
(g82
g63
NtRp2429
(dp2430
g66
(dp2431
sg75
g2416
sg68
(lp2432
g61
(g62
g63
NtRp2433
(dp2434
g66
(dp2435
g74
I3
ssg75
g2429
sg68
(lp2436
g1031
asbasbasbag61
(g77
g63
NtRp2437
(dp2438
g66
(dp2439
sg75
g2097
sg68
(lp2440
g61
(g82
g63
NtRp2441
(dp2442
g66
(dp2443
g86
g87
ssg75
g2437
sg68
(lp2444
S'SERVER_PROTOCOL'
p2445
asbag61
(g82
g63
NtRp2446
(dp2447
g66
(dp2448
g93
g94
ssg75
g2437
sg68
(lp2449
S':'
asbag61
(g82
g63
NtRp2450
(dp2451
g66
(dp2452
sg75
g2437
sg68
(lp2453
g61
(g62
g63
NtRp2454
(dp2455
g66
(dp2456
g74
I3
ssg75
g2450
sg68
(lp2457
g1053
asbasbasbag61
(g77
g63
NtRp2458
(dp2459
g66
(dp2460
sg75
g2097
sg68
(lp2461
g61
(g82
g63
NtRp2462
(dp2463
g66
(dp2464
g86
g87
ssg75
g2458
sg68
(lp2465
S'SERVER_SOFTWARE'
p2466
asbag61
(g82
g63
NtRp2467
(dp2468
g66
(dp2469
g93
g94
ssg75
g2458
sg68
(lp2470
S':'
asbag61
(g82
g63
NtRp2471
(dp2472
g66
(dp2473
sg75
g2458
sg68
(lp2474
g61
(g62
g63
NtRp2475
(dp2476
g66
(dp2477
g74
I3
ssg75
g2471
sg68
(lp2478
g1075
asbasbasbag61
(g77
g63
NtRp2479
(dp2480
g66
(dp2481
sg75
g2097
sg68
(lp2482
g61
(g82
g63
NtRp2483
(dp2484
g66
(dp2485
g86
g87
ssg75
g2479
sg68
(lp2486
S'wsgi.errors'
p2487
asbag61
(g82
g63
NtRp2488
(dp2489
g66
(dp2490
g93
g94
ssg75
g2479
sg68
(lp2491
S':'
asbag61
(g82
g63
NtRp2492
(dp2493
g66
(dp2494
sg75
g2479
sg68
(lp2495
g61
(g62
g63
NtRp2496
(dp2497
g66
(dp2498
g74
I3
ssg75
g2492
sg68
(lp2499
S"<open file '<stderr>', mode 'w' at 0x0000000001C6E1E0>"
p2500
asbasbasbag61
(g77
g63
NtRp2501
(dp2502
g66
(dp2503
sg75
g2097
sg68
(lp2504
g61
(g82
g63
NtRp2505
(dp2506
g66
(dp2507
g86
g87
ssg75
g2501
sg68
(lp2508
S'wsgi.file_wrapper'
p2509
asbag61
(g82
g63
NtRp2510
(dp2511
g66
(dp2512
g93
g94
ssg75
g2501
sg68
(lp2513
S':'
asbag61
(g82
g63
NtRp2514
(dp2515
g66
(dp2516
sg75
g2501
sg68
(lp2517
g61
(g62
g63
NtRp2518
(dp2519
g66
(dp2520
g74
I3
ssg75
g2514
sg68
(lp2521
S'<class wsgiref.util.FileWrapper at 0x0000000003598BE8>'
p2522
asbasbasbag61
(g77
g63
NtRp2523
(dp2524
g66
(dp2525
sg75
g2097
sg68
(lp2526
g61
(g82
g63
NtRp2527
(dp2528
g66
(dp2529
g86
g87
ssg75
g2523
sg68
(lp2530
S'wsgi.input'
p2531
asbag61
(g82
g63
NtRp2532
(dp2533
g66
(dp2534
g93
g94
ssg75
g2523
sg68
(lp2535
S':'
asbag61
(g82
g63
NtRp2536
(dp2537
g66
(dp2538
sg75
g2523
sg68
(lp2539
g61
(g62
g63
NtRp2540
(dp2541
g66
(dp2542
g74
I3
ssg75
g2536
sg68
(lp2543
S'<cStringIO.StringO object at 0x0000000003BD6928>'
p2544
asbasbasbag61
(g77
g63
NtRp2545
(dp2546
g66
(dp2547
sg75
g2097
sg68
(lp2548
g61
(g82
g63
NtRp2549
(dp2550
g66
(dp2551
g86
g87
ssg75
g2545
sg68
(lp2552
S'wsgi.multiprocess'
p2553
asbag61
(g82
g63
NtRp2554
(dp2555
g66
(dp2556
g93
g94
ssg75
g2545
sg68
(lp2557
S':'
asbag61
(g82
g63
NtRp2558
(dp2559
g66
(dp2560
sg75
g2545
sg68
(lp2561
g61
(g62
g63
NtRp2562
(dp2563
g66
(dp2564
g74
I3
ssg75
g2558
sg68
(lp2565
g104
asbasbasbag61
(g77
g63
NtRp2566
(dp2567
g66
(dp2568
sg75
g2097
sg68
(lp2569
g61
(g82
g63
NtRp2570
(dp2571
g66
(dp2572
g86
g87
ssg75
g2566
sg68
(lp2573
S'wsgi.multithread'
p2574
asbag61
(g82
g63
NtRp2575
(dp2576
g66
(dp2577
g93
g94
ssg75
g2566
sg68
(lp2578
S':'
asbag61
(g82
g63
NtRp2579
(dp2580
g66
(dp2581
sg75
g2566
sg68
(lp2582
g61
(g62
g63
NtRp2583
(dp2584
g66
(dp2585
g74
I3
ssg75
g2579
sg68
(lp2586
g1315
asbasbasbag61
(g77
g63
NtRp2587
(dp2588
g66
(dp2589
sg75
g2097
sg68
(lp2590
g61
(g82
g63
NtRp2591
(dp2592
g66
(dp2593
g86
g87
ssg75
g2587
sg68
(lp2594
S'wsgi.run_once'
p2595
asbag61
(g82
g63
NtRp2596
(dp2597
g66
(dp2598
g93
g94
ssg75
g2587
sg68
(lp2599
S':'
asbag61
(g82
g63
NtRp2600
(dp2601
g66
(dp2602
sg75
g2587
sg68
(lp2603
g61
(g62
g63
NtRp2604
(dp2605
g66
(dp2606
g74
I3
ssg75
g2600
sg68
(lp2607
g104
asbasbasbag61
(g77
g63
NtRp2608
(dp2609
g66
(dp2610
sg75
g2097
sg68
(lp2611
g61
(g82
g63
NtRp2612
(dp2613
g66
(dp2614
g86
g87
ssg75
g2608
sg68
(lp2615
S'wsgi.url_scheme'
p2616
asbag61
(g82
g63
NtRp2617
(dp2618
g66
(dp2619
g93
g94
ssg75
g2608
sg68
(lp2620
S':'
asbag61
(g82
g63
NtRp2621
(dp2622
g66
(dp2623
sg75
g2608
sg68
(lp2624
g61
(g62
g63
NtRp2625
(dp2626
g66
(dp2627
g74
I3
ssg75
g2621
sg68
(lp2628
g1358
asbasbasbag61
(g77
g63
NtRp2629
(dp2630
g66
(dp2631
sg75
g2097
sg68
(lp2632
g61
(g82
g63
NtRp2633
(dp2634
g66
(dp2635
g86
g87
ssg75
g2629
sg68
(lp2636
S'wsgi.version'
p2637
asbag61
(g82
g63
NtRp2638
(dp2639
g66
(dp2640
g93
g94
ssg75
g2629
sg68
(lp2641
S':'
asbag61
(g82
g63
NtRp2642
(dp2643
g66
(dp2644
sg75
g2629
sg68
(lp2645
g61
(g62
g63
NtRp2646
(dp2647
g66
(dp2648
g74
I3
ssg75
g2642
sg68
(lp2649
S'1'
asbasbasbasbasbasbasbasbasbasbasbasbasbsS'frames'
p2650
(lp2651
(dp2652
S'file'
p2653
S'D:\\workspace\\CA\\IgoR\\C_Sources\\Server\\igor-assistant-ca-2012\\gluon\\restricted.py'
p2654
sS'dump'
p2655
(dp2656
S'environment'
p2657
S"{'A': <class 'gluon.html.A'>, 'Auth': <class 'gluon.tools.Auth'>, 'B': <class 'gluon.html.B'>, 'BEAUTIFY': <class 'gluon.html.BEAUTIFY'>, 'BODY': <class 'gluon.html.BODY'>, 'BR': <class 'gluon.html.BR'>, 'BUTTON': <class 'gluon.html.BUTTON'>, 'CAT': <class 'gluon.html.CAT'>, 'CENTER': <class 'gluon.html.CENTER'>, 'CLEANUP': <class 'gluon.validators.CLEANUP'>, ...}"
p2658
sS'ccode'
p2659
S'<code object <module> at 0000000003C7C3B0, file ...012\\applications\\igor\\models\\db_igor.py", line 7>'
p2660
ssS'lnum'
p2661
I205
sS'lines'
p2662
(dp2663
I200
S'    try:'
p2664
sI201
S'        if type(code) == types.CodeType:'
p2665
sI202
S'            ccode = code'
p2666
sI203
S'        else:'
p2667
sI204
S'            ccode = compile2(code,layer)'
p2668
sI205
S'        exec ccode in environment'
p2669
sI206
S'    except HTTP:'
p2670
sI207
S'        raise'
p2671
sI208
S'    except RestrictedError:'
p2672
sI209
S'        # do not encapsulate (obfuscate) the original RestrictedError'
p2673
ssS'call'
p2674
S'(code="################################################...\\n    Field(\'test\', \'integer\', default= 0)\\n    )\\n\\n", environment={\'A\': <class \'gluon.html.A\'>, \'Auth\': <class \'gluon.tools.Auth\'>, \'B\': <class \'gluon.html.B\'>, \'BEAUTIFY\': <class \'gluon.html.BEAUTIFY\'>, \'BODY\': <class \'gluon.html.BODY\'>, \'BR\': <class \'gluon.html.BR\'>, \'BUTTON\': <class \'gluon.html.BUTTON\'>, \'CAT\': <class \'gluon.html.CAT\'>, \'CENTER\': <class \'gluon.html.CENTER\'>, \'CLEANUP\': <class \'gluon.validators.CLEANUP\'>, ...}, layer=r\'D:\\workspace\\CA\\IgoR\\C_Sources\\Server\\igor-assistant-ca-2012\\applications\\igor\\models\\db_igor.py\')'
p2675
sS'func'
p2676
S'restricted'
p2677
sa(dp2678
g2653
S'D:\\workspace\\CA\\IgoR\\C_Sources\\Server\\igor-assistant-ca-2012\\applications\\igor\\models\\db_igor.py'
p2679
sg2655
(dp2680
S'db.auth_user'
p2681
S"<Table {'last_name': <gluon.dal.Field object at ... <gluon.dal.Field object at 0x0000000003BD8390>}>"
p2682
sS'Field'
p2683
S"<class 'gluon.dal.Field'>"
p2684
sS'db'
p2685
S"<DAL {'auth_event': <Table {'origin': <gluon.dal...gluon.dal.Field object at 0x0000000003BD8390>}>}>"
p2686
ssg2661
I14
sg2662
(dp2687
I9
S"    # Field('keywords', 'list:string'),"
p2688
sI10
S"    Field('class_group', 'string'), # TTM, KHMT ..."
p2689
sI11
S"    Field('student_code', 'string'),"
p2690
sI12
S"    Field('user_course', 'integer'),"
p2691
sI13
S"    Field('avatar', 'string'),"
p2692
sI14
S"    Field('auth', db.auth_user),"
p2693
sI15
S'    )'
p2694
sI16
S''
sI17
S'# db.user.keywords.compute  = lambda r : str (r.name)'
p2695
sI18
S''
ssg2674
S'()'
p2696
sg2676
S'<module>'
p2697
sa(dp2698
g2653
S'D:\\workspace\\CA\\IgoR\\C_Sources\\Server\\igor-assistant-ca-2012\\gluon\\dal.py'
p2699
sg2655
(dp2700
S'polymodel'
p2701
S'None'
p2702
ssg2661
I6320
sg2662
(dp2703
I6315
S"        if migrate or self._adapter.dbengine=='google:datastore':"
p2704
sI6316
S'            try:'
p2705
sI6317
S'                sql_locker.acquire()'
p2706
sI6318
S'                self._adapter.create_table(t,migrate=migrate,'
p2707
sI6319
S'                                           fake_migrate=fake_migrate,'
p2708
sI6320
S'                                           polymodel=polymodel)'
p2709
sI6321
S'            finally:'
p2710
sI6322
S'                sql_locker.release()'
p2711
sI6323
S'        else:'
p2712
sI6324
S'            t._dbt = None'
p2713
ssg2674
S"(self=<DAL {'auth_event': <Table {'origin': <gluon.dal...gluon.dal.Field object at 0x0000000003BD8390>}>}>, tablename='user', *fields=(<gluon.dal.Field object>, <gluon.dal.Field object>, <gluon.dal.Field object>, <gluon.dal.Field object>, <gluon.dal.Field object>, <gluon.dal.Field object>), **args={})"
p2714
sg2676
S'define_table'
p2715
sa(dp2716
g2653
S'D:\\workspace\\CA\\IgoR\\C_Sources\\Server\\igor-assistant-ca-2012\\gluon\\dal.py'
p2717
sg2655
(dp2718
S'query'
p2719
S"'CREATE TABLE user(\\n    id INTEGER PRIMARY KEY AU...GER REFERENCES auth_user(id) ON DELETE CASCADE\\n);'"
p2720
sS'self'
p2721
S'<gluon.dal.SQLiteAdapter object>'
p2722
sS'table'
p2723
S"<Table {'user_course': <gluon.dal.Field object a... <gluon.dal.Field object at 0x0000000003BD6B70>}>"
p2724
sS'self.create_sequence_and_triggers'
p2725
S'<bound method SQLiteAdapter.create_sequence_and_triggers of <gluon.dal.SQLiteAdapter object>>'
p2726
ssg2661
I719
sg2662
(dp2727
I714
S'            if table._dbt:'
p2728
sI715
S"                logfile.write('timestamp: %s\\n'"
p2729
sI716
S'                               % datetime.datetime.today().isoformat())'
p2730
sI717
S"                logfile.write(query + '\\n')"
p2731
sI718
S'            if not fake_migrate:'
p2732
sI719
S'                self.create_sequence_and_triggers(query,table)'
p2733
sI720
S'                table._db.commit()'
p2734
sI721
S'            if table._dbt:'
p2735
sI722
S"                tfile = self.file_open(table._dbt, 'w')"
p2736
sI723
S'                cPickle.dump(sql_fields, tfile)'
p2737
ssg2674
S"(self=<gluon.dal.SQLiteAdapter object>, table=<Table {'user_course': <gluon.dal.Field object a... <gluon.dal.Field object at 0x0000000003BD6B70>}>, migrate=True, fake_migrate=False, polymodel=None)"
p2738
sg2676
S'create_table'
p2739
sa(dp2740
g2653
S'D:\\workspace\\CA\\IgoR\\C_Sources\\Server\\igor-assistant-ca-2012\\gluon\\dal.py'
p2741
sg2655
(dp2742
S'query'
p2743
S"'CREATE TABLE user(\\n    id INTEGER PRIMARY KEY AU...GER REFERENCES auth_user(id) ON DELETE CASCADE\\n);'"
p2744
sS'self'
p2745
S'<gluon.dal.SQLiteAdapter object>'
p2746
sS'self.execute'
p2747
S'<bound method SQLiteAdapter.execute of <gluon.dal.SQLiteAdapter object>>'
p2748
ssg2661
I1381
sg2662
(dp2749
I1376
S''
sI1377
S'    def constraint_name(self, table, fieldname):'
p2750
sI1378
S"        return '%s_%s__constraint' % (table,fieldname)"
p2751
sI1379
S''
sI1380
S'    def create_sequence_and_triggers(self, query, table, **args):'
p2752
sI1381
S'        self.execute(query)'
p2753
sI1382
S''
sI1383
S'    def log_execute(self, *a, **b):'
p2754
sI1384
S'        self.db._lastsql = a[0]'
p2755
sI1385
S'        t0 = time.time()'
p2756
ssg2674
S"(self=<gluon.dal.SQLiteAdapter object>, query='CREATE TABLE user(\\n    id INTEGER PRIMARY KEY AU...GER REFERENCES auth_user(id) ON DELETE CASCADE\\n);', table=<Table {'user_course': <gluon.dal.Field object a... <gluon.dal.Field object at 0x0000000003BD6B70>}>, **args={})"
p2757
sg2676
S'create_sequence_and_triggers'
p2758
sa(dp2759
g2653
S'D:\\workspace\\CA\\IgoR\\C_Sources\\Server\\igor-assistant-ca-2012\\gluon\\dal.py'
p2760
sg2655
(dp2761
S'a'
S"('CREATE TABLE user(\\n    id INTEGER PRIMARY KEY AU...GER REFERENCES auth_user(id) ON DELETE CASCADE\\n);',)"
p2762
sS'self'
p2763
S'<gluon.dal.SQLiteAdapter object>'
p2764
sS'b'
g21
sS'self.log_execute'
p2765
S'<bound method SQLiteAdapter.log_execute of <gluon.dal.SQLiteAdapter object>>'
p2766
ssg2661
I1392
sg2662
(dp2767
I1387
S'        self.db._timings.append((a[0],time.time()-t0))'
p2768
sI1388
S'        del self.db._timings[:-TIMINGSSIZE]'
p2769
sI1389
S'        return ret'
p2770
sI1390
S''
sI1391
S'    def execute(self, *a, **b):'
p2771
sI1392
S'        return self.log_execute(*a, **b)'
p2772
sI1393
S''
sI1394
S'    def represent(self, obj, fieldtype):'
p2773
sI1395
S'        if isinstance(obj, CALLABLETYPES):'
p2774
sI1396
S'            obj = obj()'
p2775
ssg2674
S"(self=<gluon.dal.SQLiteAdapter object>, *a=('CREATE TABLE user(\\n    id INTEGER PRIMARY KEY AU...GER REFERENCES auth_user(id) ON DELETE CASCADE\\n);',), **b={})"
p2776
sg2676
S'execute'
p2777
sa(dp2778
g2653
S'D:\\workspace\\CA\\IgoR\\C_Sources\\Server\\igor-assistant-ca-2012\\gluon\\dal.py'
p2779
sg2655
(dp2780
S'a'
S"('CREATE TABLE user(\\n    id INTEGER PRIMARY KEY AU...GER REFERENCES auth_user(id) ON DELETE CASCADE\\n);',)"
p2781
sS'b'
g21
sS'self'
p2782
S'<gluon.dal.SQLiteAdapter object>'
p2783
sS'ret'
p2784
S'undefined'
p2785
sS'self.cursor'
p2786
S'<sqlite3.Cursor object>'
p2787
sS'self.cursor.execute'
p2788
S'<built-in method execute of sqlite3.Cursor object>'
p2789
ssg2661
I1386
sg2662
(dp2790
I1381
S'        self.execute(query)'
p2791
sI1382
S''
sI1383
S'    def log_execute(self, *a, **b):'
p2792
sI1384
S'        self.db._lastsql = a[0]'
p2793
sI1385
S'        t0 = time.time()'
p2794
sI1386
S'        ret = self.cursor.execute(*a, **b)'
p2795
sI1387
S'        self.db._timings.append((a[0],time.time()-t0))'
p2796
sI1388
S'        del self.db._timings[:-TIMINGSSIZE]'
p2797
sI1389
S'        return ret'
p2798
sI1390
S''
ssg2674
S"(self=<gluon.dal.SQLiteAdapter object>, *a=('CREATE TABLE user(\\n    id INTEGER PRIMARY KEY AU...GER REFERENCES auth_user(id) ON DELETE CASCADE\\n);',), **b={})"
p2799
sg2676
S'log_execute'
p2800
sasS'pyver'
p2801
S'Python 2.7.3: C:\\Python27\\python.exe'
p2802
sS'session'
p2803
g61
(g62
g63
NtRp2804
(dp2805
g66
(dp2806
sg68
(lp2807
g61
(g70
g63
NtRp2808
(dp2809
g66
(dp2810
g74
I5
ssg75
Nsg68
(lp2811
sbasbsS'etype'
p2812
S"<class 'sqlite3.OperationalError'>"
p2813
sS'date'
p2814
S'Sun Jul 29 22:37:42 2012'
p2815
sS'response'
p2816
g61
(g62
g63
NtRp2817
(dp2818
g66
(dp2819
sg68
(lp2820
g61
(g70
g63
NtRp2821
(dp2822
g66
(dp2823
g74
I5
ssg75
Nsg68
(lp2824
g61
(g77
g63
NtRp2825
(dp2826
g66
(dp2827
sg75
g2821
sg68
(lp2828
g61
(g82
g63
NtRp2829
(dp2830
g66
(dp2831
g86
g87
ssg75
g2825
sg68
(lp2832
g171
asbag61
(g82
g63
NtRp2833
(dp2834
g66
(dp2835
g93
g94
ssg75
g2825
sg68
(lp2836
S':'
asbag61
(g82
g63
NtRp2837
(dp2838
g66
(dp2839
sg75
g2825
sg68
(lp2840
g61
(g62
g63
NtRp2841
(dp2842
g66
(dp2843
g74
I5
ssg75
g2837
sg68
(lp2844
S'<cStringIO.StringO object at 0x00000000039C0538>'
p2845
asbasbasbag61
(g77
g63
NtRp2846
(dp2847
g66
(dp2848
sg75
g2821
sg68
(lp2849
g61
(g82
g63
NtRp2850
(dp2851
g66
(dp2852
g86
g87
ssg75
g2846
sg68
(lp2853
g237
asbag61
(g82
g63
NtRp2854
(dp2855
g66
(dp2856
g93
g94
ssg75
g2846
sg68
(lp2857
S':'
asbag61
(g82
g63
NtRp2858
(dp2859
g66
(dp2860
sg75
g2846
sg68
(lp2861
g61
(g62
g63
NtRp2862
(dp2863
g66
(dp2864
g74
I5
ssg75
g2858
sg68
(lp2865
g61
(g70
g63
NtRp2866
(dp2867
g66
(dp2868
g74
I4
ssg75
Nsg68
(lp2869
g61
(g77
g63
NtRp2870
(dp2871
g66
(dp2872
sg75
g2866
sg68
(lp2873
g61
(g82
g63
NtRp2874
(dp2875
g66
(dp2876
g86
g87
ssg75
g2870
sg68
(lp2877
S'session_id_igor'
p2878
asbag61
(g82
g63
NtRp2879
(dp2880
g66
(dp2881
g93
g94
ssg75
g2870
sg68
(lp2882
S':'
asbag61
(g82
g63
NtRp2883
(dp2884
g66
(dp2885
sg75
g2870
sg68
(lp2886
g61
(g62
g63
NtRp2887
(dp2888
g66
(dp2889
g74
I4
ssg75
g2883
sg68
(lp2890
g61
(g70
g63
NtRp2891
(dp2892
g66
(dp2893
g74
I3
ssg75
Nsg68
(lp2894
g61
(g77
g63
NtRp2895
(dp2896
g66
(dp2897
sg75
g2891
sg68
(lp2898
g61
(g82
g63
NtRp2899
(dp2900
g66
(dp2901
g86
g87
ssg75
g2895
sg68
(lp2902
g287
asbag61
(g82
g63
NtRp2903
(dp2904
g66
(dp2905
g93
g94
ssg75
g2895
sg68
(lp2906
S':'
asbag61
(g82
g63
NtRp2907
(dp2908
g66
(dp2909
sg75
g2895
sg68
(lp2910
g61
(g62
g63
NtRp2911
(dp2912
g66
(dp2913
g74
I3
ssg75
g2907
sg68
(lp2914
S''
asbasbasbag61
(g77
g63
NtRp2915
(dp2916
g66
(dp2917
sg75
g2891
sg68
(lp2918
g61
(g82
g63
NtRp2919
(dp2920
g66
(dp2921
g86
g87
ssg75
g2915
sg68
(lp2922
g308
asbag61
(g82
g63
NtRp2923
(dp2924
g66
(dp2925
g93
g94
ssg75
g2915
sg68
(lp2926
S':'
asbag61
(g82
g63
NtRp2927
(dp2928
g66
(dp2929
sg75
g2915
sg68
(lp2930
g61
(g62
g63
NtRp2931
(dp2932
g66
(dp2933
g74
I3
ssg75
g2927
sg68
(lp2934
S''
asbasbasbag61
(g77
g63
NtRp2935
(dp2936
g66
(dp2937
sg75
g2891
sg68
(lp2938
g61
(g82
g63
NtRp2939
(dp2940
g66
(dp2941
g86
g87
ssg75
g2935
sg68
(lp2942
g329
asbag61
(g82
g63
NtRp2943
(dp2944
g66
(dp2945
g93
g94
ssg75
g2935
sg68
(lp2946
S':'
asbag61
(g82
g63
NtRp2947
(dp2948
g66
(dp2949
sg75
g2935
sg68
(lp2950
g61
(g62
g63
NtRp2951
(dp2952
g66
(dp2953
g74
I3
ssg75
g2947
sg68
(lp2954
S''
asbasbasbag61
(g77
g63
NtRp2955
(dp2956
g66
(dp2957
sg75
g2891
sg68
(lp2958
g61
(g82
g63
NtRp2959
(dp2960
g66
(dp2961
g86
g87
ssg75
g2955
sg68
(lp2962
g350
asbag61
(g82
g63
NtRp2963
(dp2964
g66
(dp2965
g93
g94
ssg75
g2955
sg68
(lp2966
S':'
asbag61
(g82
g63
NtRp2967
(dp2968
g66
(dp2969
sg75
g2955
sg68
(lp2970
g61
(g62
g63
NtRp2971
(dp2972
g66
(dp2973
g74
I3
ssg75
g2967
sg68
(lp2974
S''
asbasbasbag61
(g77
g63
NtRp2975
(dp2976
g66
(dp2977
sg75
g2891
sg68
(lp2978
g61
(g82
g63
NtRp2979
(dp2980
g66
(dp2981
g86
g87
ssg75
g2975
sg68
(lp2982
g371
asbag61
(g82
g63
NtRp2983
(dp2984
g66
(dp2985
g93
g94
ssg75
g2975
sg68
(lp2986
S':'
asbag61
(g82
g63
NtRp2987
(dp2988
g66
(dp2989
sg75
g2975
sg68
(lp2990
g61
(g62
g63
NtRp2991
(dp2992
g66
(dp2993
g74
I3
ssg75
g2987
sg68
(lp2994
S''
asbasbasbag61
(g77
g63
NtRp2995
(dp2996
g66
(dp2997
sg75
g2891
sg68
(lp2998
g61
(g82
g63
NtRp2999
(dp3000
g66
(dp3001
g86
g87
ssg75
g2995
sg68
(lp3002
g392
asbag61
(g82
g63
NtRp3003
(dp3004
g66
(dp3005
g93
g94
ssg75
g2995
sg68
(lp3006
S':'
asbag61
(g82
g63
NtRp3007
(dp3008
g66
(dp3009
sg75
g2995
sg68
(lp3010
g61
(g62
g63
NtRp3011
(dp3012
g66
(dp3013
g74
I3
ssg75
g3007
sg68
(lp3014
S'/'
asbasbasbag61
(g77
g63
NtRp3015
(dp3016
g66
(dp3017
sg75
g2891
sg68
(lp3018
g61
(g82
g63
NtRp3019
(dp3020
g66
(dp3021
g86
g87
ssg75
g3015
sg68
(lp3022
g413
asbag61
(g82
g63
NtRp3023
(dp3024
g66
(dp3025
g93
g94
ssg75
g3015
sg68
(lp3026
S':'
asbag61
(g82
g63
NtRp3027
(dp3028
g66
(dp3029
sg75
g3015
sg68
(lp3030
g61
(g62
g63
NtRp3031
(dp3032
g66
(dp3033
g74
I3
ssg75
g3027
sg68
(lp3034
S''
asbasbasbag61
(g77
g63
NtRp3035
(dp3036
g66
(dp3037
sg75
g2891
sg68
(lp3038
g61
(g82
g63
NtRp3039
(dp3040
g66
(dp3041
g86
g87
ssg75
g3035
sg68
(lp3042
g434
asbag61
(g82
g63
NtRp3043
(dp3044
g66
(dp3045
g93
g94
ssg75
g3035
sg68
(lp3046
S':'
asbag61
(g82
g63
NtRp3047
(dp3048
g66
(dp3049
sg75
g3035
sg68
(lp3050
g61
(g62
g63
NtRp3051
(dp3052
g66
(dp3053
g74
I3
ssg75
g3047
sg68
(lp3054
S''
asbasbasbasbasbasbasbasbasbasbasbag61
(g77
g63
NtRp3055
(dp3056
g66
(dp3057
sg75
g2821
sg68
(lp3058
g61
(g82
g63
NtRp3059
(dp3060
g66
(dp3061
g86
g87
ssg75
g3055
sg68
(lp3062
S'delimiters'
p3063
asbag61
(g82
g63
NtRp3064
(dp3065
g66
(dp3066
g93
g94
ssg75
g3055
sg68
(lp3067
S':'
asbag61
(g82
g63
NtRp3068
(dp3069
g66
(dp3070
sg75
g3055
sg68
(lp3071
g61
(g62
g63
NtRp3072
(dp3073
g66
(dp3074
g74
I5
ssg75
g3068
sg68
(lp3075
g61
(g70
g63
NtRp3076
(dp3077
g66
(dp3078
g74
I4
ssg75
Nsg68
(lp3079
g61
(g77
g63
NtRp3080
(dp3081
g66
(dp3082
sg75
g3076
sg68
(lp3083
g61
(g82
g63
NtRp3084
(dp3085
g66
(dp3086
sg75
g3080
sg68
(lp3087
g61
(g62
g63
NtRp3088
(dp3089
g66
(dp3090
g74
I4
ssg75
g3084
sg68
(lp3091
S'{{'
p3092
asbasbasbag61
(g77
g63
NtRp3093
(dp3094
g66
(dp3095
sg75
g3076
sg68
(lp3096
g61
(g82
g63
NtRp3097
(dp3098
g66
(dp3099
sg75
g3093
sg68
(lp3100
g61
(g62
g63
NtRp3101
(dp3102
g66
(dp3103
g74
I4
ssg75
g3097
sg68
(lp3104
S'}}'
p3105
asbasbasbasbasbasbasbag61
(g77
g63
NtRp3106
(dp3107
g66
(dp3108
sg75
g2821
sg68
(lp3109
g61
(g82
g63
NtRp3110
(dp3111
g66
(dp3112
g86
g87
ssg75
g3106
sg68
(lp3113
S'files'
p3114
asbag61
(g82
g63
NtRp3115
(dp3116
g66
(dp3117
g93
g94
ssg75
g3106
sg68
(lp3118
S':'
asbag61
(g82
g63
NtRp3119
(dp3120
g66
(dp3121
sg75
g3106
sg68
(lp3122
g61
(g62
g63
NtRp3123
(dp3124
g66
(dp3125
g74
I5
ssg75
g3119
sg68
(lp3126
g61
(g70
g63
NtRp3127
(dp3128
g66
(dp3129
g74
I4
ssg75
Nsg68
(lp3130
sbasbasbasbag61
(g77
g63
NtRp3131
(dp3132
g66
(dp3133
sg75
g2821
sg68
(lp3134
g61
(g82
g63
NtRp3135
(dp3136
g66
(dp3137
g86
g87
ssg75
g3131
sg68
(lp3138
S'flash'
p3139
asbag61
(g82
g63
NtRp3140
(dp3141
g66
(dp3142
g93
g94
ssg75
g3131
sg68
(lp3143
S':'
asbag61
(g82
g63
NtRp3144
(dp3145
g66
(dp3146
sg75
g3131
sg68
(lp3147
g61
(g62
g63
NtRp3148
(dp3149
g66
(dp3150
g74
I5
ssg75
g3144
sg68
(lp3151
S''
asbasbasbag61
(g77
g63
NtRp3152
(dp3153
g66
(dp3154
sg75
g2821
sg68
(lp3155
g61
(g82
g63
NtRp3156
(dp3157
g66
(dp3158
g86
g87
ssg75
g3152
sg68
(lp3159
S'generic_patterns'
p3160
asbag61
(g82
g63
NtRp3161
(dp3162
g66
(dp3163
g93
g94
ssg75
g3152
sg68
(lp3164
S':'
asbag61
(g82
g63
NtRp3165
(dp3166
g66
(dp3167
sg75
g3152
sg68
(lp3168
g61
(g62
g63
NtRp3169
(dp3170
g66
(dp3171
g74
I5
ssg75
g3165
sg68
(lp3172
g61
(g70
g63
NtRp3173
(dp3174
g66
(dp3175
g74
I4
ssg75
Nsg68
(lp3176
g61
(g77
g63
NtRp3177
(dp3178
g66
(dp3179
sg75
g3173
sg68
(lp3180
g61
(g82
g63
NtRp3181
(dp3182
g66
(dp3183
sg75
g3177
sg68
(lp3184
g61
(g62
g63
NtRp3185
(dp3186
g66
(dp3187
g74
I4
ssg75
g3181
sg68
(lp3188
S'*'
asbasbasbasbasbasbasbag61
(g77
g63
NtRp3189
(dp3190
g66
(dp3191
sg75
g2821
sg68
(lp3192
g61
(g82
g63
NtRp3193
(dp3194
g66
(dp3195
g86
g87
ssg75
g3189
sg68
(lp3196
S'headers'
p3197
asbag61
(g82
g63
NtRp3198
(dp3199
g66
(dp3200
g93
g94
ssg75
g3189
sg68
(lp3201
S':'
asbag61
(g82
g63
NtRp3202
(dp3203
g66
(dp3204
sg75
g3189
sg68
(lp3205
g61
(g62
g63
NtRp3206
(dp3207
g66
(dp3208
g74
I5
ssg75
g3202
sg68
(lp3209
g61
(g70
g63
NtRp3210
(dp3211
g66
(dp3212
g74
I4
ssg75
Nsg68
(lp3213
g61
(g77
g63
NtRp3214
(dp3215
g66
(dp3216
sg75
g3210
sg68
(lp3217
g61
(g82
g63
NtRp3218
(dp3219
g66
(dp3220
g86
g87
ssg75
g3214
sg68
(lp3221
S'Cache-Control'
p3222
asbag61
(g82
g63
NtRp3223
(dp3224
g66
(dp3225
g93
g94
ssg75
g3214
sg68
(lp3226
S':'
asbag61
(g82
g63
NtRp3227
(dp3228
g66
(dp3229
sg75
g3214
sg68
(lp3230
g61
(g62
g63
NtRp3231
(dp3232
g66
(dp3233
g74
I4
ssg75
g3227
sg68
(lp3234
S'no-store, no-cache, must-revalidate, post-check=0, pre-check=0'
p3235
asbasbasbag61
(g77
g63
NtRp3236
(dp3237
g66
(dp3238
sg75
g3210
sg68
(lp3239
g61
(g82
g63
NtRp3240
(dp3241
g66
(dp3242
g86
g87
ssg75
g3236
sg68
(lp3243
S'Content-Type'
p3244
asbag61
(g82
g63
NtRp3245
(dp3246
g66
(dp3247
g93
g94
ssg75
g3236
sg68
(lp3248
S':'
asbag61
(g82
g63
NtRp3249
(dp3250
g66
(dp3251
sg75
g3236
sg68
(lp3252
g61
(g62
g63
NtRp3253
(dp3254
g66
(dp3255
g74
I4
ssg75
g3249
sg68
(lp3256
S'text/html; charset=utf-8'
p3257
asbasbasbag61
(g77
g63
NtRp3258
(dp3259
g66
(dp3260
sg75
g3210
sg68
(lp3261
g61
(g82
g63
NtRp3262
(dp3263
g66
(dp3264
g86
g87
ssg75
g3258
sg68
(lp3265
S'Expires'
p3266
asbag61
(g82
g63
NtRp3267
(dp3268
g66
(dp3269
g93
g94
ssg75
g3258
sg68
(lp3270
S':'
asbag61
(g82
g63
NtRp3271
(dp3272
g66
(dp3273
sg75
g3258
sg68
(lp3274
g61
(g62
g63
NtRp3275
(dp3276
g66
(dp3277
g74
I4
ssg75
g3271
sg68
(lp3278
S'Sun, 29 Jul 2012 15:37:42 GMT'
p3279
asbasbasbag61
(g77
g63
NtRp3280
(dp3281
g66
(dp3282
sg75
g3210
sg68
(lp3283
g61
(g82
g63
NtRp3284
(dp3285
g66
(dp3286
g86
g87
ssg75
g3280
sg68
(lp3287
S'Pragma'
p3288
asbag61
(g82
g63
NtRp3289
(dp3290
g66
(dp3291
g93
g94
ssg75
g3280
sg68
(lp3292
S':'
asbag61
(g82
g63
NtRp3293
(dp3294
g66
(dp3295
sg75
g3280
sg68
(lp3296
g61
(g62
g63
NtRp3297
(dp3298
g66
(dp3299
g74
I4
ssg75
g3293
sg68
(lp3300
S'no-cache'
p3301
asbasbasbag61
(g77
g63
NtRp3302
(dp3303
g66
(dp3304
sg75
g3210
sg68
(lp3305
g61
(g82
g63
NtRp3306
(dp3307
g66
(dp3308
g86
g87
ssg75
g3302
sg68
(lp3309
S'X-Powered-By'
p3310
asbag61
(g82
g63
NtRp3311
(dp3312
g66
(dp3313
g93
g94
ssg75
g3302
sg68
(lp3314
S':'
asbag61
(g82
g63
NtRp3315
(dp3316
g66
(dp3317
sg75
g3302
sg68
(lp3318
g61
(g62
g63
NtRp3319
(dp3320
g66
(dp3321
g74
I4
ssg75
g3315
sg68
(lp3322
S'web2py'
p3323
asbasbasbasbasbasbasbag61
(g77
g63
NtRp3324
(dp3325
g66
(dp3326
sg75
g2821
sg68
(lp3327
g61
(g82
g63
NtRp3328
(dp3329
g66
(dp3330
g86
g87
ssg75
g3324
sg68
(lp3331
S'menu'
p3332
asbag61
(g82
g63
NtRp3333
(dp3334
g66
(dp3335
g93
g94
ssg75
g3324
sg68
(lp3336
S':'
asbag61
(g82
g63
NtRp3337
(dp3338
g66
(dp3339
sg75
g3324
sg68
(lp3340
g61
(g62
g63
NtRp3341
(dp3342
g66
(dp3343
g74
I5
ssg75
g3337
sg68
(lp3344
g61
(g70
g63
NtRp3345
(dp3346
g66
(dp3347
g74
I4
ssg75
Nsg68
(lp3348
sbasbasbasbag61
(g77
g63
NtRp3349
(dp3350
g66
(dp3351
sg75
g2821
sg68
(lp3352
g61
(g82
g63
NtRp3353
(dp3354
g66
(dp3355
g86
g87
ssg75
g3349
sg68
(lp3356
S'meta'
p3357
asbag61
(g82
g63
NtRp3358
(dp3359
g66
(dp3360
g93
g94
ssg75
g3349
sg68
(lp3361
S':'
asbag61
(g82
g63
NtRp3362
(dp3363
g66
(dp3364
sg75
g3349
sg68
(lp3365
g61
(g62
g63
NtRp3366
(dp3367
g66
(dp3368
g74
I5
ssg75
g3362
sg68
(lp3369
g61
(g70
g63
NtRp3370
(dp3371
g66
(dp3372
g74
I4
ssg75
Nsg68
(lp3373
sbasbasbasbag61
(g77
g63
NtRp3374
(dp3375
g66
(dp3376
sg75
g2821
sg68
(lp3377
g61
(g82
g63
NtRp3378
(dp3379
g66
(dp3380
g86
g87
ssg75
g3374
sg68
(lp3381
S'postprocessing'
p3382
asbag61
(g82
g63
NtRp3383
(dp3384
g66
(dp3385
g93
g94
ssg75
g3374
sg68
(lp3386
S':'
asbag61
(g82
g63
NtRp3387
(dp3388
g66
(dp3389
sg75
g3374
sg68
(lp3390
g61
(g62
g63
NtRp3391
(dp3392
g66
(dp3393
g74
I5
ssg75
g3387
sg68
(lp3394
g61
(g70
g63
NtRp3395
(dp3396
g66
(dp3397
g74
I4
ssg75
Nsg68
(lp3398
sbasbasbasbag61
(g77
g63
NtRp3399
(dp3400
g66
(dp3401
sg75
g2821
sg68
(lp3402
g61
(g82
g63
NtRp3403
(dp3404
g66
(dp3405
g86
g87
ssg75
g3399
sg68
(lp3406
S'session_filename'
p3407
asbag61
(g82
g63
NtRp3408
(dp3409
g66
(dp3410
g93
g94
ssg75
g3399
sg68
(lp3411
S':'
asbag61
(g82
g63
NtRp3412
(dp3413
g66
(dp3414
sg75
g3399
sg68
(lp3415
g61
(g62
g63
NtRp3416
(dp3417
g66
(dp3418
g74
I5
ssg75
g3412
sg68
(lp3419
S'D:\\workspace\\CA\\IgoR\\C_Sources\\Server\\igor-assistant-ca-2012\\applications\\igor\\sessions\\127.0.0.1-7ef028b4-de62-4e29-ac1f-b75ef06a1eb9'
p3420
asbasbasbag61
(g77
g63
NtRp3421
(dp3422
g66
(dp3423
sg75
g2821
sg68
(lp3424
g61
(g82
g63
NtRp3425
(dp3426
g66
(dp3427
g86
g87
ssg75
g3421
sg68
(lp3428
S'session_id'
p3429
asbag61
(g82
g63
NtRp3430
(dp3431
g66
(dp3432
g93
g94
ssg75
g3421
sg68
(lp3433
S':'
asbag61
(g82
g63
NtRp3434
(dp3435
g66
(dp3436
sg75
g3421
sg68
(lp3437
g61
(g62
g63
NtRp3438
(dp3439
g66
(dp3440
g74
I5
ssg75
g3434
sg68
(lp3441
S'127.0.0.1-7ef028b4-de62-4e29-ac1f-b75ef06a1eb9'
p3442
asbasbasbag61
(g77
g63
NtRp3443
(dp3444
g66
(dp3445
sg75
g2821
sg68
(lp3446
g61
(g82
g63
NtRp3447
(dp3448
g66
(dp3449
g86
g87
ssg75
g3443
sg68
(lp3450
S'session_id_name'
p3451
asbag61
(g82
g63
NtRp3452
(dp3453
g66
(dp3454
g93
g94
ssg75
g3443
sg68
(lp3455
S':'
asbag61
(g82
g63
NtRp3456
(dp3457
g66
(dp3458
sg75
g3443
sg68
(lp3459
g61
(g62
g63
NtRp3460
(dp3461
g66
(dp3462
g74
I5
ssg75
g3456
sg68
(lp3463
g2878
asbasbasbag61
(g77
g63
NtRp3464
(dp3465
g66
(dp3466
sg75
g2821
sg68
(lp3467
g61
(g82
g63
NtRp3468
(dp3469
g66
(dp3470
g86
g87
ssg75
g3464
sg68
(lp3471
S'session_new'
p3472
asbag61
(g82
g63
NtRp3473
(dp3474
g66
(dp3475
g93
g94
ssg75
g3464
sg68
(lp3476
S':'
asbag61
(g82
g63
NtRp3477
(dp3478
g66
(dp3479
sg75
g3464
sg68
(lp3480
g61
(g62
g63
NtRp3481
(dp3482
g66
(dp3483
g74
I5
ssg75
g3477
sg68
(lp3484
g1315
asbasbasbag61
(g77
g63
NtRp3485
(dp3486
g66
(dp3487
sg75
g2821
sg68
(lp3488
g61
(g82
g63
NtRp3489
(dp3490
g66
(dp3491
g86
g87
ssg75
g3485
sg68
(lp3492
S'status'
p3493
asbag61
(g82
g63
NtRp3494
(dp3495
g66
(dp3496
g93
g94
ssg75
g3485
sg68
(lp3497
S':'
asbag61
(g82
g63
NtRp3498
(dp3499
g66
(dp3500
sg75
g3485
sg68
(lp3501
g61
(g62
g63
NtRp3502
(dp3503
g66
(dp3504
g74
I5
ssg75
g3498
sg68
(lp3505
S'200'
p3506
asbasbasbag61
(g77
g63
NtRp3507
(dp3508
g66
(dp3509
sg75
g2821
sg68
(lp3510
g61
(g82
g63
NtRp3511
(dp3512
g66
(dp3513
g86
g87
ssg75
g3507
sg68
(lp3514
g2012
asbag61
(g82
g63
NtRp3515
(dp3516
g66
(dp3517
g93
g94
ssg75
g3507
sg68
(lp3518
S':'
asbag61
(g82
g63
NtRp3519
(dp3520
g66
(dp3521
sg75
g3507
sg68
(lp3522
g61
(g62
g63
NtRp3523
(dp3524
g66
(dp3525
g74
I5
ssg75
g3519
sg68
(lp3526
g2025
asbasbasbag61
(g77
g63
NtRp3527
(dp3528
g66
(dp3529
sg75
g2821
sg68
(lp3530
g61
(g82
g63
NtRp3531
(dp3532
g66
(dp3533
g86
g87
ssg75
g3527
sg68
(lp3534
S'view'
p3535
asbag61
(g82
g63
NtRp3536
(dp3537
g66
(dp3538
g93
g94
ssg75
g3527
sg68
(lp3539
S':'
asbag61
(g82
g63
NtRp3540
(dp3541
g66
(dp3542
sg75
g3527
sg68
(lp3543
g61
(g62
g63
NtRp3544
(dp3545
g66
(dp3546
g74
I5
ssg75
g3540
sg68
(lp3547
S'class_subject/get_classes_by_subject.html'
p3548
asbasbasbasbasbsS'locals'
p3549
(dp3550
S'a'
S"('CREATE TABLE user(\\n    id INTEGER PRIMARY KEY AU...GER REFERENCES auth_user(id) ON DELETE CASCADE\\n);',)"
p3551
sS'self'
p3552
S'<gluon.dal.SQLiteAdapter object>'
p3553
sS'b'
g21
sS't0'
p3554
S'1343576262.762'
p3555
sssS'traceback'
p3556
S'Traceback (most recent call last):\n  File "D:\\workspace\\CA\\IgoR\\C_Sources\\Server\\igor-assistant-ca-2012\\gluon\\restricted.py", line 205, in restricted\n    exec ccode in environment\n  File "D:\\workspace\\CA\\IgoR\\C_Sources\\Server\\igor-assistant-ca-2012\\applications\\igor\\models\\db_igor.py", line 14, in <module>\n    Field(\'auth\', db.auth_user),\n  File "D:\\workspace\\CA\\IgoR\\C_Sources\\Server\\igor-assistant-ca-2012\\gluon\\dal.py", line 6320, in define_table\n    polymodel=polymodel)\n  File "D:\\workspace\\CA\\IgoR\\C_Sources\\Server\\igor-assistant-ca-2012\\gluon\\dal.py", line 719, in create_table\n    self.create_sequence_and_triggers(query,table)\n  File "D:\\workspace\\CA\\IgoR\\C_Sources\\Server\\igor-assistant-ca-2012\\gluon\\dal.py", line 1381, in create_sequence_and_triggers\n    self.execute(query)\n  File "D:\\workspace\\CA\\IgoR\\C_Sources\\Server\\igor-assistant-ca-2012\\gluon\\dal.py", line 1392, in execute\n    return self.log_execute(*a, **b)\n  File "D:\\workspace\\CA\\IgoR\\C_Sources\\Server\\igor-assistant-ca-2012\\gluon\\dal.py", line 1386, in log_execute\n    ret = self.cursor.execute(*a, **b)\nOperationalError: table user already exists\n'
p3557
s.