(dp1
S'output'
p2
S"<class 'sqlite3.OperationalError'> table auth_user already exists"
p3
sS'layer'
p4
S'D:\\workspace\\CA\\IgoR\\C_Sources\\Server\\igor-assistant-ca-2012\\applications\\igor\\models\\db.py'
p5
sS'code'
p6
S"# -*- coding: utf-8 -*-\n\n#########################################################################\n## This scaffolding model makes your app work on Google App Engine too\n## File is released under public domain and you can use without limitations\n#########################################################################\n\n## if SSL/HTTPS is properly configured and you want all HTTP requests to\n## be redirected to HTTPS, uncomment the line below:\n# request.requires_https()\n\nif not request.env.web2py_runtime_gae:\n    ## if NOT running on Google App Engine use SQLite or other DB\n    db = DAL('sqlite://storage.sqlite')\nelse:\n    ## connect to Google BigTable (optional 'google:datastore://namespace')\n    db = DAL('google:datastore')\n    ## store sessions and tickets there\n    session.connect(request, response, db = db)\n    ## or store session in Memcache, Redis, etc.\n    ## from gluon.contrib.memdb import MEMDB\n    ## from google.appengine.api.memcache import Client\n    ## session.connect(request, response, db = MEMDB(Client()))\n\n## by default give a view/generic.extension to all actions from localhost\n## none otherwise. a pattern can be 'controller/function.extension'\nresponse.generic_patterns = ['*'] if request.is_local else []\n## (optional) optimize handling of static files\n# response.optimize_css = 'concat,minify,inline'\n# response.optimize_js = 'concat,minify,inline'\n\n#########################################################################\n## Here is sample code if you need for\n## - email capabilities\n## - authentication (registration, login, logout, ... )\n## - authorization (role based authorization)\n## - services (xml, csv, json, xmlrpc, jsonrpc, amf, rss)\n## - old style crud actions\n## (more options discussed in gluon/tools.py)\n#########################################################################\n\nfrom gluon.tools import Auth, Crud, Service, PluginManager, prettydate\nauth = Auth(db, hmac_key=Auth.get_or_create_key())\ncrud, service, plugins = Crud(db), Service(), PluginManager()\n\n## create all tables needed by auth if not custom tables\nauth.define_tables()\n\n## configure email\nmail=auth.settings.mailer\nmail.settings.server = 'logging' or 'smtp.gmail.com:587'\nmail.settings.sender = 'you@gmail.com'\nmail.settings.login = 'username:password'\n\n## configure auth policy\nauth.settings.registration_requires_verification = False\nauth.settings.registration_requires_approval = False\nauth.settings.reset_password_requires_verification = True\n\n## if you need to use OpenID, Facebook, MySpace, Twitter, Linkedin, etc.\n## register with janrain.com, write your domain:api_key in private/janrain.key\nfrom gluon.contrib.login_methods.rpx_account import use_janrain\nuse_janrain(auth,filename='private/janrain.key')\n\n#########################################################################\n## Define your tables below (or better in another model file) for example\n##\n## >>> db.define_table('mytable',Field('myfield','string'))\n##\n## Fields can be 'string','text','password','integer','double','boolean'\n##       'date','time','datetime','blob','upload', 'reference TABLENAME'\n## There is an implicit 'id integer autoincrement' field\n## Consult manual for more options, validators, etc.\n##\n## More API examples for controllers:\n##\n## >>> db.mytable.insert(myfield='value')\n## >>> rows=db(db.mytable.myfield=='value').select(db.mytable.ALL)\n## >>> for row in rows: print row.id, row.myfield\n#########################################################################\n\n# Define all Igor database\n# Author: phucnh"
p7
sS'snapshot'
p8
(dp9
S'exception'
p10
(dp11
S'__module__'
p12
S"'sqlite3'"
p13
sS'__getslice__'
p14
S"<method-wrapper '__getslice__' of OperationalError object>"
p15
sS'__str__'
p16
S"<method-wrapper '__str__' of OperationalError object>"
p17
sS'__reduce__'
p18
S'<built-in method __reduce__ of OperationalError object>'
p19
sS'__dict__'
p20
S'{}'
p21
sS'__sizeof__'
p22
S'<built-in method __sizeof__ of OperationalError object>'
p23
sS'__weakref__'
p24
S'None'
p25
sS'__init__'
p26
S"<method-wrapper '__init__' of OperationalError object>"
p27
sS'__setattr__'
p28
S"<method-wrapper '__setattr__' of OperationalError object>"
p29
sS'__reduce_ex__'
p30
S'<built-in method __reduce_ex__ of OperationalError object>'
p31
sS'__new__'
p32
S'<built-in method __new__ of type object>'
p33
sS'__format__'
p34
S'<built-in method __format__ of OperationalError object>'
p35
sS'__class__'
p36
S"<class 'sqlite3.OperationalError'>"
p37
sS'__doc__'
p38
S'None'
p39
sS'__getitem__'
p40
S"<method-wrapper '__getitem__' of OperationalError object>"
p41
sS'__setstate__'
p42
S'<built-in method __setstate__ of OperationalError object>'
p43
sS'__getattribute__'
p44
S"<method-wrapper '__getattribute__' of OperationalError object>"
p45
sS'args'
p46
S"('table auth_user already exists',)"
p47
sS'__subclasshook__'
p48
S'<built-in method __subclasshook__ of type object>'
p49
sS'__unicode__'
p50
S'<built-in method __unicode__ of OperationalError object>'
p51
sS'__delattr__'
p52
S"<method-wrapper '__delattr__' of OperationalError object>"
p53
sS'__repr__'
p54
S"<method-wrapper '__repr__' of OperationalError object>"
p55
sS'__hash__'
p56
S"<method-wrapper '__hash__' of OperationalError object>"
p57
ssS'evalue'
p58
S'table auth_user already exists'
p59
sS'request'
p60
ccopy_reg
_reconstructor
p61
(cgluon.html
BEAUTIFY
p62
c__builtin__
object
p63
NtRp64
(dp65
S'attributes'
p66
(dp67
sS'components'
p68
(lp69
g61
(cgluon.html
TABLE
p70
g63
NtRp71
(dp72
g66
(dp73
S'level'
p74
I5
ssS'parent'
p75
Nsg68
(lp76
g61
(cgluon.html
TR
p77
g63
NtRp78
(dp79
g66
(dp80
sg75
g71
sg68
(lp81
g61
(cgluon.html
TD
p82
g63
NtRp83
(dp84
g66
(dp85
S'_style'
p86
S'font-weight:bold;vertical-align:top'
p87
ssg75
g78
sg68
(lp88
S'ajax'
p89
asbag61
(g82
g63
NtRp90
(dp91
g66
(dp92
S'_valign'
p93
S'top'
p94
ssg75
g78
sg68
(lp95
S':'
asbag61
(g82
g63
NtRp96
(dp97
g66
(dp98
sg75
g78
sg68
(lp99
g61
(g62
g63
NtRp100
(dp101
g66
(dp102
g74
I5
ssg75
g96
sg68
(lp103
S'False'
p104
asbasbasbag61
(g77
g63
NtRp105
(dp106
g66
(dp107
sg75
g71
sg68
(lp108
g61
(g82
g63
NtRp109
(dp110
g66
(dp111
g86
g87
ssg75
g105
sg68
(lp112
S'application'
p113
asbag61
(g82
g63
NtRp114
(dp115
g66
(dp116
g93
g94
ssg75
g105
sg68
(lp117
S':'
asbag61
(g82
g63
NtRp118
(dp119
g66
(dp120
sg75
g105
sg68
(lp121
g61
(g62
g63
NtRp122
(dp123
g66
(dp124
g74
I5
ssg75
g118
sg68
(lp125
S'igor'
p126
asbasbasbag61
(g77
g63
NtRp127
(dp128
g66
(dp129
sg75
g71
sg68
(lp130
g61
(g82
g63
NtRp131
(dp132
g66
(dp133
g86
g87
ssg75
g127
sg68
(lp134
g46
asbag61
(g82
g63
NtRp135
(dp136
g66
(dp137
g93
g94
ssg75
g127
sg68
(lp138
S':'
asbag61
(g82
g63
NtRp139
(dp140
g66
(dp141
sg75
g127
sg68
(lp142
g61
(g62
g63
NtRp143
(dp144
g66
(dp145
g74
I5
ssg75
g139
sg68
(lp146
g61
(g70
g63
NtRp147
(dp148
g66
(dp149
g74
I4
ssg75
Nsg68
(lp150
sbasbasbasbag61
(g77
g63
NtRp151
(dp152
g66
(dp153
sg75
g71
sg68
(lp154
g61
(g82
g63
NtRp155
(dp156
g66
(dp157
g86
g87
ssg75
g151
sg68
(lp158
S'body'
p159
asbag61
(g82
g63
NtRp160
(dp161
g66
(dp162
g93
g94
ssg75
g151
sg68
(lp163
S':'
asbag61
(g82
g63
NtRp164
(dp165
g66
(dp166
sg75
g151
sg68
(lp167
g61
(g62
g63
NtRp168
(dp169
g66
(dp170
g74
I5
ssg75
g164
sg68
(lp171
S'<cStringIO.StringO object at 0x00000000046F6E68>'
p172
asbasbasbag61
(g77
g63
NtRp173
(dp174
g66
(dp175
sg75
g71
sg68
(lp176
g61
(g82
g63
NtRp177
(dp178
g66
(dp179
g86
g87
ssg75
g173
sg68
(lp180
S'client'
p181
asbag61
(g82
g63
NtRp182
(dp183
g66
(dp184
g93
g94
ssg75
g173
sg68
(lp185
S':'
asbag61
(g82
g63
NtRp186
(dp187
g66
(dp188
sg75
g173
sg68
(lp189
g61
(g62
g63
NtRp190
(dp191
g66
(dp192
g74
I5
ssg75
g186
sg68
(lp193
S'127.0.0.1'
p194
asbasbasbag61
(g77
g63
NtRp195
(dp196
g66
(dp197
sg75
g71
sg68
(lp198
g61
(g82
g63
NtRp199
(dp200
g66
(dp201
g86
g87
ssg75
g195
sg68
(lp202
S'controller'
p203
asbag61
(g82
g63
NtRp204
(dp205
g66
(dp206
g93
g94
ssg75
g195
sg68
(lp207
S':'
asbag61
(g82
g63
NtRp208
(dp209
g66
(dp210
sg75
g195
sg68
(lp211
g61
(g62
g63
NtRp212
(dp213
g66
(dp214
g74
I5
ssg75
g208
sg68
(lp215
S'subject'
p216
asbasbasbag61
(g77
g63
NtRp217
(dp218
g66
(dp219
sg75
g71
sg68
(lp220
g61
(g82
g63
NtRp221
(dp222
g66
(dp223
g86
g87
ssg75
g217
sg68
(lp224
S'cookies'
p225
asbag61
(g82
g63
NtRp226
(dp227
g66
(dp228
g93
g94
ssg75
g217
sg68
(lp229
S':'
asbag61
(g82
g63
NtRp230
(dp231
g66
(dp232
sg75
g217
sg68
(lp233
g61
(g62
g63
NtRp234
(dp235
g66
(dp236
g74
I5
ssg75
g230
sg68
(lp237
g61
(g70
g63
NtRp238
(dp239
g66
(dp240
g74
I4
ssg75
Nsg68
(lp241
g61
(g77
g63
NtRp242
(dp243
g66
(dp244
sg75
g238
sg68
(lp245
g61
(g82
g63
NtRp246
(dp247
g66
(dp248
g86
g87
ssg75
g242
sg68
(lp249
S'session_id_admin'
p250
asbag61
(g82
g63
NtRp251
(dp252
g66
(dp253
g93
g94
ssg75
g242
sg68
(lp254
S':'
asbag61
(g82
g63
NtRp255
(dp256
g66
(dp257
sg75
g242
sg68
(lp258
g61
(g62
g63
NtRp259
(dp260
g66
(dp261
g74
I4
ssg75
g255
sg68
(lp262
g61
(g70
g63
NtRp263
(dp264
g66
(dp265
g74
I3
ssg75
Nsg68
(lp266
g61
(g77
g63
NtRp267
(dp268
g66
(dp269
sg75
g263
sg68
(lp270
g61
(g82
g63
NtRp271
(dp272
g66
(dp273
g86
g87
ssg75
g267
sg68
(lp274
S'comment'
p275
asbag61
(g82
g63
NtRp276
(dp277
g66
(dp278
g93
g94
ssg75
g267
sg68
(lp279
S':'
asbag61
(g82
g63
NtRp280
(dp281
g66
(dp282
sg75
g267
sg68
(lp283
g61
(g62
g63
NtRp284
(dp285
g66
(dp286
g74
I3
ssg75
g280
sg68
(lp287
S''
asbasbasbag61
(g77
g63
NtRp288
(dp289
g66
(dp290
sg75
g263
sg68
(lp291
g61
(g82
g63
NtRp292
(dp293
g66
(dp294
g86
g87
ssg75
g288
sg68
(lp295
S'domain'
p296
asbag61
(g82
g63
NtRp297
(dp298
g66
(dp299
g93
g94
ssg75
g288
sg68
(lp300
S':'
asbag61
(g82
g63
NtRp301
(dp302
g66
(dp303
sg75
g288
sg68
(lp304
g61
(g62
g63
NtRp305
(dp306
g66
(dp307
g74
I3
ssg75
g301
sg68
(lp308
S''
asbasbasbag61
(g77
g63
NtRp309
(dp310
g66
(dp311
sg75
g263
sg68
(lp312
g61
(g82
g63
NtRp313
(dp314
g66
(dp315
g86
g87
ssg75
g309
sg68
(lp316
S'expires'
p317
asbag61
(g82
g63
NtRp318
(dp319
g66
(dp320
g93
g94
ssg75
g309
sg68
(lp321
S':'
asbag61
(g82
g63
NtRp322
(dp323
g66
(dp324
sg75
g309
sg68
(lp325
g61
(g62
g63
NtRp326
(dp327
g66
(dp328
g74
I3
ssg75
g322
sg68
(lp329
S''
asbasbasbag61
(g77
g63
NtRp330
(dp331
g66
(dp332
sg75
g263
sg68
(lp333
g61
(g82
g63
NtRp334
(dp335
g66
(dp336
g86
g87
ssg75
g330
sg68
(lp337
S'httponly'
p338
asbag61
(g82
g63
NtRp339
(dp340
g66
(dp341
g93
g94
ssg75
g330
sg68
(lp342
S':'
asbag61
(g82
g63
NtRp343
(dp344
g66
(dp345
sg75
g330
sg68
(lp346
g61
(g62
g63
NtRp347
(dp348
g66
(dp349
g74
I3
ssg75
g343
sg68
(lp350
S''
asbasbasbag61
(g77
g63
NtRp351
(dp352
g66
(dp353
sg75
g263
sg68
(lp354
g61
(g82
g63
NtRp355
(dp356
g66
(dp357
g86
g87
ssg75
g351
sg68
(lp358
S'max-age'
p359
asbag61
(g82
g63
NtRp360
(dp361
g66
(dp362
g93
g94
ssg75
g351
sg68
(lp363
S':'
asbag61
(g82
g63
NtRp364
(dp365
g66
(dp366
sg75
g351
sg68
(lp367
g61
(g62
g63
NtRp368
(dp369
g66
(dp370
g74
I3
ssg75
g364
sg68
(lp371
S''
asbasbasbag61
(g77
g63
NtRp372
(dp373
g66
(dp374
sg75
g263
sg68
(lp375
g61
(g82
g63
NtRp376
(dp377
g66
(dp378
g86
g87
ssg75
g372
sg68
(lp379
S'path'
p380
asbag61
(g82
g63
NtRp381
(dp382
g66
(dp383
g93
g94
ssg75
g372
sg68
(lp384
S':'
asbag61
(g82
g63
NtRp385
(dp386
g66
(dp387
sg75
g372
sg68
(lp388
g61
(g62
g63
NtRp389
(dp390
g66
(dp391
g74
I3
ssg75
g385
sg68
(lp392
S''
asbasbasbag61
(g77
g63
NtRp393
(dp394
g66
(dp395
sg75
g263
sg68
(lp396
g61
(g82
g63
NtRp397
(dp398
g66
(dp399
g86
g87
ssg75
g393
sg68
(lp400
S'secure'
p401
asbag61
(g82
g63
NtRp402
(dp403
g66
(dp404
g93
g94
ssg75
g393
sg68
(lp405
S':'
asbag61
(g82
g63
NtRp406
(dp407
g66
(dp408
sg75
g393
sg68
(lp409
g61
(g62
g63
NtRp410
(dp411
g66
(dp412
g74
I3
ssg75
g406
sg68
(lp413
S''
asbasbasbag61
(g77
g63
NtRp414
(dp415
g66
(dp416
sg75
g263
sg68
(lp417
g61
(g82
g63
NtRp418
(dp419
g66
(dp420
g86
g87
ssg75
g414
sg68
(lp421
S'version'
p422
asbag61
(g82
g63
NtRp423
(dp424
g66
(dp425
g93
g94
ssg75
g414
sg68
(lp426
S':'
asbag61
(g82
g63
NtRp427
(dp428
g66
(dp429
sg75
g414
sg68
(lp430
g61
(g62
g63
NtRp431
(dp432
g66
(dp433
g74
I3
ssg75
g427
sg68
(lp434
S''
asbasbasbasbasbasbasbag61
(g77
g63
NtRp435
(dp436
g66
(dp437
sg75
g238
sg68
(lp438
g61
(g82
g63
NtRp439
(dp440
g66
(dp441
g86
g87
ssg75
g435
sg68
(lp442
S'session_id_welcome'
p443
asbag61
(g82
g63
NtRp444
(dp445
g66
(dp446
g93
g94
ssg75
g435
sg68
(lp447
S':'
asbag61
(g82
g63
NtRp448
(dp449
g66
(dp450
sg75
g435
sg68
(lp451
g61
(g62
g63
NtRp452
(dp453
g66
(dp454
g74
I4
ssg75
g448
sg68
(lp455
g61
(g70
g63
NtRp456
(dp457
g66
(dp458
g74
I3
ssg75
Nsg68
(lp459
g61
(g77
g63
NtRp460
(dp461
g66
(dp462
sg75
g456
sg68
(lp463
g61
(g82
g63
NtRp464
(dp465
g66
(dp466
g86
g87
ssg75
g460
sg68
(lp467
g275
asbag61
(g82
g63
NtRp468
(dp469
g66
(dp470
g93
g94
ssg75
g460
sg68
(lp471
S':'
asbag61
(g82
g63
NtRp472
(dp473
g66
(dp474
sg75
g460
sg68
(lp475
g61
(g62
g63
NtRp476
(dp477
g66
(dp478
g74
I3
ssg75
g472
sg68
(lp479
S''
asbasbasbag61
(g77
g63
NtRp480
(dp481
g66
(dp482
sg75
g456
sg68
(lp483
g61
(g82
g63
NtRp484
(dp485
g66
(dp486
g86
g87
ssg75
g480
sg68
(lp487
g296
asbag61
(g82
g63
NtRp488
(dp489
g66
(dp490
g93
g94
ssg75
g480
sg68
(lp491
S':'
asbag61
(g82
g63
NtRp492
(dp493
g66
(dp494
sg75
g480
sg68
(lp495
g61
(g62
g63
NtRp496
(dp497
g66
(dp498
g74
I3
ssg75
g492
sg68
(lp499
S''
asbasbasbag61
(g77
g63
NtRp500
(dp501
g66
(dp502
sg75
g456
sg68
(lp503
g61
(g82
g63
NtRp504
(dp505
g66
(dp506
g86
g87
ssg75
g500
sg68
(lp507
g317
asbag61
(g82
g63
NtRp508
(dp509
g66
(dp510
g93
g94
ssg75
g500
sg68
(lp511
S':'
asbag61
(g82
g63
NtRp512
(dp513
g66
(dp514
sg75
g500
sg68
(lp515
g61
(g62
g63
NtRp516
(dp517
g66
(dp518
g74
I3
ssg75
g512
sg68
(lp519
S''
asbasbasbag61
(g77
g63
NtRp520
(dp521
g66
(dp522
sg75
g456
sg68
(lp523
g61
(g82
g63
NtRp524
(dp525
g66
(dp526
g86
g87
ssg75
g520
sg68
(lp527
g338
asbag61
(g82
g63
NtRp528
(dp529
g66
(dp530
g93
g94
ssg75
g520
sg68
(lp531
S':'
asbag61
(g82
g63
NtRp532
(dp533
g66
(dp534
sg75
g520
sg68
(lp535
g61
(g62
g63
NtRp536
(dp537
g66
(dp538
g74
I3
ssg75
g532
sg68
(lp539
S''
asbasbasbag61
(g77
g63
NtRp540
(dp541
g66
(dp542
sg75
g456
sg68
(lp543
g61
(g82
g63
NtRp544
(dp545
g66
(dp546
g86
g87
ssg75
g540
sg68
(lp547
g359
asbag61
(g82
g63
NtRp548
(dp549
g66
(dp550
g93
g94
ssg75
g540
sg68
(lp551
S':'
asbag61
(g82
g63
NtRp552
(dp553
g66
(dp554
sg75
g540
sg68
(lp555
g61
(g62
g63
NtRp556
(dp557
g66
(dp558
g74
I3
ssg75
g552
sg68
(lp559
S''
asbasbasbag61
(g77
g63
NtRp560
(dp561
g66
(dp562
sg75
g456
sg68
(lp563
g61
(g82
g63
NtRp564
(dp565
g66
(dp566
g86
g87
ssg75
g560
sg68
(lp567
g380
asbag61
(g82
g63
NtRp568
(dp569
g66
(dp570
g93
g94
ssg75
g560
sg68
(lp571
S':'
asbag61
(g82
g63
NtRp572
(dp573
g66
(dp574
sg75
g560
sg68
(lp575
g61
(g62
g63
NtRp576
(dp577
g66
(dp578
g74
I3
ssg75
g572
sg68
(lp579
S''
asbasbasbag61
(g77
g63
NtRp580
(dp581
g66
(dp582
sg75
g456
sg68
(lp583
g61
(g82
g63
NtRp584
(dp585
g66
(dp586
g86
g87
ssg75
g580
sg68
(lp587
g401
asbag61
(g82
g63
NtRp588
(dp589
g66
(dp590
g93
g94
ssg75
g580
sg68
(lp591
S':'
asbag61
(g82
g63
NtRp592
(dp593
g66
(dp594
sg75
g580
sg68
(lp595
g61
(g62
g63
NtRp596
(dp597
g66
(dp598
g74
I3
ssg75
g592
sg68
(lp599
S''
asbasbasbag61
(g77
g63
NtRp600
(dp601
g66
(dp602
sg75
g456
sg68
(lp603
g61
(g82
g63
NtRp604
(dp605
g66
(dp606
g86
g87
ssg75
g600
sg68
(lp607
g422
asbag61
(g82
g63
NtRp608
(dp609
g66
(dp610
g93
g94
ssg75
g600
sg68
(lp611
S':'
asbag61
(g82
g63
NtRp612
(dp613
g66
(dp614
sg75
g600
sg68
(lp615
g61
(g62
g63
NtRp616
(dp617
g66
(dp618
g74
I3
ssg75
g612
sg68
(lp619
S''
asbasbasbasbasbasbasbasbasbasbasbag61
(g77
g63
NtRp620
(dp621
g66
(dp622
sg75
g71
sg68
(lp623
g61
(g82
g63
NtRp624
(dp625
g66
(dp626
g86
g87
ssg75
g620
sg68
(lp627
S'env'
p628
asbag61
(g82
g63
NtRp629
(dp630
g66
(dp631
g93
g94
ssg75
g620
sg68
(lp632
S':'
asbag61
(g82
g63
NtRp633
(dp634
g66
(dp635
sg75
g620
sg68
(lp636
g61
(g62
g63
NtRp637
(dp638
g66
(dp639
g74
I5
ssg75
g633
sg68
(lp640
g61
(g70
g63
NtRp641
(dp642
g66
(dp643
g74
I4
ssg75
Nsg68
(lp644
g61
(g77
g63
NtRp645
(dp646
g66
(dp647
sg75
g641
sg68
(lp648
g61
(g82
g63
NtRp649
(dp650
g66
(dp651
g86
g87
ssg75
g645
sg68
(lp652
S'app_folders'
p653
asbag61
(g82
g63
NtRp654
(dp655
g66
(dp656
g93
g94
ssg75
g645
sg68
(lp657
S':'
asbag61
(g82
g63
NtRp658
(dp659
g66
(dp660
sg75
g645
sg68
(lp661
g61
(g62
g63
NtRp662
(dp663
g66
(dp664
g74
I4
ssg75
g658
sg68
(lp665
S"set(['D:\\\\workspace\\\\CA\\\\IgoR\\\\C_Sources\\\\Server\\\\igor-assistant-ca-2012\\\\applications\\\\admin\\\\', 'D:\\\\workspace\\\\CA\\\\IgoR\\\\C_Sources\\\\Server\\\\igor-assistant-ca-2012\\\\applications\\\\igor\\\\', 'D:\\\\workspace\\\\CA\\\\IgoR\\\\C_Sources\\\\Server\\\\igor-assistant-ca-2012\\\\applications\\\\welcome\\\\'])"
p666
asbasbasbag61
(g77
g63
NtRp667
(dp668
g66
(dp669
sg75
g641
sg68
(lp670
g61
(g82
g63
NtRp671
(dp672
g66
(dp673
g86
g87
ssg75
g667
sg68
(lp674
S'applications_parent'
p675
asbag61
(g82
g63
NtRp676
(dp677
g66
(dp678
g93
g94
ssg75
g667
sg68
(lp679
S':'
asbag61
(g82
g63
NtRp680
(dp681
g66
(dp682
sg75
g667
sg68
(lp683
g61
(g62
g63
NtRp684
(dp685
g66
(dp686
g74
I4
ssg75
g680
sg68
(lp687
S'D:\\workspace\\CA\\IgoR\\C_Sources\\Server\\igor-assistant-ca-2012'
p688
asbasbasbag61
(g77
g63
NtRp689
(dp690
g66
(dp691
sg75
g641
sg68
(lp692
g61
(g82
g63
NtRp693
(dp694
g66
(dp695
g86
g87
ssg75
g689
sg68
(lp696
S'cmd_args'
p697
asbag61
(g82
g63
NtRp698
(dp699
g66
(dp700
g93
g94
ssg75
g689
sg68
(lp701
S':'
asbag61
(g82
g63
NtRp702
(dp703
g66
(dp704
sg75
g689
sg68
(lp705
g61
(g62
g63
NtRp706
(dp707
g66
(dp708
g74
I4
ssg75
g702
sg68
(lp709
g61
(g70
g63
NtRp710
(dp711
g66
(dp712
g74
I3
ssg75
Nsg68
(lp713
g61
(g77
g63
NtRp714
(dp715
g66
(dp716
sg75
g710
sg68
(lp717
g61
(g82
g63
NtRp718
(dp719
g66
(dp720
sg75
g714
sg68
(lp721
g61
(g62
g63
NtRp722
(dp723
g66
(dp724
g74
I3
ssg75
g718
sg68
(lp725
S'startserver'
p726
asbasbasbasbasbasbasbag61
(g77
g63
NtRp727
(dp728
g66
(dp729
sg75
g641
sg68
(lp730
g61
(g82
g63
NtRp731
(dp732
g66
(dp733
g86
g87
ssg75
g727
sg68
(lp734
S'cmd_options'
p735
asbag61
(g82
g63
NtRp736
(dp737
g66
(dp738
g93
g94
ssg75
g727
sg68
(lp739
S':'
asbag61
(g82
g63
NtRp740
(dp741
g66
(dp742
sg75
g727
sg68
(lp743
g61
(g62
g63
NtRp744
(dp745
g66
(dp746
g74
I4
ssg75
g740
sg68
(lp747
S"<Values at 0x3c35488: {'verbose': False, 'ip': '127.0.0.1', 'shutdown_timeout': 5, 'taskbar': False, 'nocron': False, 'pid_filename': 'httpserver.pid', 'maxthreads': None, 'softcron': False, 'server_name': 'PHUCNH-PC', 'bpython': False, 'nogui': False, 'port': 8000, 'extcron': False, 'debuglevel': 30, 'test': None, 'folder': 'D:\\\\workspace\\\\CA\\\\IgoR\\\\C_Sources\\\\Server\\\\igor-assistant-ca-2012', 'config': '', 'import_models': False, 'winservice': '', 'shell': None, 'run': '', 'log_filename': 'httpserver.log', 'args': [''], 'socket_timeout': 5, 'ssl_ca_certificate': None, 'scheduler': None, 'profiler_filename': None, 'ssl_private_key': '', 'password': '<ask>', 'request_queue_size': 5, 'ssl_certificate': '', 'cronjob': False, 'numthreads': None, 'quiet': False, 'interfaces': None, 'minthreads': None, 'timeout': 10, 'plain': False, 'nobanner': False}>"
p748
asbasbasbag61
(g77
g63
NtRp749
(dp750
g66
(dp751
sg75
g641
sg68
(lp752
g61
(g82
g63
NtRp753
(dp754
g66
(dp755
g86
g87
ssg75
g749
sg68
(lp756
S'db_sessions'
p757
asbag61
(g82
g63
NtRp758
(dp759
g66
(dp760
g93
g94
ssg75
g749
sg68
(lp761
S':'
asbag61
(g82
g63
NtRp762
(dp763
g66
(dp764
sg75
g749
sg68
(lp765
g61
(g62
g63
NtRp766
(dp767
g66
(dp768
g74
I4
ssg75
g762
sg68
(lp769
S'set([])'
p770
asbasbasbag61
(g77
g63
NtRp771
(dp772
g66
(dp773
sg75
g641
sg68
(lp774
g61
(g82
g63
NtRp775
(dp776
g66
(dp777
g86
g87
ssg75
g771
sg68
(lp778
S'debugging'
p779
asbag61
(g82
g63
NtRp780
(dp781
g66
(dp782
g93
g94
ssg75
g771
sg68
(lp783
S':'
asbag61
(g82
g63
NtRp784
(dp785
g66
(dp786
sg75
g771
sg68
(lp787
g61
(g62
g63
NtRp788
(dp789
g66
(dp790
g74
I4
ssg75
g784
sg68
(lp791
g104
asbasbasbag61
(g77
g63
NtRp792
(dp793
g66
(dp794
sg75
g641
sg68
(lp795
g61
(g82
g63
NtRp796
(dp797
g66
(dp798
g86
g87
ssg75
g792
sg68
(lp799
S'gluon_parent'
p800
asbag61
(g82
g63
NtRp801
(dp802
g66
(dp803
g93
g94
ssg75
g792
sg68
(lp804
S':'
asbag61
(g82
g63
NtRp805
(dp806
g66
(dp807
sg75
g792
sg68
(lp808
g61
(g62
g63
NtRp809
(dp810
g66
(dp811
g74
I4
ssg75
g805
sg68
(lp812
S'D:\\workspace\\CA\\IgoR\\C_Sources\\Server\\igor-assistant-ca-2012'
p813
asbasbasbag61
(g77
g63
NtRp814
(dp815
g66
(dp816
sg75
g641
sg68
(lp817
g61
(g82
g63
NtRp818
(dp819
g66
(dp820
g86
g87
ssg75
g814
sg68
(lp821
S'http_accept'
p822
asbag61
(g82
g63
NtRp823
(dp824
g66
(dp825
g93
g94
ssg75
g814
sg68
(lp826
S':'
asbag61
(g82
g63
NtRp827
(dp828
g66
(dp829
sg75
g814
sg68
(lp830
g61
(g62
g63
NtRp831
(dp832
g66
(dp833
g74
I4
ssg75
g827
sg68
(lp834
S'text/html,application/xhtml+xml,application/xml;q=0.9,*/*;q=0.8'
p835
asbasbasbag61
(g77
g63
NtRp836
(dp837
g66
(dp838
sg75
g641
sg68
(lp839
g61
(g82
g63
NtRp840
(dp841
g66
(dp842
g86
g87
ssg75
g836
sg68
(lp843
S'http_accept_charset'
p844
asbag61
(g82
g63
NtRp845
(dp846
g66
(dp847
g93
g94
ssg75
g836
sg68
(lp848
S':'
asbag61
(g82
g63
NtRp849
(dp850
g66
(dp851
sg75
g836
sg68
(lp852
g61
(g62
g63
NtRp853
(dp854
g66
(dp855
g74
I4
ssg75
g849
sg68
(lp856
S'UTF-8,*;q=0.5'
p857
asbasbasbag61
(g77
g63
NtRp858
(dp859
g66
(dp860
sg75
g641
sg68
(lp861
g61
(g82
g63
NtRp862
(dp863
g66
(dp864
g86
g87
ssg75
g858
sg68
(lp865
S'http_accept_encoding'
p866
asbag61
(g82
g63
NtRp867
(dp868
g66
(dp869
g93
g94
ssg75
g858
sg68
(lp870
S':'
asbag61
(g82
g63
NtRp871
(dp872
g66
(dp873
sg75
g858
sg68
(lp874
g61
(g62
g63
NtRp875
(dp876
g66
(dp877
g74
I4
ssg75
g871
sg68
(lp878
S'gzip,deflate,sdch'
p879
asbasbasbag61
(g77
g63
NtRp880
(dp881
g66
(dp882
sg75
g641
sg68
(lp883
g61
(g82
g63
NtRp884
(dp885
g66
(dp886
g86
g87
ssg75
g880
sg68
(lp887
S'http_accept_language'
p888
asbag61
(g82
g63
NtRp889
(dp890
g66
(dp891
g93
g94
ssg75
g880
sg68
(lp892
S':'
asbag61
(g82
g63
NtRp893
(dp894
g66
(dp895
sg75
g880
sg68
(lp896
g61
(g62
g63
NtRp897
(dp898
g66
(dp899
g74
I4
ssg75
g893
sg68
(lp900
S'en-US,en;q=0.8,vi;q=0.6,fr-FR;q=0.4,fr;q=0.2'
p901
asbasbasbag61
(g77
g63
NtRp902
(dp903
g66
(dp904
sg75
g641
sg68
(lp905
g61
(g82
g63
NtRp906
(dp907
g66
(dp908
g86
g87
ssg75
g902
sg68
(lp909
S'http_cache_control'
p910
asbag61
(g82
g63
NtRp911
(dp912
g66
(dp913
g93
g94
ssg75
g902
sg68
(lp914
S':'
asbag61
(g82
g63
NtRp915
(dp916
g66
(dp917
sg75
g902
sg68
(lp918
g61
(g62
g63
NtRp919
(dp920
g66
(dp921
g74
I4
ssg75
g915
sg68
(lp922
S'max-age=0'
p923
asbasbasbag61
(g77
g63
NtRp924
(dp925
g66
(dp926
sg75
g641
sg68
(lp927
g61
(g82
g63
NtRp928
(dp929
g66
(dp930
g86
g87
ssg75
g924
sg68
(lp931
S'http_connection'
p932
asbag61
(g82
g63
NtRp933
(dp934
g66
(dp935
g93
g94
ssg75
g924
sg68
(lp936
S':'
asbag61
(g82
g63
NtRp937
(dp938
g66
(dp939
sg75
g924
sg68
(lp940
g61
(g62
g63
NtRp941
(dp942
g66
(dp943
g74
I4
ssg75
g937
sg68
(lp944
S'keep-alive'
p945
asbasbasbag61
(g77
g63
NtRp946
(dp947
g66
(dp948
sg75
g641
sg68
(lp949
g61
(g82
g63
NtRp950
(dp951
g66
(dp952
g86
g87
ssg75
g946
sg68
(lp953
S'http_cookie'
p954
asbag61
(g82
g63
NtRp955
(dp956
g66
(dp957
g93
g94
ssg75
g946
sg68
(lp958
S':'
asbag61
(g82
g63
NtRp959
(dp960
g66
(dp961
sg75
g946
sg68
(lp962
g61
(g62
g63
NtRp963
(dp964
g66
(dp965
g74
I4
ssg75
g959
sg68
(lp966
S'session_id_welcome=127.0.0.1-e120e2e5-d070-4632-8b49-659d8cb41099; session_id_admin=127.0.0.1-be74e7d4-501c-4b26-bdae-0bb40310c7a7'
p967
asbasbasbag61
(g77
g63
NtRp968
(dp969
g66
(dp970
sg75
g641
sg68
(lp971
g61
(g82
g63
NtRp972
(dp973
g66
(dp974
g86
g87
ssg75
g968
sg68
(lp975
S'http_host'
p976
asbag61
(g82
g63
NtRp977
(dp978
g66
(dp979
g93
g94
ssg75
g968
sg68
(lp980
S':'
asbag61
(g82
g63
NtRp981
(dp982
g66
(dp983
sg75
g968
sg68
(lp984
g61
(g62
g63
NtRp985
(dp986
g66
(dp987
g74
I4
ssg75
g981
sg68
(lp988
S'127.0.0.1:8000'
p989
asbasbasbag61
(g77
g63
NtRp990
(dp991
g66
(dp992
sg75
g641
sg68
(lp993
g61
(g82
g63
NtRp994
(dp995
g66
(dp996
g86
g87
ssg75
g990
sg68
(lp997
S'http_user_agent'
p998
asbag61
(g82
g63
NtRp999
(dp1000
g66
(dp1001
g93
g94
ssg75
g990
sg68
(lp1002
S':'
asbag61
(g82
g63
NtRp1003
(dp1004
g66
(dp1005
sg75
g990
sg68
(lp1006
g61
(g62
g63
NtRp1007
(dp1008
g66
(dp1009
g74
I4
ssg75
g1003
sg68
(lp1010
S'Mozilla/5.0 (Windows NT 6.1; WOW64) AppleWebKit/537.1 (KHTML, like Gecko) Chrome/21.0.1180.60 Safari/537.1'
p1011
asbasbasbag61
(g77
g63
NtRp1012
(dp1013
g66
(dp1014
sg75
g641
sg68
(lp1015
g61
(g82
g63
NtRp1016
(dp1017
g66
(dp1018
g86
g87
ssg75
g1012
sg68
(lp1019
S'is_jython'
p1020
asbag61
(g82
g63
NtRp1021
(dp1022
g66
(dp1023
g93
g94
ssg75
g1012
sg68
(lp1024
S':'
asbag61
(g82
g63
NtRp1025
(dp1026
g66
(dp1027
sg75
g1012
sg68
(lp1028
g61
(g62
g63
NtRp1029
(dp1030
g66
(dp1031
g74
I4
ssg75
g1025
sg68
(lp1032
g104
asbasbasbag61
(g77
g63
NtRp1033
(dp1034
g66
(dp1035
sg75
g641
sg68
(lp1036
g61
(g82
g63
NtRp1037
(dp1038
g66
(dp1039
g86
g87
ssg75
g1033
sg68
(lp1040
S'is_pypy'
p1041
asbag61
(g82
g63
NtRp1042
(dp1043
g66
(dp1044
g93
g94
ssg75
g1033
sg68
(lp1045
S':'
asbag61
(g82
g63
NtRp1046
(dp1047
g66
(dp1048
sg75
g1033
sg68
(lp1049
g61
(g62
g63
NtRp1050
(dp1051
g66
(dp1052
g74
I4
ssg75
g1046
sg68
(lp1053
g104
asbasbasbag61
(g77
g63
NtRp1054
(dp1055
g66
(dp1056
sg75
g641
sg68
(lp1057
g61
(g82
g63
NtRp1058
(dp1059
g66
(dp1060
g86
g87
ssg75
g1054
sg68
(lp1061
S'path_info'
p1062
asbag61
(g82
g63
NtRp1063
(dp1064
g66
(dp1065
g93
g94
ssg75
g1054
sg68
(lp1066
S':'
asbag61
(g82
g63
NtRp1067
(dp1068
g66
(dp1069
sg75
g1054
sg68
(lp1070
g61
(g62
g63
NtRp1071
(dp1072
g66
(dp1073
g74
I4
ssg75
g1067
sg68
(lp1074
S'/igor/subject/get_all_subjects'
p1075
asbasbasbag61
(g77
g63
NtRp1076
(dp1077
g66
(dp1078
sg75
g641
sg68
(lp1079
g61
(g82
g63
NtRp1080
(dp1081
g66
(dp1082
g86
g87
ssg75
g1076
sg68
(lp1083
S'query_string'
p1084
asbag61
(g82
g63
NtRp1085
(dp1086
g66
(dp1087
g93
g94
ssg75
g1076
sg68
(lp1088
S':'
asbag61
(g82
g63
NtRp1089
(dp1090
g66
(dp1091
sg75
g1076
sg68
(lp1092
g61
(g62
g63
NtRp1093
(dp1094
g66
(dp1095
g74
I4
ssg75
g1089
sg68
(lp1096
S''
asbasbasbag61
(g77
g63
NtRp1097
(dp1098
g66
(dp1099
sg75
g641
sg68
(lp1100
g61
(g82
g63
NtRp1101
(dp1102
g66
(dp1103
g86
g87
ssg75
g1097
sg68
(lp1104
S'remote_addr'
p1105
asbag61
(g82
g63
NtRp1106
(dp1107
g66
(dp1108
g93
g94
ssg75
g1097
sg68
(lp1109
S':'
asbag61
(g82
g63
NtRp1110
(dp1111
g66
(dp1112
sg75
g1097
sg68
(lp1113
g61
(g62
g63
NtRp1114
(dp1115
g66
(dp1116
g74
I4
ssg75
g1110
sg68
(lp1117
g194
asbasbasbag61
(g77
g63
NtRp1118
(dp1119
g66
(dp1120
sg75
g641
sg68
(lp1121
g61
(g82
g63
NtRp1122
(dp1123
g66
(dp1124
g86
g87
ssg75
g1118
sg68
(lp1125
S'remote_port'
p1126
asbag61
(g82
g63
NtRp1127
(dp1128
g66
(dp1129
g93
g94
ssg75
g1118
sg68
(lp1130
S':'
asbag61
(g82
g63
NtRp1131
(dp1132
g66
(dp1133
sg75
g1118
sg68
(lp1134
g61
(g62
g63
NtRp1135
(dp1136
g66
(dp1137
g74
I4
ssg75
g1131
sg68
(lp1138
S'2610'
p1139
asbasbasbag61
(g77
g63
NtRp1140
(dp1141
g66
(dp1142
sg75
g641
sg68
(lp1143
g61
(g82
g63
NtRp1144
(dp1145
g66
(dp1146
g86
g87
ssg75
g1140
sg68
(lp1147
S'request_method'
p1148
asbag61
(g82
g63
NtRp1149
(dp1150
g66
(dp1151
g93
g94
ssg75
g1140
sg68
(lp1152
S':'
asbag61
(g82
g63
NtRp1153
(dp1154
g66
(dp1155
sg75
g1140
sg68
(lp1156
g61
(g62
g63
NtRp1157
(dp1158
g66
(dp1159
g74
I4
ssg75
g1153
sg68
(lp1160
S'GET'
p1161
asbasbasbag61
(g77
g63
NtRp1162
(dp1163
g66
(dp1164
sg75
g641
sg68
(lp1165
g61
(g82
g63
NtRp1166
(dp1167
g66
(dp1168
g86
g87
ssg75
g1162
sg68
(lp1169
S'script_name'
p1170
asbag61
(g82
g63
NtRp1171
(dp1172
g66
(dp1173
g93
g94
ssg75
g1162
sg68
(lp1174
S':'
asbag61
(g82
g63
NtRp1175
(dp1176
g66
(dp1177
sg75
g1162
sg68
(lp1178
g61
(g62
g63
NtRp1179
(dp1180
g66
(dp1181
g74
I4
ssg75
g1175
sg68
(lp1182
S''
asbasbasbag61
(g77
g63
NtRp1183
(dp1184
g66
(dp1185
sg75
g641
sg68
(lp1186
g61
(g82
g63
NtRp1187
(dp1188
g66
(dp1189
g86
g87
ssg75
g1183
sg68
(lp1190
S'server_name'
p1191
asbag61
(g82
g63
NtRp1192
(dp1193
g66
(dp1194
g93
g94
ssg75
g1183
sg68
(lp1195
S':'
asbag61
(g82
g63
NtRp1196
(dp1197
g66
(dp1198
sg75
g1183
sg68
(lp1199
g61
(g62
g63
NtRp1200
(dp1201
g66
(dp1202
g74
I4
ssg75
g1196
sg68
(lp1203
S'PHUCNH-PC'
p1204
asbasbasbag61
(g77
g63
NtRp1205
(dp1206
g66
(dp1207
sg75
g641
sg68
(lp1208
g61
(g82
g63
NtRp1209
(dp1210
g66
(dp1211
g86
g87
ssg75
g1205
sg68
(lp1212
S'server_port'
p1213
asbag61
(g82
g63
NtRp1214
(dp1215
g66
(dp1216
g93
g94
ssg75
g1205
sg68
(lp1217
S':'
asbag61
(g82
g63
NtRp1218
(dp1219
g66
(dp1220
sg75
g1205
sg68
(lp1221
g61
(g62
g63
NtRp1222
(dp1223
g66
(dp1224
g74
I4
ssg75
g1218
sg68
(lp1225
S'8000'
p1226
asbasbasbag61
(g77
g63
NtRp1227
(dp1228
g66
(dp1229
sg75
g641
sg68
(lp1230
g61
(g82
g63
NtRp1231
(dp1232
g66
(dp1233
g86
g87
ssg75
g1227
sg68
(lp1234
S'server_protocol'
p1235
asbag61
(g82
g63
NtRp1236
(dp1237
g66
(dp1238
g93
g94
ssg75
g1227
sg68
(lp1239
S':'
asbag61
(g82
g63
NtRp1240
(dp1241
g66
(dp1242
sg75
g1227
sg68
(lp1243
g61
(g62
g63
NtRp1244
(dp1245
g66
(dp1246
g74
I4
ssg75
g1240
sg68
(lp1247
S'HTTP/1.1'
p1248
asbasbasbag61
(g77
g63
NtRp1249
(dp1250
g66
(dp1251
sg75
g641
sg68
(lp1252
g61
(g82
g63
NtRp1253
(dp1254
g66
(dp1255
g86
g87
ssg75
g1249
sg68
(lp1256
S'server_software'
p1257
asbag61
(g82
g63
NtRp1258
(dp1259
g66
(dp1260
g93
g94
ssg75
g1249
sg68
(lp1261
S':'
asbag61
(g82
g63
NtRp1262
(dp1263
g66
(dp1264
sg75
g1249
sg68
(lp1265
g61
(g62
g63
NtRp1266
(dp1267
g66
(dp1268
g74
I4
ssg75
g1262
sg68
(lp1269
S'Rocket 1.2.4'
p1270
asbasbasbag61
(g77
g63
NtRp1271
(dp1272
g66
(dp1273
sg75
g641
sg68
(lp1274
g61
(g82
g63
NtRp1275
(dp1276
g66
(dp1277
g86
g87
ssg75
g1271
sg68
(lp1278
S'web2py_crontype'
p1279
asbag61
(g82
g63
NtRp1280
(dp1281
g66
(dp1282
g93
g94
ssg75
g1271
sg68
(lp1283
S':'
asbag61
(g82
g63
NtRp1284
(dp1285
g66
(dp1286
sg75
g1271
sg68
(lp1287
g61
(g62
g63
NtRp1288
(dp1289
g66
(dp1290
g74
I4
ssg75
g1284
sg68
(lp1291
S'hard'
p1292
asbasbasbag61
(g77
g63
NtRp1293
(dp1294
g66
(dp1295
sg75
g641
sg68
(lp1296
g61
(g82
g63
NtRp1297
(dp1298
g66
(dp1299
g86
g87
ssg75
g1293
sg68
(lp1300
S'web2py_path'
p1301
asbag61
(g82
g63
NtRp1302
(dp1303
g66
(dp1304
g93
g94
ssg75
g1293
sg68
(lp1305
S':'
asbag61
(g82
g63
NtRp1306
(dp1307
g66
(dp1308
sg75
g1293
sg68
(lp1309
g61
(g62
g63
NtRp1310
(dp1311
g66
(dp1312
g74
I4
ssg75
g1306
sg68
(lp1313
g688
asbasbasbag61
(g77
g63
NtRp1314
(dp1315
g66
(dp1316
sg75
g641
sg68
(lp1317
g61
(g82
g63
NtRp1318
(dp1319
g66
(dp1320
g86
g87
ssg75
g1314
sg68
(lp1321
S'web2py_version'
p1322
asbag61
(g82
g63
NtRp1323
(dp1324
g66
(dp1325
g93
g94
ssg75
g1314
sg68
(lp1326
S':'
asbag61
(g82
g63
NtRp1327
(dp1328
g66
(dp1329
sg75
g1314
sg68
(lp1330
g61
(g62
g63
NtRp1331
(dp1332
g66
(dp1333
g74
I4
ssg75
g1327
sg68
(lp1334
g61
(g70
g63
NtRp1335
(dp1336
g66
(dp1337
g74
I3
ssg75
Nsg68
(lp1338
g61
(g77
g63
NtRp1339
(dp1340
g66
(dp1341
sg75
g1335
sg68
(lp1342
g61
(g82
g63
NtRp1343
(dp1344
g66
(dp1345
sg75
g1339
sg68
(lp1346
g61
(g62
g63
NtRp1347
(dp1348
g66
(dp1349
g74
I3
ssg75
g1343
sg68
(lp1350
S'1'
asbasbasbag61
(g77
g63
NtRp1351
(dp1352
g66
(dp1353
sg75
g1335
sg68
(lp1354
g61
(g82
g63
NtRp1355
(dp1356
g66
(dp1357
sg75
g1351
sg68
(lp1358
g61
(g62
g63
NtRp1359
(dp1360
g66
(dp1361
g74
I3
ssg75
g1355
sg68
(lp1362
S'99'
p1363
asbasbasbag61
(g77
g63
NtRp1364
(dp1365
g66
(dp1366
sg75
g1335
sg68
(lp1367
g61
(g82
g63
NtRp1368
(dp1369
g66
(dp1370
sg75
g1364
sg68
(lp1371
g61
(g62
g63
NtRp1372
(dp1373
g66
(dp1374
g74
I3
ssg75
g1368
sg68
(lp1375
S'7'
asbasbasbag61
(g77
g63
NtRp1376
(dp1377
g66
(dp1378
sg75
g1335
sg68
(lp1379
g61
(g82
g63
NtRp1380
(dp1381
g66
(dp1382
sg75
g1376
sg68
(lp1383
g61
(g62
g63
NtRp1384
(dp1385
g66
(dp1386
g74
I3
ssg75
g1380
sg68
(lp1387
S'datetime.datetime(2012, 3, 4, 22, 12, 8)'
p1388
asbasbasbag61
(g77
g63
NtRp1389
(dp1390
g66
(dp1391
sg75
g1335
sg68
(lp1392
g61
(g82
g63
NtRp1393
(dp1394
g66
(dp1395
sg75
g1389
sg68
(lp1396
g61
(g62
g63
NtRp1397
(dp1398
g66
(dp1399
g74
I3
ssg75
g1393
sg68
(lp1400
S'stable'
p1401
asbasbasbasbasbasbasbag61
(g77
g63
NtRp1402
(dp1403
g66
(dp1404
sg75
g641
sg68
(lp1405
g61
(g82
g63
NtRp1406
(dp1407
g66
(dp1408
g86
g87
ssg75
g1402
sg68
(lp1409
S'wsgi_errors'
p1410
asbag61
(g82
g63
NtRp1411
(dp1412
g66
(dp1413
g93
g94
ssg75
g1402
sg68
(lp1414
S':'
asbag61
(g82
g63
NtRp1415
(dp1416
g66
(dp1417
sg75
g1402
sg68
(lp1418
g61
(g62
g63
NtRp1419
(dp1420
g66
(dp1421
g74
I4
ssg75
g1415
sg68
(lp1422
S"<open file '<stderr>', mode 'w' at 0x0000000001CFE1E0>"
p1423
asbasbasbag61
(g77
g63
NtRp1424
(dp1425
g66
(dp1426
sg75
g641
sg68
(lp1427
g61
(g82
g63
NtRp1428
(dp1429
g66
(dp1430
g86
g87
ssg75
g1424
sg68
(lp1431
S'wsgi_file_wrapper'
p1432
asbag61
(g82
g63
NtRp1433
(dp1434
g66
(dp1435
g93
g94
ssg75
g1424
sg68
(lp1436
S':'
asbag61
(g82
g63
NtRp1437
(dp1438
g66
(dp1439
sg75
g1424
sg68
(lp1440
g61
(g62
g63
NtRp1441
(dp1442
g66
(dp1443
g74
I4
ssg75
g1437
sg68
(lp1444
S'<class wsgiref.util.FileWrapper at 0x000000000404E588>'
p1445
asbasbasbag61
(g77
g63
NtRp1446
(dp1447
g66
(dp1448
sg75
g641
sg68
(lp1449
g61
(g82
g63
NtRp1450
(dp1451
g66
(dp1452
g86
g87
ssg75
g1446
sg68
(lp1453
S'wsgi_input'
p1454
asbag61
(g82
g63
NtRp1455
(dp1456
g66
(dp1457
g93
g94
ssg75
g1446
sg68
(lp1458
S':'
asbag61
(g82
g63
NtRp1459
(dp1460
g66
(dp1461
sg75
g1446
sg68
(lp1462
g61
(g62
g63
NtRp1463
(dp1464
g66
(dp1465
g74
I4
ssg75
g1459
sg68
(lp1466
S'<socket._fileobject object at 0x0000000003DB01B0>'
p1467
asbasbasbag61
(g77
g63
NtRp1468
(dp1469
g66
(dp1470
sg75
g641
sg68
(lp1471
g61
(g82
g63
NtRp1472
(dp1473
g66
(dp1474
g86
g87
ssg75
g1468
sg68
(lp1475
S'wsgi_multiprocess'
p1476
asbag61
(g82
g63
NtRp1477
(dp1478
g66
(dp1479
g93
g94
ssg75
g1468
sg68
(lp1480
S':'
asbag61
(g82
g63
NtRp1481
(dp1482
g66
(dp1483
sg75
g1468
sg68
(lp1484
g61
(g62
g63
NtRp1485
(dp1486
g66
(dp1487
g74
I4
ssg75
g1481
sg68
(lp1488
g104
asbasbasbag61
(g77
g63
NtRp1489
(dp1490
g66
(dp1491
sg75
g641
sg68
(lp1492
g61
(g82
g63
NtRp1493
(dp1494
g66
(dp1495
g86
g87
ssg75
g1489
sg68
(lp1496
S'wsgi_multithread'
p1497
asbag61
(g82
g63
NtRp1498
(dp1499
g66
(dp1500
g93
g94
ssg75
g1489
sg68
(lp1501
S':'
asbag61
(g82
g63
NtRp1502
(dp1503
g66
(dp1504
sg75
g1489
sg68
(lp1505
g61
(g62
g63
NtRp1506
(dp1507
g66
(dp1508
g74
I4
ssg75
g1502
sg68
(lp1509
S'True'
p1510
asbasbasbag61
(g77
g63
NtRp1511
(dp1512
g66
(dp1513
sg75
g641
sg68
(lp1514
g61
(g82
g63
NtRp1515
(dp1516
g66
(dp1517
g86
g87
ssg75
g1511
sg68
(lp1518
S'wsgi_run_once'
p1519
asbag61
(g82
g63
NtRp1520
(dp1521
g66
(dp1522
g93
g94
ssg75
g1511
sg68
(lp1523
S':'
asbag61
(g82
g63
NtRp1524
(dp1525
g66
(dp1526
sg75
g1511
sg68
(lp1527
g61
(g62
g63
NtRp1528
(dp1529
g66
(dp1530
g74
I4
ssg75
g1524
sg68
(lp1531
g104
asbasbasbag61
(g77
g63
NtRp1532
(dp1533
g66
(dp1534
sg75
g641
sg68
(lp1535
g61
(g82
g63
NtRp1536
(dp1537
g66
(dp1538
g86
g87
ssg75
g1532
sg68
(lp1539
S'wsgi_url_scheme'
p1540
asbag61
(g82
g63
NtRp1541
(dp1542
g66
(dp1543
g93
g94
ssg75
g1532
sg68
(lp1544
S':'
asbag61
(g82
g63
NtRp1545
(dp1546
g66
(dp1547
sg75
g1532
sg68
(lp1548
g61
(g62
g63
NtRp1549
(dp1550
g66
(dp1551
g74
I4
ssg75
g1545
sg68
(lp1552
S'http'
p1553
asbasbasbag61
(g77
g63
NtRp1554
(dp1555
g66
(dp1556
sg75
g641
sg68
(lp1557
g61
(g82
g63
NtRp1558
(dp1559
g66
(dp1560
g86
g87
ssg75
g1554
sg68
(lp1561
S'wsgi_version'
p1562
asbag61
(g82
g63
NtRp1563
(dp1564
g66
(dp1565
g93
g94
ssg75
g1554
sg68
(lp1566
S':'
asbag61
(g82
g63
NtRp1567
(dp1568
g66
(dp1569
sg75
g1554
sg68
(lp1570
g61
(g62
g63
NtRp1571
(dp1572
g66
(dp1573
g74
I4
ssg75
g1567
sg68
(lp1574
g61
(g70
g63
NtRp1575
(dp1576
g66
(dp1577
g74
I3
ssg75
Nsg68
(lp1578
g61
(g77
g63
NtRp1579
(dp1580
g66
(dp1581
sg75
g1575
sg68
(lp1582
g61
(g82
g63
NtRp1583
(dp1584
g66
(dp1585
sg75
g1579
sg68
(lp1586
g61
(g62
g63
NtRp1587
(dp1588
g66
(dp1589
g74
I3
ssg75
g1583
sg68
(lp1590
S'1'
asbasbasbag61
(g77
g63
NtRp1591
(dp1592
g66
(dp1593
sg75
g1575
sg68
(lp1594
g61
(g82
g63
NtRp1595
(dp1596
g66
(dp1597
sg75
g1591
sg68
(lp1598
g61
(g62
g63
NtRp1599
(dp1600
g66
(dp1601
g74
I3
ssg75
g1595
sg68
(lp1602
S'0'
asbasbasbasbasbasbasbasbasbasbasbag61
(g77
g63
NtRp1603
(dp1604
g66
(dp1605
sg75
g71
sg68
(lp1606
g61
(g82
g63
NtRp1607
(dp1608
g66
(dp1609
g86
g87
ssg75
g1603
sg68
(lp1610
S'extension'
p1611
asbag61
(g82
g63
NtRp1612
(dp1613
g66
(dp1614
g93
g94
ssg75
g1603
sg68
(lp1615
S':'
asbag61
(g82
g63
NtRp1616
(dp1617
g66
(dp1618
sg75
g1603
sg68
(lp1619
g61
(g62
g63
NtRp1620
(dp1621
g66
(dp1622
g74
I5
ssg75
g1616
sg68
(lp1623
S'html'
p1624
asbasbasbag61
(g77
g63
NtRp1625
(dp1626
g66
(dp1627
sg75
g71
sg68
(lp1628
g61
(g82
g63
NtRp1629
(dp1630
g66
(dp1631
g86
g87
ssg75
g1625
sg68
(lp1632
S'folder'
p1633
asbag61
(g82
g63
NtRp1634
(dp1635
g66
(dp1636
g93
g94
ssg75
g1625
sg68
(lp1637
S':'
asbag61
(g82
g63
NtRp1638
(dp1639
g66
(dp1640
sg75
g1625
sg68
(lp1641
g61
(g62
g63
NtRp1642
(dp1643
g66
(dp1644
g74
I5
ssg75
g1638
sg68
(lp1645
S'D:\\workspace\\CA\\IgoR\\C_Sources\\Server\\igor-assistant-ca-2012\\applications\\igor\\'
p1646
asbasbasbag61
(g77
g63
NtRp1647
(dp1648
g66
(dp1649
sg75
g71
sg68
(lp1650
g61
(g82
g63
NtRp1651
(dp1652
g66
(dp1653
g86
g87
ssg75
g1647
sg68
(lp1654
S'function'
p1655
asbag61
(g82
g63
NtRp1656
(dp1657
g66
(dp1658
g93
g94
ssg75
g1647
sg68
(lp1659
S':'
asbag61
(g82
g63
NtRp1660
(dp1661
g66
(dp1662
sg75
g1647
sg68
(lp1663
g61
(g62
g63
NtRp1664
(dp1665
g66
(dp1666
g74
I5
ssg75
g1660
sg68
(lp1667
S'get_all_subjects'
p1668
asbasbasbag61
(g77
g63
NtRp1669
(dp1670
g66
(dp1671
sg75
g71
sg68
(lp1672
g61
(g82
g63
NtRp1673
(dp1674
g66
(dp1675
g86
g87
ssg75
g1669
sg68
(lp1676
S'get_vars'
p1677
asbag61
(g82
g63
NtRp1678
(dp1679
g66
(dp1680
g93
g94
ssg75
g1669
sg68
(lp1681
S':'
asbag61
(g82
g63
NtRp1682
(dp1683
g66
(dp1684
sg75
g1669
sg68
(lp1685
g61
(g62
g63
NtRp1686
(dp1687
g66
(dp1688
g74
I5
ssg75
g1682
sg68
(lp1689
g61
(g70
g63
NtRp1690
(dp1691
g66
(dp1692
g74
I4
ssg75
Nsg68
(lp1693
sbasbasbasbag61
(g77
g63
NtRp1694
(dp1695
g66
(dp1696
sg75
g71
sg68
(lp1697
g61
(g82
g63
NtRp1698
(dp1699
g66
(dp1700
g86
g87
ssg75
g1694
sg68
(lp1701
S'global_settings'
p1702
asbag61
(g82
g63
NtRp1703
(dp1704
g66
(dp1705
g93
g94
ssg75
g1694
sg68
(lp1706
S':'
asbag61
(g82
g63
NtRp1707
(dp1708
g66
(dp1709
sg75
g1694
sg68
(lp1710
g61
(g62
g63
NtRp1711
(dp1712
g66
(dp1713
g74
I5
ssg75
g1707
sg68
(lp1714
g61
(g70
g63
NtRp1715
(dp1716
g66
(dp1717
g74
I4
ssg75
Nsg68
(lp1718
g61
(g77
g63
NtRp1719
(dp1720
g66
(dp1721
sg75
g1715
sg68
(lp1722
g61
(g82
g63
NtRp1723
(dp1724
g66
(dp1725
g86
g87
ssg75
g1719
sg68
(lp1726
g653
asbag61
(g82
g63
NtRp1727
(dp1728
g66
(dp1729
g93
g94
ssg75
g1719
sg68
(lp1730
S':'
asbag61
(g82
g63
NtRp1731
(dp1732
g66
(dp1733
sg75
g1719
sg68
(lp1734
g61
(g62
g63
NtRp1735
(dp1736
g66
(dp1737
g74
I4
ssg75
g1731
sg68
(lp1738
S"set(['D:\\\\workspace\\\\CA\\\\IgoR\\\\C_Sources\\\\Server\\\\igor-assistant-ca-2012\\\\applications\\\\admin\\\\', 'D:\\\\workspace\\\\CA\\\\IgoR\\\\C_Sources\\\\Server\\\\igor-assistant-ca-2012\\\\applications\\\\igor\\\\', 'D:\\\\workspace\\\\CA\\\\IgoR\\\\C_Sources\\\\Server\\\\igor-assistant-ca-2012\\\\applications\\\\welcome\\\\'])"
p1739
asbasbasbag61
(g77
g63
NtRp1740
(dp1741
g66
(dp1742
sg75
g1715
sg68
(lp1743
g61
(g82
g63
NtRp1744
(dp1745
g66
(dp1746
g86
g87
ssg75
g1740
sg68
(lp1747
g675
asbag61
(g82
g63
NtRp1748
(dp1749
g66
(dp1750
g93
g94
ssg75
g1740
sg68
(lp1751
S':'
asbag61
(g82
g63
NtRp1752
(dp1753
g66
(dp1754
sg75
g1740
sg68
(lp1755
g61
(g62
g63
NtRp1756
(dp1757
g66
(dp1758
g74
I4
ssg75
g1752
sg68
(lp1759
g688
asbasbasbag61
(g77
g63
NtRp1760
(dp1761
g66
(dp1762
sg75
g1715
sg68
(lp1763
g61
(g82
g63
NtRp1764
(dp1765
g66
(dp1766
g86
g87
ssg75
g1760
sg68
(lp1767
g697
asbag61
(g82
g63
NtRp1768
(dp1769
g66
(dp1770
g93
g94
ssg75
g1760
sg68
(lp1771
S':'
asbag61
(g82
g63
NtRp1772
(dp1773
g66
(dp1774
sg75
g1760
sg68
(lp1775
g61
(g62
g63
NtRp1776
(dp1777
g66
(dp1778
g74
I4
ssg75
g1772
sg68
(lp1779
g61
(g70
g63
NtRp1780
(dp1781
g66
(dp1782
g74
I3
ssg75
Nsg68
(lp1783
g61
(g77
g63
NtRp1784
(dp1785
g66
(dp1786
sg75
g1780
sg68
(lp1787
g61
(g82
g63
NtRp1788
(dp1789
g66
(dp1790
sg75
g1784
sg68
(lp1791
g61
(g62
g63
NtRp1792
(dp1793
g66
(dp1794
g74
I3
ssg75
g1788
sg68
(lp1795
g726
asbasbasbasbasbasbasbag61
(g77
g63
NtRp1796
(dp1797
g66
(dp1798
sg75
g1715
sg68
(lp1799
g61
(g82
g63
NtRp1800
(dp1801
g66
(dp1802
g86
g87
ssg75
g1796
sg68
(lp1803
g735
asbag61
(g82
g63
NtRp1804
(dp1805
g66
(dp1806
g93
g94
ssg75
g1796
sg68
(lp1807
S':'
asbag61
(g82
g63
NtRp1808
(dp1809
g66
(dp1810
sg75
g1796
sg68
(lp1811
g61
(g62
g63
NtRp1812
(dp1813
g66
(dp1814
g74
I4
ssg75
g1808
sg68
(lp1815
S"<Values at 0x3c35488: {'verbose': False, 'ip': '127.0.0.1', 'shutdown_timeout': 5, 'taskbar': False, 'nocron': False, 'pid_filename': 'httpserver.pid', 'maxthreads': None, 'softcron': False, 'server_name': 'PHUCNH-PC', 'bpython': False, 'nogui': False, 'port': 8000, 'extcron': False, 'debuglevel': 30, 'test': None, 'folder': 'D:\\\\workspace\\\\CA\\\\IgoR\\\\C_Sources\\\\Server\\\\igor-assistant-ca-2012', 'config': '', 'import_models': False, 'winservice': '', 'shell': None, 'run': '', 'log_filename': 'httpserver.log', 'args': [''], 'socket_timeout': 5, 'ssl_ca_certificate': None, 'scheduler': None, 'profiler_filename': None, 'ssl_private_key': '', 'password': '<ask>', 'request_queue_size': 5, 'ssl_certificate': '', 'cronjob': False, 'numthreads': None, 'quiet': False, 'interfaces': None, 'minthreads': None, 'timeout': 10, 'plain': False, 'nobanner': False}>"
p1816
asbasbasbag61
(g77
g63
NtRp1817
(dp1818
g66
(dp1819
sg75
g1715
sg68
(lp1820
g61
(g82
g63
NtRp1821
(dp1822
g66
(dp1823
g86
g87
ssg75
g1817
sg68
(lp1824
g757
asbag61
(g82
g63
NtRp1825
(dp1826
g66
(dp1827
g93
g94
ssg75
g1817
sg68
(lp1828
S':'
asbag61
(g82
g63
NtRp1829
(dp1830
g66
(dp1831
sg75
g1817
sg68
(lp1832
g61
(g62
g63
NtRp1833
(dp1834
g66
(dp1835
g74
I4
ssg75
g1829
sg68
(lp1836
S'set([])'
p1837
asbasbasbag61
(g77
g63
NtRp1838
(dp1839
g66
(dp1840
sg75
g1715
sg68
(lp1841
g61
(g82
g63
NtRp1842
(dp1843
g66
(dp1844
g86
g87
ssg75
g1838
sg68
(lp1845
g779
asbag61
(g82
g63
NtRp1846
(dp1847
g66
(dp1848
g93
g94
ssg75
g1838
sg68
(lp1849
S':'
asbag61
(g82
g63
NtRp1850
(dp1851
g66
(dp1852
sg75
g1838
sg68
(lp1853
g61
(g62
g63
NtRp1854
(dp1855
g66
(dp1856
g74
I4
ssg75
g1850
sg68
(lp1857
g104
asbasbasbag61
(g77
g63
NtRp1858
(dp1859
g66
(dp1860
sg75
g1715
sg68
(lp1861
g61
(g82
g63
NtRp1862
(dp1863
g66
(dp1864
g86
g87
ssg75
g1858
sg68
(lp1865
g800
asbag61
(g82
g63
NtRp1866
(dp1867
g66
(dp1868
g93
g94
ssg75
g1858
sg68
(lp1869
S':'
asbag61
(g82
g63
NtRp1870
(dp1871
g66
(dp1872
sg75
g1858
sg68
(lp1873
g61
(g62
g63
NtRp1874
(dp1875
g66
(dp1876
g74
I4
ssg75
g1870
sg68
(lp1877
g813
asbasbasbag61
(g77
g63
NtRp1878
(dp1879
g66
(dp1880
sg75
g1715
sg68
(lp1881
g61
(g82
g63
NtRp1882
(dp1883
g66
(dp1884
g86
g87
ssg75
g1878
sg68
(lp1885
g1020
asbag61
(g82
g63
NtRp1886
(dp1887
g66
(dp1888
g93
g94
ssg75
g1878
sg68
(lp1889
S':'
asbag61
(g82
g63
NtRp1890
(dp1891
g66
(dp1892
sg75
g1878
sg68
(lp1893
g61
(g62
g63
NtRp1894
(dp1895
g66
(dp1896
g74
I4
ssg75
g1890
sg68
(lp1897
g104
asbasbasbag61
(g77
g63
NtRp1898
(dp1899
g66
(dp1900
sg75
g1715
sg68
(lp1901
g61
(g82
g63
NtRp1902
(dp1903
g66
(dp1904
g86
g87
ssg75
g1898
sg68
(lp1905
g1041
asbag61
(g82
g63
NtRp1906
(dp1907
g66
(dp1908
g93
g94
ssg75
g1898
sg68
(lp1909
S':'
asbag61
(g82
g63
NtRp1910
(dp1911
g66
(dp1912
sg75
g1898
sg68
(lp1913
g61
(g62
g63
NtRp1914
(dp1915
g66
(dp1916
g74
I4
ssg75
g1910
sg68
(lp1917
g104
asbasbasbag61
(g77
g63
NtRp1918
(dp1919
g66
(dp1920
sg75
g1715
sg68
(lp1921
g61
(g82
g63
NtRp1922
(dp1923
g66
(dp1924
g86
g87
ssg75
g1918
sg68
(lp1925
g1279
asbag61
(g82
g63
NtRp1926
(dp1927
g66
(dp1928
g93
g94
ssg75
g1918
sg68
(lp1929
S':'
asbag61
(g82
g63
NtRp1930
(dp1931
g66
(dp1932
sg75
g1918
sg68
(lp1933
g61
(g62
g63
NtRp1934
(dp1935
g66
(dp1936
g74
I4
ssg75
g1930
sg68
(lp1937
g1292
asbasbasbag61
(g77
g63
NtRp1938
(dp1939
g66
(dp1940
sg75
g1715
sg68
(lp1941
g61
(g82
g63
NtRp1942
(dp1943
g66
(dp1944
g86
g87
ssg75
g1938
sg68
(lp1945
g1322
asbag61
(g82
g63
NtRp1946
(dp1947
g66
(dp1948
g93
g94
ssg75
g1938
sg68
(lp1949
S':'
asbag61
(g82
g63
NtRp1950
(dp1951
g66
(dp1952
sg75
g1938
sg68
(lp1953
g61
(g62
g63
NtRp1954
(dp1955
g66
(dp1956
g74
I4
ssg75
g1950
sg68
(lp1957
g61
(g70
g63
NtRp1958
(dp1959
g66
(dp1960
g74
I3
ssg75
Nsg68
(lp1961
g61
(g77
g63
NtRp1962
(dp1963
g66
(dp1964
sg75
g1958
sg68
(lp1965
g61
(g82
g63
NtRp1966
(dp1967
g66
(dp1968
sg75
g1962
sg68
(lp1969
g61
(g62
g63
NtRp1970
(dp1971
g66
(dp1972
g74
I3
ssg75
g1966
sg68
(lp1973
S'1'
asbasbasbag61
(g77
g63
NtRp1974
(dp1975
g66
(dp1976
sg75
g1958
sg68
(lp1977
g61
(g82
g63
NtRp1978
(dp1979
g66
(dp1980
sg75
g1974
sg68
(lp1981
g61
(g62
g63
NtRp1982
(dp1983
g66
(dp1984
g74
I3
ssg75
g1978
sg68
(lp1985
S'99'
p1986
asbasbasbag61
(g77
g63
NtRp1987
(dp1988
g66
(dp1989
sg75
g1958
sg68
(lp1990
g61
(g82
g63
NtRp1991
(dp1992
g66
(dp1993
sg75
g1987
sg68
(lp1994
g61
(g62
g63
NtRp1995
(dp1996
g66
(dp1997
g74
I3
ssg75
g1991
sg68
(lp1998
S'7'
asbasbasbag61
(g77
g63
NtRp1999
(dp2000
g66
(dp2001
sg75
g1958
sg68
(lp2002
g61
(g82
g63
NtRp2003
(dp2004
g66
(dp2005
sg75
g1999
sg68
(lp2006
g61
(g62
g63
NtRp2007
(dp2008
g66
(dp2009
g74
I3
ssg75
g2003
sg68
(lp2010
S'datetime.datetime(2012, 3, 4, 22, 12, 8)'
p2011
asbasbasbag61
(g77
g63
NtRp2012
(dp2013
g66
(dp2014
sg75
g1958
sg68
(lp2015
g61
(g82
g63
NtRp2016
(dp2017
g66
(dp2018
sg75
g2012
sg68
(lp2019
g61
(g62
g63
NtRp2020
(dp2021
g66
(dp2022
g74
I3
ssg75
g2016
sg68
(lp2023
g1401
asbasbasbasbasbasbasbasbasbasbasbag61
(g77
g63
NtRp2024
(dp2025
g66
(dp2026
sg75
g71
sg68
(lp2027
g61
(g82
g63
NtRp2028
(dp2029
g66
(dp2030
g86
g87
ssg75
g2024
sg68
(lp2031
S'is_https'
p2032
asbag61
(g82
g63
NtRp2033
(dp2034
g66
(dp2035
g93
g94
ssg75
g2024
sg68
(lp2036
S':'
asbag61
(g82
g63
NtRp2037
(dp2038
g66
(dp2039
sg75
g2024
sg68
(lp2040
g61
(g62
g63
NtRp2041
(dp2042
g66
(dp2043
g74
I5
ssg75
g2037
sg68
(lp2044
g104
asbasbasbag61
(g77
g63
NtRp2045
(dp2046
g66
(dp2047
sg75
g71
sg68
(lp2048
g61
(g82
g63
NtRp2049
(dp2050
g66
(dp2051
g86
g87
ssg75
g2045
sg68
(lp2052
S'is_local'
p2053
asbag61
(g82
g63
NtRp2054
(dp2055
g66
(dp2056
g93
g94
ssg75
g2045
sg68
(lp2057
S':'
asbag61
(g82
g63
NtRp2058
(dp2059
g66
(dp2060
sg75
g2045
sg68
(lp2061
g61
(g62
g63
NtRp2062
(dp2063
g66
(dp2064
g74
I5
ssg75
g2058
sg68
(lp2065
g1510
asbasbasbag61
(g77
g63
NtRp2066
(dp2067
g66
(dp2068
sg75
g71
sg68
(lp2069
g61
(g82
g63
NtRp2070
(dp2071
g66
(dp2072
g86
g87
ssg75
g2066
sg68
(lp2073
S'is_restful'
p2074
asbag61
(g82
g63
NtRp2075
(dp2076
g66
(dp2077
g93
g94
ssg75
g2066
sg68
(lp2078
S':'
asbag61
(g82
g63
NtRp2079
(dp2080
g66
(dp2081
sg75
g2066
sg68
(lp2082
g61
(g62
g63
NtRp2083
(dp2084
g66
(dp2085
g74
I5
ssg75
g2079
sg68
(lp2086
g104
asbasbasbag61
(g77
g63
NtRp2087
(dp2088
g66
(dp2089
sg75
g71
sg68
(lp2090
g61
(g82
g63
NtRp2091
(dp2092
g66
(dp2093
g86
g87
ssg75
g2087
sg68
(lp2094
S'now'
p2095
asbag61
(g82
g63
NtRp2096
(dp2097
g66
(dp2098
g93
g94
ssg75
g2087
sg68
(lp2099
S':'
asbag61
(g82
g63
NtRp2100
(dp2101
g66
(dp2102
sg75
g2087
sg68
(lp2103
g61
(g62
g63
NtRp2104
(dp2105
g66
(dp2106
g74
I5
ssg75
g2100
sg68
(lp2107
S'datetime.datetime(2012, 8, 4, 14, 57, 43, 762000)'
p2108
asbasbasbag61
(g77
g63
NtRp2109
(dp2110
g66
(dp2111
sg75
g71
sg68
(lp2112
g61
(g82
g63
NtRp2113
(dp2114
g66
(dp2115
g86
g87
ssg75
g2109
sg68
(lp2116
S'post_vars'
p2117
asbag61
(g82
g63
NtRp2118
(dp2119
g66
(dp2120
g93
g94
ssg75
g2109
sg68
(lp2121
S':'
asbag61
(g82
g63
NtRp2122
(dp2123
g66
(dp2124
sg75
g2109
sg68
(lp2125
g61
(g62
g63
NtRp2126
(dp2127
g66
(dp2128
g74
I5
ssg75
g2122
sg68
(lp2129
g61
(g70
g63
NtRp2130
(dp2131
g66
(dp2132
g74
I4
ssg75
Nsg68
(lp2133
sbasbasbasbag61
(g77
g63
NtRp2134
(dp2135
g66
(dp2136
sg75
g71
sg68
(lp2137
g61
(g82
g63
NtRp2138
(dp2139
g66
(dp2140
g86
g87
ssg75
g2134
sg68
(lp2141
S'url'
p2142
asbag61
(g82
g63
NtRp2143
(dp2144
g66
(dp2145
g93
g94
ssg75
g2134
sg68
(lp2146
S':'
asbag61
(g82
g63
NtRp2147
(dp2148
g66
(dp2149
sg75
g2134
sg68
(lp2150
g61
(g62
g63
NtRp2151
(dp2152
g66
(dp2153
g74
I5
ssg75
g2147
sg68
(lp2154
S'/igor/subject/get_all_subjects'
p2155
asbasbasbag61
(g77
g63
NtRp2156
(dp2157
g66
(dp2158
sg75
g71
sg68
(lp2159
g61
(g82
g63
NtRp2160
(dp2161
g66
(dp2162
g86
g87
ssg75
g2156
sg68
(lp2163
S'utcnow'
p2164
asbag61
(g82
g63
NtRp2165
(dp2166
g66
(dp2167
g93
g94
ssg75
g2156
sg68
(lp2168
S':'
asbag61
(g82
g63
NtRp2169
(dp2170
g66
(dp2171
sg75
g2156
sg68
(lp2172
g61
(g62
g63
NtRp2173
(dp2174
g66
(dp2175
g74
I5
ssg75
g2169
sg68
(lp2176
S'datetime.datetime(2012, 8, 4, 7, 57, 43, 762000)'
p2177
asbasbasbag61
(g77
g63
NtRp2178
(dp2179
g66
(dp2180
sg75
g71
sg68
(lp2181
g61
(g82
g63
NtRp2182
(dp2183
g66
(dp2184
g86
g87
ssg75
g2178
sg68
(lp2185
S'uuid'
p2186
asbag61
(g82
g63
NtRp2187
(dp2188
g66
(dp2189
g93
g94
ssg75
g2178
sg68
(lp2190
S':'
asbag61
(g82
g63
NtRp2191
(dp2192
g66
(dp2193
sg75
g2178
sg68
(lp2194
g61
(g62
g63
NtRp2195
(dp2196
g66
(dp2197
g74
I5
ssg75
g2191
sg68
(lp2198
S'igor/127.0.0.1.2012-08-04.14-57-43.9fa20cf7-e952-4e9f-ae7e-a07b93d7f9ed'
p2199
asbasbasbag61
(g77
g63
NtRp2200
(dp2201
g66
(dp2202
sg75
g71
sg68
(lp2203
g61
(g82
g63
NtRp2204
(dp2205
g66
(dp2206
g86
g87
ssg75
g2200
sg68
(lp2207
S'vars'
p2208
asbag61
(g82
g63
NtRp2209
(dp2210
g66
(dp2211
g93
g94
ssg75
g2200
sg68
(lp2212
S':'
asbag61
(g82
g63
NtRp2213
(dp2214
g66
(dp2215
sg75
g2200
sg68
(lp2216
g61
(g62
g63
NtRp2217
(dp2218
g66
(dp2219
g74
I5
ssg75
g2213
sg68
(lp2220
g61
(g70
g63
NtRp2221
(dp2222
g66
(dp2223
g74
I4
ssg75
Nsg68
(lp2224
sbasbasbasbag61
(g77
g63
NtRp2225
(dp2226
g66
(dp2227
sg75
g71
sg68
(lp2228
g61
(g82
g63
NtRp2229
(dp2230
g66
(dp2231
g86
g87
ssg75
g2225
sg68
(lp2232
S'wsgi'
p2233
asbag61
(g82
g63
NtRp2234
(dp2235
g66
(dp2236
g93
g94
ssg75
g2225
sg68
(lp2237
S':'
asbag61
(g82
g63
NtRp2238
(dp2239
g66
(dp2240
sg75
g2225
sg68
(lp2241
g61
(g62
g63
NtRp2242
(dp2243
g66
(dp2244
g74
I5
ssg75
g2238
sg68
(lp2245
g61
(g70
g63
NtRp2246
(dp2247
g66
(dp2248
g74
I4
ssg75
Nsg68
(lp2249
g61
(g77
g63
NtRp2250
(dp2251
g66
(dp2252
sg75
g2246
sg68
(lp2253
g61
(g82
g63
NtRp2254
(dp2255
g66
(dp2256
g86
g87
ssg75
g2250
sg68
(lp2257
S'environ'
p2258
asbag61
(g82
g63
NtRp2259
(dp2260
g66
(dp2261
g93
g94
ssg75
g2250
sg68
(lp2262
S':'
asbag61
(g82
g63
NtRp2263
(dp2264
g66
(dp2265
sg75
g2250
sg68
(lp2266
g61
(g62
g63
NtRp2267
(dp2268
g66
(dp2269
g74
I4
ssg75
g2263
sg68
(lp2270
g61
(g70
g63
NtRp2271
(dp2272
g66
(dp2273
g74
I3
ssg75
Nsg68
(lp2274
g61
(g77
g63
NtRp2275
(dp2276
g66
(dp2277
sg75
g2271
sg68
(lp2278
g61
(g82
g63
NtRp2279
(dp2280
g66
(dp2281
g86
g87
ssg75
g2275
sg68
(lp2282
S'HTTP_ACCEPT'
p2283
asbag61
(g82
g63
NtRp2284
(dp2285
g66
(dp2286
g93
g94
ssg75
g2275
sg68
(lp2287
S':'
asbag61
(g82
g63
NtRp2288
(dp2289
g66
(dp2290
sg75
g2275
sg68
(lp2291
g61
(g62
g63
NtRp2292
(dp2293
g66
(dp2294
g74
I3
ssg75
g2288
sg68
(lp2295
g835
asbasbasbag61
(g77
g63
NtRp2296
(dp2297
g66
(dp2298
sg75
g2271
sg68
(lp2299
g61
(g82
g63
NtRp2300
(dp2301
g66
(dp2302
g86
g87
ssg75
g2296
sg68
(lp2303
S'HTTP_ACCEPT_CHARSET'
p2304
asbag61
(g82
g63
NtRp2305
(dp2306
g66
(dp2307
g93
g94
ssg75
g2296
sg68
(lp2308
S':'
asbag61
(g82
g63
NtRp2309
(dp2310
g66
(dp2311
sg75
g2296
sg68
(lp2312
g61
(g62
g63
NtRp2313
(dp2314
g66
(dp2315
g74
I3
ssg75
g2309
sg68
(lp2316
g857
asbasbasbag61
(g77
g63
NtRp2317
(dp2318
g66
(dp2319
sg75
g2271
sg68
(lp2320
g61
(g82
g63
NtRp2321
(dp2322
g66
(dp2323
g86
g87
ssg75
g2317
sg68
(lp2324
S'HTTP_ACCEPT_ENCODING'
p2325
asbag61
(g82
g63
NtRp2326
(dp2327
g66
(dp2328
g93
g94
ssg75
g2317
sg68
(lp2329
S':'
asbag61
(g82
g63
NtRp2330
(dp2331
g66
(dp2332
sg75
g2317
sg68
(lp2333
g61
(g62
g63
NtRp2334
(dp2335
g66
(dp2336
g74
I3
ssg75
g2330
sg68
(lp2337
g879
asbasbasbag61
(g77
g63
NtRp2338
(dp2339
g66
(dp2340
sg75
g2271
sg68
(lp2341
g61
(g82
g63
NtRp2342
(dp2343
g66
(dp2344
g86
g87
ssg75
g2338
sg68
(lp2345
S'HTTP_ACCEPT_LANGUAGE'
p2346
asbag61
(g82
g63
NtRp2347
(dp2348
g66
(dp2349
g93
g94
ssg75
g2338
sg68
(lp2350
S':'
asbag61
(g82
g63
NtRp2351
(dp2352
g66
(dp2353
sg75
g2338
sg68
(lp2354
g61
(g62
g63
NtRp2355
(dp2356
g66
(dp2357
g74
I3
ssg75
g2351
sg68
(lp2358
g901
asbasbasbag61
(g77
g63
NtRp2359
(dp2360
g66
(dp2361
sg75
g2271
sg68
(lp2362
g61
(g82
g63
NtRp2363
(dp2364
g66
(dp2365
g86
g87
ssg75
g2359
sg68
(lp2366
S'HTTP_CACHE_CONTROL'
p2367
asbag61
(g82
g63
NtRp2368
(dp2369
g66
(dp2370
g93
g94
ssg75
g2359
sg68
(lp2371
S':'
asbag61
(g82
g63
NtRp2372
(dp2373
g66
(dp2374
sg75
g2359
sg68
(lp2375
g61
(g62
g63
NtRp2376
(dp2377
g66
(dp2378
g74
I3
ssg75
g2372
sg68
(lp2379
g923
asbasbasbag61
(g77
g63
NtRp2380
(dp2381
g66
(dp2382
sg75
g2271
sg68
(lp2383
g61
(g82
g63
NtRp2384
(dp2385
g66
(dp2386
g86
g87
ssg75
g2380
sg68
(lp2387
S'HTTP_CONNECTION'
p2388
asbag61
(g82
g63
NtRp2389
(dp2390
g66
(dp2391
g93
g94
ssg75
g2380
sg68
(lp2392
S':'
asbag61
(g82
g63
NtRp2393
(dp2394
g66
(dp2395
sg75
g2380
sg68
(lp2396
g61
(g62
g63
NtRp2397
(dp2398
g66
(dp2399
g74
I3
ssg75
g2393
sg68
(lp2400
g945
asbasbasbag61
(g77
g63
NtRp2401
(dp2402
g66
(dp2403
sg75
g2271
sg68
(lp2404
g61
(g82
g63
NtRp2405
(dp2406
g66
(dp2407
g86
g87
ssg75
g2401
sg68
(lp2408
S'HTTP_COOKIE'
p2409
asbag61
(g82
g63
NtRp2410
(dp2411
g66
(dp2412
g93
g94
ssg75
g2401
sg68
(lp2413
S':'
asbag61
(g82
g63
NtRp2414
(dp2415
g66
(dp2416
sg75
g2401
sg68
(lp2417
g61
(g62
g63
NtRp2418
(dp2419
g66
(dp2420
g74
I3
ssg75
g2414
sg68
(lp2421
g967
asbasbasbag61
(g77
g63
NtRp2422
(dp2423
g66
(dp2424
sg75
g2271
sg68
(lp2425
g61
(g82
g63
NtRp2426
(dp2427
g66
(dp2428
g86
g87
ssg75
g2422
sg68
(lp2429
S'HTTP_HOST'
p2430
asbag61
(g82
g63
NtRp2431
(dp2432
g66
(dp2433
g93
g94
ssg75
g2422
sg68
(lp2434
S':'
asbag61
(g82
g63
NtRp2435
(dp2436
g66
(dp2437
sg75
g2422
sg68
(lp2438
g61
(g62
g63
NtRp2439
(dp2440
g66
(dp2441
g74
I3
ssg75
g2435
sg68
(lp2442
g989
asbasbasbag61
(g77
g63
NtRp2443
(dp2444
g66
(dp2445
sg75
g2271
sg68
(lp2446
g61
(g82
g63
NtRp2447
(dp2448
g66
(dp2449
g86
g87
ssg75
g2443
sg68
(lp2450
S'HTTP_USER_AGENT'
p2451
asbag61
(g82
g63
NtRp2452
(dp2453
g66
(dp2454
g93
g94
ssg75
g2443
sg68
(lp2455
S':'
asbag61
(g82
g63
NtRp2456
(dp2457
g66
(dp2458
sg75
g2443
sg68
(lp2459
g61
(g62
g63
NtRp2460
(dp2461
g66
(dp2462
g74
I3
ssg75
g2456
sg68
(lp2463
g1011
asbasbasbag61
(g77
g63
NtRp2464
(dp2465
g66
(dp2466
sg75
g2271
sg68
(lp2467
g61
(g82
g63
NtRp2468
(dp2469
g66
(dp2470
g86
g87
ssg75
g2464
sg68
(lp2471
S'PATH_INFO'
p2472
asbag61
(g82
g63
NtRp2473
(dp2474
g66
(dp2475
g93
g94
ssg75
g2464
sg68
(lp2476
S':'
asbag61
(g82
g63
NtRp2477
(dp2478
g66
(dp2479
sg75
g2464
sg68
(lp2480
g61
(g62
g63
NtRp2481
(dp2482
g66
(dp2483
g74
I3
ssg75
g2477
sg68
(lp2484
g1075
asbasbasbag61
(g77
g63
NtRp2485
(dp2486
g66
(dp2487
sg75
g2271
sg68
(lp2488
g61
(g82
g63
NtRp2489
(dp2490
g66
(dp2491
g86
g87
ssg75
g2485
sg68
(lp2492
S'QUERY_STRING'
p2493
asbag61
(g82
g63
NtRp2494
(dp2495
g66
(dp2496
g93
g94
ssg75
g2485
sg68
(lp2497
S':'
asbag61
(g82
g63
NtRp2498
(dp2499
g66
(dp2500
sg75
g2485
sg68
(lp2501
g61
(g62
g63
NtRp2502
(dp2503
g66
(dp2504
g74
I3
ssg75
g2498
sg68
(lp2505
S''
asbasbasbag61
(g77
g63
NtRp2506
(dp2507
g66
(dp2508
sg75
g2271
sg68
(lp2509
g61
(g82
g63
NtRp2510
(dp2511
g66
(dp2512
g86
g87
ssg75
g2506
sg68
(lp2513
S'REMOTE_ADDR'
p2514
asbag61
(g82
g63
NtRp2515
(dp2516
g66
(dp2517
g93
g94
ssg75
g2506
sg68
(lp2518
S':'
asbag61
(g82
g63
NtRp2519
(dp2520
g66
(dp2521
sg75
g2506
sg68
(lp2522
g61
(g62
g63
NtRp2523
(dp2524
g66
(dp2525
g74
I3
ssg75
g2519
sg68
(lp2526
g194
asbasbasbag61
(g77
g63
NtRp2527
(dp2528
g66
(dp2529
sg75
g2271
sg68
(lp2530
g61
(g82
g63
NtRp2531
(dp2532
g66
(dp2533
g86
g87
ssg75
g2527
sg68
(lp2534
S'REMOTE_PORT'
p2535
asbag61
(g82
g63
NtRp2536
(dp2537
g66
(dp2538
g93
g94
ssg75
g2527
sg68
(lp2539
S':'
asbag61
(g82
g63
NtRp2540
(dp2541
g66
(dp2542
sg75
g2527
sg68
(lp2543
g61
(g62
g63
NtRp2544
(dp2545
g66
(dp2546
g74
I3
ssg75
g2540
sg68
(lp2547
g1139
asbasbasbag61
(g77
g63
NtRp2548
(dp2549
g66
(dp2550
sg75
g2271
sg68
(lp2551
g61
(g82
g63
NtRp2552
(dp2553
g66
(dp2554
g86
g87
ssg75
g2548
sg68
(lp2555
S'REQUEST_METHOD'
p2556
asbag61
(g82
g63
NtRp2557
(dp2558
g66
(dp2559
g93
g94
ssg75
g2548
sg68
(lp2560
S':'
asbag61
(g82
g63
NtRp2561
(dp2562
g66
(dp2563
sg75
g2548
sg68
(lp2564
g61
(g62
g63
NtRp2565
(dp2566
g66
(dp2567
g74
I3
ssg75
g2561
sg68
(lp2568
g1161
asbasbasbag61
(g77
g63
NtRp2569
(dp2570
g66
(dp2571
sg75
g2271
sg68
(lp2572
g61
(g82
g63
NtRp2573
(dp2574
g66
(dp2575
g86
g87
ssg75
g2569
sg68
(lp2576
S'SCRIPT_NAME'
p2577
asbag61
(g82
g63
NtRp2578
(dp2579
g66
(dp2580
g93
g94
ssg75
g2569
sg68
(lp2581
S':'
asbag61
(g82
g63
NtRp2582
(dp2583
g66
(dp2584
sg75
g2569
sg68
(lp2585
g61
(g62
g63
NtRp2586
(dp2587
g66
(dp2588
g74
I3
ssg75
g2582
sg68
(lp2589
S''
asbasbasbag61
(g77
g63
NtRp2590
(dp2591
g66
(dp2592
sg75
g2271
sg68
(lp2593
g61
(g82
g63
NtRp2594
(dp2595
g66
(dp2596
g86
g87
ssg75
g2590
sg68
(lp2597
S'SERVER_NAME'
p2598
asbag61
(g82
g63
NtRp2599
(dp2600
g66
(dp2601
g93
g94
ssg75
g2590
sg68
(lp2602
S':'
asbag61
(g82
g63
NtRp2603
(dp2604
g66
(dp2605
sg75
g2590
sg68
(lp2606
g61
(g62
g63
NtRp2607
(dp2608
g66
(dp2609
g74
I3
ssg75
g2603
sg68
(lp2610
g1204
asbasbasbag61
(g77
g63
NtRp2611
(dp2612
g66
(dp2613
sg75
g2271
sg68
(lp2614
g61
(g82
g63
NtRp2615
(dp2616
g66
(dp2617
g86
g87
ssg75
g2611
sg68
(lp2618
S'SERVER_PORT'
p2619
asbag61
(g82
g63
NtRp2620
(dp2621
g66
(dp2622
g93
g94
ssg75
g2611
sg68
(lp2623
S':'
asbag61
(g82
g63
NtRp2624
(dp2625
g66
(dp2626
sg75
g2611
sg68
(lp2627
g61
(g62
g63
NtRp2628
(dp2629
g66
(dp2630
g74
I3
ssg75
g2624
sg68
(lp2631
g1226
asbasbasbag61
(g77
g63
NtRp2632
(dp2633
g66
(dp2634
sg75
g2271
sg68
(lp2635
g61
(g82
g63
NtRp2636
(dp2637
g66
(dp2638
g86
g87
ssg75
g2632
sg68
(lp2639
S'SERVER_PROTOCOL'
p2640
asbag61
(g82
g63
NtRp2641
(dp2642
g66
(dp2643
g93
g94
ssg75
g2632
sg68
(lp2644
S':'
asbag61
(g82
g63
NtRp2645
(dp2646
g66
(dp2647
sg75
g2632
sg68
(lp2648
g61
(g62
g63
NtRp2649
(dp2650
g66
(dp2651
g74
I3
ssg75
g2645
sg68
(lp2652
g1248
asbasbasbag61
(g77
g63
NtRp2653
(dp2654
g66
(dp2655
sg75
g2271
sg68
(lp2656
g61
(g82
g63
NtRp2657
(dp2658
g66
(dp2659
g86
g87
ssg75
g2653
sg68
(lp2660
S'SERVER_SOFTWARE'
p2661
asbag61
(g82
g63
NtRp2662
(dp2663
g66
(dp2664
g93
g94
ssg75
g2653
sg68
(lp2665
S':'
asbag61
(g82
g63
NtRp2666
(dp2667
g66
(dp2668
sg75
g2653
sg68
(lp2669
g61
(g62
g63
NtRp2670
(dp2671
g66
(dp2672
g74
I3
ssg75
g2666
sg68
(lp2673
g1270
asbasbasbag61
(g77
g63
NtRp2674
(dp2675
g66
(dp2676
sg75
g2271
sg68
(lp2677
g61
(g82
g63
NtRp2678
(dp2679
g66
(dp2680
g86
g87
ssg75
g2674
sg68
(lp2681
S'wsgi.errors'
p2682
asbag61
(g82
g63
NtRp2683
(dp2684
g66
(dp2685
g93
g94
ssg75
g2674
sg68
(lp2686
S':'
asbag61
(g82
g63
NtRp2687
(dp2688
g66
(dp2689
sg75
g2674
sg68
(lp2690
g61
(g62
g63
NtRp2691
(dp2692
g66
(dp2693
g74
I3
ssg75
g2687
sg68
(lp2694
S"<open file '<stderr>', mode 'w' at 0x0000000001CFE1E0>"
p2695
asbasbasbag61
(g77
g63
NtRp2696
(dp2697
g66
(dp2698
sg75
g2271
sg68
(lp2699
g61
(g82
g63
NtRp2700
(dp2701
g66
(dp2702
g86
g87
ssg75
g2696
sg68
(lp2703
S'wsgi.file_wrapper'
p2704
asbag61
(g82
g63
NtRp2705
(dp2706
g66
(dp2707
g93
g94
ssg75
g2696
sg68
(lp2708
S':'
asbag61
(g82
g63
NtRp2709
(dp2710
g66
(dp2711
sg75
g2696
sg68
(lp2712
g61
(g62
g63
NtRp2713
(dp2714
g66
(dp2715
g74
I3
ssg75
g2709
sg68
(lp2716
S'<class wsgiref.util.FileWrapper at 0x000000000404E588>'
p2717
asbasbasbag61
(g77
g63
NtRp2718
(dp2719
g66
(dp2720
sg75
g2271
sg68
(lp2721
g61
(g82
g63
NtRp2722
(dp2723
g66
(dp2724
g86
g87
ssg75
g2718
sg68
(lp2725
S'wsgi.input'
p2726
asbag61
(g82
g63
NtRp2727
(dp2728
g66
(dp2729
g93
g94
ssg75
g2718
sg68
(lp2730
S':'
asbag61
(g82
g63
NtRp2731
(dp2732
g66
(dp2733
sg75
g2718
sg68
(lp2734
g61
(g62
g63
NtRp2735
(dp2736
g66
(dp2737
g74
I3
ssg75
g2731
sg68
(lp2738
S'<cStringIO.StringO object at 0x00000000046F6E68>'
p2739
asbasbasbag61
(g77
g63
NtRp2740
(dp2741
g66
(dp2742
sg75
g2271
sg68
(lp2743
g61
(g82
g63
NtRp2744
(dp2745
g66
(dp2746
g86
g87
ssg75
g2740
sg68
(lp2747
S'wsgi.multiprocess'
p2748
asbag61
(g82
g63
NtRp2749
(dp2750
g66
(dp2751
g93
g94
ssg75
g2740
sg68
(lp2752
S':'
asbag61
(g82
g63
NtRp2753
(dp2754
g66
(dp2755
sg75
g2740
sg68
(lp2756
g61
(g62
g63
NtRp2757
(dp2758
g66
(dp2759
g74
I3
ssg75
g2753
sg68
(lp2760
g104
asbasbasbag61
(g77
g63
NtRp2761
(dp2762
g66
(dp2763
sg75
g2271
sg68
(lp2764
g61
(g82
g63
NtRp2765
(dp2766
g66
(dp2767
g86
g87
ssg75
g2761
sg68
(lp2768
S'wsgi.multithread'
p2769
asbag61
(g82
g63
NtRp2770
(dp2771
g66
(dp2772
g93
g94
ssg75
g2761
sg68
(lp2773
S':'
asbag61
(g82
g63
NtRp2774
(dp2775
g66
(dp2776
sg75
g2761
sg68
(lp2777
g61
(g62
g63
NtRp2778
(dp2779
g66
(dp2780
g74
I3
ssg75
g2774
sg68
(lp2781
g1510
asbasbasbag61
(g77
g63
NtRp2782
(dp2783
g66
(dp2784
sg75
g2271
sg68
(lp2785
g61
(g82
g63
NtRp2786
(dp2787
g66
(dp2788
g86
g87
ssg75
g2782
sg68
(lp2789
S'wsgi.run_once'
p2790
asbag61
(g82
g63
NtRp2791
(dp2792
g66
(dp2793
g93
g94
ssg75
g2782
sg68
(lp2794
S':'
asbag61
(g82
g63
NtRp2795
(dp2796
g66
(dp2797
sg75
g2782
sg68
(lp2798
g61
(g62
g63
NtRp2799
(dp2800
g66
(dp2801
g74
I3
ssg75
g2795
sg68
(lp2802
g104
asbasbasbag61
(g77
g63
NtRp2803
(dp2804
g66
(dp2805
sg75
g2271
sg68
(lp2806
g61
(g82
g63
NtRp2807
(dp2808
g66
(dp2809
g86
g87
ssg75
g2803
sg68
(lp2810
S'wsgi.url_scheme'
p2811
asbag61
(g82
g63
NtRp2812
(dp2813
g66
(dp2814
g93
g94
ssg75
g2803
sg68
(lp2815
S':'
asbag61
(g82
g63
NtRp2816
(dp2817
g66
(dp2818
sg75
g2803
sg68
(lp2819
g61
(g62
g63
NtRp2820
(dp2821
g66
(dp2822
g74
I3
ssg75
g2816
sg68
(lp2823
g1553
asbasbasbag61
(g77
g63
NtRp2824
(dp2825
g66
(dp2826
sg75
g2271
sg68
(lp2827
g61
(g82
g63
NtRp2828
(dp2829
g66
(dp2830
g86
g87
ssg75
g2824
sg68
(lp2831
S'wsgi.version'
p2832
asbag61
(g82
g63
NtRp2833
(dp2834
g66
(dp2835
g93
g94
ssg75
g2824
sg68
(lp2836
S':'
asbag61
(g82
g63
NtRp2837
(dp2838
g66
(dp2839
sg75
g2824
sg68
(lp2840
g61
(g62
g63
NtRp2841
(dp2842
g66
(dp2843
g74
I3
ssg75
g2837
sg68
(lp2844
S'1'
asbasbasbasbasbasbasbasbasbasbasbasbasbsS'frames'
p2845
(lp2846
(dp2847
S'file'
p2848
S'D:\\workspace\\CA\\IgoR\\C_Sources\\Server\\igor-assistant-ca-2012\\gluon\\restricted.py'
p2849
sS'dump'
p2850
(dp2851
S'environment'
p2852
S"{'A': <class 'gluon.html.A'>, 'Auth': <class 'gluon.tools.Auth'>, 'B': <class 'gluon.html.B'>, 'BEAUTIFY': <class 'gluon.html.BEAUTIFY'>, 'BODY': <class 'gluon.html.BODY'>, 'BR': <class 'gluon.html.BR'>, 'BUTTON': <class 'gluon.html.BUTTON'>, 'CAT': <class 'gluon.html.CAT'>, 'CENTER': <class 'gluon.html.CENTER'>, 'CLEANUP': <class 'gluon.validators.CLEANUP'>, ...}"
p2853
sS'ccode'
p2854
S'<code object <module> at 0000000003977A30, file ...ca-2012\\applications\\igor\\models\\db.py", line 12>'
p2855
ssS'lnum'
p2856
I205
sS'lines'
p2857
(dp2858
I200
S'    try:'
p2859
sI201
S'        if type(code) == types.CodeType:'
p2860
sI202
S'            ccode = code'
p2861
sI203
S'        else:'
p2862
sI204
S'            ccode = compile2(code,layer)'
p2863
sI205
S'        exec ccode in environment'
p2864
sI206
S'    except HTTP:'
p2865
sI207
S'        raise'
p2866
sI208
S'    except RestrictedError:'
p2867
sI209
S'        # do not encapsulate (obfuscate) the original RestrictedError'
p2868
ssS'call'
p2869
S"(code='# -*- coding: utf-8 -*-\\n\\n#######################...####\\n\\n# Define all Igor database\\n# Author: phucnh', environment={'A': <class 'gluon.html.A'>, 'Auth': <class 'gluon.tools.Auth'>, 'B': <class 'gluon.html.B'>, 'BEAUTIFY': <class 'gluon.html.BEAUTIFY'>, 'BODY': <class 'gluon.html.BODY'>, 'BR': <class 'gluon.html.BR'>, 'BUTTON': <class 'gluon.html.BUTTON'>, 'CAT': <class 'gluon.html.CAT'>, 'CENTER': <class 'gluon.html.CENTER'>, 'CLEANUP': <class 'gluon.validators.CLEANUP'>, ...}, layer=r'D:\\workspace\\CA\\IgoR\\C_Sources\\Server\\igor-assistant-ca-2012\\applications\\igor\\models\\db.py')"
p2870
sS'func'
p2871
S'restricted'
p2872
sa(dp2873
g2848
S'D:\\workspace\\CA\\IgoR\\C_Sources\\Server\\igor-assistant-ca-2012\\applications\\igor\\models\\db.py'
p2874
sg2850
(dp2875
S'auth.define_tables'
p2876
S'<bound method Auth.define_tables of <gluon.tools.Auth object>>'
p2877
sS'auth'
p2878
S'<gluon.tools.Auth object>'
p2879
ssg2856
I47
sg2857
(dp2880
I42
S'from gluon.tools import Auth, Crud, Service, PluginManager, prettydate'
p2881
sI43
S'auth = Auth(db, hmac_key=Auth.get_or_create_key())'
p2882
sI44
S'crud, service, plugins = Crud(db), Service(), PluginManager()'
p2883
sI45
S''
sI46
S'## create all tables needed by auth if not custom tables'
p2884
sI47
S'auth.define_tables()'
p2885
sI48
S''
sI49
S'## configure email'
p2886
sI50
S'mail=auth.settings.mailer'
p2887
sI51
S"mail.settings.server = 'logging' or 'smtp.gmail.com:587'"
p2888
ssg2869
S'()'
p2889
sg2871
S'<module>'
p2890
sa(dp2891
g2848
S'D:\\workspace\\CA\\IgoR\\C_Sources\\Server\\igor-assistant-ca-2012\\gluon\\tools.py'
p2892
sg2850
(dp2893
S'builtinformat'
p2894
S'<built-in function format>'
p2895
ssg2856
I1309
sg2857
(dp2896
I1312
S'            table.last_name.requires = \\'
p2897
sI1313
S'                IS_NOT_EMPTY(error_message=self.messages.is_empty)'
p2898
sI1304
S'                    *settings.extra_fields.get(settings.table_user_name,[]),'
p2899
sI1305
S'                    **dict('
p2900
sI1306
S'                        migrate=self.__get_migrate(settings.table_user_name,'
p2901
sI1307
S'                                                   migrate),'
p2902
sI1308
S'                        fake_migrate=fake_migrate,'
p2903
sI1309
S"                        format='%(first_name)s %(last_name)s (%(id)s)'))"
p2904
sI1310
S'            table.first_name.requires = \\'
p2905
sI1311
S'                IS_NOT_EMPTY(error_message=self.messages.is_empty)'
p2906
ssg2869
S'(self=<gluon.tools.Auth object>, username=False, migrate=True, fake_migrate=False)'
p2907
sg2871
S'define_tables'
p2908
sa(dp2909
g2848
S'D:\\workspace\\CA\\IgoR\\C_Sources\\Server\\igor-assistant-ca-2012\\gluon\\dal.py'
p2910
sg2850
(dp2911
S'polymodel'
p2912
S'None'
p2913
ssg2856
I6320
sg2857
(dp2914
I6315
S"        if migrate or self._adapter.dbengine=='google:datastore':"
p2915
sI6316
S'            try:'
p2916
sI6317
S'                sql_locker.acquire()'
p2917
sI6318
S'                self._adapter.create_table(t,migrate=migrate,'
p2918
sI6319
S'                                           fake_migrate=fake_migrate,'
p2919
sI6320
S'                                           polymodel=polymodel)'
p2920
sI6321
S'            finally:'
p2921
sI6322
S'                sql_locker.release()'
p2922
sI6323
S'        else:'
p2923
sI6324
S'            t._dbt = None'
p2924
ssg2869
S"(self=<DAL {'_migrate_enabled': True, '_lastsql': 'CRE...'_uri_hash': 'c8b669d15150d7109e5f7ab36744a5b7'}>, tablename='auth_user', *fields=(<gluon.dal.Field object>, <gluon.dal.Field object>, <gluon.dal.Field object>, <gluon.dal.Field object>, <gluon.dal.Field object>, <gluon.dal.Field object>, <gluon.dal.Field object>), **args={'fake_migrate': False, 'format': '%(first_name)s %(last_name)s (%(id)s)', 'migrate': True})"
p2925
sg2871
S'define_table'
p2926
sa(dp2927
g2848
S'D:\\workspace\\CA\\IgoR\\C_Sources\\Server\\igor-assistant-ca-2012\\gluon\\dal.py'
p2928
sg2850
(dp2929
S'query'
p2930
S"'CREATE TABLE auth_user(\\n    id INTEGER PRIMARY K...d_key CHAR(512),\\n    registration_id CHAR(512)\\n);'"
p2931
sS'self'
p2932
S'<gluon.dal.SQLiteAdapter object>'
p2933
sS'table'
p2934
S"<Table {'ALL': <gluon.dal.SQLALL object at 0x000... <gluon.dal.Field object at 0x0000000003D295C0>}>"
p2935
sS'self.create_sequence_and_triggers'
p2936
S'<bound method SQLiteAdapter.create_sequence_and_triggers of <gluon.dal.SQLiteAdapter object>>'
p2937
ssg2856
I719
sg2857
(dp2938
I714
S'            if table._dbt:'
p2939
sI715
S"                logfile.write('timestamp: %s\\n'"
p2940
sI716
S'                               % datetime.datetime.today().isoformat())'
p2941
sI717
S"                logfile.write(query + '\\n')"
p2942
sI718
S'            if not fake_migrate:'
p2943
sI719
S'                self.create_sequence_and_triggers(query,table)'
p2944
sI720
S'                table._db.commit()'
p2945
sI721
S'            if table._dbt:'
p2946
sI722
S"                tfile = self.file_open(table._dbt, 'w')"
p2947
sI723
S'                cPickle.dump(sql_fields, tfile)'
p2948
ssg2869
S"(self=<gluon.dal.SQLiteAdapter object>, table=<Table {'ALL': <gluon.dal.SQLALL object at 0x000... <gluon.dal.Field object at 0x0000000003D295C0>}>, migrate=True, fake_migrate=False, polymodel=None)"
p2949
sg2871
S'create_table'
p2950
sa(dp2951
g2848
S'D:\\workspace\\CA\\IgoR\\C_Sources\\Server\\igor-assistant-ca-2012\\gluon\\dal.py'
p2952
sg2850
(dp2953
S'query'
p2954
S"'CREATE TABLE auth_user(\\n    id INTEGER PRIMARY K...d_key CHAR(512),\\n    registration_id CHAR(512)\\n);'"
p2955
sS'self'
p2956
S'<gluon.dal.SQLiteAdapter object>'
p2957
sS'self.execute'
p2958
S'<bound method SQLiteAdapter.execute of <gluon.dal.SQLiteAdapter object>>'
p2959
ssg2856
I1381
sg2857
(dp2960
I1376
S''
sI1377
S'    def constraint_name(self, table, fieldname):'
p2961
sI1378
S"        return '%s_%s__constraint' % (table,fieldname)"
p2962
sI1379
S''
sI1380
S'    def create_sequence_and_triggers(self, query, table, **args):'
p2963
sI1381
S'        self.execute(query)'
p2964
sI1382
S''
sI1383
S'    def log_execute(self, *a, **b):'
p2965
sI1384
S'        self.db._lastsql = a[0]'
p2966
sI1385
S'        t0 = time.time()'
p2967
ssg2869
S"(self=<gluon.dal.SQLiteAdapter object>, query='CREATE TABLE auth_user(\\n    id INTEGER PRIMARY K...d_key CHAR(512),\\n    registration_id CHAR(512)\\n);', table=<Table {'ALL': <gluon.dal.SQLALL object at 0x000... <gluon.dal.Field object at 0x0000000003D295C0>}>, **args={})"
p2968
sg2871
S'create_sequence_and_triggers'
p2969
sa(dp2970
g2848
S'D:\\workspace\\CA\\IgoR\\C_Sources\\Server\\igor-assistant-ca-2012\\gluon\\dal.py'
p2971
sg2850
(dp2972
S'a'
S"('CREATE TABLE auth_user(\\n    id INTEGER PRIMARY K...d_key CHAR(512),\\n    registration_id CHAR(512)\\n);',)"
p2973
sS'self'
p2974
S'<gluon.dal.SQLiteAdapter object>'
p2975
sS'b'
g21
sS'self.log_execute'
p2976
S'<bound method SQLiteAdapter.log_execute of <gluon.dal.SQLiteAdapter object>>'
p2977
ssg2856
I1392
sg2857
(dp2978
I1387
S'        self.db._timings.append((a[0],time.time()-t0))'
p2979
sI1388
S'        del self.db._timings[:-TIMINGSSIZE]'
p2980
sI1389
S'        return ret'
p2981
sI1390
S''
sI1391
S'    def execute(self, *a, **b):'
p2982
sI1392
S'        return self.log_execute(*a, **b)'
p2983
sI1393
S''
sI1394
S'    def represent(self, obj, fieldtype):'
p2984
sI1395
S'        if isinstance(obj, CALLABLETYPES):'
p2985
sI1396
S'            obj = obj()'
p2986
ssg2869
S"(self=<gluon.dal.SQLiteAdapter object>, *a=('CREATE TABLE auth_user(\\n    id INTEGER PRIMARY K...d_key CHAR(512),\\n    registration_id CHAR(512)\\n);',), **b={})"
p2987
sg2871
S'execute'
p2988
sa(dp2989
g2848
S'D:\\workspace\\CA\\IgoR\\C_Sources\\Server\\igor-assistant-ca-2012\\gluon\\dal.py'
p2990
sg2850
(dp2991
S'a'
S"('CREATE TABLE auth_user(\\n    id INTEGER PRIMARY K...d_key CHAR(512),\\n    registration_id CHAR(512)\\n);',)"
p2992
sS'b'
g21
sS'self'
p2993
S'<gluon.dal.SQLiteAdapter object>'
p2994
sS'ret'
p2995
S'undefined'
p2996
sS'self.cursor'
p2997
S'<sqlite3.Cursor object>'
p2998
sS'self.cursor.execute'
p2999
S'<built-in method execute of sqlite3.Cursor object>'
p3000
ssg2856
I1386
sg2857
(dp3001
I1381
S'        self.execute(query)'
p3002
sI1382
S''
sI1383
S'    def log_execute(self, *a, **b):'
p3003
sI1384
S'        self.db._lastsql = a[0]'
p3004
sI1385
S'        t0 = time.time()'
p3005
sI1386
S'        ret = self.cursor.execute(*a, **b)'
p3006
sI1387
S'        self.db._timings.append((a[0],time.time()-t0))'
p3007
sI1388
S'        del self.db._timings[:-TIMINGSSIZE]'
p3008
sI1389
S'        return ret'
p3009
sI1390
S''
ssg2869
S"(self=<gluon.dal.SQLiteAdapter object>, *a=('CREATE TABLE auth_user(\\n    id INTEGER PRIMARY K...d_key CHAR(512),\\n    registration_id CHAR(512)\\n);',), **b={})"
p3010
sg2871
S'log_execute'
p3011
sasS'pyver'
p3012
S'Python 2.7.3: C:\\Python27\\python.exe'
p3013
sS'session'
p3014
g61
(g62
g63
NtRp3015
(dp3016
g66
(dp3017
sg68
(lp3018
g61
(g70
g63
NtRp3019
(dp3020
g66
(dp3021
g74
I5
ssg75
Nsg68
(lp3022
sbasbsS'etype'
p3023
S"<class 'sqlite3.OperationalError'>"
p3024
sS'date'
p3025
S'Sat Aug 04 14:57:43 2012'
p3026
sS'response'
p3027
g61
(g62
g63
NtRp3028
(dp3029
g66
(dp3030
sg68
(lp3031
g61
(g70
g63
NtRp3032
(dp3033
g66
(dp3034
g74
I5
ssg75
Nsg68
(lp3035
g61
(g77
g63
NtRp3036
(dp3037
g66
(dp3038
sg75
g3032
sg68
(lp3039
g61
(g82
g63
NtRp3040
(dp3041
g66
(dp3042
g86
g87
ssg75
g3036
sg68
(lp3043
g159
asbag61
(g82
g63
NtRp3044
(dp3045
g66
(dp3046
g93
g94
ssg75
g3036
sg68
(lp3047
S':'
asbag61
(g82
g63
NtRp3048
(dp3049
g66
(dp3050
sg75
g3036
sg68
(lp3051
g61
(g62
g63
NtRp3052
(dp3053
g66
(dp3054
g74
I5
ssg75
g3048
sg68
(lp3055
S'<cStringIO.StringO object at 0x0000000003999308>'
p3056
asbasbasbag61
(g77
g63
NtRp3057
(dp3058
g66
(dp3059
sg75
g3032
sg68
(lp3060
g61
(g82
g63
NtRp3061
(dp3062
g66
(dp3063
g86
g87
ssg75
g3057
sg68
(lp3064
g225
asbag61
(g82
g63
NtRp3065
(dp3066
g66
(dp3067
g93
g94
ssg75
g3057
sg68
(lp3068
S':'
asbag61
(g82
g63
NtRp3069
(dp3070
g66
(dp3071
sg75
g3057
sg68
(lp3072
g61
(g62
g63
NtRp3073
(dp3074
g66
(dp3075
g74
I5
ssg75
g3069
sg68
(lp3076
g61
(g70
g63
NtRp3077
(dp3078
g66
(dp3079
g74
I4
ssg75
Nsg68
(lp3080
g61
(g77
g63
NtRp3081
(dp3082
g66
(dp3083
sg75
g3077
sg68
(lp3084
g61
(g82
g63
NtRp3085
(dp3086
g66
(dp3087
g86
g87
ssg75
g3081
sg68
(lp3088
S'session_id_igor'
p3089
asbag61
(g82
g63
NtRp3090
(dp3091
g66
(dp3092
g93
g94
ssg75
g3081
sg68
(lp3093
S':'
asbag61
(g82
g63
NtRp3094
(dp3095
g66
(dp3096
sg75
g3081
sg68
(lp3097
g61
(g62
g63
NtRp3098
(dp3099
g66
(dp3100
g74
I4
ssg75
g3094
sg68
(lp3101
g61
(g70
g63
NtRp3102
(dp3103
g66
(dp3104
g74
I3
ssg75
Nsg68
(lp3105
g61
(g77
g63
NtRp3106
(dp3107
g66
(dp3108
sg75
g3102
sg68
(lp3109
g61
(g82
g63
NtRp3110
(dp3111
g66
(dp3112
g86
g87
ssg75
g3106
sg68
(lp3113
g275
asbag61
(g82
g63
NtRp3114
(dp3115
g66
(dp3116
g93
g94
ssg75
g3106
sg68
(lp3117
S':'
asbag61
(g82
g63
NtRp3118
(dp3119
g66
(dp3120
sg75
g3106
sg68
(lp3121
g61
(g62
g63
NtRp3122
(dp3123
g66
(dp3124
g74
I3
ssg75
g3118
sg68
(lp3125
S''
asbasbasbag61
(g77
g63
NtRp3126
(dp3127
g66
(dp3128
sg75
g3102
sg68
(lp3129
g61
(g82
g63
NtRp3130
(dp3131
g66
(dp3132
g86
g87
ssg75
g3126
sg68
(lp3133
g296
asbag61
(g82
g63
NtRp3134
(dp3135
g66
(dp3136
g93
g94
ssg75
g3126
sg68
(lp3137
S':'
asbag61
(g82
g63
NtRp3138
(dp3139
g66
(dp3140
sg75
g3126
sg68
(lp3141
g61
(g62
g63
NtRp3142
(dp3143
g66
(dp3144
g74
I3
ssg75
g3138
sg68
(lp3145
S''
asbasbasbag61
(g77
g63
NtRp3146
(dp3147
g66
(dp3148
sg75
g3102
sg68
(lp3149
g61
(g82
g63
NtRp3150
(dp3151
g66
(dp3152
g86
g87
ssg75
g3146
sg68
(lp3153
g317
asbag61
(g82
g63
NtRp3154
(dp3155
g66
(dp3156
g93
g94
ssg75
g3146
sg68
(lp3157
S':'
asbag61
(g82
g63
NtRp3158
(dp3159
g66
(dp3160
sg75
g3146
sg68
(lp3161
g61
(g62
g63
NtRp3162
(dp3163
g66
(dp3164
g74
I3
ssg75
g3158
sg68
(lp3165
S''
asbasbasbag61
(g77
g63
NtRp3166
(dp3167
g66
(dp3168
sg75
g3102
sg68
(lp3169
g61
(g82
g63
NtRp3170
(dp3171
g66
(dp3172
g86
g87
ssg75
g3166
sg68
(lp3173
g338
asbag61
(g82
g63
NtRp3174
(dp3175
g66
(dp3176
g93
g94
ssg75
g3166
sg68
(lp3177
S':'
asbag61
(g82
g63
NtRp3178
(dp3179
g66
(dp3180
sg75
g3166
sg68
(lp3181
g61
(g62
g63
NtRp3182
(dp3183
g66
(dp3184
g74
I3
ssg75
g3178
sg68
(lp3185
S''
asbasbasbag61
(g77
g63
NtRp3186
(dp3187
g66
(dp3188
sg75
g3102
sg68
(lp3189
g61
(g82
g63
NtRp3190
(dp3191
g66
(dp3192
g86
g87
ssg75
g3186
sg68
(lp3193
g359
asbag61
(g82
g63
NtRp3194
(dp3195
g66
(dp3196
g93
g94
ssg75
g3186
sg68
(lp3197
S':'
asbag61
(g82
g63
NtRp3198
(dp3199
g66
(dp3200
sg75
g3186
sg68
(lp3201
g61
(g62
g63
NtRp3202
(dp3203
g66
(dp3204
g74
I3
ssg75
g3198
sg68
(lp3205
S''
asbasbasbag61
(g77
g63
NtRp3206
(dp3207
g66
(dp3208
sg75
g3102
sg68
(lp3209
g61
(g82
g63
NtRp3210
(dp3211
g66
(dp3212
g86
g87
ssg75
g3206
sg68
(lp3213
g380
asbag61
(g82
g63
NtRp3214
(dp3215
g66
(dp3216
g93
g94
ssg75
g3206
sg68
(lp3217
S':'
asbag61
(g82
g63
NtRp3218
(dp3219
g66
(dp3220
sg75
g3206
sg68
(lp3221
g61
(g62
g63
NtRp3222
(dp3223
g66
(dp3224
g74
I3
ssg75
g3218
sg68
(lp3225
S'/'
asbasbasbag61
(g77
g63
NtRp3226
(dp3227
g66
(dp3228
sg75
g3102
sg68
(lp3229
g61
(g82
g63
NtRp3230
(dp3231
g66
(dp3232
g86
g87
ssg75
g3226
sg68
(lp3233
g401
asbag61
(g82
g63
NtRp3234
(dp3235
g66
(dp3236
g93
g94
ssg75
g3226
sg68
(lp3237
S':'
asbag61
(g82
g63
NtRp3238
(dp3239
g66
(dp3240
sg75
g3226
sg68
(lp3241
g61
(g62
g63
NtRp3242
(dp3243
g66
(dp3244
g74
I3
ssg75
g3238
sg68
(lp3245
S''
asbasbasbag61
(g77
g63
NtRp3246
(dp3247
g66
(dp3248
sg75
g3102
sg68
(lp3249
g61
(g82
g63
NtRp3250
(dp3251
g66
(dp3252
g86
g87
ssg75
g3246
sg68
(lp3253
g422
asbag61
(g82
g63
NtRp3254
(dp3255
g66
(dp3256
g93
g94
ssg75
g3246
sg68
(lp3257
S':'
asbag61
(g82
g63
NtRp3258
(dp3259
g66
(dp3260
sg75
g3246
sg68
(lp3261
g61
(g62
g63
NtRp3262
(dp3263
g66
(dp3264
g74
I3
ssg75
g3258
sg68
(lp3265
S''
asbasbasbasbasbasbasbasbasbasbasbag61
(g77
g63
NtRp3266
(dp3267
g66
(dp3268
sg75
g3032
sg68
(lp3269
g61
(g82
g63
NtRp3270
(dp3271
g66
(dp3272
g86
g87
ssg75
g3266
sg68
(lp3273
S'delimiters'
p3274
asbag61
(g82
g63
NtRp3275
(dp3276
g66
(dp3277
g93
g94
ssg75
g3266
sg68
(lp3278
S':'
asbag61
(g82
g63
NtRp3279
(dp3280
g66
(dp3281
sg75
g3266
sg68
(lp3282
g61
(g62
g63
NtRp3283
(dp3284
g66
(dp3285
g74
I5
ssg75
g3279
sg68
(lp3286
g61
(g70
g63
NtRp3287
(dp3288
g66
(dp3289
g74
I4
ssg75
Nsg68
(lp3290
g61
(g77
g63
NtRp3291
(dp3292
g66
(dp3293
sg75
g3287
sg68
(lp3294
g61
(g82
g63
NtRp3295
(dp3296
g66
(dp3297
sg75
g3291
sg68
(lp3298
g61
(g62
g63
NtRp3299
(dp3300
g66
(dp3301
g74
I4
ssg75
g3295
sg68
(lp3302
S'{{'
p3303
asbasbasbag61
(g77
g63
NtRp3304
(dp3305
g66
(dp3306
sg75
g3287
sg68
(lp3307
g61
(g82
g63
NtRp3308
(dp3309
g66
(dp3310
sg75
g3304
sg68
(lp3311
g61
(g62
g63
NtRp3312
(dp3313
g66
(dp3314
g74
I4
ssg75
g3308
sg68
(lp3315
S'}}'
p3316
asbasbasbasbasbasbasbag61
(g77
g63
NtRp3317
(dp3318
g66
(dp3319
sg75
g3032
sg68
(lp3320
g61
(g82
g63
NtRp3321
(dp3322
g66
(dp3323
g86
g87
ssg75
g3317
sg68
(lp3324
S'files'
p3325
asbag61
(g82
g63
NtRp3326
(dp3327
g66
(dp3328
g93
g94
ssg75
g3317
sg68
(lp3329
S':'
asbag61
(g82
g63
NtRp3330
(dp3331
g66
(dp3332
sg75
g3317
sg68
(lp3333
g61
(g62
g63
NtRp3334
(dp3335
g66
(dp3336
g74
I5
ssg75
g3330
sg68
(lp3337
g61
(g70
g63
NtRp3338
(dp3339
g66
(dp3340
g74
I4
ssg75
Nsg68
(lp3341
sbasbasbasbag61
(g77
g63
NtRp3342
(dp3343
g66
(dp3344
sg75
g3032
sg68
(lp3345
g61
(g82
g63
NtRp3346
(dp3347
g66
(dp3348
g86
g87
ssg75
g3342
sg68
(lp3349
S'flash'
p3350
asbag61
(g82
g63
NtRp3351
(dp3352
g66
(dp3353
g93
g94
ssg75
g3342
sg68
(lp3354
S':'
asbag61
(g82
g63
NtRp3355
(dp3356
g66
(dp3357
sg75
g3342
sg68
(lp3358
g61
(g62
g63
NtRp3359
(dp3360
g66
(dp3361
g74
I5
ssg75
g3355
sg68
(lp3362
S''
asbasbasbag61
(g77
g63
NtRp3363
(dp3364
g66
(dp3365
sg75
g3032
sg68
(lp3366
g61
(g82
g63
NtRp3367
(dp3368
g66
(dp3369
g86
g87
ssg75
g3363
sg68
(lp3370
S'generic_patterns'
p3371
asbag61
(g82
g63
NtRp3372
(dp3373
g66
(dp3374
g93
g94
ssg75
g3363
sg68
(lp3375
S':'
asbag61
(g82
g63
NtRp3376
(dp3377
g66
(dp3378
sg75
g3363
sg68
(lp3379
g61
(g62
g63
NtRp3380
(dp3381
g66
(dp3382
g74
I5
ssg75
g3376
sg68
(lp3383
g61
(g70
g63
NtRp3384
(dp3385
g66
(dp3386
g74
I4
ssg75
Nsg68
(lp3387
g61
(g77
g63
NtRp3388
(dp3389
g66
(dp3390
sg75
g3384
sg68
(lp3391
g61
(g82
g63
NtRp3392
(dp3393
g66
(dp3394
sg75
g3388
sg68
(lp3395
g61
(g62
g63
NtRp3396
(dp3397
g66
(dp3398
g74
I4
ssg75
g3392
sg68
(lp3399
S'*'
asbasbasbasbasbasbasbag61
(g77
g63
NtRp3400
(dp3401
g66
(dp3402
sg75
g3032
sg68
(lp3403
g61
(g82
g63
NtRp3404
(dp3405
g66
(dp3406
g86
g87
ssg75
g3400
sg68
(lp3407
S'headers'
p3408
asbag61
(g82
g63
NtRp3409
(dp3410
g66
(dp3411
g93
g94
ssg75
g3400
sg68
(lp3412
S':'
asbag61
(g82
g63
NtRp3413
(dp3414
g66
(dp3415
sg75
g3400
sg68
(lp3416
g61
(g62
g63
NtRp3417
(dp3418
g66
(dp3419
g74
I5
ssg75
g3413
sg68
(lp3420
g61
(g70
g63
NtRp3421
(dp3422
g66
(dp3423
g74
I4
ssg75
Nsg68
(lp3424
g61
(g77
g63
NtRp3425
(dp3426
g66
(dp3427
sg75
g3421
sg68
(lp3428
g61
(g82
g63
NtRp3429
(dp3430
g66
(dp3431
g86
g87
ssg75
g3425
sg68
(lp3432
S'Cache-Control'
p3433
asbag61
(g82
g63
NtRp3434
(dp3435
g66
(dp3436
g93
g94
ssg75
g3425
sg68
(lp3437
S':'
asbag61
(g82
g63
NtRp3438
(dp3439
g66
(dp3440
sg75
g3425
sg68
(lp3441
g61
(g62
g63
NtRp3442
(dp3443
g66
(dp3444
g74
I4
ssg75
g3438
sg68
(lp3445
S'no-store, no-cache, must-revalidate, post-check=0, pre-check=0'
p3446
asbasbasbag61
(g77
g63
NtRp3447
(dp3448
g66
(dp3449
sg75
g3421
sg68
(lp3450
g61
(g82
g63
NtRp3451
(dp3452
g66
(dp3453
g86
g87
ssg75
g3447
sg68
(lp3454
S'Content-Type'
p3455
asbag61
(g82
g63
NtRp3456
(dp3457
g66
(dp3458
g93
g94
ssg75
g3447
sg68
(lp3459
S':'
asbag61
(g82
g63
NtRp3460
(dp3461
g66
(dp3462
sg75
g3447
sg68
(lp3463
g61
(g62
g63
NtRp3464
(dp3465
g66
(dp3466
g74
I4
ssg75
g3460
sg68
(lp3467
S'text/html; charset=utf-8'
p3468
asbasbasbag61
(g77
g63
NtRp3469
(dp3470
g66
(dp3471
sg75
g3421
sg68
(lp3472
g61
(g82
g63
NtRp3473
(dp3474
g66
(dp3475
g86
g87
ssg75
g3469
sg68
(lp3476
S'Expires'
p3477
asbag61
(g82
g63
NtRp3478
(dp3479
g66
(dp3480
g93
g94
ssg75
g3469
sg68
(lp3481
S':'
asbag61
(g82
g63
NtRp3482
(dp3483
g66
(dp3484
sg75
g3469
sg68
(lp3485
g61
(g62
g63
NtRp3486
(dp3487
g66
(dp3488
g74
I4
ssg75
g3482
sg68
(lp3489
S'Sat, 04 Aug 2012 07:57:43 GMT'
p3490
asbasbasbag61
(g77
g63
NtRp3491
(dp3492
g66
(dp3493
sg75
g3421
sg68
(lp3494
g61
(g82
g63
NtRp3495
(dp3496
g66
(dp3497
g86
g87
ssg75
g3491
sg68
(lp3498
S'Pragma'
p3499
asbag61
(g82
g63
NtRp3500
(dp3501
g66
(dp3502
g93
g94
ssg75
g3491
sg68
(lp3503
S':'
asbag61
(g82
g63
NtRp3504
(dp3505
g66
(dp3506
sg75
g3491
sg68
(lp3507
g61
(g62
g63
NtRp3508
(dp3509
g66
(dp3510
g74
I4
ssg75
g3504
sg68
(lp3511
S'no-cache'
p3512
asbasbasbag61
(g77
g63
NtRp3513
(dp3514
g66
(dp3515
sg75
g3421
sg68
(lp3516
g61
(g82
g63
NtRp3517
(dp3518
g66
(dp3519
g86
g87
ssg75
g3513
sg68
(lp3520
S'X-Powered-By'
p3521
asbag61
(g82
g63
NtRp3522
(dp3523
g66
(dp3524
g93
g94
ssg75
g3513
sg68
(lp3525
S':'
asbag61
(g82
g63
NtRp3526
(dp3527
g66
(dp3528
sg75
g3513
sg68
(lp3529
g61
(g62
g63
NtRp3530
(dp3531
g66
(dp3532
g74
I4
ssg75
g3526
sg68
(lp3533
S'web2py'
p3534
asbasbasbasbasbasbasbag61
(g77
g63
NtRp3535
(dp3536
g66
(dp3537
sg75
g3032
sg68
(lp3538
g61
(g82
g63
NtRp3539
(dp3540
g66
(dp3541
g86
g87
ssg75
g3535
sg68
(lp3542
S'menu'
p3543
asbag61
(g82
g63
NtRp3544
(dp3545
g66
(dp3546
g93
g94
ssg75
g3535
sg68
(lp3547
S':'
asbag61
(g82
g63
NtRp3548
(dp3549
g66
(dp3550
sg75
g3535
sg68
(lp3551
g61
(g62
g63
NtRp3552
(dp3553
g66
(dp3554
g74
I5
ssg75
g3548
sg68
(lp3555
g61
(g70
g63
NtRp3556
(dp3557
g66
(dp3558
g74
I4
ssg75
Nsg68
(lp3559
sbasbasbasbag61
(g77
g63
NtRp3560
(dp3561
g66
(dp3562
sg75
g3032
sg68
(lp3563
g61
(g82
g63
NtRp3564
(dp3565
g66
(dp3566
g86
g87
ssg75
g3560
sg68
(lp3567
S'meta'
p3568
asbag61
(g82
g63
NtRp3569
(dp3570
g66
(dp3571
g93
g94
ssg75
g3560
sg68
(lp3572
S':'
asbag61
(g82
g63
NtRp3573
(dp3574
g66
(dp3575
sg75
g3560
sg68
(lp3576
g61
(g62
g63
NtRp3577
(dp3578
g66
(dp3579
g74
I5
ssg75
g3573
sg68
(lp3580
g61
(g70
g63
NtRp3581
(dp3582
g66
(dp3583
g74
I4
ssg75
Nsg68
(lp3584
sbasbasbasbag61
(g77
g63
NtRp3585
(dp3586
g66
(dp3587
sg75
g3032
sg68
(lp3588
g61
(g82
g63
NtRp3589
(dp3590
g66
(dp3591
g86
g87
ssg75
g3585
sg68
(lp3592
S'postprocessing'
p3593
asbag61
(g82
g63
NtRp3594
(dp3595
g66
(dp3596
g93
g94
ssg75
g3585
sg68
(lp3597
S':'
asbag61
(g82
g63
NtRp3598
(dp3599
g66
(dp3600
sg75
g3585
sg68
(lp3601
g61
(g62
g63
NtRp3602
(dp3603
g66
(dp3604
g74
I5
ssg75
g3598
sg68
(lp3605
g61
(g70
g63
NtRp3606
(dp3607
g66
(dp3608
g74
I4
ssg75
Nsg68
(lp3609
sbasbasbasbag61
(g77
g63
NtRp3610
(dp3611
g66
(dp3612
sg75
g3032
sg68
(lp3613
g61
(g82
g63
NtRp3614
(dp3615
g66
(dp3616
g86
g87
ssg75
g3610
sg68
(lp3617
S'session_filename'
p3618
asbag61
(g82
g63
NtRp3619
(dp3620
g66
(dp3621
g93
g94
ssg75
g3610
sg68
(lp3622
S':'
asbag61
(g82
g63
NtRp3623
(dp3624
g66
(dp3625
sg75
g3610
sg68
(lp3626
g61
(g62
g63
NtRp3627
(dp3628
g66
(dp3629
g74
I5
ssg75
g3623
sg68
(lp3630
S'D:\\workspace\\CA\\IgoR\\C_Sources\\Server\\igor-assistant-ca-2012\\applications\\igor\\sessions\\127.0.0.1-a3c23ea7-0dfe-4502-9257-c87f3a6d229a'
p3631
asbasbasbag61
(g77
g63
NtRp3632
(dp3633
g66
(dp3634
sg75
g3032
sg68
(lp3635
g61
(g82
g63
NtRp3636
(dp3637
g66
(dp3638
g86
g87
ssg75
g3632
sg68
(lp3639
S'session_id'
p3640
asbag61
(g82
g63
NtRp3641
(dp3642
g66
(dp3643
g93
g94
ssg75
g3632
sg68
(lp3644
S':'
asbag61
(g82
g63
NtRp3645
(dp3646
g66
(dp3647
sg75
g3632
sg68
(lp3648
g61
(g62
g63
NtRp3649
(dp3650
g66
(dp3651
g74
I5
ssg75
g3645
sg68
(lp3652
S'127.0.0.1-a3c23ea7-0dfe-4502-9257-c87f3a6d229a'
p3653
asbasbasbag61
(g77
g63
NtRp3654
(dp3655
g66
(dp3656
sg75
g3032
sg68
(lp3657
g61
(g82
g63
NtRp3658
(dp3659
g66
(dp3660
g86
g87
ssg75
g3654
sg68
(lp3661
S'session_id_name'
p3662
asbag61
(g82
g63
NtRp3663
(dp3664
g66
(dp3665
g93
g94
ssg75
g3654
sg68
(lp3666
S':'
asbag61
(g82
g63
NtRp3667
(dp3668
g66
(dp3669
sg75
g3654
sg68
(lp3670
g61
(g62
g63
NtRp3671
(dp3672
g66
(dp3673
g74
I5
ssg75
g3667
sg68
(lp3674
g3089
asbasbasbag61
(g77
g63
NtRp3675
(dp3676
g66
(dp3677
sg75
g3032
sg68
(lp3678
g61
(g82
g63
NtRp3679
(dp3680
g66
(dp3681
g86
g87
ssg75
g3675
sg68
(lp3682
S'session_new'
p3683
asbag61
(g82
g63
NtRp3684
(dp3685
g66
(dp3686
g93
g94
ssg75
g3675
sg68
(lp3687
S':'
asbag61
(g82
g63
NtRp3688
(dp3689
g66
(dp3690
sg75
g3675
sg68
(lp3691
g61
(g62
g63
NtRp3692
(dp3693
g66
(dp3694
g74
I5
ssg75
g3688
sg68
(lp3695
g1510
asbasbasbag61
(g77
g63
NtRp3696
(dp3697
g66
(dp3698
sg75
g3032
sg68
(lp3699
g61
(g82
g63
NtRp3700
(dp3701
g66
(dp3702
g86
g87
ssg75
g3696
sg68
(lp3703
S'status'
p3704
asbag61
(g82
g63
NtRp3705
(dp3706
g66
(dp3707
g93
g94
ssg75
g3696
sg68
(lp3708
S':'
asbag61
(g82
g63
NtRp3709
(dp3710
g66
(dp3711
sg75
g3696
sg68
(lp3712
g61
(g62
g63
NtRp3713
(dp3714
g66
(dp3715
g74
I5
ssg75
g3709
sg68
(lp3716
S'200'
p3717
asbasbasbag61
(g77
g63
NtRp3718
(dp3719
g66
(dp3720
sg75
g3032
sg68
(lp3721
g61
(g82
g63
NtRp3722
(dp3723
g66
(dp3724
g86
g87
ssg75
g3718
sg68
(lp3725
g2186
asbag61
(g82
g63
NtRp3726
(dp3727
g66
(dp3728
g93
g94
ssg75
g3718
sg68
(lp3729
S':'
asbag61
(g82
g63
NtRp3730
(dp3731
g66
(dp3732
sg75
g3718
sg68
(lp3733
g61
(g62
g63
NtRp3734
(dp3735
g66
(dp3736
g74
I5
ssg75
g3730
sg68
(lp3737
g2199
asbasbasbag61
(g77
g63
NtRp3738
(dp3739
g66
(dp3740
sg75
g3032
sg68
(lp3741
g61
(g82
g63
NtRp3742
(dp3743
g66
(dp3744
g86
g87
ssg75
g3738
sg68
(lp3745
S'view'
p3746
asbag61
(g82
g63
NtRp3747
(dp3748
g66
(dp3749
g93
g94
ssg75
g3738
sg68
(lp3750
S':'
asbag61
(g82
g63
NtRp3751
(dp3752
g66
(dp3753
sg75
g3738
sg68
(lp3754
g61
(g62
g63
NtRp3755
(dp3756
g66
(dp3757
g74
I5
ssg75
g3751
sg68
(lp3758
S'subject/get_all_subjects.html'
p3759
asbasbasbasbasbsS'locals'
p3760
(dp3761
S'a'
S"('CREATE TABLE auth_user(\\n    id INTEGER PRIMARY K...d_key CHAR(512),\\n    registration_id CHAR(512)\\n);',)"
p3762
sS'self'
p3763
S'<gluon.dal.SQLiteAdapter object>'
p3764
sS'b'
g21
sS't0'
p3765
S'1344067063.771'
p3766
sssS'traceback'
p3767
S'Traceback (most recent call last):\n  File "D:\\workspace\\CA\\IgoR\\C_Sources\\Server\\igor-assistant-ca-2012\\gluon\\restricted.py", line 205, in restricted\n    exec ccode in environment\n  File "D:\\workspace\\CA\\IgoR\\C_Sources\\Server\\igor-assistant-ca-2012\\applications\\igor\\models\\db.py", line 47, in <module>\n    auth.define_tables()\n  File "D:\\workspace\\CA\\IgoR\\C_Sources\\Server\\igor-assistant-ca-2012\\gluon\\tools.py", line 1309, in define_tables\n    format=\'%(first_name)s %(last_name)s (%(id)s)\'))\n  File "D:\\workspace\\CA\\IgoR\\C_Sources\\Server\\igor-assistant-ca-2012\\gluon\\dal.py", line 6320, in define_table\n    polymodel=polymodel)\n  File "D:\\workspace\\CA\\IgoR\\C_Sources\\Server\\igor-assistant-ca-2012\\gluon\\dal.py", line 719, in create_table\n    self.create_sequence_and_triggers(query,table)\n  File "D:\\workspace\\CA\\IgoR\\C_Sources\\Server\\igor-assistant-ca-2012\\gluon\\dal.py", line 1381, in create_sequence_and_triggers\n    self.execute(query)\n  File "D:\\workspace\\CA\\IgoR\\C_Sources\\Server\\igor-assistant-ca-2012\\gluon\\dal.py", line 1392, in execute\n    return self.log_execute(*a, **b)\n  File "D:\\workspace\\CA\\IgoR\\C_Sources\\Server\\igor-assistant-ca-2012\\gluon\\dal.py", line 1386, in log_execute\n    ret = self.cursor.execute(*a, **b)\nOperationalError: table auth_user already exists\n'
p3768
s.