(dp1
S'output'
p2
S"<type 'exceptions.SyntaxError'> invalid syntax (controllers/jobs.py, line 287)"
p3
sS'layer'
p4
S'D:\\workspace\\ca\\IgoR\\C_Sources\\Server\\igor-assistant-ca-2012\\applications\\igor\\controllers/jobs.py'
p5
sS'code'
p6
S'# -*- coding: utf-8 -*-\n# this file is released under public domain and you can use without limitations\n\n#########################################################################\n## This is jobs controller\n## Author: phucnh, tuna\n#########################################################################\n\nfrom message_packager import *\nfrom gluon.dal import Rows\n\n@request.restful()\ndef get_jobs_by_class():\n\tresponse.view = \'generic.json\'\n\tdef GET(user_id, class_id):\n\n\t\t# Validate input \n\t\tif (not user_id.isdigit()):\n\t\t\treturn MessagePackager.get_packaged_message (\n\t\t\t\tMessageStatus.ERROR, \n\t\t\t\t"use id must be numberic")\n\n\t\tif (int (user_id) < 0):\n\t\t\treturn MessagePackager.get_packaged_message (\n\t\t\t\tMessageStatus.ERROR, \n\t\t\t\t"user id can not less than 0")\n\n\t\tif (not class_id.isdigit()):\n\t\t\treturn MessagePackager.get_packaged_message (\n\t\t\t\tMessageStatus.ERROR, \n\t\t\t\t"class id must be numberic")\n\n\t\tif (int (class_id) < 0):\n\t\t\treturn MessagePackager.get_packaged_message (\n\t\t\t\tMessageStatus.ERROR, \n\t\t\t\t"class id can not less than 0")\n\n\n\t\tjobs = db(\n\t\t\tdb.job.owner == user_id and\n\t\t\tdb.job.class_subject == class_id).select()\n\n\t\treturn MessagePackager.get_packaged_message(MessageStatus.OK, jobs)\n\n\treturn locals()\t\n\n@request.restful()\ndef get_jobs_detail():\n\tresponse.view = \'generic.json\'\n\tdef GET(job_id):\n\n\t\t#validate input\n\t\tif (not job_id.isdigit()):\n\t\t\treturn MessagePackager.get_packaged_message (\n\t\t\t\tMessageStatus.ERROR, \n\t\t\t\t"job id must be numberic")\n\n\t\tif (int (job_id) < 0):\n\t\t\treturn MessagePackager.get_packaged_message (\n\t\t\t\tMessageStatus.ERROR, \n\t\t\t\t"job id can not less than 0")\n\n\t\tjob = db(\n\t\t\tdb.job.id == job_id).select() \n\n\t\tjob = format_client_data(job)\n\n\t\treturn MessagePackager.get_packaged_message(MessageStatus.OK, jobs)\n\n\treturn locals()\t\n\n\n@request.restful()\ndef add_class_job():\n\tresponse.view = \'generic.json\'\n\tdef GET(user_id, name, start_time, end_time, job_type, date, \n\t\trepeat_date, note, location, test, class_id):\n\n\t\t# Validate input\n\t\tif (not class_id.isdigit()):\n\t\t\treturn MessagePackager.get_packaged_message (\n\t\t\t\tMessageStatus.ERROR, \n\t\t\t\t"class id must be numberic")\n\n\t\tif (not user_id.isdigit()):\n\t\t\treturn MessagePackager.get_packaged_message (\n\t\t\t\tMessageStatus.ERROR, \n\t\t\t\t"user id must be numberic")\n\t\tif (int (class_id) < 0):\n\t\t\treturn MessagePackager.get_packaged_message (\n\t\t\t\tMessageStatus.ERROR, \n\t\t\t\t"class id can not less than 0")\n\t\tif (int (user_id) < 0):\n\t\t\treturn MessagePackager.get_packaged_message (\n\t\t\t\tMessageStatus.ERROR, \n\t\t\t\t"user id can not less than 0")\n\n\t\t# Insert new data\n\t\ttry:\n\t\t\tjob_id = db.job.insert(\n\t\t\towner = user_id,\n\t\t\tname = name,\n\t\t\tstart_time = start_time,\n\t\t\tend_time = end_time,\n\t\t\tjob_type = job_type,\n\t\t\tdate = maketime, ### Tuna input ????\n\t\t\trepeat_date = repeat_date,\n\t\t\tnote = note,\n\t\t\tlocation = location,\n\t\t\ttest = test,\n\t\t\tclass_subject = class_id)\n\n\t\texcept Exception as e:\n\t\t\treturn MessagePackager.get_packaged_message(MessageStatus.ERROR, e.errno + \': \' + e.strerror )\n\n\t\treturn MessagePackager.get_packaged_message(MessageStatus.OK, job_id)\n\n\treturn locals()\n\n@request.restful()\ndef delete_job():\n\tresponse.view = \'generic.json\'\n\tdef GET(job_id):\n\n\t\t#validate input\n\t\tif (not job_id.isdigit()):\n\t\t\treturn MessagePackager.get_packaged_message (\n\t\t\t\tMessageStatus.ERROR, \n\t\t\t\t"job id must be numberic")\n\n\t\tif (int (job_id) < 0):\n\t\t\treturn MessagePackager.get_packaged_message (\n\t\t\t\tMessageStatus.ERROR, \n\t\t\t\t"job id can not less than 0")\n\n\t\tjob_id = db(db.job.id == job_id).delete()\n\n\t\treturn MessagePackager.get_packaged_message(MessagePackager.OK, job_id)\n\n\treturn locals()\n\n@request.restful()\ndef mark_job_finished():\n\tresponse.view = \'generic.json\'\n\tdef GET(job_id):\n\n\t\t#validate input\n\t\tif (not job_id.isdigit()):\n\t\t\treturn MessagePackager.get_packaged_message (\n\t\t\t\tMessageStatus.ERROR, \n\t\t\t\t"job id must be numberic")\n\n\t\tif (int (job_id) < 0):\n\t\t\treturn MessagePackager.get_packaged_message (\n\t\t\t\tMessageStatus.ERROR, \n\t\t\t\t"job id can not less than 0")\n\n\t\t#update data\n\t\trow = db(db.job.id == job_id).select()\n\t\trow.update_record(status = 1)\n\n\t\treturn MessagePackager.get_packaged_message(MessageStatus.OK, "Done")\n\treturn locals()\n\n@request.restful()\ndef mark_jobs_finished():\n\tresponse.view = \'generic.json\'\n\tdef GET(job_ids):\n\n\t\t#update data\n\t\tfor job_id in job_ids:\n\t\t\t#validate input\n\t\t\tif (not job_id.isdigit()):\n\t\t\t\treturn MessagePackager.get_packaged_message (\n\t\t\t\tMessageStatus.ERROR, \n\t\t\t\t"job id must be numberic")\n\n\t\t\tif (int (job_id) < 0):\n\t\t\t\treturn MessagePackager.get_packaged_message (\n\t\t\t\tMessageStatus.ERROR, \n\t\t\t\t"job id can not less than 0")\n\n\t\t\trow = db(db.job.id == job_id).select()\n\t\t\trow.update_record(status = 1)\n\n\t\treturn MessagePackager.get_packaged_message(MessageStatus.OK, "Done")\n\treturn locals()\n\n\n@request.restful()\ndef accept_job():\n\tresponse.view = \'generic.json\'\n\tdef GET(job_id, owner, from_user):\n\n\t\t## validate input\n\t\tif (not job_id.isdigit()):\n\t\t\treturn MessagePackager.get_packaged_message (\n\t\t\tMessageStatus.ERROR,\n\t\t\t"job id must be numberic")\n\n\t\tif (int (job_id) < 0):\n\t\t\treturn MessagePackager.get_packaged_message (\n\t\t\tMessageStatus.ERROR, \n\t\t\t"job id can not less than 0")\n\t\tif (not owner.isdigit()):\n\t\t\treturn MessagePackager.get_packaged_message (\n\t\t\tMessageStatus.ERROR,\n\t\t\t"user id must be numberic")\n\n\t\tif (int (owner) < 0):\n\t\t\treturn MessagePackager.get_packaged_message (\n\t\t\tMessageStatus.ERROR, \n\t\t\t"user id can not less than 0")\n\t\tif (not from_user.isdigit()):\n\t\t\treturn MessagePackager.get_packaged_message (\n\t\t\tMessageStatus.ERROR,\n\t\t\t"user id must be numberic")\n\n\t\tif (int (from_user) < 0):\n\t\t\treturn MessagePackager.get_packaged_message (\n\t\t\tMessageStatus.ERROR, \n\t\t\t"user id can not less than 0")\n\n\t\t##\n\t\trows = db(db.notification.owner == from_user).select()\n\t\tcheck == False\n\t\tfor row in rows:\n\t\t\tif (row.is_read == True):\n\t\t\t\tcheck = True\n\t\t\t\tbreak\n\n\t\tif (check):\n\t\t\tadd_class_job() ### Tuna input???\n\t\telse:\n\t\t\treturn MessagePackager.get_packaged_message(MessageStatus.ERROR,\n\t\t\t "can not accept job: notification is not checked")\n\n\treturn locals()\n\n@request.restful()\ndef share_job_to_class():\n\tresponse.view = \'generic.json\'\n\tdef GET(job_id, from_user_id, class_id):\n\n\t\t#validate data\n\t\tif (not job_id.isdigit()):\n\t\t\treturn MessagePackager.get_packaged_message (\n\t\t\tMessageStatus.ERROR,\n\t\t\t"job id must be numberic")\n\n\t\tif (int (job_id) < 0):\n\t\t\treturn MessagePackager.get_packaged_message (\n\t\t\tMessageStatus.ERROR, \n\t\t\t"job id can not less than 0")\n\t\tif (not from_user_id.isdigit()):\n\t\t\treturn MessagePackager.get_packaged_message (\n\t\t\tMessageStatus.ERROR,\n\t\t\t"user id must be numberic")\n\n\t\tif (int (from_user_id) < 0):\n\t\t\treturn MessagePackager.get_packaged_message (\n\t\t\tMessageStatus.ERROR, \n\t\t\t"user id can not less than 0")\n\t\tif (not class_id.isdigit()):\n\t\t\treturn MessagePackager.get_packaged_message (\n\t\t\tMessageStatus.ERROR,\n\t\t\t"class id must be numberic")\n\n\t\tif (int (class_id) < 0):\n\t\t\treturn MessagePackager.get_packaged_message (\n\t\t\tMessageStatus.ERROR, \n\t\t\t"class id can not less than 0")\n\t\t\n\t\t###\n\n\t\trows = db(db.user.user_course == class_id).select()\n\n\t\tfor row in rows:\n\n\t\t\ttry:\n\t\t\t\tnotification_id = db.notification.insert(\n\t\t\t\tnotification_class = 0,\n\t\t\t\towner = from_user_id,\n\t\t\t\tuser_share = row.id,\n\t\t\t\tis_read = False,\n\t\t\t\ttype = 1,\n\t\t\t\tdate = , ##Tuna - get date ???\n\t\t\t\tis_completed = False\n\t\t\t\t)\n\n\t\t\texcept Exception as e:\n\t\t\t\treturn MessagePackager.get_packaged_message(MessageStatus.ERROR, e.errno + \': \' + e.strerror )\n\n\t\treturn MessagePackager.get_packaged_message(MessageStatus.OK, "Done")\n\n\treturn locals()\n\n\n\n# @request.restful()\n# def share_job_to_project():\n# \tresponse.view = \'generic.json\'\n# \tdef GET(job_id, from_user_id, class_id):\n\n# \t\t#validate data\n# \t\tif (not job_id.isdigit()):\n# \t\t\treturn MessagePackager.get_packaged_message (\n# \t\t\tMessageStatus.ERROR,\n# \t\t\t"job id must be numberic")\n\n# \t\tif (int (job_id) < 0):\n# \t\t\treturn MessagePackager.get_packaged_message (\n# \t\t\tMessageStatus.ERROR, \n# \t\t\t"job id can not less than 0")\n# \t\tif (not from_user_id.isdigit()):\n# \t\t\treturn MessagePackager.get_packaged_message (\n# \t\t\tMessageStatus.ERROR,\n# \t\t\t"user id must be numberic")\n\n# \t\tif (int (from_user_id) < 0):\n# \t\t\treturn MessagePackager.get_packaged_message (\n# \t\t\tMessageStatus.ERROR, \n# \t\t\t"user id can not less than 0")\n# \t\tif (not class_id.isdigit()):\n# \t\t\treturn MessagePackager.get_packaged_message (\n# \t\t\tMessageStatus.ERROR,\n# \t\t\t"class id must be numberic")\n\n# \t\tif (int (class_id) < 0):\n# \t\t\treturn MessagePackager.get_packaged_message (\n# \t\t\tMessageStatus.ERROR, \n# \t\t\t"class id can not less than 0")\n\t\t\n# \t\t###\n\n# \t\trows = db(db.user.user_course == class_id).select()\n\n# \t\tfor row in rows:\n\n# \t\t\ttry:\n# \t\t\t\tnotification_id = db.notification.insert(\n# \t\t\t\tnotification_class = 0,\n# \t\t\t\towner = from_user_id,\n# \t\t\t\tuser_share = row.id,\n# \t\t\t\tis_read = False,\n# \t\t\t\ttype = 1,\n# \t\t\t\tdate = , ##Tuna - get date ???\n# \t\t\t\tis_completed = False\n# \t\t\t\t)\n\n# \t\t\texcept Exception as e:\n# \t\t\t\treturn MessagePackager.get_packaged_message(MessageStatus.ERROR, e.errno + \': \' + e.strerror )\n\n# \t\treturn MessagePackager.get_packaged_message(MessageStatus.OK, "Done")\n\n# \treturn locals()\n\n\n\n\n##############################\n## Format output for client\n##\n##############################\n\ndef format_client_data(job):\n\tif (job == None):\n\t\treturn\n\n\nresponse._vars=response._caller(get_jobs_by_class)\n'
p7
sS'snapshot'
p8
(dp9
S'exception'
p10
(dp11
S'__getslice__'
p12
S"<method-wrapper '__getslice__' of exceptions.SyntaxError object>"
p13
sS'text'
p14
S"'\\t\\t\\t\\tdate = , ##Tuna - get date ???\\n'"
p15
sS'__str__'
p16
S"<method-wrapper '__str__' of exceptions.SyntaxError object>"
p17
sS'__reduce__'
p18
S'<built-in method __reduce__ of exceptions.SyntaxError object>'
p19
sS'__dict__'
p20
S'{}'
p21
sS'__sizeof__'
p22
S'<built-in method __sizeof__ of exceptions.SyntaxError object>'
p23
sS'__init__'
p24
S"<method-wrapper '__init__' of exceptions.SyntaxError object>"
p25
sS'__setattr__'
p26
S"<method-wrapper '__setattr__' of exceptions.SyntaxError object>"
p27
sS'__reduce_ex__'
p28
S'<built-in method __reduce_ex__ of exceptions.SyntaxError object>'
p29
sS'__new__'
p30
S'<built-in method __new__ of type object>'
p31
sS'__format__'
p32
S'<built-in method __format__ of exceptions.SyntaxError object>'
p33
sS'__class__'
p34
S"<type 'exceptions.SyntaxError'>"
p35
sS'filename'
p36
S"r'D:\\workspace\\ca\\IgoR\\C_Sources\\Server\\igor-assistant-ca-2012\\applications\\igor\\controllers/jobs.py'"
p37
sS'lineno'
p38
S'287'
p39
sS'msg'
p40
S"'invalid syntax'"
p41
sS'__doc__'
p42
S"'Invalid syntax.'"
p43
sS'__getitem__'
p44
S"<method-wrapper '__getitem__' of exceptions.SyntaxError object>"
p45
sS'__setstate__'
p46
S'<built-in method __setstate__ of exceptions.SyntaxError object>'
p47
sS'__getattribute__'
p48
S"<method-wrapper '__getattribute__' of exceptions.SyntaxError object>"
p49
sS'print_file_and_line'
p50
S'None'
p51
sS'args'
p52
S"('invalid syntax', (r'D:\\workspace\\ca\\IgoR\\C_Sources\\Server\\igor-assistant-ca-2012\\applications\\igor\\controllers/jobs.py', 287, 12, '\\t\\t\\t\\tdate = , ##Tuna - get date ???\\n'))"
p53
sS'__subclasshook__'
p54
S'<built-in method __subclasshook__ of type object>'
p55
sS'offset'
p56
S'12'
p57
sS'__unicode__'
p58
S'<built-in method __unicode__ of exceptions.SyntaxError object>'
p59
sS'__delattr__'
p60
S"<method-wrapper '__delattr__' of exceptions.SyntaxError object>"
p61
sS'__repr__'
p62
S"<method-wrapper '__repr__' of exceptions.SyntaxError object>"
p63
sS'__hash__'
p64
S"<method-wrapper '__hash__' of exceptions.SyntaxError object>"
p65
ssS'evalue'
p66
S'invalid syntax (controllers/jobs.py, line 287)'
p67
sS'request'
p68
ccopy_reg
_reconstructor
p69
(cgluon.html
BEAUTIFY
p70
c__builtin__
object
p71
NtRp72
(dp73
S'attributes'
p74
(dp75
sS'components'
p76
(lp77
g69
(cgluon.html
TABLE
p78
g71
NtRp79
(dp80
g74
(dp81
S'level'
p82
I5
ssS'parent'
p83
Nsg76
(lp84
g69
(cgluon.html
TR
p85
g71
NtRp86
(dp87
g74
(dp88
sg83
g79
sg76
(lp89
g69
(cgluon.html
TD
p90
g71
NtRp91
(dp92
g74
(dp93
S'_style'
p94
S'font-weight:bold;vertical-align:top'
p95
ssg83
g86
sg76
(lp96
S'ajax'
p97
asbag69
(g90
g71
NtRp98
(dp99
g74
(dp100
S'_valign'
p101
S'top'
p102
ssg83
g86
sg76
(lp103
S':'
asbag69
(g90
g71
NtRp104
(dp105
g74
(dp106
sg83
g86
sg76
(lp107
g69
(g70
g71
NtRp108
(dp109
g74
(dp110
g82
I5
ssg83
g104
sg76
(lp111
S'False'
p112
asbasbasbag69
(g85
g71
NtRp113
(dp114
g74
(dp115
sg83
g79
sg76
(lp116
g69
(g90
g71
NtRp117
(dp118
g74
(dp119
g94
g95
ssg83
g113
sg76
(lp120
S'application'
p121
asbag69
(g90
g71
NtRp122
(dp123
g74
(dp124
g101
g102
ssg83
g113
sg76
(lp125
S':'
asbag69
(g90
g71
NtRp126
(dp127
g74
(dp128
sg83
g113
sg76
(lp129
g69
(g70
g71
NtRp130
(dp131
g74
(dp132
g82
I5
ssg83
g126
sg76
(lp133
S'igor'
p134
asbasbasbag69
(g85
g71
NtRp135
(dp136
g74
(dp137
sg83
g79
sg76
(lp138
g69
(g90
g71
NtRp139
(dp140
g74
(dp141
g94
g95
ssg83
g135
sg76
(lp142
g52
asbag69
(g90
g71
NtRp143
(dp144
g74
(dp145
g101
g102
ssg83
g135
sg76
(lp146
S':'
asbag69
(g90
g71
NtRp147
(dp148
g74
(dp149
sg83
g135
sg76
(lp150
g69
(g70
g71
NtRp151
(dp152
g74
(dp153
g82
I5
ssg83
g147
sg76
(lp154
g69
(g78
g71
NtRp155
(dp156
g74
(dp157
g82
I4
ssg83
Nsg76
(lp158
g69
(g85
g71
NtRp159
(dp160
g74
(dp161
sg83
g155
sg76
(lp162
g69
(g90
g71
NtRp163
(dp164
g74
(dp165
sg83
g159
sg76
(lp166
g69
(g70
g71
NtRp167
(dp168
g74
(dp169
g82
I4
ssg83
g163
sg76
(lp170
S'1'
asbasbasbag69
(g85
g71
NtRp171
(dp172
g74
(dp173
sg83
g155
sg76
(lp174
g69
(g90
g71
NtRp175
(dp176
g74
(dp177
sg83
g171
sg76
(lp178
g69
(g70
g71
NtRp179
(dp180
g74
(dp181
g82
I4
ssg83
g175
sg76
(lp182
S'2'
asbasbasbasbasbasbasbag69
(g85
g71
NtRp183
(dp184
g74
(dp185
sg83
g79
sg76
(lp186
g69
(g90
g71
NtRp187
(dp188
g74
(dp189
g94
g95
ssg83
g183
sg76
(lp190
S'body'
p191
asbag69
(g90
g71
NtRp192
(dp193
g74
(dp194
g101
g102
ssg83
g183
sg76
(lp195
S':'
asbag69
(g90
g71
NtRp196
(dp197
g74
(dp198
sg83
g183
sg76
(lp199
g69
(g70
g71
NtRp200
(dp201
g74
(dp202
g82
I5
ssg83
g196
sg76
(lp203
S'<cStringIO.StringO object at 0x0000000008F36308>'
p204
asbasbasbag69
(g85
g71
NtRp205
(dp206
g74
(dp207
sg83
g79
sg76
(lp208
g69
(g90
g71
NtRp209
(dp210
g74
(dp211
g94
g95
ssg83
g205
sg76
(lp212
S'client'
p213
asbag69
(g90
g71
NtRp214
(dp215
g74
(dp216
g101
g102
ssg83
g205
sg76
(lp217
S':'
asbag69
(g90
g71
NtRp218
(dp219
g74
(dp220
sg83
g205
sg76
(lp221
g69
(g70
g71
NtRp222
(dp223
g74
(dp224
g82
I5
ssg83
g218
sg76
(lp225
S'127.0.0.1'
p226
asbasbasbag69
(g85
g71
NtRp227
(dp228
g74
(dp229
sg83
g79
sg76
(lp230
g69
(g90
g71
NtRp231
(dp232
g74
(dp233
g94
g95
ssg83
g227
sg76
(lp234
S'controller'
p235
asbag69
(g90
g71
NtRp236
(dp237
g74
(dp238
g101
g102
ssg83
g227
sg76
(lp239
S':'
asbag69
(g90
g71
NtRp240
(dp241
g74
(dp242
sg83
g227
sg76
(lp243
g69
(g70
g71
NtRp244
(dp245
g74
(dp246
g82
I5
ssg83
g240
sg76
(lp247
S'jobs'
p248
asbasbasbag69
(g85
g71
NtRp249
(dp250
g74
(dp251
sg83
g79
sg76
(lp252
g69
(g90
g71
NtRp253
(dp254
g74
(dp255
g94
g95
ssg83
g249
sg76
(lp256
S'cookies'
p257
asbag69
(g90
g71
NtRp258
(dp259
g74
(dp260
g101
g102
ssg83
g249
sg76
(lp261
S':'
asbag69
(g90
g71
NtRp262
(dp263
g74
(dp264
sg83
g249
sg76
(lp265
g69
(g70
g71
NtRp266
(dp267
g74
(dp268
g82
I5
ssg83
g262
sg76
(lp269
g69
(g78
g71
NtRp270
(dp271
g74
(dp272
g82
I4
ssg83
Nsg76
(lp273
g69
(g85
g71
NtRp274
(dp275
g74
(dp276
sg83
g270
sg76
(lp277
g69
(g90
g71
NtRp278
(dp279
g74
(dp280
g94
g95
ssg83
g274
sg76
(lp281
S'session_id_admin'
p282
asbag69
(g90
g71
NtRp283
(dp284
g74
(dp285
g101
g102
ssg83
g274
sg76
(lp286
S':'
asbag69
(g90
g71
NtRp287
(dp288
g74
(dp289
sg83
g274
sg76
(lp290
g69
(g70
g71
NtRp291
(dp292
g74
(dp293
g82
I4
ssg83
g287
sg76
(lp294
g69
(g78
g71
NtRp295
(dp296
g74
(dp297
g82
I3
ssg83
Nsg76
(lp298
g69
(g85
g71
NtRp299
(dp300
g74
(dp301
sg83
g295
sg76
(lp302
g69
(g90
g71
NtRp303
(dp304
g74
(dp305
g94
g95
ssg83
g299
sg76
(lp306
S'comment'
p307
asbag69
(g90
g71
NtRp308
(dp309
g74
(dp310
g101
g102
ssg83
g299
sg76
(lp311
S':'
asbag69
(g90
g71
NtRp312
(dp313
g74
(dp314
sg83
g299
sg76
(lp315
g69
(g70
g71
NtRp316
(dp317
g74
(dp318
g82
I3
ssg83
g312
sg76
(lp319
S''
asbasbasbag69
(g85
g71
NtRp320
(dp321
g74
(dp322
sg83
g295
sg76
(lp323
g69
(g90
g71
NtRp324
(dp325
g74
(dp326
g94
g95
ssg83
g320
sg76
(lp327
S'domain'
p328
asbag69
(g90
g71
NtRp329
(dp330
g74
(dp331
g101
g102
ssg83
g320
sg76
(lp332
S':'
asbag69
(g90
g71
NtRp333
(dp334
g74
(dp335
sg83
g320
sg76
(lp336
g69
(g70
g71
NtRp337
(dp338
g74
(dp339
g82
I3
ssg83
g333
sg76
(lp340
S''
asbasbasbag69
(g85
g71
NtRp341
(dp342
g74
(dp343
sg83
g295
sg76
(lp344
g69
(g90
g71
NtRp345
(dp346
g74
(dp347
g94
g95
ssg83
g341
sg76
(lp348
S'expires'
p349
asbag69
(g90
g71
NtRp350
(dp351
g74
(dp352
g101
g102
ssg83
g341
sg76
(lp353
S':'
asbag69
(g90
g71
NtRp354
(dp355
g74
(dp356
sg83
g341
sg76
(lp357
g69
(g70
g71
NtRp358
(dp359
g74
(dp360
g82
I3
ssg83
g354
sg76
(lp361
S''
asbasbasbag69
(g85
g71
NtRp362
(dp363
g74
(dp364
sg83
g295
sg76
(lp365
g69
(g90
g71
NtRp366
(dp367
g74
(dp368
g94
g95
ssg83
g362
sg76
(lp369
S'httponly'
p370
asbag69
(g90
g71
NtRp371
(dp372
g74
(dp373
g101
g102
ssg83
g362
sg76
(lp374
S':'
asbag69
(g90
g71
NtRp375
(dp376
g74
(dp377
sg83
g362
sg76
(lp378
g69
(g70
g71
NtRp379
(dp380
g74
(dp381
g82
I3
ssg83
g375
sg76
(lp382
S''
asbasbasbag69
(g85
g71
NtRp383
(dp384
g74
(dp385
sg83
g295
sg76
(lp386
g69
(g90
g71
NtRp387
(dp388
g74
(dp389
g94
g95
ssg83
g383
sg76
(lp390
S'max-age'
p391
asbag69
(g90
g71
NtRp392
(dp393
g74
(dp394
g101
g102
ssg83
g383
sg76
(lp395
S':'
asbag69
(g90
g71
NtRp396
(dp397
g74
(dp398
sg83
g383
sg76
(lp399
g69
(g70
g71
NtRp400
(dp401
g74
(dp402
g82
I3
ssg83
g396
sg76
(lp403
S''
asbasbasbag69
(g85
g71
NtRp404
(dp405
g74
(dp406
sg83
g295
sg76
(lp407
g69
(g90
g71
NtRp408
(dp409
g74
(dp410
g94
g95
ssg83
g404
sg76
(lp411
S'path'
p412
asbag69
(g90
g71
NtRp413
(dp414
g74
(dp415
g101
g102
ssg83
g404
sg76
(lp416
S':'
asbag69
(g90
g71
NtRp417
(dp418
g74
(dp419
sg83
g404
sg76
(lp420
g69
(g70
g71
NtRp421
(dp422
g74
(dp423
g82
I3
ssg83
g417
sg76
(lp424
S''
asbasbasbag69
(g85
g71
NtRp425
(dp426
g74
(dp427
sg83
g295
sg76
(lp428
g69
(g90
g71
NtRp429
(dp430
g74
(dp431
g94
g95
ssg83
g425
sg76
(lp432
S'secure'
p433
asbag69
(g90
g71
NtRp434
(dp435
g74
(dp436
g101
g102
ssg83
g425
sg76
(lp437
S':'
asbag69
(g90
g71
NtRp438
(dp439
g74
(dp440
sg83
g425
sg76
(lp441
g69
(g70
g71
NtRp442
(dp443
g74
(dp444
g82
I3
ssg83
g438
sg76
(lp445
S''
asbasbasbag69
(g85
g71
NtRp446
(dp447
g74
(dp448
sg83
g295
sg76
(lp449
g69
(g90
g71
NtRp450
(dp451
g74
(dp452
g94
g95
ssg83
g446
sg76
(lp453
S'version'
p454
asbag69
(g90
g71
NtRp455
(dp456
g74
(dp457
g101
g102
ssg83
g446
sg76
(lp458
S':'
asbag69
(g90
g71
NtRp459
(dp460
g74
(dp461
sg83
g446
sg76
(lp462
g69
(g70
g71
NtRp463
(dp464
g74
(dp465
g82
I3
ssg83
g459
sg76
(lp466
S''
asbasbasbasbasbasbasbag69
(g85
g71
NtRp467
(dp468
g74
(dp469
sg83
g270
sg76
(lp470
g69
(g90
g71
NtRp471
(dp472
g74
(dp473
g94
g95
ssg83
g467
sg76
(lp474
S'session_id_igor'
p475
asbag69
(g90
g71
NtRp476
(dp477
g74
(dp478
g101
g102
ssg83
g467
sg76
(lp479
S':'
asbag69
(g90
g71
NtRp480
(dp481
g74
(dp482
sg83
g467
sg76
(lp483
g69
(g70
g71
NtRp484
(dp485
g74
(dp486
g82
I4
ssg83
g480
sg76
(lp487
g69
(g78
g71
NtRp488
(dp489
g74
(dp490
g82
I3
ssg83
Nsg76
(lp491
g69
(g85
g71
NtRp492
(dp493
g74
(dp494
sg83
g488
sg76
(lp495
g69
(g90
g71
NtRp496
(dp497
g74
(dp498
g94
g95
ssg83
g492
sg76
(lp499
g307
asbag69
(g90
g71
NtRp500
(dp501
g74
(dp502
g101
g102
ssg83
g492
sg76
(lp503
S':'
asbag69
(g90
g71
NtRp504
(dp505
g74
(dp506
sg83
g492
sg76
(lp507
g69
(g70
g71
NtRp508
(dp509
g74
(dp510
g82
I3
ssg83
g504
sg76
(lp511
S''
asbasbasbag69
(g85
g71
NtRp512
(dp513
g74
(dp514
sg83
g488
sg76
(lp515
g69
(g90
g71
NtRp516
(dp517
g74
(dp518
g94
g95
ssg83
g512
sg76
(lp519
g328
asbag69
(g90
g71
NtRp520
(dp521
g74
(dp522
g101
g102
ssg83
g512
sg76
(lp523
S':'
asbag69
(g90
g71
NtRp524
(dp525
g74
(dp526
sg83
g512
sg76
(lp527
g69
(g70
g71
NtRp528
(dp529
g74
(dp530
g82
I3
ssg83
g524
sg76
(lp531
S''
asbasbasbag69
(g85
g71
NtRp532
(dp533
g74
(dp534
sg83
g488
sg76
(lp535
g69
(g90
g71
NtRp536
(dp537
g74
(dp538
g94
g95
ssg83
g532
sg76
(lp539
g349
asbag69
(g90
g71
NtRp540
(dp541
g74
(dp542
g101
g102
ssg83
g532
sg76
(lp543
S':'
asbag69
(g90
g71
NtRp544
(dp545
g74
(dp546
sg83
g532
sg76
(lp547
g69
(g70
g71
NtRp548
(dp549
g74
(dp550
g82
I3
ssg83
g544
sg76
(lp551
S''
asbasbasbag69
(g85
g71
NtRp552
(dp553
g74
(dp554
sg83
g488
sg76
(lp555
g69
(g90
g71
NtRp556
(dp557
g74
(dp558
g94
g95
ssg83
g552
sg76
(lp559
g370
asbag69
(g90
g71
NtRp560
(dp561
g74
(dp562
g101
g102
ssg83
g552
sg76
(lp563
S':'
asbag69
(g90
g71
NtRp564
(dp565
g74
(dp566
sg83
g552
sg76
(lp567
g69
(g70
g71
NtRp568
(dp569
g74
(dp570
g82
I3
ssg83
g564
sg76
(lp571
S''
asbasbasbag69
(g85
g71
NtRp572
(dp573
g74
(dp574
sg83
g488
sg76
(lp575
g69
(g90
g71
NtRp576
(dp577
g74
(dp578
g94
g95
ssg83
g572
sg76
(lp579
g391
asbag69
(g90
g71
NtRp580
(dp581
g74
(dp582
g101
g102
ssg83
g572
sg76
(lp583
S':'
asbag69
(g90
g71
NtRp584
(dp585
g74
(dp586
sg83
g572
sg76
(lp587
g69
(g70
g71
NtRp588
(dp589
g74
(dp590
g82
I3
ssg83
g584
sg76
(lp591
S''
asbasbasbag69
(g85
g71
NtRp592
(dp593
g74
(dp594
sg83
g488
sg76
(lp595
g69
(g90
g71
NtRp596
(dp597
g74
(dp598
g94
g95
ssg83
g592
sg76
(lp599
g412
asbag69
(g90
g71
NtRp600
(dp601
g74
(dp602
g101
g102
ssg83
g592
sg76
(lp603
S':'
asbag69
(g90
g71
NtRp604
(dp605
g74
(dp606
sg83
g592
sg76
(lp607
g69
(g70
g71
NtRp608
(dp609
g74
(dp610
g82
I3
ssg83
g604
sg76
(lp611
S''
asbasbasbag69
(g85
g71
NtRp612
(dp613
g74
(dp614
sg83
g488
sg76
(lp615
g69
(g90
g71
NtRp616
(dp617
g74
(dp618
g94
g95
ssg83
g612
sg76
(lp619
g433
asbag69
(g90
g71
NtRp620
(dp621
g74
(dp622
g101
g102
ssg83
g612
sg76
(lp623
S':'
asbag69
(g90
g71
NtRp624
(dp625
g74
(dp626
sg83
g612
sg76
(lp627
g69
(g70
g71
NtRp628
(dp629
g74
(dp630
g82
I3
ssg83
g624
sg76
(lp631
S''
asbasbasbag69
(g85
g71
NtRp632
(dp633
g74
(dp634
sg83
g488
sg76
(lp635
g69
(g90
g71
NtRp636
(dp637
g74
(dp638
g94
g95
ssg83
g632
sg76
(lp639
g454
asbag69
(g90
g71
NtRp640
(dp641
g74
(dp642
g101
g102
ssg83
g632
sg76
(lp643
S':'
asbag69
(g90
g71
NtRp644
(dp645
g74
(dp646
sg83
g632
sg76
(lp647
g69
(g70
g71
NtRp648
(dp649
g74
(dp650
g82
I3
ssg83
g644
sg76
(lp651
S''
asbasbasbasbasbasbasbag69
(g85
g71
NtRp652
(dp653
g74
(dp654
sg83
g270
sg76
(lp655
g69
(g90
g71
NtRp656
(dp657
g74
(dp658
g94
g95
ssg83
g652
sg76
(lp659
S'session_id_welcome'
p660
asbag69
(g90
g71
NtRp661
(dp662
g74
(dp663
g101
g102
ssg83
g652
sg76
(lp664
S':'
asbag69
(g90
g71
NtRp665
(dp666
g74
(dp667
sg83
g652
sg76
(lp668
g69
(g70
g71
NtRp669
(dp670
g74
(dp671
g82
I4
ssg83
g665
sg76
(lp672
g69
(g78
g71
NtRp673
(dp674
g74
(dp675
g82
I3
ssg83
Nsg76
(lp676
g69
(g85
g71
NtRp677
(dp678
g74
(dp679
sg83
g673
sg76
(lp680
g69
(g90
g71
NtRp681
(dp682
g74
(dp683
g94
g95
ssg83
g677
sg76
(lp684
g307
asbag69
(g90
g71
NtRp685
(dp686
g74
(dp687
g101
g102
ssg83
g677
sg76
(lp688
S':'
asbag69
(g90
g71
NtRp689
(dp690
g74
(dp691
sg83
g677
sg76
(lp692
g69
(g70
g71
NtRp693
(dp694
g74
(dp695
g82
I3
ssg83
g689
sg76
(lp696
S''
asbasbasbag69
(g85
g71
NtRp697
(dp698
g74
(dp699
sg83
g673
sg76
(lp700
g69
(g90
g71
NtRp701
(dp702
g74
(dp703
g94
g95
ssg83
g697
sg76
(lp704
g328
asbag69
(g90
g71
NtRp705
(dp706
g74
(dp707
g101
g102
ssg83
g697
sg76
(lp708
S':'
asbag69
(g90
g71
NtRp709
(dp710
g74
(dp711
sg83
g697
sg76
(lp712
g69
(g70
g71
NtRp713
(dp714
g74
(dp715
g82
I3
ssg83
g709
sg76
(lp716
S''
asbasbasbag69
(g85
g71
NtRp717
(dp718
g74
(dp719
sg83
g673
sg76
(lp720
g69
(g90
g71
NtRp721
(dp722
g74
(dp723
g94
g95
ssg83
g717
sg76
(lp724
g349
asbag69
(g90
g71
NtRp725
(dp726
g74
(dp727
g101
g102
ssg83
g717
sg76
(lp728
S':'
asbag69
(g90
g71
NtRp729
(dp730
g74
(dp731
sg83
g717
sg76
(lp732
g69
(g70
g71
NtRp733
(dp734
g74
(dp735
g82
I3
ssg83
g729
sg76
(lp736
S''
asbasbasbag69
(g85
g71
NtRp737
(dp738
g74
(dp739
sg83
g673
sg76
(lp740
g69
(g90
g71
NtRp741
(dp742
g74
(dp743
g94
g95
ssg83
g737
sg76
(lp744
g370
asbag69
(g90
g71
NtRp745
(dp746
g74
(dp747
g101
g102
ssg83
g737
sg76
(lp748
S':'
asbag69
(g90
g71
NtRp749
(dp750
g74
(dp751
sg83
g737
sg76
(lp752
g69
(g70
g71
NtRp753
(dp754
g74
(dp755
g82
I3
ssg83
g749
sg76
(lp756
S''
asbasbasbag69
(g85
g71
NtRp757
(dp758
g74
(dp759
sg83
g673
sg76
(lp760
g69
(g90
g71
NtRp761
(dp762
g74
(dp763
g94
g95
ssg83
g757
sg76
(lp764
g391
asbag69
(g90
g71
NtRp765
(dp766
g74
(dp767
g101
g102
ssg83
g757
sg76
(lp768
S':'
asbag69
(g90
g71
NtRp769
(dp770
g74
(dp771
sg83
g757
sg76
(lp772
g69
(g70
g71
NtRp773
(dp774
g74
(dp775
g82
I3
ssg83
g769
sg76
(lp776
S''
asbasbasbag69
(g85
g71
NtRp777
(dp778
g74
(dp779
sg83
g673
sg76
(lp780
g69
(g90
g71
NtRp781
(dp782
g74
(dp783
g94
g95
ssg83
g777
sg76
(lp784
g412
asbag69
(g90
g71
NtRp785
(dp786
g74
(dp787
g101
g102
ssg83
g777
sg76
(lp788
S':'
asbag69
(g90
g71
NtRp789
(dp790
g74
(dp791
sg83
g777
sg76
(lp792
g69
(g70
g71
NtRp793
(dp794
g74
(dp795
g82
I3
ssg83
g789
sg76
(lp796
S''
asbasbasbag69
(g85
g71
NtRp797
(dp798
g74
(dp799
sg83
g673
sg76
(lp800
g69
(g90
g71
NtRp801
(dp802
g74
(dp803
g94
g95
ssg83
g797
sg76
(lp804
g433
asbag69
(g90
g71
NtRp805
(dp806
g74
(dp807
g101
g102
ssg83
g797
sg76
(lp808
S':'
asbag69
(g90
g71
NtRp809
(dp810
g74
(dp811
sg83
g797
sg76
(lp812
g69
(g70
g71
NtRp813
(dp814
g74
(dp815
g82
I3
ssg83
g809
sg76
(lp816
S''
asbasbasbag69
(g85
g71
NtRp817
(dp818
g74
(dp819
sg83
g673
sg76
(lp820
g69
(g90
g71
NtRp821
(dp822
g74
(dp823
g94
g95
ssg83
g817
sg76
(lp824
g454
asbag69
(g90
g71
NtRp825
(dp826
g74
(dp827
g101
g102
ssg83
g817
sg76
(lp828
S':'
asbag69
(g90
g71
NtRp829
(dp830
g74
(dp831
sg83
g817
sg76
(lp832
g69
(g70
g71
NtRp833
(dp834
g74
(dp835
g82
I3
ssg83
g829
sg76
(lp836
S''
asbasbasbasbasbasbasbasbasbasbasbag69
(g85
g71
NtRp837
(dp838
g74
(dp839
sg83
g79
sg76
(lp840
g69
(g90
g71
NtRp841
(dp842
g74
(dp843
g94
g95
ssg83
g837
sg76
(lp844
S'env'
p845
asbag69
(g90
g71
NtRp846
(dp847
g74
(dp848
g101
g102
ssg83
g837
sg76
(lp849
S':'
asbag69
(g90
g71
NtRp850
(dp851
g74
(dp852
sg83
g837
sg76
(lp853
g69
(g70
g71
NtRp854
(dp855
g74
(dp856
g82
I5
ssg83
g850
sg76
(lp857
g69
(g78
g71
NtRp858
(dp859
g74
(dp860
g82
I4
ssg83
Nsg76
(lp861
g69
(g85
g71
NtRp862
(dp863
g74
(dp864
sg83
g858
sg76
(lp865
g69
(g90
g71
NtRp866
(dp867
g74
(dp868
g94
g95
ssg83
g862
sg76
(lp869
S'app_folders'
p870
asbag69
(g90
g71
NtRp871
(dp872
g74
(dp873
g101
g102
ssg83
g862
sg76
(lp874
S':'
asbag69
(g90
g71
NtRp875
(dp876
g74
(dp877
sg83
g862
sg76
(lp878
g69
(g70
g71
NtRp879
(dp880
g74
(dp881
g82
I4
ssg83
g875
sg76
(lp882
S"set(['D:\\\\workspace\\\\ca\\\\IgoR\\\\C_Sources\\\\Server\\\\igor-assistant-ca-2012\\\\applications\\\\admin\\\\', 'D:\\\\workspace\\\\ca\\\\IgoR\\\\C_Sources\\\\Server\\\\igor-assistant-ca-2012\\\\applications\\\\igor\\\\', 'D:\\\\workspace\\\\ca\\\\IgoR\\\\C_Sources\\\\Server\\\\igor-assistant-ca-2012\\\\applications\\\\welcome\\\\'])"
p883
asbasbasbag69
(g85
g71
NtRp884
(dp885
g74
(dp886
sg83
g858
sg76
(lp887
g69
(g90
g71
NtRp888
(dp889
g74
(dp890
g94
g95
ssg83
g884
sg76
(lp891
S'applications_parent'
p892
asbag69
(g90
g71
NtRp893
(dp894
g74
(dp895
g101
g102
ssg83
g884
sg76
(lp896
S':'
asbag69
(g90
g71
NtRp897
(dp898
g74
(dp899
sg83
g884
sg76
(lp900
g69
(g70
g71
NtRp901
(dp902
g74
(dp903
g82
I4
ssg83
g897
sg76
(lp904
S'D:\\workspace\\ca\\IgoR\\C_Sources\\Server\\igor-assistant-ca-2012'
p905
asbasbasbag69
(g85
g71
NtRp906
(dp907
g74
(dp908
sg83
g858
sg76
(lp909
g69
(g90
g71
NtRp910
(dp911
g74
(dp912
g94
g95
ssg83
g906
sg76
(lp913
S'cmd_args'
p914
asbag69
(g90
g71
NtRp915
(dp916
g74
(dp917
g101
g102
ssg83
g906
sg76
(lp918
S':'
asbag69
(g90
g71
NtRp919
(dp920
g74
(dp921
sg83
g906
sg76
(lp922
g69
(g70
g71
NtRp923
(dp924
g74
(dp925
g82
I4
ssg83
g919
sg76
(lp926
g69
(g78
g71
NtRp927
(dp928
g74
(dp929
g82
I3
ssg83
Nsg76
(lp930
g69
(g85
g71
NtRp931
(dp932
g74
(dp933
sg83
g927
sg76
(lp934
g69
(g90
g71
NtRp935
(dp936
g74
(dp937
sg83
g931
sg76
(lp938
g69
(g70
g71
NtRp939
(dp940
g74
(dp941
g82
I3
ssg83
g935
sg76
(lp942
S'startserver'
p943
asbasbasbasbasbasbasbag69
(g85
g71
NtRp944
(dp945
g74
(dp946
sg83
g858
sg76
(lp947
g69
(g90
g71
NtRp948
(dp949
g74
(dp950
g94
g95
ssg83
g944
sg76
(lp951
S'cmd_options'
p952
asbag69
(g90
g71
NtRp953
(dp954
g74
(dp955
g101
g102
ssg83
g944
sg76
(lp956
S':'
asbag69
(g90
g71
NtRp957
(dp958
g74
(dp959
sg83
g944
sg76
(lp960
g69
(g70
g71
NtRp961
(dp962
g74
(dp963
g82
I4
ssg83
g957
sg76
(lp964
S"<Values at 0x3563d88: {'verbose': False, 'ip': '127.0.0.1', 'shutdown_timeout': 5, 'taskbar': False, 'nocron': False, 'pid_filename': 'httpserver.pid', 'maxthreads': None, 'softcron': False, 'server_name': 'PHUCNH-PC', 'bpython': False, 'nogui': False, 'port': 8000, 'extcron': False, 'debuglevel': 30, 'test': None, 'folder': 'D:\\\\workspace\\\\ca\\\\IgoR\\\\C_Sources\\\\Server\\\\igor-assistant-ca-2012', 'config': '', 'import_models': False, 'winservice': '', 'shell': None, 'run': '', 'log_filename': 'httpserver.log', 'args': [''], 'socket_timeout': 5, 'ssl_ca_certificate': None, 'scheduler': None, 'profiler_filename': None, 'ssl_private_key': '', 'password': '<ask>', 'request_queue_size': 5, 'ssl_certificate': '', 'cronjob': False, 'numthreads': None, 'quiet': False, 'interfaces': None, 'minthreads': None, 'timeout': 10, 'plain': False, 'nobanner': False}>"
p965
asbasbasbag69
(g85
g71
NtRp966
(dp967
g74
(dp968
sg83
g858
sg76
(lp969
g69
(g90
g71
NtRp970
(dp971
g74
(dp972
g94
g95
ssg83
g966
sg76
(lp973
S'db_sessions'
p974
asbag69
(g90
g71
NtRp975
(dp976
g74
(dp977
g101
g102
ssg83
g966
sg76
(lp978
S':'
asbag69
(g90
g71
NtRp979
(dp980
g74
(dp981
sg83
g966
sg76
(lp982
g69
(g70
g71
NtRp983
(dp984
g74
(dp985
g82
I4
ssg83
g979
sg76
(lp986
S'set([])'
p987
asbasbasbag69
(g85
g71
NtRp988
(dp989
g74
(dp990
sg83
g858
sg76
(lp991
g69
(g90
g71
NtRp992
(dp993
g74
(dp994
g94
g95
ssg83
g988
sg76
(lp995
S'debugging'
p996
asbag69
(g90
g71
NtRp997
(dp998
g74
(dp999
g101
g102
ssg83
g988
sg76
(lp1000
S':'
asbag69
(g90
g71
NtRp1001
(dp1002
g74
(dp1003
sg83
g988
sg76
(lp1004
g69
(g70
g71
NtRp1005
(dp1006
g74
(dp1007
g82
I4
ssg83
g1001
sg76
(lp1008
g112
asbasbasbag69
(g85
g71
NtRp1009
(dp1010
g74
(dp1011
sg83
g858
sg76
(lp1012
g69
(g90
g71
NtRp1013
(dp1014
g74
(dp1015
g94
g95
ssg83
g1009
sg76
(lp1016
S'gluon_parent'
p1017
asbag69
(g90
g71
NtRp1018
(dp1019
g74
(dp1020
g101
g102
ssg83
g1009
sg76
(lp1021
S':'
asbag69
(g90
g71
NtRp1022
(dp1023
g74
(dp1024
sg83
g1009
sg76
(lp1025
g69
(g70
g71
NtRp1026
(dp1027
g74
(dp1028
g82
I4
ssg83
g1022
sg76
(lp1029
S'D:\\workspace\\ca\\IgoR\\C_Sources\\Server\\igor-assistant-ca-2012'
p1030
asbasbasbag69
(g85
g71
NtRp1031
(dp1032
g74
(dp1033
sg83
g858
sg76
(lp1034
g69
(g90
g71
NtRp1035
(dp1036
g74
(dp1037
g94
g95
ssg83
g1031
sg76
(lp1038
S'http_accept'
p1039
asbag69
(g90
g71
NtRp1040
(dp1041
g74
(dp1042
g101
g102
ssg83
g1031
sg76
(lp1043
S':'
asbag69
(g90
g71
NtRp1044
(dp1045
g74
(dp1046
sg83
g1031
sg76
(lp1047
g69
(g70
g71
NtRp1048
(dp1049
g74
(dp1050
g82
I4
ssg83
g1044
sg76
(lp1051
S'text/html,application/xhtml+xml,application/xml;q=0.9,*/*;q=0.8'
p1052
asbasbasbag69
(g85
g71
NtRp1053
(dp1054
g74
(dp1055
sg83
g858
sg76
(lp1056
g69
(g90
g71
NtRp1057
(dp1058
g74
(dp1059
g94
g95
ssg83
g1053
sg76
(lp1060
S'http_accept_charset'
p1061
asbag69
(g90
g71
NtRp1062
(dp1063
g74
(dp1064
g101
g102
ssg83
g1053
sg76
(lp1065
S':'
asbag69
(g90
g71
NtRp1066
(dp1067
g74
(dp1068
sg83
g1053
sg76
(lp1069
g69
(g70
g71
NtRp1070
(dp1071
g74
(dp1072
g82
I4
ssg83
g1066
sg76
(lp1073
S'UTF-8,*;q=0.5'
p1074
asbasbasbag69
(g85
g71
NtRp1075
(dp1076
g74
(dp1077
sg83
g858
sg76
(lp1078
g69
(g90
g71
NtRp1079
(dp1080
g74
(dp1081
g94
g95
ssg83
g1075
sg76
(lp1082
S'http_accept_encoding'
p1083
asbag69
(g90
g71
NtRp1084
(dp1085
g74
(dp1086
g101
g102
ssg83
g1075
sg76
(lp1087
S':'
asbag69
(g90
g71
NtRp1088
(dp1089
g74
(dp1090
sg83
g1075
sg76
(lp1091
g69
(g70
g71
NtRp1092
(dp1093
g74
(dp1094
g82
I4
ssg83
g1088
sg76
(lp1095
S'gzip,deflate,sdch'
p1096
asbasbasbag69
(g85
g71
NtRp1097
(dp1098
g74
(dp1099
sg83
g858
sg76
(lp1100
g69
(g90
g71
NtRp1101
(dp1102
g74
(dp1103
g94
g95
ssg83
g1097
sg76
(lp1104
S'http_accept_language'
p1105
asbag69
(g90
g71
NtRp1106
(dp1107
g74
(dp1108
g101
g102
ssg83
g1097
sg76
(lp1109
S':'
asbag69
(g90
g71
NtRp1110
(dp1111
g74
(dp1112
sg83
g1097
sg76
(lp1113
g69
(g70
g71
NtRp1114
(dp1115
g74
(dp1116
g82
I4
ssg83
g1110
sg76
(lp1117
S'en-US,en;q=0.8,vi;q=0.6,fr-FR;q=0.4,fr;q=0.2'
p1118
asbasbasbag69
(g85
g71
NtRp1119
(dp1120
g74
(dp1121
sg83
g858
sg76
(lp1122
g69
(g90
g71
NtRp1123
(dp1124
g74
(dp1125
g94
g95
ssg83
g1119
sg76
(lp1126
S'http_connection'
p1127
asbag69
(g90
g71
NtRp1128
(dp1129
g74
(dp1130
g101
g102
ssg83
g1119
sg76
(lp1131
S':'
asbag69
(g90
g71
NtRp1132
(dp1133
g74
(dp1134
sg83
g1119
sg76
(lp1135
g69
(g70
g71
NtRp1136
(dp1137
g74
(dp1138
g82
I4
ssg83
g1132
sg76
(lp1139
S'keep-alive'
p1140
asbasbasbag69
(g85
g71
NtRp1141
(dp1142
g74
(dp1143
sg83
g858
sg76
(lp1144
g69
(g90
g71
NtRp1145
(dp1146
g74
(dp1147
g94
g95
ssg83
g1141
sg76
(lp1148
S'http_cookie'
p1149
asbag69
(g90
g71
NtRp1150
(dp1151
g74
(dp1152
g101
g102
ssg83
g1141
sg76
(lp1153
S':'
asbag69
(g90
g71
NtRp1154
(dp1155
g74
(dp1156
sg83
g1141
sg76
(lp1157
g69
(g70
g71
NtRp1158
(dp1159
g74
(dp1160
g82
I4
ssg83
g1154
sg76
(lp1161
S'session_id_welcome=127.0.0.1-79d5828c-c17a-4224-96b8-25d49468e5fc; session_id_admin=127.0.0.1-09abd0ca-c550-4c89-9a05-f31195dc8a18; session_id_igor=127.0.0.1-3ebceaff-cb90-4de5-bf0f-5281cc0f4aa9'
p1162
asbasbasbag69
(g85
g71
NtRp1163
(dp1164
g74
(dp1165
sg83
g858
sg76
(lp1166
g69
(g90
g71
NtRp1167
(dp1168
g74
(dp1169
g94
g95
ssg83
g1163
sg76
(lp1170
S'http_host'
p1171
asbag69
(g90
g71
NtRp1172
(dp1173
g74
(dp1174
g101
g102
ssg83
g1163
sg76
(lp1175
S':'
asbag69
(g90
g71
NtRp1176
(dp1177
g74
(dp1178
sg83
g1163
sg76
(lp1179
g69
(g70
g71
NtRp1180
(dp1181
g74
(dp1182
g82
I4
ssg83
g1176
sg76
(lp1183
S'127.0.0.1:8000'
p1184
asbasbasbag69
(g85
g71
NtRp1185
(dp1186
g74
(dp1187
sg83
g858
sg76
(lp1188
g69
(g90
g71
NtRp1189
(dp1190
g74
(dp1191
g94
g95
ssg83
g1185
sg76
(lp1192
S'http_user_agent'
p1193
asbag69
(g90
g71
NtRp1194
(dp1195
g74
(dp1196
g101
g102
ssg83
g1185
sg76
(lp1197
S':'
asbag69
(g90
g71
NtRp1198
(dp1199
g74
(dp1200
sg83
g1185
sg76
(lp1201
g69
(g70
g71
NtRp1202
(dp1203
g74
(dp1204
g82
I4
ssg83
g1198
sg76
(lp1205
S'Mozilla/5.0 (Windows NT 6.1; WOW64) AppleWebKit/536.11 (KHTML, like Gecko) Chrome/20.0.1132.57 Safari/536.11'
p1206
asbasbasbag69
(g85
g71
NtRp1207
(dp1208
g74
(dp1209
sg83
g858
sg76
(lp1210
g69
(g90
g71
NtRp1211
(dp1212
g74
(dp1213
g94
g95
ssg83
g1207
sg76
(lp1214
S'is_jython'
p1215
asbag69
(g90
g71
NtRp1216
(dp1217
g74
(dp1218
g101
g102
ssg83
g1207
sg76
(lp1219
S':'
asbag69
(g90
g71
NtRp1220
(dp1221
g74
(dp1222
sg83
g1207
sg76
(lp1223
g69
(g70
g71
NtRp1224
(dp1225
g74
(dp1226
g82
I4
ssg83
g1220
sg76
(lp1227
g112
asbasbasbag69
(g85
g71
NtRp1228
(dp1229
g74
(dp1230
sg83
g858
sg76
(lp1231
g69
(g90
g71
NtRp1232
(dp1233
g74
(dp1234
g94
g95
ssg83
g1228
sg76
(lp1235
S'is_pypy'
p1236
asbag69
(g90
g71
NtRp1237
(dp1238
g74
(dp1239
g101
g102
ssg83
g1228
sg76
(lp1240
S':'
asbag69
(g90
g71
NtRp1241
(dp1242
g74
(dp1243
sg83
g1228
sg76
(lp1244
g69
(g70
g71
NtRp1245
(dp1246
g74
(dp1247
g82
I4
ssg83
g1241
sg76
(lp1248
g112
asbasbasbag69
(g85
g71
NtRp1249
(dp1250
g74
(dp1251
sg83
g858
sg76
(lp1252
g69
(g90
g71
NtRp1253
(dp1254
g74
(dp1255
g94
g95
ssg83
g1249
sg76
(lp1256
S'path_info'
p1257
asbag69
(g90
g71
NtRp1258
(dp1259
g74
(dp1260
g101
g102
ssg83
g1249
sg76
(lp1261
S':'
asbag69
(g90
g71
NtRp1262
(dp1263
g74
(dp1264
sg83
g1249
sg76
(lp1265
g69
(g70
g71
NtRp1266
(dp1267
g74
(dp1268
g82
I4
ssg83
g1262
sg76
(lp1269
S'/igor/jobs/get_jobs_by_class/1/2'
p1270
asbasbasbag69
(g85
g71
NtRp1271
(dp1272
g74
(dp1273
sg83
g858
sg76
(lp1274
g69
(g90
g71
NtRp1275
(dp1276
g74
(dp1277
g94
g95
ssg83
g1271
sg76
(lp1278
S'query_string'
p1279
asbag69
(g90
g71
NtRp1280
(dp1281
g74
(dp1282
g101
g102
ssg83
g1271
sg76
(lp1283
S':'
asbag69
(g90
g71
NtRp1284
(dp1285
g74
(dp1286
sg83
g1271
sg76
(lp1287
g69
(g70
g71
NtRp1288
(dp1289
g74
(dp1290
g82
I4
ssg83
g1284
sg76
(lp1291
S''
asbasbasbag69
(g85
g71
NtRp1292
(dp1293
g74
(dp1294
sg83
g858
sg76
(lp1295
g69
(g90
g71
NtRp1296
(dp1297
g74
(dp1298
g94
g95
ssg83
g1292
sg76
(lp1299
S'remote_addr'
p1300
asbag69
(g90
g71
NtRp1301
(dp1302
g74
(dp1303
g101
g102
ssg83
g1292
sg76
(lp1304
S':'
asbag69
(g90
g71
NtRp1305
(dp1306
g74
(dp1307
sg83
g1292
sg76
(lp1308
g69
(g70
g71
NtRp1309
(dp1310
g74
(dp1311
g82
I4
ssg83
g1305
sg76
(lp1312
g226
asbasbasbag69
(g85
g71
NtRp1313
(dp1314
g74
(dp1315
sg83
g858
sg76
(lp1316
g69
(g90
g71
NtRp1317
(dp1318
g74
(dp1319
g94
g95
ssg83
g1313
sg76
(lp1320
S'remote_port'
p1321
asbag69
(g90
g71
NtRp1322
(dp1323
g74
(dp1324
g101
g102
ssg83
g1313
sg76
(lp1325
S':'
asbag69
(g90
g71
NtRp1326
(dp1327
g74
(dp1328
sg83
g1313
sg76
(lp1329
g69
(g70
g71
NtRp1330
(dp1331
g74
(dp1332
g82
I4
ssg83
g1326
sg76
(lp1333
S'18395'
p1334
asbasbasbag69
(g85
g71
NtRp1335
(dp1336
g74
(dp1337
sg83
g858
sg76
(lp1338
g69
(g90
g71
NtRp1339
(dp1340
g74
(dp1341
g94
g95
ssg83
g1335
sg76
(lp1342
S'request_method'
p1343
asbag69
(g90
g71
NtRp1344
(dp1345
g74
(dp1346
g101
g102
ssg83
g1335
sg76
(lp1347
S':'
asbag69
(g90
g71
NtRp1348
(dp1349
g74
(dp1350
sg83
g1335
sg76
(lp1351
g69
(g70
g71
NtRp1352
(dp1353
g74
(dp1354
g82
I4
ssg83
g1348
sg76
(lp1355
S'GET'
p1356
asbasbasbag69
(g85
g71
NtRp1357
(dp1358
g74
(dp1359
sg83
g858
sg76
(lp1360
g69
(g90
g71
NtRp1361
(dp1362
g74
(dp1363
g94
g95
ssg83
g1357
sg76
(lp1364
S'script_name'
p1365
asbag69
(g90
g71
NtRp1366
(dp1367
g74
(dp1368
g101
g102
ssg83
g1357
sg76
(lp1369
S':'
asbag69
(g90
g71
NtRp1370
(dp1371
g74
(dp1372
sg83
g1357
sg76
(lp1373
g69
(g70
g71
NtRp1374
(dp1375
g74
(dp1376
g82
I4
ssg83
g1370
sg76
(lp1377
S''
asbasbasbag69
(g85
g71
NtRp1378
(dp1379
g74
(dp1380
sg83
g858
sg76
(lp1381
g69
(g90
g71
NtRp1382
(dp1383
g74
(dp1384
g94
g95
ssg83
g1378
sg76
(lp1385
S'server_name'
p1386
asbag69
(g90
g71
NtRp1387
(dp1388
g74
(dp1389
g101
g102
ssg83
g1378
sg76
(lp1390
S':'
asbag69
(g90
g71
NtRp1391
(dp1392
g74
(dp1393
sg83
g1378
sg76
(lp1394
g69
(g70
g71
NtRp1395
(dp1396
g74
(dp1397
g82
I4
ssg83
g1391
sg76
(lp1398
S'PHUCNH-PC'
p1399
asbasbasbag69
(g85
g71
NtRp1400
(dp1401
g74
(dp1402
sg83
g858
sg76
(lp1403
g69
(g90
g71
NtRp1404
(dp1405
g74
(dp1406
g94
g95
ssg83
g1400
sg76
(lp1407
S'server_port'
p1408
asbag69
(g90
g71
NtRp1409
(dp1410
g74
(dp1411
g101
g102
ssg83
g1400
sg76
(lp1412
S':'
asbag69
(g90
g71
NtRp1413
(dp1414
g74
(dp1415
sg83
g1400
sg76
(lp1416
g69
(g70
g71
NtRp1417
(dp1418
g74
(dp1419
g82
I4
ssg83
g1413
sg76
(lp1420
S'8000'
p1421
asbasbasbag69
(g85
g71
NtRp1422
(dp1423
g74
(dp1424
sg83
g858
sg76
(lp1425
g69
(g90
g71
NtRp1426
(dp1427
g74
(dp1428
g94
g95
ssg83
g1422
sg76
(lp1429
S'server_protocol'
p1430
asbag69
(g90
g71
NtRp1431
(dp1432
g74
(dp1433
g101
g102
ssg83
g1422
sg76
(lp1434
S':'
asbag69
(g90
g71
NtRp1435
(dp1436
g74
(dp1437
sg83
g1422
sg76
(lp1438
g69
(g70
g71
NtRp1439
(dp1440
g74
(dp1441
g82
I4
ssg83
g1435
sg76
(lp1442
S'HTTP/1.1'
p1443
asbasbasbag69
(g85
g71
NtRp1444
(dp1445
g74
(dp1446
sg83
g858
sg76
(lp1447
g69
(g90
g71
NtRp1448
(dp1449
g74
(dp1450
g94
g95
ssg83
g1444
sg76
(lp1451
S'server_software'
p1452
asbag69
(g90
g71
NtRp1453
(dp1454
g74
(dp1455
g101
g102
ssg83
g1444
sg76
(lp1456
S':'
asbag69
(g90
g71
NtRp1457
(dp1458
g74
(dp1459
sg83
g1444
sg76
(lp1460
g69
(g70
g71
NtRp1461
(dp1462
g74
(dp1463
g82
I4
ssg83
g1457
sg76
(lp1464
S'Rocket 1.2.4'
p1465
asbasbasbag69
(g85
g71
NtRp1466
(dp1467
g74
(dp1468
sg83
g858
sg76
(lp1469
g69
(g90
g71
NtRp1470
(dp1471
g74
(dp1472
g94
g95
ssg83
g1466
sg76
(lp1473
S'web2py_crontype'
p1474
asbag69
(g90
g71
NtRp1475
(dp1476
g74
(dp1477
g101
g102
ssg83
g1466
sg76
(lp1478
S':'
asbag69
(g90
g71
NtRp1479
(dp1480
g74
(dp1481
sg83
g1466
sg76
(lp1482
g69
(g70
g71
NtRp1483
(dp1484
g74
(dp1485
g82
I4
ssg83
g1479
sg76
(lp1486
S'hard'
p1487
asbasbasbag69
(g85
g71
NtRp1488
(dp1489
g74
(dp1490
sg83
g858
sg76
(lp1491
g69
(g90
g71
NtRp1492
(dp1493
g74
(dp1494
g94
g95
ssg83
g1488
sg76
(lp1495
S'web2py_path'
p1496
asbag69
(g90
g71
NtRp1497
(dp1498
g74
(dp1499
g101
g102
ssg83
g1488
sg76
(lp1500
S':'
asbag69
(g90
g71
NtRp1501
(dp1502
g74
(dp1503
sg83
g1488
sg76
(lp1504
g69
(g70
g71
NtRp1505
(dp1506
g74
(dp1507
g82
I4
ssg83
g1501
sg76
(lp1508
g905
asbasbasbag69
(g85
g71
NtRp1509
(dp1510
g74
(dp1511
sg83
g858
sg76
(lp1512
g69
(g90
g71
NtRp1513
(dp1514
g74
(dp1515
g94
g95
ssg83
g1509
sg76
(lp1516
S'web2py_version'
p1517
asbag69
(g90
g71
NtRp1518
(dp1519
g74
(dp1520
g101
g102
ssg83
g1509
sg76
(lp1521
S':'
asbag69
(g90
g71
NtRp1522
(dp1523
g74
(dp1524
sg83
g1509
sg76
(lp1525
g69
(g70
g71
NtRp1526
(dp1527
g74
(dp1528
g82
I4
ssg83
g1522
sg76
(lp1529
g69
(g78
g71
NtRp1530
(dp1531
g74
(dp1532
g82
I3
ssg83
Nsg76
(lp1533
g69
(g85
g71
NtRp1534
(dp1535
g74
(dp1536
sg83
g1530
sg76
(lp1537
g69
(g90
g71
NtRp1538
(dp1539
g74
(dp1540
sg83
g1534
sg76
(lp1541
g69
(g70
g71
NtRp1542
(dp1543
g74
(dp1544
g82
I3
ssg83
g1538
sg76
(lp1545
S'1'
asbasbasbag69
(g85
g71
NtRp1546
(dp1547
g74
(dp1548
sg83
g1530
sg76
(lp1549
g69
(g90
g71
NtRp1550
(dp1551
g74
(dp1552
sg83
g1546
sg76
(lp1553
g69
(g70
g71
NtRp1554
(dp1555
g74
(dp1556
g82
I3
ssg83
g1550
sg76
(lp1557
S'99'
p1558
asbasbasbag69
(g85
g71
NtRp1559
(dp1560
g74
(dp1561
sg83
g1530
sg76
(lp1562
g69
(g90
g71
NtRp1563
(dp1564
g74
(dp1565
sg83
g1559
sg76
(lp1566
g69
(g70
g71
NtRp1567
(dp1568
g74
(dp1569
g82
I3
ssg83
g1563
sg76
(lp1570
S'7'
asbasbasbag69
(g85
g71
NtRp1571
(dp1572
g74
(dp1573
sg83
g1530
sg76
(lp1574
g69
(g90
g71
NtRp1575
(dp1576
g74
(dp1577
sg83
g1571
sg76
(lp1578
g69
(g70
g71
NtRp1579
(dp1580
g74
(dp1581
g82
I3
ssg83
g1575
sg76
(lp1582
S'datetime.datetime(2012, 3, 4, 22, 12, 8)'
p1583
asbasbasbag69
(g85
g71
NtRp1584
(dp1585
g74
(dp1586
sg83
g1530
sg76
(lp1587
g69
(g90
g71
NtRp1588
(dp1589
g74
(dp1590
sg83
g1584
sg76
(lp1591
g69
(g70
g71
NtRp1592
(dp1593
g74
(dp1594
g82
I3
ssg83
g1588
sg76
(lp1595
S'stable'
p1596
asbasbasbasbasbasbasbag69
(g85
g71
NtRp1597
(dp1598
g74
(dp1599
sg83
g858
sg76
(lp1600
g69
(g90
g71
NtRp1601
(dp1602
g74
(dp1603
g94
g95
ssg83
g1597
sg76
(lp1604
S'wsgi_errors'
p1605
asbag69
(g90
g71
NtRp1606
(dp1607
g74
(dp1608
g101
g102
ssg83
g1597
sg76
(lp1609
S':'
asbag69
(g90
g71
NtRp1610
(dp1611
g74
(dp1612
sg83
g1597
sg76
(lp1613
g69
(g70
g71
NtRp1614
(dp1615
g74
(dp1616
g82
I4
ssg83
g1610
sg76
(lp1617
S"<open file '<stderr>', mode 'w' at 0x0000000001D4E1E0>"
p1618
asbasbasbag69
(g85
g71
NtRp1619
(dp1620
g74
(dp1621
sg83
g858
sg76
(lp1622
g69
(g90
g71
NtRp1623
(dp1624
g74
(dp1625
g94
g95
ssg83
g1619
sg76
(lp1626
S'wsgi_file_wrapper'
p1627
asbag69
(g90
g71
NtRp1628
(dp1629
g74
(dp1630
g101
g102
ssg83
g1619
sg76
(lp1631
S':'
asbag69
(g90
g71
NtRp1632
(dp1633
g74
(dp1634
sg83
g1619
sg76
(lp1635
g69
(g70
g71
NtRp1636
(dp1637
g74
(dp1638
g82
I4
ssg83
g1632
sg76
(lp1639
S'<class wsgiref.util.FileWrapper at 0x0000000003420AC8>'
p1640
asbasbasbag69
(g85
g71
NtRp1641
(dp1642
g74
(dp1643
sg83
g858
sg76
(lp1644
g69
(g90
g71
NtRp1645
(dp1646
g74
(dp1647
g94
g95
ssg83
g1641
sg76
(lp1648
S'wsgi_input'
p1649
asbag69
(g90
g71
NtRp1650
(dp1651
g74
(dp1652
g101
g102
ssg83
g1641
sg76
(lp1653
S':'
asbag69
(g90
g71
NtRp1654
(dp1655
g74
(dp1656
sg83
g1641
sg76
(lp1657
g69
(g70
g71
NtRp1658
(dp1659
g74
(dp1660
g82
I4
ssg83
g1654
sg76
(lp1661
S'<socket._fileobject object at 0x0000000005985C00>'
p1662
asbasbasbag69
(g85
g71
NtRp1663
(dp1664
g74
(dp1665
sg83
g858
sg76
(lp1666
g69
(g90
g71
NtRp1667
(dp1668
g74
(dp1669
g94
g95
ssg83
g1663
sg76
(lp1670
S'wsgi_multiprocess'
p1671
asbag69
(g90
g71
NtRp1672
(dp1673
g74
(dp1674
g101
g102
ssg83
g1663
sg76
(lp1675
S':'
asbag69
(g90
g71
NtRp1676
(dp1677
g74
(dp1678
sg83
g1663
sg76
(lp1679
g69
(g70
g71
NtRp1680
(dp1681
g74
(dp1682
g82
I4
ssg83
g1676
sg76
(lp1683
g112
asbasbasbag69
(g85
g71
NtRp1684
(dp1685
g74
(dp1686
sg83
g858
sg76
(lp1687
g69
(g90
g71
NtRp1688
(dp1689
g74
(dp1690
g94
g95
ssg83
g1684
sg76
(lp1691
S'wsgi_multithread'
p1692
asbag69
(g90
g71
NtRp1693
(dp1694
g74
(dp1695
g101
g102
ssg83
g1684
sg76
(lp1696
S':'
asbag69
(g90
g71
NtRp1697
(dp1698
g74
(dp1699
sg83
g1684
sg76
(lp1700
g69
(g70
g71
NtRp1701
(dp1702
g74
(dp1703
g82
I4
ssg83
g1697
sg76
(lp1704
S'True'
p1705
asbasbasbag69
(g85
g71
NtRp1706
(dp1707
g74
(dp1708
sg83
g858
sg76
(lp1709
g69
(g90
g71
NtRp1710
(dp1711
g74
(dp1712
g94
g95
ssg83
g1706
sg76
(lp1713
S'wsgi_run_once'
p1714
asbag69
(g90
g71
NtRp1715
(dp1716
g74
(dp1717
g101
g102
ssg83
g1706
sg76
(lp1718
S':'
asbag69
(g90
g71
NtRp1719
(dp1720
g74
(dp1721
sg83
g1706
sg76
(lp1722
g69
(g70
g71
NtRp1723
(dp1724
g74
(dp1725
g82
I4
ssg83
g1719
sg76
(lp1726
g112
asbasbasbag69
(g85
g71
NtRp1727
(dp1728
g74
(dp1729
sg83
g858
sg76
(lp1730
g69
(g90
g71
NtRp1731
(dp1732
g74
(dp1733
g94
g95
ssg83
g1727
sg76
(lp1734
S'wsgi_url_scheme'
p1735
asbag69
(g90
g71
NtRp1736
(dp1737
g74
(dp1738
g101
g102
ssg83
g1727
sg76
(lp1739
S':'
asbag69
(g90
g71
NtRp1740
(dp1741
g74
(dp1742
sg83
g1727
sg76
(lp1743
g69
(g70
g71
NtRp1744
(dp1745
g74
(dp1746
g82
I4
ssg83
g1740
sg76
(lp1747
S'http'
p1748
asbasbasbag69
(g85
g71
NtRp1749
(dp1750
g74
(dp1751
sg83
g858
sg76
(lp1752
g69
(g90
g71
NtRp1753
(dp1754
g74
(dp1755
g94
g95
ssg83
g1749
sg76
(lp1756
S'wsgi_version'
p1757
asbag69
(g90
g71
NtRp1758
(dp1759
g74
(dp1760
g101
g102
ssg83
g1749
sg76
(lp1761
S':'
asbag69
(g90
g71
NtRp1762
(dp1763
g74
(dp1764
sg83
g1749
sg76
(lp1765
g69
(g70
g71
NtRp1766
(dp1767
g74
(dp1768
g82
I4
ssg83
g1762
sg76
(lp1769
g69
(g78
g71
NtRp1770
(dp1771
g74
(dp1772
g82
I3
ssg83
Nsg76
(lp1773
g69
(g85
g71
NtRp1774
(dp1775
g74
(dp1776
sg83
g1770
sg76
(lp1777
g69
(g90
g71
NtRp1778
(dp1779
g74
(dp1780
sg83
g1774
sg76
(lp1781
g69
(g70
g71
NtRp1782
(dp1783
g74
(dp1784
g82
I3
ssg83
g1778
sg76
(lp1785
S'1'
asbasbasbag69
(g85
g71
NtRp1786
(dp1787
g74
(dp1788
sg83
g1770
sg76
(lp1789
g69
(g90
g71
NtRp1790
(dp1791
g74
(dp1792
sg83
g1786
sg76
(lp1793
g69
(g70
g71
NtRp1794
(dp1795
g74
(dp1796
g82
I3
ssg83
g1790
sg76
(lp1797
S'0'
asbasbasbasbasbasbasbasbasbasbasbag69
(g85
g71
NtRp1798
(dp1799
g74
(dp1800
sg83
g79
sg76
(lp1801
g69
(g90
g71
NtRp1802
(dp1803
g74
(dp1804
g94
g95
ssg83
g1798
sg76
(lp1805
S'extension'
p1806
asbag69
(g90
g71
NtRp1807
(dp1808
g74
(dp1809
g101
g102
ssg83
g1798
sg76
(lp1810
S':'
asbag69
(g90
g71
NtRp1811
(dp1812
g74
(dp1813
sg83
g1798
sg76
(lp1814
g69
(g70
g71
NtRp1815
(dp1816
g74
(dp1817
g82
I5
ssg83
g1811
sg76
(lp1818
S'html'
p1819
asbasbasbag69
(g85
g71
NtRp1820
(dp1821
g74
(dp1822
sg83
g79
sg76
(lp1823
g69
(g90
g71
NtRp1824
(dp1825
g74
(dp1826
g94
g95
ssg83
g1820
sg76
(lp1827
S'folder'
p1828
asbag69
(g90
g71
NtRp1829
(dp1830
g74
(dp1831
g101
g102
ssg83
g1820
sg76
(lp1832
S':'
asbag69
(g90
g71
NtRp1833
(dp1834
g74
(dp1835
sg83
g1820
sg76
(lp1836
g69
(g70
g71
NtRp1837
(dp1838
g74
(dp1839
g82
I5
ssg83
g1833
sg76
(lp1840
S'D:\\workspace\\ca\\IgoR\\C_Sources\\Server\\igor-assistant-ca-2012\\applications\\igor\\'
p1841
asbasbasbag69
(g85
g71
NtRp1842
(dp1843
g74
(dp1844
sg83
g79
sg76
(lp1845
g69
(g90
g71
NtRp1846
(dp1847
g74
(dp1848
g94
g95
ssg83
g1842
sg76
(lp1849
S'function'
p1850
asbag69
(g90
g71
NtRp1851
(dp1852
g74
(dp1853
g101
g102
ssg83
g1842
sg76
(lp1854
S':'
asbag69
(g90
g71
NtRp1855
(dp1856
g74
(dp1857
sg83
g1842
sg76
(lp1858
g69
(g70
g71
NtRp1859
(dp1860
g74
(dp1861
g82
I5
ssg83
g1855
sg76
(lp1862
S'get_jobs_by_class'
p1863
asbasbasbag69
(g85
g71
NtRp1864
(dp1865
g74
(dp1866
sg83
g79
sg76
(lp1867
g69
(g90
g71
NtRp1868
(dp1869
g74
(dp1870
g94
g95
ssg83
g1864
sg76
(lp1871
S'get_vars'
p1872
asbag69
(g90
g71
NtRp1873
(dp1874
g74
(dp1875
g101
g102
ssg83
g1864
sg76
(lp1876
S':'
asbag69
(g90
g71
NtRp1877
(dp1878
g74
(dp1879
sg83
g1864
sg76
(lp1880
g69
(g70
g71
NtRp1881
(dp1882
g74
(dp1883
g82
I5
ssg83
g1877
sg76
(lp1884
g69
(g78
g71
NtRp1885
(dp1886
g74
(dp1887
g82
I4
ssg83
Nsg76
(lp1888
sbasbasbasbag69
(g85
g71
NtRp1889
(dp1890
g74
(dp1891
sg83
g79
sg76
(lp1892
g69
(g90
g71
NtRp1893
(dp1894
g74
(dp1895
g94
g95
ssg83
g1889
sg76
(lp1896
S'global_settings'
p1897
asbag69
(g90
g71
NtRp1898
(dp1899
g74
(dp1900
g101
g102
ssg83
g1889
sg76
(lp1901
S':'
asbag69
(g90
g71
NtRp1902
(dp1903
g74
(dp1904
sg83
g1889
sg76
(lp1905
g69
(g70
g71
NtRp1906
(dp1907
g74
(dp1908
g82
I5
ssg83
g1902
sg76
(lp1909
g69
(g78
g71
NtRp1910
(dp1911
g74
(dp1912
g82
I4
ssg83
Nsg76
(lp1913
g69
(g85
g71
NtRp1914
(dp1915
g74
(dp1916
sg83
g1910
sg76
(lp1917
g69
(g90
g71
NtRp1918
(dp1919
g74
(dp1920
g94
g95
ssg83
g1914
sg76
(lp1921
g870
asbag69
(g90
g71
NtRp1922
(dp1923
g74
(dp1924
g101
g102
ssg83
g1914
sg76
(lp1925
S':'
asbag69
(g90
g71
NtRp1926
(dp1927
g74
(dp1928
sg83
g1914
sg76
(lp1929
g69
(g70
g71
NtRp1930
(dp1931
g74
(dp1932
g82
I4
ssg83
g1926
sg76
(lp1933
S"set(['D:\\\\workspace\\\\ca\\\\IgoR\\\\C_Sources\\\\Server\\\\igor-assistant-ca-2012\\\\applications\\\\admin\\\\', 'D:\\\\workspace\\\\ca\\\\IgoR\\\\C_Sources\\\\Server\\\\igor-assistant-ca-2012\\\\applications\\\\igor\\\\', 'D:\\\\workspace\\\\ca\\\\IgoR\\\\C_Sources\\\\Server\\\\igor-assistant-ca-2012\\\\applications\\\\welcome\\\\'])"
p1934
asbasbasbag69
(g85
g71
NtRp1935
(dp1936
g74
(dp1937
sg83
g1910
sg76
(lp1938
g69
(g90
g71
NtRp1939
(dp1940
g74
(dp1941
g94
g95
ssg83
g1935
sg76
(lp1942
g892
asbag69
(g90
g71
NtRp1943
(dp1944
g74
(dp1945
g101
g102
ssg83
g1935
sg76
(lp1946
S':'
asbag69
(g90
g71
NtRp1947
(dp1948
g74
(dp1949
sg83
g1935
sg76
(lp1950
g69
(g70
g71
NtRp1951
(dp1952
g74
(dp1953
g82
I4
ssg83
g1947
sg76
(lp1954
g905
asbasbasbag69
(g85
g71
NtRp1955
(dp1956
g74
(dp1957
sg83
g1910
sg76
(lp1958
g69
(g90
g71
NtRp1959
(dp1960
g74
(dp1961
g94
g95
ssg83
g1955
sg76
(lp1962
g914
asbag69
(g90
g71
NtRp1963
(dp1964
g74
(dp1965
g101
g102
ssg83
g1955
sg76
(lp1966
S':'
asbag69
(g90
g71
NtRp1967
(dp1968
g74
(dp1969
sg83
g1955
sg76
(lp1970
g69
(g70
g71
NtRp1971
(dp1972
g74
(dp1973
g82
I4
ssg83
g1967
sg76
(lp1974
g69
(g78
g71
NtRp1975
(dp1976
g74
(dp1977
g82
I3
ssg83
Nsg76
(lp1978
g69
(g85
g71
NtRp1979
(dp1980
g74
(dp1981
sg83
g1975
sg76
(lp1982
g69
(g90
g71
NtRp1983
(dp1984
g74
(dp1985
sg83
g1979
sg76
(lp1986
g69
(g70
g71
NtRp1987
(dp1988
g74
(dp1989
g82
I3
ssg83
g1983
sg76
(lp1990
g943
asbasbasbasbasbasbasbag69
(g85
g71
NtRp1991
(dp1992
g74
(dp1993
sg83
g1910
sg76
(lp1994
g69
(g90
g71
NtRp1995
(dp1996
g74
(dp1997
g94
g95
ssg83
g1991
sg76
(lp1998
g952
asbag69
(g90
g71
NtRp1999
(dp2000
g74
(dp2001
g101
g102
ssg83
g1991
sg76
(lp2002
S':'
asbag69
(g90
g71
NtRp2003
(dp2004
g74
(dp2005
sg83
g1991
sg76
(lp2006
g69
(g70
g71
NtRp2007
(dp2008
g74
(dp2009
g82
I4
ssg83
g2003
sg76
(lp2010
S"<Values at 0x3563d88: {'verbose': False, 'ip': '127.0.0.1', 'shutdown_timeout': 5, 'taskbar': False, 'nocron': False, 'pid_filename': 'httpserver.pid', 'maxthreads': None, 'softcron': False, 'server_name': 'PHUCNH-PC', 'bpython': False, 'nogui': False, 'port': 8000, 'extcron': False, 'debuglevel': 30, 'test': None, 'folder': 'D:\\\\workspace\\\\ca\\\\IgoR\\\\C_Sources\\\\Server\\\\igor-assistant-ca-2012', 'config': '', 'import_models': False, 'winservice': '', 'shell': None, 'run': '', 'log_filename': 'httpserver.log', 'args': [''], 'socket_timeout': 5, 'ssl_ca_certificate': None, 'scheduler': None, 'profiler_filename': None, 'ssl_private_key': '', 'password': '<ask>', 'request_queue_size': 5, 'ssl_certificate': '', 'cronjob': False, 'numthreads': None, 'quiet': False, 'interfaces': None, 'minthreads': None, 'timeout': 10, 'plain': False, 'nobanner': False}>"
p2011
asbasbasbag69
(g85
g71
NtRp2012
(dp2013
g74
(dp2014
sg83
g1910
sg76
(lp2015
g69
(g90
g71
NtRp2016
(dp2017
g74
(dp2018
g94
g95
ssg83
g2012
sg76
(lp2019
g974
asbag69
(g90
g71
NtRp2020
(dp2021
g74
(dp2022
g101
g102
ssg83
g2012
sg76
(lp2023
S':'
asbag69
(g90
g71
NtRp2024
(dp2025
g74
(dp2026
sg83
g2012
sg76
(lp2027
g69
(g70
g71
NtRp2028
(dp2029
g74
(dp2030
g82
I4
ssg83
g2024
sg76
(lp2031
S'set([])'
p2032
asbasbasbag69
(g85
g71
NtRp2033
(dp2034
g74
(dp2035
sg83
g1910
sg76
(lp2036
g69
(g90
g71
NtRp2037
(dp2038
g74
(dp2039
g94
g95
ssg83
g2033
sg76
(lp2040
g996
asbag69
(g90
g71
NtRp2041
(dp2042
g74
(dp2043
g101
g102
ssg83
g2033
sg76
(lp2044
S':'
asbag69
(g90
g71
NtRp2045
(dp2046
g74
(dp2047
sg83
g2033
sg76
(lp2048
g69
(g70
g71
NtRp2049
(dp2050
g74
(dp2051
g82
I4
ssg83
g2045
sg76
(lp2052
g112
asbasbasbag69
(g85
g71
NtRp2053
(dp2054
g74
(dp2055
sg83
g1910
sg76
(lp2056
g69
(g90
g71
NtRp2057
(dp2058
g74
(dp2059
g94
g95
ssg83
g2053
sg76
(lp2060
g1017
asbag69
(g90
g71
NtRp2061
(dp2062
g74
(dp2063
g101
g102
ssg83
g2053
sg76
(lp2064
S':'
asbag69
(g90
g71
NtRp2065
(dp2066
g74
(dp2067
sg83
g2053
sg76
(lp2068
g69
(g70
g71
NtRp2069
(dp2070
g74
(dp2071
g82
I4
ssg83
g2065
sg76
(lp2072
g1030
asbasbasbag69
(g85
g71
NtRp2073
(dp2074
g74
(dp2075
sg83
g1910
sg76
(lp2076
g69
(g90
g71
NtRp2077
(dp2078
g74
(dp2079
g94
g95
ssg83
g2073
sg76
(lp2080
g1215
asbag69
(g90
g71
NtRp2081
(dp2082
g74
(dp2083
g101
g102
ssg83
g2073
sg76
(lp2084
S':'
asbag69
(g90
g71
NtRp2085
(dp2086
g74
(dp2087
sg83
g2073
sg76
(lp2088
g69
(g70
g71
NtRp2089
(dp2090
g74
(dp2091
g82
I4
ssg83
g2085
sg76
(lp2092
g112
asbasbasbag69
(g85
g71
NtRp2093
(dp2094
g74
(dp2095
sg83
g1910
sg76
(lp2096
g69
(g90
g71
NtRp2097
(dp2098
g74
(dp2099
g94
g95
ssg83
g2093
sg76
(lp2100
g1236
asbag69
(g90
g71
NtRp2101
(dp2102
g74
(dp2103
g101
g102
ssg83
g2093
sg76
(lp2104
S':'
asbag69
(g90
g71
NtRp2105
(dp2106
g74
(dp2107
sg83
g2093
sg76
(lp2108
g69
(g70
g71
NtRp2109
(dp2110
g74
(dp2111
g82
I4
ssg83
g2105
sg76
(lp2112
g112
asbasbasbag69
(g85
g71
NtRp2113
(dp2114
g74
(dp2115
sg83
g1910
sg76
(lp2116
g69
(g90
g71
NtRp2117
(dp2118
g74
(dp2119
g94
g95
ssg83
g2113
sg76
(lp2120
g1474
asbag69
(g90
g71
NtRp2121
(dp2122
g74
(dp2123
g101
g102
ssg83
g2113
sg76
(lp2124
S':'
asbag69
(g90
g71
NtRp2125
(dp2126
g74
(dp2127
sg83
g2113
sg76
(lp2128
g69
(g70
g71
NtRp2129
(dp2130
g74
(dp2131
g82
I4
ssg83
g2125
sg76
(lp2132
g1487
asbasbasbag69
(g85
g71
NtRp2133
(dp2134
g74
(dp2135
sg83
g1910
sg76
(lp2136
g69
(g90
g71
NtRp2137
(dp2138
g74
(dp2139
g94
g95
ssg83
g2133
sg76
(lp2140
g1517
asbag69
(g90
g71
NtRp2141
(dp2142
g74
(dp2143
g101
g102
ssg83
g2133
sg76
(lp2144
S':'
asbag69
(g90
g71
NtRp2145
(dp2146
g74
(dp2147
sg83
g2133
sg76
(lp2148
g69
(g70
g71
NtRp2149
(dp2150
g74
(dp2151
g82
I4
ssg83
g2145
sg76
(lp2152
g69
(g78
g71
NtRp2153
(dp2154
g74
(dp2155
g82
I3
ssg83
Nsg76
(lp2156
g69
(g85
g71
NtRp2157
(dp2158
g74
(dp2159
sg83
g2153
sg76
(lp2160
g69
(g90
g71
NtRp2161
(dp2162
g74
(dp2163
sg83
g2157
sg76
(lp2164
g69
(g70
g71
NtRp2165
(dp2166
g74
(dp2167
g82
I3
ssg83
g2161
sg76
(lp2168
S'1'
asbasbasbag69
(g85
g71
NtRp2169
(dp2170
g74
(dp2171
sg83
g2153
sg76
(lp2172
g69
(g90
g71
NtRp2173
(dp2174
g74
(dp2175
sg83
g2169
sg76
(lp2176
g69
(g70
g71
NtRp2177
(dp2178
g74
(dp2179
g82
I3
ssg83
g2173
sg76
(lp2180
S'99'
p2181
asbasbasbag69
(g85
g71
NtRp2182
(dp2183
g74
(dp2184
sg83
g2153
sg76
(lp2185
g69
(g90
g71
NtRp2186
(dp2187
g74
(dp2188
sg83
g2182
sg76
(lp2189
g69
(g70
g71
NtRp2190
(dp2191
g74
(dp2192
g82
I3
ssg83
g2186
sg76
(lp2193
S'7'
asbasbasbag69
(g85
g71
NtRp2194
(dp2195
g74
(dp2196
sg83
g2153
sg76
(lp2197
g69
(g90
g71
NtRp2198
(dp2199
g74
(dp2200
sg83
g2194
sg76
(lp2201
g69
(g70
g71
NtRp2202
(dp2203
g74
(dp2204
g82
I3
ssg83
g2198
sg76
(lp2205
S'datetime.datetime(2012, 3, 4, 22, 12, 8)'
p2206
asbasbasbag69
(g85
g71
NtRp2207
(dp2208
g74
(dp2209
sg83
g2153
sg76
(lp2210
g69
(g90
g71
NtRp2211
(dp2212
g74
(dp2213
sg83
g2207
sg76
(lp2214
g69
(g70
g71
NtRp2215
(dp2216
g74
(dp2217
g82
I3
ssg83
g2211
sg76
(lp2218
g1596
asbasbasbasbasbasbasbasbasbasbasbag69
(g85
g71
NtRp2219
(dp2220
g74
(dp2221
sg83
g79
sg76
(lp2222
g69
(g90
g71
NtRp2223
(dp2224
g74
(dp2225
g94
g95
ssg83
g2219
sg76
(lp2226
S'is_https'
p2227
asbag69
(g90
g71
NtRp2228
(dp2229
g74
(dp2230
g101
g102
ssg83
g2219
sg76
(lp2231
S':'
asbag69
(g90
g71
NtRp2232
(dp2233
g74
(dp2234
sg83
g2219
sg76
(lp2235
g69
(g70
g71
NtRp2236
(dp2237
g74
(dp2238
g82
I5
ssg83
g2232
sg76
(lp2239
g112
asbasbasbag69
(g85
g71
NtRp2240
(dp2241
g74
(dp2242
sg83
g79
sg76
(lp2243
g69
(g90
g71
NtRp2244
(dp2245
g74
(dp2246
g94
g95
ssg83
g2240
sg76
(lp2247
S'is_local'
p2248
asbag69
(g90
g71
NtRp2249
(dp2250
g74
(dp2251
g101
g102
ssg83
g2240
sg76
(lp2252
S':'
asbag69
(g90
g71
NtRp2253
(dp2254
g74
(dp2255
sg83
g2240
sg76
(lp2256
g69
(g70
g71
NtRp2257
(dp2258
g74
(dp2259
g82
I5
ssg83
g2253
sg76
(lp2260
g1705
asbasbasbag69
(g85
g71
NtRp2261
(dp2262
g74
(dp2263
sg83
g79
sg76
(lp2264
g69
(g90
g71
NtRp2265
(dp2266
g74
(dp2267
g94
g95
ssg83
g2261
sg76
(lp2268
S'is_restful'
p2269
asbag69
(g90
g71
NtRp2270
(dp2271
g74
(dp2272
g101
g102
ssg83
g2261
sg76
(lp2273
S':'
asbag69
(g90
g71
NtRp2274
(dp2275
g74
(dp2276
sg83
g2261
sg76
(lp2277
g69
(g70
g71
NtRp2278
(dp2279
g74
(dp2280
g82
I5
ssg83
g2274
sg76
(lp2281
g112
asbasbasbag69
(g85
g71
NtRp2282
(dp2283
g74
(dp2284
sg83
g79
sg76
(lp2285
g69
(g90
g71
NtRp2286
(dp2287
g74
(dp2288
g94
g95
ssg83
g2282
sg76
(lp2289
S'now'
p2290
asbag69
(g90
g71
NtRp2291
(dp2292
g74
(dp2293
g101
g102
ssg83
g2282
sg76
(lp2294
S':'
asbag69
(g90
g71
NtRp2295
(dp2296
g74
(dp2297
sg83
g2282
sg76
(lp2298
g69
(g70
g71
NtRp2299
(dp2300
g74
(dp2301
g82
I5
ssg83
g2295
sg76
(lp2302
S'datetime.datetime(2012, 7, 30, 20, 41, 35, 713000)'
p2303
asbasbasbag69
(g85
g71
NtRp2304
(dp2305
g74
(dp2306
sg83
g79
sg76
(lp2307
g69
(g90
g71
NtRp2308
(dp2309
g74
(dp2310
g94
g95
ssg83
g2304
sg76
(lp2311
S'post_vars'
p2312
asbag69
(g90
g71
NtRp2313
(dp2314
g74
(dp2315
g101
g102
ssg83
g2304
sg76
(lp2316
S':'
asbag69
(g90
g71
NtRp2317
(dp2318
g74
(dp2319
sg83
g2304
sg76
(lp2320
g69
(g70
g71
NtRp2321
(dp2322
g74
(dp2323
g82
I5
ssg83
g2317
sg76
(lp2324
g69
(g78
g71
NtRp2325
(dp2326
g74
(dp2327
g82
I4
ssg83
Nsg76
(lp2328
sbasbasbasbag69
(g85
g71
NtRp2329
(dp2330
g74
(dp2331
sg83
g79
sg76
(lp2332
g69
(g90
g71
NtRp2333
(dp2334
g74
(dp2335
g94
g95
ssg83
g2329
sg76
(lp2336
S'raw_args'
p2337
asbag69
(g90
g71
NtRp2338
(dp2339
g74
(dp2340
g101
g102
ssg83
g2329
sg76
(lp2341
S':'
asbag69
(g90
g71
NtRp2342
(dp2343
g74
(dp2344
sg83
g2329
sg76
(lp2345
g69
(g70
g71
NtRp2346
(dp2347
g74
(dp2348
g82
I5
ssg83
g2342
sg76
(lp2349
S'1/2'
p2350
asbasbasbag69
(g85
g71
NtRp2351
(dp2352
g74
(dp2353
sg83
g79
sg76
(lp2354
g69
(g90
g71
NtRp2355
(dp2356
g74
(dp2357
g94
g95
ssg83
g2351
sg76
(lp2358
S'url'
p2359
asbag69
(g90
g71
NtRp2360
(dp2361
g74
(dp2362
g101
g102
ssg83
g2351
sg76
(lp2363
S':'
asbag69
(g90
g71
NtRp2364
(dp2365
g74
(dp2366
sg83
g2351
sg76
(lp2367
g69
(g70
g71
NtRp2368
(dp2369
g74
(dp2370
g82
I5
ssg83
g2364
sg76
(lp2371
S'/igor/jobs/get_jobs_by_class/1/2'
p2372
asbasbasbag69
(g85
g71
NtRp2373
(dp2374
g74
(dp2375
sg83
g79
sg76
(lp2376
g69
(g90
g71
NtRp2377
(dp2378
g74
(dp2379
g94
g95
ssg83
g2373
sg76
(lp2380
S'utcnow'
p2381
asbag69
(g90
g71
NtRp2382
(dp2383
g74
(dp2384
g101
g102
ssg83
g2373
sg76
(lp2385
S':'
asbag69
(g90
g71
NtRp2386
(dp2387
g74
(dp2388
sg83
g2373
sg76
(lp2389
g69
(g70
g71
NtRp2390
(dp2391
g74
(dp2392
g82
I5
ssg83
g2386
sg76
(lp2393
S'datetime.datetime(2012, 7, 30, 13, 41, 35, 713000)'
p2394
asbasbasbag69
(g85
g71
NtRp2395
(dp2396
g74
(dp2397
sg83
g79
sg76
(lp2398
g69
(g90
g71
NtRp2399
(dp2400
g74
(dp2401
g94
g95
ssg83
g2395
sg76
(lp2402
S'uuid'
p2403
asbag69
(g90
g71
NtRp2404
(dp2405
g74
(dp2406
g101
g102
ssg83
g2395
sg76
(lp2407
S':'
asbag69
(g90
g71
NtRp2408
(dp2409
g74
(dp2410
sg83
g2395
sg76
(lp2411
g69
(g70
g71
NtRp2412
(dp2413
g74
(dp2414
g82
I5
ssg83
g2408
sg76
(lp2415
S'igor/127.0.0.1.2012-07-30.20-41-35.1565efd5-cde3-4068-8793-848abcc5500c'
p2416
asbasbasbag69
(g85
g71
NtRp2417
(dp2418
g74
(dp2419
sg83
g79
sg76
(lp2420
g69
(g90
g71
NtRp2421
(dp2422
g74
(dp2423
g94
g95
ssg83
g2417
sg76
(lp2424
S'vars'
p2425
asbag69
(g90
g71
NtRp2426
(dp2427
g74
(dp2428
g101
g102
ssg83
g2417
sg76
(lp2429
S':'
asbag69
(g90
g71
NtRp2430
(dp2431
g74
(dp2432
sg83
g2417
sg76
(lp2433
g69
(g70
g71
NtRp2434
(dp2435
g74
(dp2436
g82
I5
ssg83
g2430
sg76
(lp2437
g69
(g78
g71
NtRp2438
(dp2439
g74
(dp2440
g82
I4
ssg83
Nsg76
(lp2441
sbasbasbasbag69
(g85
g71
NtRp2442
(dp2443
g74
(dp2444
sg83
g79
sg76
(lp2445
g69
(g90
g71
NtRp2446
(dp2447
g74
(dp2448
g94
g95
ssg83
g2442
sg76
(lp2449
S'wsgi'
p2450
asbag69
(g90
g71
NtRp2451
(dp2452
g74
(dp2453
g101
g102
ssg83
g2442
sg76
(lp2454
S':'
asbag69
(g90
g71
NtRp2455
(dp2456
g74
(dp2457
sg83
g2442
sg76
(lp2458
g69
(g70
g71
NtRp2459
(dp2460
g74
(dp2461
g82
I5
ssg83
g2455
sg76
(lp2462
g69
(g78
g71
NtRp2463
(dp2464
g74
(dp2465
g82
I4
ssg83
Nsg76
(lp2466
g69
(g85
g71
NtRp2467
(dp2468
g74
(dp2469
sg83
g2463
sg76
(lp2470
g69
(g90
g71
NtRp2471
(dp2472
g74
(dp2473
g94
g95
ssg83
g2467
sg76
(lp2474
S'environ'
p2475
asbag69
(g90
g71
NtRp2476
(dp2477
g74
(dp2478
g101
g102
ssg83
g2467
sg76
(lp2479
S':'
asbag69
(g90
g71
NtRp2480
(dp2481
g74
(dp2482
sg83
g2467
sg76
(lp2483
g69
(g70
g71
NtRp2484
(dp2485
g74
(dp2486
g82
I4
ssg83
g2480
sg76
(lp2487
g69
(g78
g71
NtRp2488
(dp2489
g74
(dp2490
g82
I3
ssg83
Nsg76
(lp2491
g69
(g85
g71
NtRp2492
(dp2493
g74
(dp2494
sg83
g2488
sg76
(lp2495
g69
(g90
g71
NtRp2496
(dp2497
g74
(dp2498
g94
g95
ssg83
g2492
sg76
(lp2499
S'HTTP_ACCEPT'
p2500
asbag69
(g90
g71
NtRp2501
(dp2502
g74
(dp2503
g101
g102
ssg83
g2492
sg76
(lp2504
S':'
asbag69
(g90
g71
NtRp2505
(dp2506
g74
(dp2507
sg83
g2492
sg76
(lp2508
g69
(g70
g71
NtRp2509
(dp2510
g74
(dp2511
g82
I3
ssg83
g2505
sg76
(lp2512
g1052
asbasbasbag69
(g85
g71
NtRp2513
(dp2514
g74
(dp2515
sg83
g2488
sg76
(lp2516
g69
(g90
g71
NtRp2517
(dp2518
g74
(dp2519
g94
g95
ssg83
g2513
sg76
(lp2520
S'HTTP_ACCEPT_CHARSET'
p2521
asbag69
(g90
g71
NtRp2522
(dp2523
g74
(dp2524
g101
g102
ssg83
g2513
sg76
(lp2525
S':'
asbag69
(g90
g71
NtRp2526
(dp2527
g74
(dp2528
sg83
g2513
sg76
(lp2529
g69
(g70
g71
NtRp2530
(dp2531
g74
(dp2532
g82
I3
ssg83
g2526
sg76
(lp2533
g1074
asbasbasbag69
(g85
g71
NtRp2534
(dp2535
g74
(dp2536
sg83
g2488
sg76
(lp2537
g69
(g90
g71
NtRp2538
(dp2539
g74
(dp2540
g94
g95
ssg83
g2534
sg76
(lp2541
S'HTTP_ACCEPT_ENCODING'
p2542
asbag69
(g90
g71
NtRp2543
(dp2544
g74
(dp2545
g101
g102
ssg83
g2534
sg76
(lp2546
S':'
asbag69
(g90
g71
NtRp2547
(dp2548
g74
(dp2549
sg83
g2534
sg76
(lp2550
g69
(g70
g71
NtRp2551
(dp2552
g74
(dp2553
g82
I3
ssg83
g2547
sg76
(lp2554
g1096
asbasbasbag69
(g85
g71
NtRp2555
(dp2556
g74
(dp2557
sg83
g2488
sg76
(lp2558
g69
(g90
g71
NtRp2559
(dp2560
g74
(dp2561
g94
g95
ssg83
g2555
sg76
(lp2562
S'HTTP_ACCEPT_LANGUAGE'
p2563
asbag69
(g90
g71
NtRp2564
(dp2565
g74
(dp2566
g101
g102
ssg83
g2555
sg76
(lp2567
S':'
asbag69
(g90
g71
NtRp2568
(dp2569
g74
(dp2570
sg83
g2555
sg76
(lp2571
g69
(g70
g71
NtRp2572
(dp2573
g74
(dp2574
g82
I3
ssg83
g2568
sg76
(lp2575
g1118
asbasbasbag69
(g85
g71
NtRp2576
(dp2577
g74
(dp2578
sg83
g2488
sg76
(lp2579
g69
(g90
g71
NtRp2580
(dp2581
g74
(dp2582
g94
g95
ssg83
g2576
sg76
(lp2583
S'HTTP_CONNECTION'
p2584
asbag69
(g90
g71
NtRp2585
(dp2586
g74
(dp2587
g101
g102
ssg83
g2576
sg76
(lp2588
S':'
asbag69
(g90
g71
NtRp2589
(dp2590
g74
(dp2591
sg83
g2576
sg76
(lp2592
g69
(g70
g71
NtRp2593
(dp2594
g74
(dp2595
g82
I3
ssg83
g2589
sg76
(lp2596
g1140
asbasbasbag69
(g85
g71
NtRp2597
(dp2598
g74
(dp2599
sg83
g2488
sg76
(lp2600
g69
(g90
g71
NtRp2601
(dp2602
g74
(dp2603
g94
g95
ssg83
g2597
sg76
(lp2604
S'HTTP_COOKIE'
p2605
asbag69
(g90
g71
NtRp2606
(dp2607
g74
(dp2608
g101
g102
ssg83
g2597
sg76
(lp2609
S':'
asbag69
(g90
g71
NtRp2610
(dp2611
g74
(dp2612
sg83
g2597
sg76
(lp2613
g69
(g70
g71
NtRp2614
(dp2615
g74
(dp2616
g82
I3
ssg83
g2610
sg76
(lp2617
g1162
asbasbasbag69
(g85
g71
NtRp2618
(dp2619
g74
(dp2620
sg83
g2488
sg76
(lp2621
g69
(g90
g71
NtRp2622
(dp2623
g74
(dp2624
g94
g95
ssg83
g2618
sg76
(lp2625
S'HTTP_HOST'
p2626
asbag69
(g90
g71
NtRp2627
(dp2628
g74
(dp2629
g101
g102
ssg83
g2618
sg76
(lp2630
S':'
asbag69
(g90
g71
NtRp2631
(dp2632
g74
(dp2633
sg83
g2618
sg76
(lp2634
g69
(g70
g71
NtRp2635
(dp2636
g74
(dp2637
g82
I3
ssg83
g2631
sg76
(lp2638
g1184
asbasbasbag69
(g85
g71
NtRp2639
(dp2640
g74
(dp2641
sg83
g2488
sg76
(lp2642
g69
(g90
g71
NtRp2643
(dp2644
g74
(dp2645
g94
g95
ssg83
g2639
sg76
(lp2646
S'HTTP_USER_AGENT'
p2647
asbag69
(g90
g71
NtRp2648
(dp2649
g74
(dp2650
g101
g102
ssg83
g2639
sg76
(lp2651
S':'
asbag69
(g90
g71
NtRp2652
(dp2653
g74
(dp2654
sg83
g2639
sg76
(lp2655
g69
(g70
g71
NtRp2656
(dp2657
g74
(dp2658
g82
I3
ssg83
g2652
sg76
(lp2659
g1206
asbasbasbag69
(g85
g71
NtRp2660
(dp2661
g74
(dp2662
sg83
g2488
sg76
(lp2663
g69
(g90
g71
NtRp2664
(dp2665
g74
(dp2666
g94
g95
ssg83
g2660
sg76
(lp2667
S'PATH_INFO'
p2668
asbag69
(g90
g71
NtRp2669
(dp2670
g74
(dp2671
g101
g102
ssg83
g2660
sg76
(lp2672
S':'
asbag69
(g90
g71
NtRp2673
(dp2674
g74
(dp2675
sg83
g2660
sg76
(lp2676
g69
(g70
g71
NtRp2677
(dp2678
g74
(dp2679
g82
I3
ssg83
g2673
sg76
(lp2680
g1270
asbasbasbag69
(g85
g71
NtRp2681
(dp2682
g74
(dp2683
sg83
g2488
sg76
(lp2684
g69
(g90
g71
NtRp2685
(dp2686
g74
(dp2687
g94
g95
ssg83
g2681
sg76
(lp2688
S'QUERY_STRING'
p2689
asbag69
(g90
g71
NtRp2690
(dp2691
g74
(dp2692
g101
g102
ssg83
g2681
sg76
(lp2693
S':'
asbag69
(g90
g71
NtRp2694
(dp2695
g74
(dp2696
sg83
g2681
sg76
(lp2697
g69
(g70
g71
NtRp2698
(dp2699
g74
(dp2700
g82
I3
ssg83
g2694
sg76
(lp2701
S''
asbasbasbag69
(g85
g71
NtRp2702
(dp2703
g74
(dp2704
sg83
g2488
sg76
(lp2705
g69
(g90
g71
NtRp2706
(dp2707
g74
(dp2708
g94
g95
ssg83
g2702
sg76
(lp2709
S'REMOTE_ADDR'
p2710
asbag69
(g90
g71
NtRp2711
(dp2712
g74
(dp2713
g101
g102
ssg83
g2702
sg76
(lp2714
S':'
asbag69
(g90
g71
NtRp2715
(dp2716
g74
(dp2717
sg83
g2702
sg76
(lp2718
g69
(g70
g71
NtRp2719
(dp2720
g74
(dp2721
g82
I3
ssg83
g2715
sg76
(lp2722
g226
asbasbasbag69
(g85
g71
NtRp2723
(dp2724
g74
(dp2725
sg83
g2488
sg76
(lp2726
g69
(g90
g71
NtRp2727
(dp2728
g74
(dp2729
g94
g95
ssg83
g2723
sg76
(lp2730
S'REMOTE_PORT'
p2731
asbag69
(g90
g71
NtRp2732
(dp2733
g74
(dp2734
g101
g102
ssg83
g2723
sg76
(lp2735
S':'
asbag69
(g90
g71
NtRp2736
(dp2737
g74
(dp2738
sg83
g2723
sg76
(lp2739
g69
(g70
g71
NtRp2740
(dp2741
g74
(dp2742
g82
I3
ssg83
g2736
sg76
(lp2743
g1334
asbasbasbag69
(g85
g71
NtRp2744
(dp2745
g74
(dp2746
sg83
g2488
sg76
(lp2747
g69
(g90
g71
NtRp2748
(dp2749
g74
(dp2750
g94
g95
ssg83
g2744
sg76
(lp2751
S'REQUEST_METHOD'
p2752
asbag69
(g90
g71
NtRp2753
(dp2754
g74
(dp2755
g101
g102
ssg83
g2744
sg76
(lp2756
S':'
asbag69
(g90
g71
NtRp2757
(dp2758
g74
(dp2759
sg83
g2744
sg76
(lp2760
g69
(g70
g71
NtRp2761
(dp2762
g74
(dp2763
g82
I3
ssg83
g2757
sg76
(lp2764
g1356
asbasbasbag69
(g85
g71
NtRp2765
(dp2766
g74
(dp2767
sg83
g2488
sg76
(lp2768
g69
(g90
g71
NtRp2769
(dp2770
g74
(dp2771
g94
g95
ssg83
g2765
sg76
(lp2772
S'SCRIPT_NAME'
p2773
asbag69
(g90
g71
NtRp2774
(dp2775
g74
(dp2776
g101
g102
ssg83
g2765
sg76
(lp2777
S':'
asbag69
(g90
g71
NtRp2778
(dp2779
g74
(dp2780
sg83
g2765
sg76
(lp2781
g69
(g70
g71
NtRp2782
(dp2783
g74
(dp2784
g82
I3
ssg83
g2778
sg76
(lp2785
S''
asbasbasbag69
(g85
g71
NtRp2786
(dp2787
g74
(dp2788
sg83
g2488
sg76
(lp2789
g69
(g90
g71
NtRp2790
(dp2791
g74
(dp2792
g94
g95
ssg83
g2786
sg76
(lp2793
S'SERVER_NAME'
p2794
asbag69
(g90
g71
NtRp2795
(dp2796
g74
(dp2797
g101
g102
ssg83
g2786
sg76
(lp2798
S':'
asbag69
(g90
g71
NtRp2799
(dp2800
g74
(dp2801
sg83
g2786
sg76
(lp2802
g69
(g70
g71
NtRp2803
(dp2804
g74
(dp2805
g82
I3
ssg83
g2799
sg76
(lp2806
g1399
asbasbasbag69
(g85
g71
NtRp2807
(dp2808
g74
(dp2809
sg83
g2488
sg76
(lp2810
g69
(g90
g71
NtRp2811
(dp2812
g74
(dp2813
g94
g95
ssg83
g2807
sg76
(lp2814
S'SERVER_PORT'
p2815
asbag69
(g90
g71
NtRp2816
(dp2817
g74
(dp2818
g101
g102
ssg83
g2807
sg76
(lp2819
S':'
asbag69
(g90
g71
NtRp2820
(dp2821
g74
(dp2822
sg83
g2807
sg76
(lp2823
g69
(g70
g71
NtRp2824
(dp2825
g74
(dp2826
g82
I3
ssg83
g2820
sg76
(lp2827
g1421
asbasbasbag69
(g85
g71
NtRp2828
(dp2829
g74
(dp2830
sg83
g2488
sg76
(lp2831
g69
(g90
g71
NtRp2832
(dp2833
g74
(dp2834
g94
g95
ssg83
g2828
sg76
(lp2835
S'SERVER_PROTOCOL'
p2836
asbag69
(g90
g71
NtRp2837
(dp2838
g74
(dp2839
g101
g102
ssg83
g2828
sg76
(lp2840
S':'
asbag69
(g90
g71
NtRp2841
(dp2842
g74
(dp2843
sg83
g2828
sg76
(lp2844
g69
(g70
g71
NtRp2845
(dp2846
g74
(dp2847
g82
I3
ssg83
g2841
sg76
(lp2848
g1443
asbasbasbag69
(g85
g71
NtRp2849
(dp2850
g74
(dp2851
sg83
g2488
sg76
(lp2852
g69
(g90
g71
NtRp2853
(dp2854
g74
(dp2855
g94
g95
ssg83
g2849
sg76
(lp2856
S'SERVER_SOFTWARE'
p2857
asbag69
(g90
g71
NtRp2858
(dp2859
g74
(dp2860
g101
g102
ssg83
g2849
sg76
(lp2861
S':'
asbag69
(g90
g71
NtRp2862
(dp2863
g74
(dp2864
sg83
g2849
sg76
(lp2865
g69
(g70
g71
NtRp2866
(dp2867
g74
(dp2868
g82
I3
ssg83
g2862
sg76
(lp2869
g1465
asbasbasbag69
(g85
g71
NtRp2870
(dp2871
g74
(dp2872
sg83
g2488
sg76
(lp2873
g69
(g90
g71
NtRp2874
(dp2875
g74
(dp2876
g94
g95
ssg83
g2870
sg76
(lp2877
S'wsgi.errors'
p2878
asbag69
(g90
g71
NtRp2879
(dp2880
g74
(dp2881
g101
g102
ssg83
g2870
sg76
(lp2882
S':'
asbag69
(g90
g71
NtRp2883
(dp2884
g74
(dp2885
sg83
g2870
sg76
(lp2886
g69
(g70
g71
NtRp2887
(dp2888
g74
(dp2889
g82
I3
ssg83
g2883
sg76
(lp2890
S"<open file '<stderr>', mode 'w' at 0x0000000001D4E1E0>"
p2891
asbasbasbag69
(g85
g71
NtRp2892
(dp2893
g74
(dp2894
sg83
g2488
sg76
(lp2895
g69
(g90
g71
NtRp2896
(dp2897
g74
(dp2898
g94
g95
ssg83
g2892
sg76
(lp2899
S'wsgi.file_wrapper'
p2900
asbag69
(g90
g71
NtRp2901
(dp2902
g74
(dp2903
g101
g102
ssg83
g2892
sg76
(lp2904
S':'
asbag69
(g90
g71
NtRp2905
(dp2906
g74
(dp2907
sg83
g2892
sg76
(lp2908
g69
(g70
g71
NtRp2909
(dp2910
g74
(dp2911
g82
I3
ssg83
g2905
sg76
(lp2912
S'<class wsgiref.util.FileWrapper at 0x0000000003420AC8>'
p2913
asbasbasbag69
(g85
g71
NtRp2914
(dp2915
g74
(dp2916
sg83
g2488
sg76
(lp2917
g69
(g90
g71
NtRp2918
(dp2919
g74
(dp2920
g94
g95
ssg83
g2914
sg76
(lp2921
S'wsgi.input'
p2922
asbag69
(g90
g71
NtRp2923
(dp2924
g74
(dp2925
g101
g102
ssg83
g2914
sg76
(lp2926
S':'
asbag69
(g90
g71
NtRp2927
(dp2928
g74
(dp2929
sg83
g2914
sg76
(lp2930
g69
(g70
g71
NtRp2931
(dp2932
g74
(dp2933
g82
I3
ssg83
g2927
sg76
(lp2934
S'<cStringIO.StringO object at 0x0000000008F36308>'
p2935
asbasbasbag69
(g85
g71
NtRp2936
(dp2937
g74
(dp2938
sg83
g2488
sg76
(lp2939
g69
(g90
g71
NtRp2940
(dp2941
g74
(dp2942
g94
g95
ssg83
g2936
sg76
(lp2943
S'wsgi.multiprocess'
p2944
asbag69
(g90
g71
NtRp2945
(dp2946
g74
(dp2947
g101
g102
ssg83
g2936
sg76
(lp2948
S':'
asbag69
(g90
g71
NtRp2949
(dp2950
g74
(dp2951
sg83
g2936
sg76
(lp2952
g69
(g70
g71
NtRp2953
(dp2954
g74
(dp2955
g82
I3
ssg83
g2949
sg76
(lp2956
g112
asbasbasbag69
(g85
g71
NtRp2957
(dp2958
g74
(dp2959
sg83
g2488
sg76
(lp2960
g69
(g90
g71
NtRp2961
(dp2962
g74
(dp2963
g94
g95
ssg83
g2957
sg76
(lp2964
S'wsgi.multithread'
p2965
asbag69
(g90
g71
NtRp2966
(dp2967
g74
(dp2968
g101
g102
ssg83
g2957
sg76
(lp2969
S':'
asbag69
(g90
g71
NtRp2970
(dp2971
g74
(dp2972
sg83
g2957
sg76
(lp2973
g69
(g70
g71
NtRp2974
(dp2975
g74
(dp2976
g82
I3
ssg83
g2970
sg76
(lp2977
g1705
asbasbasbag69
(g85
g71
NtRp2978
(dp2979
g74
(dp2980
sg83
g2488
sg76
(lp2981
g69
(g90
g71
NtRp2982
(dp2983
g74
(dp2984
g94
g95
ssg83
g2978
sg76
(lp2985
S'wsgi.run_once'
p2986
asbag69
(g90
g71
NtRp2987
(dp2988
g74
(dp2989
g101
g102
ssg83
g2978
sg76
(lp2990
S':'
asbag69
(g90
g71
NtRp2991
(dp2992
g74
(dp2993
sg83
g2978
sg76
(lp2994
g69
(g70
g71
NtRp2995
(dp2996
g74
(dp2997
g82
I3
ssg83
g2991
sg76
(lp2998
g112
asbasbasbag69
(g85
g71
NtRp2999
(dp3000
g74
(dp3001
sg83
g2488
sg76
(lp3002
g69
(g90
g71
NtRp3003
(dp3004
g74
(dp3005
g94
g95
ssg83
g2999
sg76
(lp3006
S'wsgi.url_scheme'
p3007
asbag69
(g90
g71
NtRp3008
(dp3009
g74
(dp3010
g101
g102
ssg83
g2999
sg76
(lp3011
S':'
asbag69
(g90
g71
NtRp3012
(dp3013
g74
(dp3014
sg83
g2999
sg76
(lp3015
g69
(g70
g71
NtRp3016
(dp3017
g74
(dp3018
g82
I3
ssg83
g3012
sg76
(lp3019
g1748
asbasbasbag69
(g85
g71
NtRp3020
(dp3021
g74
(dp3022
sg83
g2488
sg76
(lp3023
g69
(g90
g71
NtRp3024
(dp3025
g74
(dp3026
g94
g95
ssg83
g3020
sg76
(lp3027
S'wsgi.version'
p3028
asbag69
(g90
g71
NtRp3029
(dp3030
g74
(dp3031
g101
g102
ssg83
g3020
sg76
(lp3032
S':'
asbag69
(g90
g71
NtRp3033
(dp3034
g74
(dp3035
sg83
g3020
sg76
(lp3036
g69
(g70
g71
NtRp3037
(dp3038
g74
(dp3039
g82
I3
ssg83
g3033
sg76
(lp3040
S'1'
asbasbasbasbasbasbasbasbasbasbasbasbasbsS'frames'
p3041
(lp3042
(dp3043
S'file'
p3044
S'D:\\workspace\\ca\\IgoR\\C_Sources\\Server\\igor-assistant-ca-2012\\gluon\\restricted.py'
p3045
sS'dump'
p3046
(dp3047
S'code'
p3048
S"'# -*- coding: utf-8 -*-\\n# this file is released ...sponse._vars=response._caller(get_jobs_by_class)\\n'"
p3049
sS'layer'
p3050
S"r'D:\\workspace\\ca\\IgoR\\C_Sources\\Server\\igor-assistant-ca-2012\\applications\\igor\\controllers/jobs.py'"
p3051
sS'global compile2'
p3052
S'<function compile2>'
p3053
sS'ccode'
p3054
S'undefined'
p3055
ssS'lnum'
p3056
I204
sS'lines'
p3057
(dp3058
I199
S"    environment['__name__'] = '__restricted__'"
p3059
sI200
S'    try:'
p3060
sI201
S'        if type(code) == types.CodeType:'
p3061
sI202
S'            ccode = code'
p3062
sI203
S'        else:'
p3063
sI204
S'            ccode = compile2(code,layer)'
p3064
sI205
S'        exec ccode in environment'
p3065
sI206
S'    except HTTP:'
p3066
sI207
S'        raise'
p3067
sI208
S'    except RestrictedError:'
p3068
ssS'call'
p3069
S"(code='# -*- coding: utf-8 -*-\\n# this file is released ...sponse._vars=response._caller(get_jobs_by_class)\\n', environment={'A': <class 'gluon.html.A'>, 'Auth': <class 'gluon.tools.Auth'>, 'B': <class 'gluon.html.B'>, 'BEAUTIFY': <class 'gluon.html.BEAUTIFY'>, 'BODY': <class 'gluon.html.BODY'>, 'BR': <class 'gluon.html.BR'>, 'BUTTON': <class 'gluon.html.BUTTON'>, 'CAT': <class 'gluon.html.CAT'>, 'CENTER': <class 'gluon.html.CENTER'>, 'CLEANUP': <class 'gluon.validators.CLEANUP'>, ...}, layer=r'D:\\workspace\\ca\\IgoR\\C_Sources\\Server\\igor-assistant-ca-2012\\applications\\igor\\controllers/jobs.py')"
p3070
sS'func'
p3071
S'restricted'
p3072
sa(dp3073
g3044
S'D:\\workspace\\ca\\IgoR\\C_Sources\\Server\\igor-assistant-ca-2012\\gluon\\restricted.py'
p3074
sg3046
(dp3075
S'builtincompile'
p3076
S'<built-in function compile>'
p3077
sS'code'
p3078
S"'# -*- coding: utf-8 -*-\\n# this file is released ...sponse._vars=response._caller(get_jobs_by_class)\\n'"
p3079
sS'code.rstrip'
p3080
S'<built-in method rstrip of str object>'
p3081
sS').replace'
p3082
g3055
sS'layer'
p3083
S"r'D:\\workspace\\ca\\IgoR\\C_Sources\\Server\\igor-assistant-ca-2012\\applications\\igor\\controllers/jobs.py'"
p3084
ssg3056
I189
sg3057
(dp3085
I192
S'    """'
p3086
sI193
S'    runs code in environment and returns the output. if an exception occurs'
p3087
sI184
S''
sI185
S'def compile2(code,layer):'
p3088
sI186
S'    """'
p3089
sI187
S"    The +'\\n' is necessary else compile fails when code ends in a comment."
p3090
sI188
S'    """'
p3091
sI189
S"    return compile(code.rstrip().replace('\\r\\n','\\n')+'\\n', layer, 'exec')"
p3092
sI190
S''
sI191
S"def restricted(code, environment=None, layer='Unknown'):"
p3093
ssg3069
S"(code='# -*- coding: utf-8 -*-\\n# this file is released ...sponse._vars=response._caller(get_jobs_by_class)\\n', layer=r'D:\\workspace\\ca\\IgoR\\C_Sources\\Server\\igor-assistant-ca-2012\\applications\\igor\\controllers/jobs.py')"
p3094
sg3071
S'compile2'
p3095
sasS'pyver'
p3096
S'Python 2.7.3: C:\\Python27\\python.exe'
p3097
sS'session'
p3098
g69
(g70
g71
NtRp3099
(dp3100
g74
(dp3101
sg76
(lp3102
g69
(g78
g71
NtRp3103
(dp3104
g74
(dp3105
g82
I5
ssg83
Nsg76
(lp3106
sbasbsS'etype'
p3107
S"<type 'exceptions.SyntaxError'>"
p3108
sS'date'
p3109
S'Mon Jul 30 20:41:35 2012'
p3110
sS'response'
p3111
g69
(g70
g71
NtRp3112
(dp3113
g74
(dp3114
sg76
(lp3115
g69
(g78
g71
NtRp3116
(dp3117
g74
(dp3118
g82
I5
ssg83
Nsg76
(lp3119
g69
(g85
g71
NtRp3120
(dp3121
g74
(dp3122
sg83
g3116
sg76
(lp3123
g69
(g90
g71
NtRp3124
(dp3125
g74
(dp3126
g94
g95
ssg83
g3120
sg76
(lp3127
g191
asbag69
(g90
g71
NtRp3128
(dp3129
g74
(dp3130
g101
g102
ssg83
g3120
sg76
(lp3131
S':'
asbag69
(g90
g71
NtRp3132
(dp3133
g74
(dp3134
sg83
g3120
sg76
(lp3135
g69
(g70
g71
NtRp3136
(dp3137
g74
(dp3138
g82
I5
ssg83
g3132
sg76
(lp3139
S'<cStringIO.StringO object at 0x0000000005E090D8>'
p3140
asbasbasbag69
(g85
g71
NtRp3141
(dp3142
g74
(dp3143
sg83
g3116
sg76
(lp3144
g69
(g90
g71
NtRp3145
(dp3146
g74
(dp3147
g94
g95
ssg83
g3141
sg76
(lp3148
g257
asbag69
(g90
g71
NtRp3149
(dp3150
g74
(dp3151
g101
g102
ssg83
g3141
sg76
(lp3152
S':'
asbag69
(g90
g71
NtRp3153
(dp3154
g74
(dp3155
sg83
g3141
sg76
(lp3156
g69
(g70
g71
NtRp3157
(dp3158
g74
(dp3159
g82
I5
ssg83
g3153
sg76
(lp3160
g69
(g78
g71
NtRp3161
(dp3162
g74
(dp3163
g82
I4
ssg83
Nsg76
(lp3164
g69
(g85
g71
NtRp3165
(dp3166
g74
(dp3167
sg83
g3161
sg76
(lp3168
g69
(g90
g71
NtRp3169
(dp3170
g74
(dp3171
g94
g95
ssg83
g3165
sg76
(lp3172
S'session_id_igor'
p3173
asbag69
(g90
g71
NtRp3174
(dp3175
g74
(dp3176
g101
g102
ssg83
g3165
sg76
(lp3177
S':'
asbag69
(g90
g71
NtRp3178
(dp3179
g74
(dp3180
sg83
g3165
sg76
(lp3181
g69
(g70
g71
NtRp3182
(dp3183
g74
(dp3184
g82
I4
ssg83
g3178
sg76
(lp3185
g69
(g78
g71
NtRp3186
(dp3187
g74
(dp3188
g82
I3
ssg83
Nsg76
(lp3189
g69
(g85
g71
NtRp3190
(dp3191
g74
(dp3192
sg83
g3186
sg76
(lp3193
g69
(g90
g71
NtRp3194
(dp3195
g74
(dp3196
g94
g95
ssg83
g3190
sg76
(lp3197
g307
asbag69
(g90
g71
NtRp3198
(dp3199
g74
(dp3200
g101
g102
ssg83
g3190
sg76
(lp3201
S':'
asbag69
(g90
g71
NtRp3202
(dp3203
g74
(dp3204
sg83
g3190
sg76
(lp3205
g69
(g70
g71
NtRp3206
(dp3207
g74
(dp3208
g82
I3
ssg83
g3202
sg76
(lp3209
S''
asbasbasbag69
(g85
g71
NtRp3210
(dp3211
g74
(dp3212
sg83
g3186
sg76
(lp3213
g69
(g90
g71
NtRp3214
(dp3215
g74
(dp3216
g94
g95
ssg83
g3210
sg76
(lp3217
g328
asbag69
(g90
g71
NtRp3218
(dp3219
g74
(dp3220
g101
g102
ssg83
g3210
sg76
(lp3221
S':'
asbag69
(g90
g71
NtRp3222
(dp3223
g74
(dp3224
sg83
g3210
sg76
(lp3225
g69
(g70
g71
NtRp3226
(dp3227
g74
(dp3228
g82
I3
ssg83
g3222
sg76
(lp3229
S''
asbasbasbag69
(g85
g71
NtRp3230
(dp3231
g74
(dp3232
sg83
g3186
sg76
(lp3233
g69
(g90
g71
NtRp3234
(dp3235
g74
(dp3236
g94
g95
ssg83
g3230
sg76
(lp3237
g349
asbag69
(g90
g71
NtRp3238
(dp3239
g74
(dp3240
g101
g102
ssg83
g3230
sg76
(lp3241
S':'
asbag69
(g90
g71
NtRp3242
(dp3243
g74
(dp3244
sg83
g3230
sg76
(lp3245
g69
(g70
g71
NtRp3246
(dp3247
g74
(dp3248
g82
I3
ssg83
g3242
sg76
(lp3249
S''
asbasbasbag69
(g85
g71
NtRp3250
(dp3251
g74
(dp3252
sg83
g3186
sg76
(lp3253
g69
(g90
g71
NtRp3254
(dp3255
g74
(dp3256
g94
g95
ssg83
g3250
sg76
(lp3257
g370
asbag69
(g90
g71
NtRp3258
(dp3259
g74
(dp3260
g101
g102
ssg83
g3250
sg76
(lp3261
S':'
asbag69
(g90
g71
NtRp3262
(dp3263
g74
(dp3264
sg83
g3250
sg76
(lp3265
g69
(g70
g71
NtRp3266
(dp3267
g74
(dp3268
g82
I3
ssg83
g3262
sg76
(lp3269
S''
asbasbasbag69
(g85
g71
NtRp3270
(dp3271
g74
(dp3272
sg83
g3186
sg76
(lp3273
g69
(g90
g71
NtRp3274
(dp3275
g74
(dp3276
g94
g95
ssg83
g3270
sg76
(lp3277
g391
asbag69
(g90
g71
NtRp3278
(dp3279
g74
(dp3280
g101
g102
ssg83
g3270
sg76
(lp3281
S':'
asbag69
(g90
g71
NtRp3282
(dp3283
g74
(dp3284
sg83
g3270
sg76
(lp3285
g69
(g70
g71
NtRp3286
(dp3287
g74
(dp3288
g82
I3
ssg83
g3282
sg76
(lp3289
S''
asbasbasbag69
(g85
g71
NtRp3290
(dp3291
g74
(dp3292
sg83
g3186
sg76
(lp3293
g69
(g90
g71
NtRp3294
(dp3295
g74
(dp3296
g94
g95
ssg83
g3290
sg76
(lp3297
g412
asbag69
(g90
g71
NtRp3298
(dp3299
g74
(dp3300
g101
g102
ssg83
g3290
sg76
(lp3301
S':'
asbag69
(g90
g71
NtRp3302
(dp3303
g74
(dp3304
sg83
g3290
sg76
(lp3305
g69
(g70
g71
NtRp3306
(dp3307
g74
(dp3308
g82
I3
ssg83
g3302
sg76
(lp3309
S'/'
asbasbasbag69
(g85
g71
NtRp3310
(dp3311
g74
(dp3312
sg83
g3186
sg76
(lp3313
g69
(g90
g71
NtRp3314
(dp3315
g74
(dp3316
g94
g95
ssg83
g3310
sg76
(lp3317
g433
asbag69
(g90
g71
NtRp3318
(dp3319
g74
(dp3320
g101
g102
ssg83
g3310
sg76
(lp3321
S':'
asbag69
(g90
g71
NtRp3322
(dp3323
g74
(dp3324
sg83
g3310
sg76
(lp3325
g69
(g70
g71
NtRp3326
(dp3327
g74
(dp3328
g82
I3
ssg83
g3322
sg76
(lp3329
S''
asbasbasbag69
(g85
g71
NtRp3330
(dp3331
g74
(dp3332
sg83
g3186
sg76
(lp3333
g69
(g90
g71
NtRp3334
(dp3335
g74
(dp3336
g94
g95
ssg83
g3330
sg76
(lp3337
g454
asbag69
(g90
g71
NtRp3338
(dp3339
g74
(dp3340
g101
g102
ssg83
g3330
sg76
(lp3341
S':'
asbag69
(g90
g71
NtRp3342
(dp3343
g74
(dp3344
sg83
g3330
sg76
(lp3345
g69
(g70
g71
NtRp3346
(dp3347
g74
(dp3348
g82
I3
ssg83
g3342
sg76
(lp3349
S''
asbasbasbasbasbasbasbasbasbasbasbag69
(g85
g71
NtRp3350
(dp3351
g74
(dp3352
sg83
g3116
sg76
(lp3353
g69
(g90
g71
NtRp3354
(dp3355
g74
(dp3356
g94
g95
ssg83
g3350
sg76
(lp3357
S'delimiters'
p3358
asbag69
(g90
g71
NtRp3359
(dp3360
g74
(dp3361
g101
g102
ssg83
g3350
sg76
(lp3362
S':'
asbag69
(g90
g71
NtRp3363
(dp3364
g74
(dp3365
sg83
g3350
sg76
(lp3366
g69
(g70
g71
NtRp3367
(dp3368
g74
(dp3369
g82
I5
ssg83
g3363
sg76
(lp3370
g69
(g78
g71
NtRp3371
(dp3372
g74
(dp3373
g82
I4
ssg83
Nsg76
(lp3374
g69
(g85
g71
NtRp3375
(dp3376
g74
(dp3377
sg83
g3371
sg76
(lp3378
g69
(g90
g71
NtRp3379
(dp3380
g74
(dp3381
sg83
g3375
sg76
(lp3382
g69
(g70
g71
NtRp3383
(dp3384
g74
(dp3385
g82
I4
ssg83
g3379
sg76
(lp3386
S'{{'
p3387
asbasbasbag69
(g85
g71
NtRp3388
(dp3389
g74
(dp3390
sg83
g3371
sg76
(lp3391
g69
(g90
g71
NtRp3392
(dp3393
g74
(dp3394
sg83
g3388
sg76
(lp3395
g69
(g70
g71
NtRp3396
(dp3397
g74
(dp3398
g82
I4
ssg83
g3392
sg76
(lp3399
S'}}'
p3400
asbasbasbasbasbasbasbag69
(g85
g71
NtRp3401
(dp3402
g74
(dp3403
sg83
g3116
sg76
(lp3404
g69
(g90
g71
NtRp3405
(dp3406
g74
(dp3407
g94
g95
ssg83
g3401
sg76
(lp3408
S'files'
p3409
asbag69
(g90
g71
NtRp3410
(dp3411
g74
(dp3412
g101
g102
ssg83
g3401
sg76
(lp3413
S':'
asbag69
(g90
g71
NtRp3414
(dp3415
g74
(dp3416
sg83
g3401
sg76
(lp3417
g69
(g70
g71
NtRp3418
(dp3419
g74
(dp3420
g82
I5
ssg83
g3414
sg76
(lp3421
g69
(g78
g71
NtRp3422
(dp3423
g74
(dp3424
g82
I4
ssg83
Nsg76
(lp3425
sbasbasbasbag69
(g85
g71
NtRp3426
(dp3427
g74
(dp3428
sg83
g3116
sg76
(lp3429
g69
(g90
g71
NtRp3430
(dp3431
g74
(dp3432
g94
g95
ssg83
g3426
sg76
(lp3433
S'flash'
p3434
asbag69
(g90
g71
NtRp3435
(dp3436
g74
(dp3437
g101
g102
ssg83
g3426
sg76
(lp3438
S':'
asbag69
(g90
g71
NtRp3439
(dp3440
g74
(dp3441
sg83
g3426
sg76
(lp3442
g69
(g70
g71
NtRp3443
(dp3444
g74
(dp3445
g82
I5
ssg83
g3439
sg76
(lp3446
S''
asbasbasbag69
(g85
g71
NtRp3447
(dp3448
g74
(dp3449
sg83
g3116
sg76
(lp3450
g69
(g90
g71
NtRp3451
(dp3452
g74
(dp3453
g94
g95
ssg83
g3447
sg76
(lp3454
S'generic_patterns'
p3455
asbag69
(g90
g71
NtRp3456
(dp3457
g74
(dp3458
g101
g102
ssg83
g3447
sg76
(lp3459
S':'
asbag69
(g90
g71
NtRp3460
(dp3461
g74
(dp3462
sg83
g3447
sg76
(lp3463
g69
(g70
g71
NtRp3464
(dp3465
g74
(dp3466
g82
I5
ssg83
g3460
sg76
(lp3467
g69
(g78
g71
NtRp3468
(dp3469
g74
(dp3470
g82
I4
ssg83
Nsg76
(lp3471
g69
(g85
g71
NtRp3472
(dp3473
g74
(dp3474
sg83
g3468
sg76
(lp3475
g69
(g90
g71
NtRp3476
(dp3477
g74
(dp3478
sg83
g3472
sg76
(lp3479
g69
(g70
g71
NtRp3480
(dp3481
g74
(dp3482
g82
I4
ssg83
g3476
sg76
(lp3483
S'*'
asbasbasbasbasbasbasbag69
(g85
g71
NtRp3484
(dp3485
g74
(dp3486
sg83
g3116
sg76
(lp3487
g69
(g90
g71
NtRp3488
(dp3489
g74
(dp3490
g94
g95
ssg83
g3484
sg76
(lp3491
S'headers'
p3492
asbag69
(g90
g71
NtRp3493
(dp3494
g74
(dp3495
g101
g102
ssg83
g3484
sg76
(lp3496
S':'
asbag69
(g90
g71
NtRp3497
(dp3498
g74
(dp3499
sg83
g3484
sg76
(lp3500
g69
(g70
g71
NtRp3501
(dp3502
g74
(dp3503
g82
I5
ssg83
g3497
sg76
(lp3504
g69
(g78
g71
NtRp3505
(dp3506
g74
(dp3507
g82
I4
ssg83
Nsg76
(lp3508
g69
(g85
g71
NtRp3509
(dp3510
g74
(dp3511
sg83
g3505
sg76
(lp3512
g69
(g90
g71
NtRp3513
(dp3514
g74
(dp3515
g94
g95
ssg83
g3509
sg76
(lp3516
S'Cache-Control'
p3517
asbag69
(g90
g71
NtRp3518
(dp3519
g74
(dp3520
g101
g102
ssg83
g3509
sg76
(lp3521
S':'
asbag69
(g90
g71
NtRp3522
(dp3523
g74
(dp3524
sg83
g3509
sg76
(lp3525
g69
(g70
g71
NtRp3526
(dp3527
g74
(dp3528
g82
I4
ssg83
g3522
sg76
(lp3529
S'no-store, no-cache, must-revalidate, post-check=0, pre-check=0'
p3530
asbasbasbag69
(g85
g71
NtRp3531
(dp3532
g74
(dp3533
sg83
g3505
sg76
(lp3534
g69
(g90
g71
NtRp3535
(dp3536
g74
(dp3537
g94
g95
ssg83
g3531
sg76
(lp3538
S'Content-Type'
p3539
asbag69
(g90
g71
NtRp3540
(dp3541
g74
(dp3542
g101
g102
ssg83
g3531
sg76
(lp3543
S':'
asbag69
(g90
g71
NtRp3544
(dp3545
g74
(dp3546
sg83
g3531
sg76
(lp3547
g69
(g70
g71
NtRp3548
(dp3549
g74
(dp3550
g82
I4
ssg83
g3544
sg76
(lp3551
S'text/html; charset=utf-8'
p3552
asbasbasbag69
(g85
g71
NtRp3553
(dp3554
g74
(dp3555
sg83
g3505
sg76
(lp3556
g69
(g90
g71
NtRp3557
(dp3558
g74
(dp3559
g94
g95
ssg83
g3553
sg76
(lp3560
S'Expires'
p3561
asbag69
(g90
g71
NtRp3562
(dp3563
g74
(dp3564
g101
g102
ssg83
g3553
sg76
(lp3565
S':'
asbag69
(g90
g71
NtRp3566
(dp3567
g74
(dp3568
sg83
g3553
sg76
(lp3569
g69
(g70
g71
NtRp3570
(dp3571
g74
(dp3572
g82
I4
ssg83
g3566
sg76
(lp3573
S'Mon, 30 Jul 2012 13:41:35 GMT'
p3574
asbasbasbag69
(g85
g71
NtRp3575
(dp3576
g74
(dp3577
sg83
g3505
sg76
(lp3578
g69
(g90
g71
NtRp3579
(dp3580
g74
(dp3581
g94
g95
ssg83
g3575
sg76
(lp3582
S'Pragma'
p3583
asbag69
(g90
g71
NtRp3584
(dp3585
g74
(dp3586
g101
g102
ssg83
g3575
sg76
(lp3587
S':'
asbag69
(g90
g71
NtRp3588
(dp3589
g74
(dp3590
sg83
g3575
sg76
(lp3591
g69
(g70
g71
NtRp3592
(dp3593
g74
(dp3594
g82
I4
ssg83
g3588
sg76
(lp3595
S'no-cache'
p3596
asbasbasbag69
(g85
g71
NtRp3597
(dp3598
g74
(dp3599
sg83
g3505
sg76
(lp3600
g69
(g90
g71
NtRp3601
(dp3602
g74
(dp3603
g94
g95
ssg83
g3597
sg76
(lp3604
S'X-Powered-By'
p3605
asbag69
(g90
g71
NtRp3606
(dp3607
g74
(dp3608
g101
g102
ssg83
g3597
sg76
(lp3609
S':'
asbag69
(g90
g71
NtRp3610
(dp3611
g74
(dp3612
sg83
g3597
sg76
(lp3613
g69
(g70
g71
NtRp3614
(dp3615
g74
(dp3616
g82
I4
ssg83
g3610
sg76
(lp3617
S'web2py'
p3618
asbasbasbasbasbasbasbag69
(g85
g71
NtRp3619
(dp3620
g74
(dp3621
sg83
g3116
sg76
(lp3622
g69
(g90
g71
NtRp3623
(dp3624
g74
(dp3625
g94
g95
ssg83
g3619
sg76
(lp3626
S'menu'
p3627
asbag69
(g90
g71
NtRp3628
(dp3629
g74
(dp3630
g101
g102
ssg83
g3619
sg76
(lp3631
S':'
asbag69
(g90
g71
NtRp3632
(dp3633
g74
(dp3634
sg83
g3619
sg76
(lp3635
g69
(g70
g71
NtRp3636
(dp3637
g74
(dp3638
g82
I5
ssg83
g3632
sg76
(lp3639
g69
(g78
g71
NtRp3640
(dp3641
g74
(dp3642
g82
I4
ssg83
Nsg76
(lp3643
g69
(g85
g71
NtRp3644
(dp3645
g74
(dp3646
sg83
g3640
sg76
(lp3647
g69
(g90
g71
NtRp3648
(dp3649
g74
(dp3650
sg83
g3644
sg76
(lp3651
g69
(g70
g71
NtRp3652
(dp3653
g74
(dp3654
g82
I4
ssg83
g3648
sg76
(lp3655
g69
(g78
g71
NtRp3656
(dp3657
g74
(dp3658
g82
I3
ssg83
Nsg76
(lp3659
g69
(g85
g71
NtRp3660
(dp3661
g74
(dp3662
sg83
g3656
sg76
(lp3663
g69
(g90
g71
NtRp3664
(dp3665
g74
(dp3666
sg83
g3660
sg76
(lp3667
g69
(g70
g71
NtRp3668
(dp3669
g74
(dp3670
g82
I3
ssg83
g3664
sg76
(lp3671
cgluon.languages
lazyT_unpickle
p3672
(S't\x04\x00\x00\x00Home'
tRp3673
asbasbasbag69
(g85
g71
NtRp3674
(dp3675
g74
(dp3676
sg83
g3656
sg76
(lp3677
g69
(g90
g71
NtRp3678
(dp3679
g74
(dp3680
sg83
g3674
sg76
(lp3681
g69
(g70
g71
NtRp3682
(dp3683
g74
(dp3684
g82
I3
ssg83
g3678
sg76
(lp3685
g112
asbasbasbag69
(g85
g71
NtRp3686
(dp3687
g74
(dp3688
sg83
g3656
sg76
(lp3689
g69
(g90
g71
NtRp3690
(dp3691
g74
(dp3692
sg83
g3686
sg76
(lp3693
g69
(g70
g71
NtRp3694
(dp3695
g74
(dp3696
g82
I3
ssg83
g3690
sg76
(lp3697
S'/igor/default/index'
p3698
asbasbasbag69
(g85
g71
NtRp3699
(dp3700
g74
(dp3701
sg83
g3656
sg76
(lp3702
g69
(g90
g71
NtRp3703
(dp3704
g74
(dp3705
sg83
g3699
sg76
(lp3706
g69
(g70
g71
NtRp3707
(dp3708
g74
(dp3709
g82
I3
ssg83
g3703
sg76
(lp3710
g69
(g78
g71
NtRp3711
(dp3712
g74
(dp3713
g82
I2
ssg83
Nsg76
(lp3714
sbasbasbasbasbasbasbasbag69
(g85
g71
NtRp3715
(dp3716
g74
(dp3717
sg83
g3640
sg76
(lp3718
g69
(g90
g71
NtRp3719
(dp3720
g74
(dp3721
sg83
g3715
sg76
(lp3722
g69
(g70
g71
NtRp3723
(dp3724
g74
(dp3725
g82
I4
ssg83
g3719
sg76
(lp3726
g69
(g78
g71
NtRp3727
(dp3728
g74
(dp3729
g82
I3
ssg83
Nsg76
(lp3730
g69
(g85
g71
NtRp3731
(dp3732
g74
(dp3733
sg83
g3727
sg76
(lp3734
g69
(g90
g71
NtRp3735
(dp3736
g74
(dp3737
sg83
g3731
sg76
(lp3738
g69
(g70
g71
NtRp3739
(dp3740
g74
(dp3741
g82
I3
ssg83
g3735
sg76
(lp3742
g69
(cgluon.html
SPAN
p3743
g71
NtRp3744
(dp3745
g74
(dp3746
g94
S'color:yellow'
p3747
ssg83
Nsg76
(lp3748
g3618
asbasbasbasbag69
(g85
g71
NtRp3749
(dp3750
g74
(dp3751
sg83
g3727
sg76
(lp3752
g69
(g90
g71
NtRp3753
(dp3754
g74
(dp3755
sg83
g3749
sg76
(lp3756
g69
(g70
g71
NtRp3757
(dp3758
g74
(dp3759
g82
I3
ssg83
g3753
sg76
(lp3760
g112
asbasbasbag69
(g85
g71
NtRp3761
(dp3762
g74
(dp3763
sg83
g3727
sg76
(lp3764
g69
(g90
g71
NtRp3765
(dp3766
g74
(dp3767
sg83
g3761
sg76
(lp3768
g69
(g70
g71
NtRp3769
(dp3770
g74
(dp3771
g82
I3
ssg83
g3765
sg76
(lp3772
S'None'
p3773
asbasbasbag69
(g85
g71
NtRp3774
(dp3775
g74
(dp3776
sg83
g3727
sg76
(lp3777
g69
(g90
g71
NtRp3778
(dp3779
g74
(dp3780
sg83
g3774
sg76
(lp3781
g69
(g70
g71
NtRp3782
(dp3783
g74
(dp3784
g82
I3
ssg83
g3778
sg76
(lp3785
g69
(g78
g71
NtRp3786
(dp3787
g74
(dp3788
g82
I2
ssg83
Nsg76
(lp3789
g69
(g85
g71
NtRp3790
(dp3791
g74
(dp3792
sg83
g3786
sg76
(lp3793
g69
(g90
g71
NtRp3794
(dp3795
g74
(dp3796
sg83
g3790
sg76
(lp3797
g69
(g70
g71
NtRp3798
(dp3799
g74
(dp3800
g82
I2
ssg83
g3794
sg76
(lp3801
g69
(g78
g71
NtRp3802
(dp3803
g74
(dp3804
g82
I1
ssg83
Nsg76
(lp3805
g69
(g85
g71
NtRp3806
(dp3807
g74
(dp3808
sg83
g3802
sg76
(lp3809
g69
(g90
g71
NtRp3810
(dp3811
g74
(dp3812
sg83
g3806
sg76
(lp3813
g69
(g70
g71
NtRp3814
(dp3815
g74
(dp3816
g82
I1
ssg83
g3810
sg76
(lp3817
g3672
(S's\x08\x00\x00\x00My Sites'
tRp3818
asbasbasbag69
(g85
g71
NtRp3819
(dp3820
g74
(dp3821
sg83
g3802
sg76
(lp3822
g69
(g90
g71
NtRp3823
(dp3824
g74
(dp3825
sg83
g3819
sg76
(lp3826
g69
(g70
g71
NtRp3827
(dp3828
g74
(dp3829
g82
I1
ssg83
g3823
sg76
(lp3830
I00
asbasbasbag69
(g85
g71
NtRp3831
(dp3832
g74
(dp3833
sg83
g3802
sg76
(lp3834
g69
(g90
g71
NtRp3835
(dp3836
g74
(dp3837
sg83
g3831
sg76
(lp3838
g69
(g70
g71
NtRp3839
(dp3840
g74
(dp3841
g82
I1
ssg83
g3835
sg76
(lp3842
S'/admin/default/site'
p3843
asbasbasbasbasbasbasbag69
(g85
g71
NtRp3844
(dp3845
g74
(dp3846
sg83
g3786
sg76
(lp3847
g69
(g90
g71
NtRp3848
(dp3849
g74
(dp3850
sg83
g3844
sg76
(lp3851
g69
(g70
g71
NtRp3852
(dp3853
g74
(dp3854
g82
I2
ssg83
g3848
sg76
(lp3855
g69
(g78
g71
NtRp3856
(dp3857
g74
(dp3858
g82
I1
ssg83
Nsg76
(lp3859
g69
(g85
g71
NtRp3860
(dp3861
g74
(dp3862
sg83
g3856
sg76
(lp3863
g69
(g90
g71
NtRp3864
(dp3865
g74
(dp3866
sg83
g3860
sg76
(lp3867
g69
(g70
g71
NtRp3868
(dp3869
g74
(dp3870
g82
I1
ssg83
g3864
sg76
(lp3871
g3672
(S's\x08\x00\x00\x00This App'
tRp3872
asbasbasbag69
(g85
g71
NtRp3873
(dp3874
g74
(dp3875
sg83
g3856
sg76
(lp3876
g69
(g90
g71
NtRp3877
(dp3878
g74
(dp3879
sg83
g3873
sg76
(lp3880
g69
(g70
g71
NtRp3881
(dp3882
g74
(dp3883
g82
I1
ssg83
g3877
sg76
(lp3884
I00
asbasbasbag69
(g85
g71
NtRp3885
(dp3886
g74
(dp3887
sg83
g3856
sg76
(lp3888
g69
(g90
g71
NtRp3889
(dp3890
g74
(dp3891
sg83
g3885
sg76
(lp3892
g69
(g70
g71
NtRp3893
(dp3894
g74
(dp3895
g82
I1
ssg83
g3889
sg76
(lp3896
S'/admin/default/design/igor'
p3897
asbasbasbag69
(g85
g71
NtRp3898
(dp3899
g74
(dp3900
sg83
g3856
sg76
(lp3901
g69
(g90
g71
NtRp3902
(dp3903
g74
(dp3904
sg83
g3898
sg76
(lp3905
g69
(g70
g71
NtRp3906
(dp3907
g74
(dp3908
g82
I1
ssg83
g3902
sg76
(lp3909
(lp3910
(g3672
(S't\n\x00\x00\x00Controller'
tRp3911
I00
S'/admin/default/edit/igor/controllers/jobs.py'
tp3912
a(g3672
(S't\x04\x00\x00\x00View'
tRp3913
I00
S'/admin/default/edit/igor/views/jobs/get_jobs_by_class.html'
tp3914
a(g3672
(S't\x06\x00\x00\x00Layout'
tRp3915
I00
S'/admin/default/edit/igor/views/layout.html'
tp3916
a(g3672
(S't\n\x00\x00\x00Stylesheet'
tRp3917
I00
S'/admin/default/edit/igor/static/css/web2py.css'
tp3918
a(g3672
(S's\x08\x00\x00\x00DB Model'
tRp3919
I00
S'/admin/default/edit/igor/models/db.py'
tp3920
a(g3672
(S's\n\x00\x00\x00Menu Model'
tRp3921
I00
S'/admin/default/edit/igor/models/menu.py'
tp3922
a(g3672
(S't\x08\x00\x00\x00Database'
tRp3923
I00
S'/igor/appadmin/index'
tp3924
a(g3672
(S't\x06\x00\x00\x00Errors'
tRp3925
I00
S'/admin/default/errors/igor'
tp3926
a(g3672
(S't\x05\x00\x00\x00About'
tRp3927
I00
S'/admin/default/about/igor'
tp3928
aasbasbasbasbasbasbasbag69
(g85
g71
NtRp3929
(dp3930
g74
(dp3931
sg83
g3786
sg76
(lp3932
g69
(g90
g71
NtRp3933
(dp3934
g74
(dp3935
sg83
g3929
sg76
(lp3936
g69
(g70
g71
NtRp3937
(dp3938
g74
(dp3939
g82
I2
ssg83
g3933
sg76
(lp3940
g69
(g78
g71
NtRp3941
(dp3942
g74
(dp3943
g82
I1
ssg83
Nsg76
(lp3944
g69
(g85
g71
NtRp3945
(dp3946
g74
(dp3947
sg83
g3941
sg76
(lp3948
g69
(g90
g71
NtRp3949
(dp3950
g74
(dp3951
sg83
g3945
sg76
(lp3952
g69
(g70
g71
NtRp3953
(dp3954
g74
(dp3955
g82
I1
ssg83
g3949
sg76
(lp3956
S'web2py.com'
p3957
asbasbasbag69
(g85
g71
NtRp3958
(dp3959
g74
(dp3960
sg83
g3941
sg76
(lp3961
g69
(g90
g71
NtRp3962
(dp3963
g74
(dp3964
sg83
g3958
sg76
(lp3965
g69
(g70
g71
NtRp3966
(dp3967
g74
(dp3968
g82
I1
ssg83
g3962
sg76
(lp3969
I00
asbasbasbag69
(g85
g71
NtRp3970
(dp3971
g74
(dp3972
sg83
g3941
sg76
(lp3973
g69
(g90
g71
NtRp3974
(dp3975
g74
(dp3976
sg83
g3970
sg76
(lp3977
g69
(g70
g71
NtRp3978
(dp3979
g74
(dp3980
g82
I1
ssg83
g3974
sg76
(lp3981
S'http://www.web2py.com'
p3982
asbasbasbag69
(g85
g71
NtRp3983
(dp3984
g74
(dp3985
sg83
g3941
sg76
(lp3986
g69
(g90
g71
NtRp3987
(dp3988
g74
(dp3989
sg83
g3983
sg76
(lp3990
g69
(g70
g71
NtRp3991
(dp3992
g74
(dp3993
g82
I1
ssg83
g3987
sg76
(lp3994
(lp3995
(g3672
(S't\x08\x00\x00\x00Download'
tRp3996
I00
S'http://www.web2py.com/examples/default/download'
p3997
tp3998
a(g3672
(S't\x07\x00\x00\x00Support'
tRp3999
I00
S'http://www.web2py.com/examples/default/support'
p4000
tp4001
a(g3672
(S't\x04\x00\x00\x00Demo'
tRp4002
I00
S'http://web2py.com/demo_admin'
p4003
tp4004
a(g3672
(S's\x0e\x00\x00\x00Quick Examples'
tRp4005
I00
S'http://web2py.com/examples/default/examples'
p4006
tp4007
a(g3672
(S't\x03\x00\x00\x00FAQ'
tRp4008
I00
S'http://web2py.com/AlterEgo'
p4009
tp4010
a(g3672
(S't\x06\x00\x00\x00Videos'
tRp4011
I00
S'http://www.web2py.com/examples/default/videos/'
p4012
tp4013
a(g3672
(S's\x11\x00\x00\x00Free Applications'
tRp4014
I00
S'http://web2py.com/appliances'
p4015
tp4016
a(g3672
(S't\x07\x00\x00\x00Plugins'
tRp4017
I00
S'http://web2py.com/plugins'
p4018
tp4019
a(g3672
(S't\x07\x00\x00\x00Layouts'
tRp4020
I00
S'http://web2py.com/layouts'
p4021
tp4022
a(g3672
(S't\x07\x00\x00\x00Recipes'
tRp4023
I00
S'http://web2pyslices.com/'
p4024
tp4025
a(g3672
(S't\x08\x00\x00\x00Semantic'
tRp4026
I00
S'http://web2py.com/semantic'
p4027
tp4028
aasbasbasbasbasbasbasbag69
(g85
g71
NtRp4029
(dp4030
g74
(dp4031
sg83
g3786
sg76
(lp4032
g69
(g90
g71
NtRp4033
(dp4034
g74
(dp4035
sg83
g4029
sg76
(lp4036
g69
(g70
g71
NtRp4037
(dp4038
g74
(dp4039
g82
I2
ssg83
g4033
sg76
(lp4040
g69
(g78
g71
NtRp4041
(dp4042
g74
(dp4043
g82
I1
ssg83
Nsg76
(lp4044
g69
(g85
g71
NtRp4045
(dp4046
g74
(dp4047
sg83
g4041
sg76
(lp4048
g69
(g90
g71
NtRp4049
(dp4050
g74
(dp4051
sg83
g4045
sg76
(lp4052
g69
(g70
g71
NtRp4053
(dp4054
g74
(dp4055
g82
I1
ssg83
g4049
sg76
(lp4056
g3672
(S't\r\x00\x00\x00Documentation'
tRp4057
asbasbasbag69
(g85
g71
NtRp4058
(dp4059
g74
(dp4060
sg83
g4041
sg76
(lp4061
g69
(g90
g71
NtRp4062
(dp4063
g74
(dp4064
sg83
g4058
sg76
(lp4065
g69
(g70
g71
NtRp4066
(dp4067
g74
(dp4068
g82
I1
ssg83
g4062
sg76
(lp4069
I00
asbasbasbag69
(g85
g71
NtRp4070
(dp4071
g74
(dp4072
sg83
g4041
sg76
(lp4073
g69
(g90
g71
NtRp4074
(dp4075
g74
(dp4076
sg83
g4070
sg76
(lp4077
g69
(g70
g71
NtRp4078
(dp4079
g74
(dp4080
g82
I1
ssg83
g4074
sg76
(lp4081
S'http://www.web2py.com/book'
p4082
asbasbasbag69
(g85
g71
NtRp4083
(dp4084
g74
(dp4085
sg83
g4041
sg76
(lp4086
g69
(g90
g71
NtRp4087
(dp4088
g74
(dp4089
sg83
g4083
sg76
(lp4090
g69
(g70
g71
NtRp4091
(dp4092
g74
(dp4093
g82
I1
ssg83
g4087
sg76
(lp4094
(lp4095
(g3672
(S't\x07\x00\x00\x00Preface'
tRp4096
I00
S'http://www.web2py.com/book/default/chapter/00'
p4097
tp4098
a(g3672
(S't\x0c\x00\x00\x00Introduction'
tRp4099
I00
S'http://www.web2py.com/book/default/chapter/01'
p4100
tp4101
a(g3672
(S't\x06\x00\x00\x00Python'
tRp4102
I00
S'http://www.web2py.com/book/default/chapter/02'
p4103
tp4104
a(g3672
(S't\x08\x00\x00\x00Overview'
tRp4105
I00
S'http://www.web2py.com/book/default/chapter/03'
p4106
tp4107
a(g3672
(S's\x08\x00\x00\x00The Core'
tRp4108
I00
S'http://www.web2py.com/book/default/chapter/04'
p4109
tp4110
a(g3672
(S's\t\x00\x00\x00The Views'
tRp4111
I00
S'http://www.web2py.com/book/default/chapter/05'
p4112
tp4113
a(g3672
(S't\x08\x00\x00\x00Database'
tRp4114
I00
S'http://www.web2py.com/book/default/chapter/06'
p4115
tp4116
a(g3672
(S's\x14\x00\x00\x00Forms and Validators'
tRp4117
I00
S'http://www.web2py.com/book/default/chapter/07'
p4118
tp4119
a(g3672
(S's\r\x00\x00\x00Email and SMS'
tRp4120
I00
S'http://www.web2py.com/book/default/chapter/08'
p4121
tp4122
a(g3672
(S's\x0e\x00\x00\x00Access Control'
tRp4123
I00
S'http://www.web2py.com/book/default/chapter/09'
p4124
tp4125
a(g3672
(S't\x08\x00\x00\x00Services'
tRp4126
I00
S'http://www.web2py.com/book/default/chapter/10'
p4127
tp4128
a(g3672
(S's\x0c\x00\x00\x00Ajax Recipes'
tRp4129
I00
S'http://www.web2py.com/book/default/chapter/11'
p4130
tp4131
a(g3672
(S's\x16\x00\x00\x00Components and Plugins'
tRp4132
I00
S'http://www.web2py.com/book/default/chapter/12'
p4133
tp4134
a(g3672
(S's\x12\x00\x00\x00Deployment Recipes'
tRp4135
I00
S'http://www.web2py.com/book/default/chapter/13'
p4136
tp4137
a(g3672
(S's\r\x00\x00\x00Other Recipes'
tRp4138
I00
S'http://www.web2py.com/book/default/chapter/14'
p4139
tp4140
a(g3672
(S's\r\x00\x00\x00Buy this book'
tRp4141
I00
S'http://stores.lulu.com/web2py'
p4142
tp4143
aasbasbasbasbasbasbasbag69
(g85
g71
NtRp4144
(dp4145
g74
(dp4146
sg83
g3786
sg76
(lp4147
g69
(g90
g71
NtRp4148
(dp4149
g74
(dp4150
sg83
g4144
sg76
(lp4151
g69
(g70
g71
NtRp4152
(dp4153
g74
(dp4154
g82
I2
ssg83
g4148
sg76
(lp4155
g69
(g78
g71
NtRp4156
(dp4157
g74
(dp4158
g82
I1
ssg83
Nsg76
(lp4159
g69
(g85
g71
NtRp4160
(dp4161
g74
(dp4162
sg83
g4156
sg76
(lp4163
g69
(g90
g71
NtRp4164
(dp4165
g74
(dp4166
sg83
g4160
sg76
(lp4167
g69
(g70
g71
NtRp4168
(dp4169
g74
(dp4170
g82
I1
ssg83
g4164
sg76
(lp4171
g3672
(S't\t\x00\x00\x00Community'
tRp4172
asbasbasbag69
(g85
g71
NtRp4173
(dp4174
g74
(dp4175
sg83
g4156
sg76
(lp4176
g69
(g90
g71
NtRp4177
(dp4178
g74
(dp4179
sg83
g4173
sg76
(lp4180
g69
(g70
g71
NtRp4181
(dp4182
g74
(dp4183
g82
I1
ssg83
g4177
sg76
(lp4184
I00
asbasbasbag69
(g85
g71
NtRp4185
(dp4186
g74
(dp4187
sg83
g4156
sg76
(lp4188
g69
(g90
g71
NtRp4189
(dp4190
g74
(dp4191
sg83
g4185
sg76
(lp4192
g69
(g70
g71
NtRp4193
(dp4194
g74
(dp4195
g82
I1
ssg83
g4189
sg76
(lp4196
Nasbasbasbag69
(g85
g71
NtRp4197
(dp4198
g74
(dp4199
sg83
g4156
sg76
(lp4200
g69
(g90
g71
NtRp4201
(dp4202
g74
(dp4203
sg83
g4197
sg76
(lp4204
g69
(g70
g71
NtRp4205
(dp4206
g74
(dp4207
g82
I1
ssg83
g4201
sg76
(lp4208
(lp4209
(g3672
(S't\x06\x00\x00\x00Groups'
tRp4210
I00
S'http://www.web2py.com/examples/default/usergroups'
p4211
tp4212
a(g3672
(S't\x07\x00\x00\x00Twitter'
tRp4213
I00
S'http://twitter.com/web2py'
p4214
tp4215
a(g3672
(S's\t\x00\x00\x00Live Chat'
tRp4216
I00
S'http://webchat.freenode.net/?channels=web2py'
p4217
tp4218
aasbasbasbasbasbasbasbag69
(g85
g71
NtRp4219
(dp4220
g74
(dp4221
sg83
g3786
sg76
(lp4222
g69
(g90
g71
NtRp4223
(dp4224
g74
(dp4225
sg83
g4219
sg76
(lp4226
g69
(g70
g71
NtRp4227
(dp4228
g74
(dp4229
g82
I2
ssg83
g4223
sg76
(lp4230
g69
(g78
g71
NtRp4231
(dp4232
g74
(dp4233
g82
I1
ssg83
Nsg76
(lp4234
g69
(g85
g71
NtRp4235
(dp4236
g74
(dp4237
sg83
g4231
sg76
(lp4238
g69
(g90
g71
NtRp4239
(dp4240
g74
(dp4241
sg83
g4235
sg76
(lp4242
g69
(g70
g71
NtRp4243
(dp4244
g74
(dp4245
g82
I1
ssg83
g4239
sg76
(lp4246
g3672
(S't\x07\x00\x00\x00Plugins'
tRp4247
asbasbasbag69
(g85
g71
NtRp4248
(dp4249
g74
(dp4250
sg83
g4231
sg76
(lp4251
g69
(g90
g71
NtRp4252
(dp4253
g74
(dp4254
sg83
g4248
sg76
(lp4255
g69
(g70
g71
NtRp4256
(dp4257
g74
(dp4258
g82
I1
ssg83
g4252
sg76
(lp4259
I00
asbasbasbag69
(g85
g71
NtRp4260
(dp4261
g74
(dp4262
sg83
g4231
sg76
(lp4263
g69
(g90
g71
NtRp4264
(dp4265
g74
(dp4266
sg83
g4260
sg76
(lp4267
g69
(g70
g71
NtRp4268
(dp4269
g74
(dp4270
g82
I1
ssg83
g4264
sg76
(lp4271
Nasbasbasbag69
(g85
g71
NtRp4272
(dp4273
g74
(dp4274
sg83
g4231
sg76
(lp4275
g69
(g90
g71
NtRp4276
(dp4277
g74
(dp4278
sg83
g4272
sg76
(lp4279
g69
(g70
g71
NtRp4280
(dp4281
g74
(dp4282
g82
I1
ssg83
g4276
sg76
(lp4283
(lp4284
(S'plugin_wiki'
p4285
I00
S'http://web2py.com/examples/default/download'
p4286
tp4287
a(g3672
(S's\r\x00\x00\x00Other Plugins'
tRp4288
I00
g4018
tp4289
a(g3672
(S's\x0e\x00\x00\x00Layout Plugins'
tRp4290
I00
g4021
tp4291
aasbasbasbasbasbasbasbasbasbasbasbasbasbasbasbasbasbasbasbag69
(g85
g71
NtRp4292
(dp4293
g74
(dp4294
sg83
g3116
sg76
(lp4295
g69
(g90
g71
NtRp4296
(dp4297
g74
(dp4298
g94
g95
ssg83
g4292
sg76
(lp4299
S'meta'
p4300
asbag69
(g90
g71
NtRp4301
(dp4302
g74
(dp4303
g101
g102
ssg83
g4292
sg76
(lp4304
S':'
asbag69
(g90
g71
NtRp4305
(dp4306
g74
(dp4307
sg83
g4292
sg76
(lp4308
g69
(g70
g71
NtRp4309
(dp4310
g74
(dp4311
g82
I5
ssg83
g4305
sg76
(lp4312
g69
(g78
g71
NtRp4313
(dp4314
g74
(dp4315
g82
I4
ssg83
Nsg76
(lp4316
g69
(g85
g71
NtRp4317
(dp4318
g74
(dp4319
sg83
g4313
sg76
(lp4320
g69
(g90
g71
NtRp4321
(dp4322
g74
(dp4323
g94
g95
ssg83
g4317
sg76
(lp4324
S'author'
p4325
asbag69
(g90
g71
NtRp4326
(dp4327
g74
(dp4328
g101
g102
ssg83
g4317
sg76
(lp4329
S':'
asbag69
(g90
g71
NtRp4330
(dp4331
g74
(dp4332
sg83
g4317
sg76
(lp4333
g69
(g70
g71
NtRp4334
(dp4335
g74
(dp4336
g82
I4
ssg83
g4330
sg76
(lp4337
S'Your Name <you@example.com>'
p4338
asbasbasbag69
(g85
g71
NtRp4339
(dp4340
g74
(dp4341
sg83
g4313
sg76
(lp4342
g69
(g90
g71
NtRp4343
(dp4344
g74
(dp4345
g94
g95
ssg83
g4339
sg76
(lp4346
S'copyright'
p4347
asbag69
(g90
g71
NtRp4348
(dp4349
g74
(dp4350
g101
g102
ssg83
g4339
sg76
(lp4351
S':'
asbag69
(g90
g71
NtRp4352
(dp4353
g74
(dp4354
sg83
g4339
sg76
(lp4355
g69
(g70
g71
NtRp4356
(dp4357
g74
(dp4358
g82
I4
ssg83
g4352
sg76
(lp4359
S'Copyright 2011'
p4360
asbasbasbag69
(g85
g71
NtRp4361
(dp4362
g74
(dp4363
sg83
g4313
sg76
(lp4364
g69
(g90
g71
NtRp4365
(dp4366
g74
(dp4367
g94
g95
ssg83
g4361
sg76
(lp4368
S'description'
p4369
asbag69
(g90
g71
NtRp4370
(dp4371
g74
(dp4372
g101
g102
ssg83
g4361
sg76
(lp4373
S':'
asbag69
(g90
g71
NtRp4374
(dp4375
g74
(dp4376
sg83
g4361
sg76
(lp4377
g69
(g70
g71
NtRp4378
(dp4379
g74
(dp4380
g82
I4
ssg83
g4374
sg76
(lp4381
S'a cool new app'
p4382
asbasbasbag69
(g85
g71
NtRp4383
(dp4384
g74
(dp4385
sg83
g4313
sg76
(lp4386
g69
(g90
g71
NtRp4387
(dp4388
g74
(dp4389
g94
g95
ssg83
g4383
sg76
(lp4390
S'generator'
p4391
asbag69
(g90
g71
NtRp4392
(dp4393
g74
(dp4394
g101
g102
ssg83
g4383
sg76
(lp4395
S':'
asbag69
(g90
g71
NtRp4396
(dp4397
g74
(dp4398
sg83
g4383
sg76
(lp4399
g69
(g70
g71
NtRp4400
(dp4401
g74
(dp4402
g82
I4
ssg83
g4396
sg76
(lp4403
S'Web2py Web Framework'
p4404
asbasbasbag69
(g85
g71
NtRp4405
(dp4406
g74
(dp4407
sg83
g4313
sg76
(lp4408
g69
(g90
g71
NtRp4409
(dp4410
g74
(dp4411
g94
g95
ssg83
g4405
sg76
(lp4412
S'keywords'
p4413
asbag69
(g90
g71
NtRp4414
(dp4415
g74
(dp4416
g101
g102
ssg83
g4405
sg76
(lp4417
S':'
asbag69
(g90
g71
NtRp4418
(dp4419
g74
(dp4420
sg83
g4405
sg76
(lp4421
g69
(g70
g71
NtRp4422
(dp4423
g74
(dp4424
g82
I4
ssg83
g4418
sg76
(lp4425
S'web2py, python, framework'
p4426
asbasbasbasbasbasbasbag69
(g85
g71
NtRp4427
(dp4428
g74
(dp4429
sg83
g3116
sg76
(lp4430
g69
(g90
g71
NtRp4431
(dp4432
g74
(dp4433
g94
g95
ssg83
g4427
sg76
(lp4434
S'postprocessing'
p4435
asbag69
(g90
g71
NtRp4436
(dp4437
g74
(dp4438
g101
g102
ssg83
g4427
sg76
(lp4439
S':'
asbag69
(g90
g71
NtRp4440
(dp4441
g74
(dp4442
sg83
g4427
sg76
(lp4443
g69
(g70
g71
NtRp4444
(dp4445
g74
(dp4446
g82
I5
ssg83
g4440
sg76
(lp4447
g69
(g78
g71
NtRp4448
(dp4449
g74
(dp4450
g82
I4
ssg83
Nsg76
(lp4451
sbasbasbasbag69
(g85
g71
NtRp4452
(dp4453
g74
(dp4454
sg83
g3116
sg76
(lp4455
g69
(g90
g71
NtRp4456
(dp4457
g74
(dp4458
g94
g95
ssg83
g4452
sg76
(lp4459
S'session_filename'
p4460
asbag69
(g90
g71
NtRp4461
(dp4462
g74
(dp4463
g101
g102
ssg83
g4452
sg76
(lp4464
S':'
asbag69
(g90
g71
NtRp4465
(dp4466
g74
(dp4467
sg83
g4452
sg76
(lp4468
g69
(g70
g71
NtRp4469
(dp4470
g74
(dp4471
g82
I5
ssg83
g4465
sg76
(lp4472
S'D:\\workspace\\ca\\IgoR\\C_Sources\\Server\\igor-assistant-ca-2012\\applications\\igor\\sessions\\127.0.0.1-75ab74ef-397d-4d31-8f56-6be6d6983a26'
p4473
asbasbasbag69
(g85
g71
NtRp4474
(dp4475
g74
(dp4476
sg83
g3116
sg76
(lp4477
g69
(g90
g71
NtRp4478
(dp4479
g74
(dp4480
g94
g95
ssg83
g4474
sg76
(lp4481
S'session_id'
p4482
asbag69
(g90
g71
NtRp4483
(dp4484
g74
(dp4485
g101
g102
ssg83
g4474
sg76
(lp4486
S':'
asbag69
(g90
g71
NtRp4487
(dp4488
g74
(dp4489
sg83
g4474
sg76
(lp4490
g69
(g70
g71
NtRp4491
(dp4492
g74
(dp4493
g82
I5
ssg83
g4487
sg76
(lp4494
S'127.0.0.1-75ab74ef-397d-4d31-8f56-6be6d6983a26'
p4495
asbasbasbag69
(g85
g71
NtRp4496
(dp4497
g74
(dp4498
sg83
g3116
sg76
(lp4499
g69
(g90
g71
NtRp4500
(dp4501
g74
(dp4502
g94
g95
ssg83
g4496
sg76
(lp4503
S'session_id_name'
p4504
asbag69
(g90
g71
NtRp4505
(dp4506
g74
(dp4507
g101
g102
ssg83
g4496
sg76
(lp4508
S':'
asbag69
(g90
g71
NtRp4509
(dp4510
g74
(dp4511
sg83
g4496
sg76
(lp4512
g69
(g70
g71
NtRp4513
(dp4514
g74
(dp4515
g82
I5
ssg83
g4509
sg76
(lp4516
g3173
asbasbasbag69
(g85
g71
NtRp4517
(dp4518
g74
(dp4519
sg83
g3116
sg76
(lp4520
g69
(g90
g71
NtRp4521
(dp4522
g74
(dp4523
g94
g95
ssg83
g4517
sg76
(lp4524
S'session_new'
p4525
asbag69
(g90
g71
NtRp4526
(dp4527
g74
(dp4528
g101
g102
ssg83
g4517
sg76
(lp4529
S':'
asbag69
(g90
g71
NtRp4530
(dp4531
g74
(dp4532
sg83
g4517
sg76
(lp4533
g69
(g70
g71
NtRp4534
(dp4535
g74
(dp4536
g82
I5
ssg83
g4530
sg76
(lp4537
g1705
asbasbasbag69
(g85
g71
NtRp4538
(dp4539
g74
(dp4540
sg83
g3116
sg76
(lp4541
g69
(g90
g71
NtRp4542
(dp4543
g74
(dp4544
g94
g95
ssg83
g4538
sg76
(lp4545
S'status'
p4546
asbag69
(g90
g71
NtRp4547
(dp4548
g74
(dp4549
g101
g102
ssg83
g4538
sg76
(lp4550
S':'
asbag69
(g90
g71
NtRp4551
(dp4552
g74
(dp4553
sg83
g4538
sg76
(lp4554
g69
(g70
g71
NtRp4555
(dp4556
g74
(dp4557
g82
I5
ssg83
g4551
sg76
(lp4558
S'200'
p4559
asbasbasbag69
(g85
g71
NtRp4560
(dp4561
g74
(dp4562
sg83
g3116
sg76
(lp4563
g69
(g90
g71
NtRp4564
(dp4565
g74
(dp4566
g94
g95
ssg83
g4560
sg76
(lp4567
S'subtitle'
p4568
asbag69
(g90
g71
NtRp4569
(dp4570
g74
(dp4571
g101
g102
ssg83
g4560
sg76
(lp4572
S':'
asbag69
(g90
g71
NtRp4573
(dp4574
g74
(dp4575
sg83
g4560
sg76
(lp4576
g69
(g70
g71
NtRp4577
(dp4578
g74
(dp4579
g82
I5
ssg83
g4573
sg76
(lp4580
g3672
(S's\r\x00\x00\x00customize me!'
tRp4581
asbasbasbag69
(g85
g71
NtRp4582
(dp4583
g74
(dp4584
sg83
g3116
sg76
(lp4585
g69
(g90
g71
NtRp4586
(dp4587
g74
(dp4588
g94
g95
ssg83
g4582
sg76
(lp4589
S'title'
p4590
asbag69
(g90
g71
NtRp4591
(dp4592
g74
(dp4593
g101
g102
ssg83
g4582
sg76
(lp4594
S':'
asbag69
(g90
g71
NtRp4595
(dp4596
g74
(dp4597
sg83
g4582
sg76
(lp4598
g69
(g70
g71
NtRp4599
(dp4600
g74
(dp4601
g82
I5
ssg83
g4595
sg76
(lp4602
S'Igor'
p4603
asbasbasbag69
(g85
g71
NtRp4604
(dp4605
g74
(dp4606
sg83
g3116
sg76
(lp4607
g69
(g90
g71
NtRp4608
(dp4609
g74
(dp4610
g94
g95
ssg83
g4604
sg76
(lp4611
g2403
asbag69
(g90
g71
NtRp4612
(dp4613
g74
(dp4614
g101
g102
ssg83
g4604
sg76
(lp4615
S':'
asbag69
(g90
g71
NtRp4616
(dp4617
g74
(dp4618
sg83
g4604
sg76
(lp4619
g69
(g70
g71
NtRp4620
(dp4621
g74
(dp4622
g82
I5
ssg83
g4616
sg76
(lp4623
g2416
asbasbasbag69
(g85
g71
NtRp4624
(dp4625
g74
(dp4626
sg83
g3116
sg76
(lp4627
g69
(g90
g71
NtRp4628
(dp4629
g74
(dp4630
g94
g95
ssg83
g4624
sg76
(lp4631
S'view'
p4632
asbag69
(g90
g71
NtRp4633
(dp4634
g74
(dp4635
g101
g102
ssg83
g4624
sg76
(lp4636
S':'
asbag69
(g90
g71
NtRp4637
(dp4638
g74
(dp4639
sg83
g4624
sg76
(lp4640
g69
(g70
g71
NtRp4641
(dp4642
g74
(dp4643
g82
I5
ssg83
g4637
sg76
(lp4644
S'jobs/get_jobs_by_class.html'
p4645
asbasbasbasbasbsS'locals'
p4646
(dp4647
g4
S"r'D:\\workspace\\ca\\IgoR\\C_Sources\\Server\\igor-assistant-ca-2012\\applications\\igor\\controllers/jobs.py'"
p4648
sg6
S"'# -*- coding: utf-8 -*-\\n# this file is released ...sponse._vars=response._caller(get_jobs_by_class)\\n'"
p4649
sssS'traceback'
p4650
S'Traceback (most recent call last):\n  File "D:\\workspace\\ca\\IgoR\\C_Sources\\Server\\igor-assistant-ca-2012\\gluon\\restricted.py", line 204, in restricted\n    ccode = compile2(code,layer)\n  File "D:\\workspace\\ca\\IgoR\\C_Sources\\Server\\igor-assistant-ca-2012\\gluon\\restricted.py", line 189, in compile2\n    return compile(code.rstrip().replace(\'\\r\\n\',\'\\n\')+\'\\n\', layer, \'exec\')\n  File "D:\\workspace\\ca\\IgoR\\C_Sources\\Server\\igor-assistant-ca-2012\\applications\\igor\\controllers/jobs.py", line 287\n    date = , ##Tuna - get date ???\n           ^\nSyntaxError: invalid syntax\n'
p4651
s.