(dp1
S'output'
p2
S"<type 'exceptions.KeyError'> 'auth'"
p3
sS'layer'
p4
S'D:\\workspace\\CA\\IgoR\\C_Sources\\Server\\igor-assistant-ca-2012\\applications\\igor\\controllers/user.py'
p5
sS'code'
p6
S'# -*- coding: utf-8 -*-\n# this file is released under public domain and you can use without limitations\n\n#########################################################################\n## This is subject controller\n## Author: phucnh, tuna\n#########################################################################\n\nfrom message_packager import *\nfrom gluon.dal import Rows\nfrom gluon.tools import Service\nimport gluon.contenttype\n\nservice = Service()\n\n\ndef call():\n\tsession.forget()\n\n\treturn service()\n\n# Registration new user\n@request.restful()\ndef register():\n\tresponse.view = \'generic.json\'\n\tdef GET(name, class_group, student_code, user_course, avatar):\n\t\treturn\n\n\treturn locals()\n\n@service.jsonp\n@service.json\ndef check_email_available(email):\n\t\n\tif (db(db.auth.email == email).isempty()):\n\t\treturn MessagePackager.get_packaged_message (MessageStatus.OK, \n\t\t\t"1")\n\telse:\n\t\treturn MessagePackager.get_packaged_message (MessageStatus.OK, \n\t\t\t"0")\n\n# Login \n@service.jsonp\n@service.json\ndef login(email, password):\n\n\tis_login = auth.login_bare(email, password)\n\t\n\tif not is_login:\n\t\treturn MessagePackager.get_packaged_message (MessageStatus.OK, \n\t\t\t"Authentication failed! Check your email or password again")\n\n\tprint session\n\treturn MessagePackager.get_packaged_message (MessageStatus.OK, "Success")\n\n# Search user\n# Input\n# \ttype: integer. 2: by class, 3: by subject, 5: by user name\n@service.jsonp\n@service.json\ndef search_user(type, value = \'\'):\n\t\t\n\tif (not type.isdigit()):\n\t\treturn MessagePackager.get_packaged_message (\n\t\t\tMessageStatus.ERROR, \n\t\t\t"type must be numberic! - 2: get by class, 3: get by subject, 5: by user name")\n\n\tusers = dict()\n\n\tif (int (type) == 5):\n\t\tusers = get_user_by_name (value)\n\t\t#users = db(db.user).select()\n\t\t\t\n\tusers = format_client_data (users)\n\n\treturn MessagePackager.get_packaged_message (MessageStatus.OK, users)\n\n# Get user information\n@service.jsonp\n@service.json\ndef get_user_detail(id):\n\n\tif (not id.isdigit()):\n\t\treturn MessagePackager.get_packaged_message (\n\t\t\tMessageStatus.ERROR, \n\t\t\t"user id must be numberic!")\n\n\tif (int (id) < 0):\n\t\t\treturn MessagePackager.get_packaged_message (\n\t\t\tMessageStatus.ERROR, \n\t\t\t"user id can not less than 0!")\n\t\t\n\tuser = \tdb(db.user.id == id).select ()\n\t\n\tuser = format_client_data (user)\n\n\treturn MessagePackager.get_packaged_message (MessageStatus.OK, user)\n\n# Format data for client \ndef format_client_data(users):\n\tif (users == None):\n\t\treturn\n\n\tclient_data = list()\n\n\tfor user in users:\n\t\tauth = db(db.auth_user.id == user.auth).select().first()\n\n\t\tif (auth != None):\n\t\t\tclient = dict(\n\t\t\t\tuserid    = user.id,\n\t\t\t\t#username  = user.name,\n\t\t\t\tfullname  = user.name,\n\t\t\t\t#password = \n\t\t\t\tavatar    = user.avatar,\n\t\t\t\tstudentid = user.student_code,\n\t\t\t\temail     = auth.email,\n\t\t\t\tgroup     = user.class_group,\n\t\t\t\tcourse    = user.user_course\n\t\t\t\t)\n\n\t\tclient_data.append (client)\n\n\treturn client_data\nresponse._vars=response._caller(call)\n'
p7
sS'snapshot'
p8
(dp9
S'exception'
p10
(dp11
S'__hash__'
p12
S"<method-wrapper '__hash__' of exceptions.KeyError object>"
p13
sS'__setattr__'
p14
S"<method-wrapper '__setattr__' of exceptions.KeyError object>"
p15
sS'__reduce_ex__'
p16
S'<built-in method __reduce_ex__ of exceptions.KeyError object>'
p17
sS'__getslice__'
p18
S"<method-wrapper '__getslice__' of exceptions.KeyError object>"
p19
sS'__getitem__'
p20
S"<method-wrapper '__getitem__' of exceptions.KeyError object>"
p21
sS'__setstate__'
p22
S'<built-in method __setstate__ of exceptions.KeyError object>'
p23
sS'__reduce__'
p24
S'<built-in method __reduce__ of exceptions.KeyError object>'
p25
sS'__str__'
p26
S"<method-wrapper '__str__' of exceptions.KeyError object>"
p27
sS'__format__'
p28
S'<built-in method __format__ of exceptions.KeyError object>'
p29
sS'__getattribute__'
p30
S"<method-wrapper '__getattribute__' of exceptions.KeyError object>"
p31
sS'__class__'
p32
S"<type 'exceptions.KeyError'>"
p33
sS'__unicode__'
p34
S'<built-in method __unicode__ of exceptions.KeyError object>'
p35
sS'__delattr__'
p36
S"<method-wrapper '__delattr__' of exceptions.KeyError object>"
p37
sS'__subclasshook__'
p38
S'<built-in method __subclasshook__ of type object>'
p39
sS'__repr__'
p40
S"<method-wrapper '__repr__' of exceptions.KeyError object>"
p41
sS'__dict__'
p42
S'{}'
p43
sS'args'
p44
S"('auth',)"
p45
sS'__sizeof__'
p46
S'<built-in method __sizeof__ of exceptions.KeyError object>'
p47
sS'__doc__'
p48
S"'Mapping key not found.'"
p49
sS'__init__'
p50
S"<method-wrapper '__init__' of exceptions.KeyError object>"
p51
sS'__new__'
p52
S'<built-in method __new__ of type object>'
p53
ssS'evalue'
p54
S"'auth'"
p55
sS'request'
p56
ccopy_reg
_reconstructor
p57
(cgluon.html
BEAUTIFY
p58
c__builtin__
object
p59
NtRp60
(dp61
S'attributes'
p62
(dp63
sS'components'
p64
(lp65
g57
(cgluon.html
TABLE
p66
g59
NtRp67
(dp68
g62
(dp69
S'level'
p70
I5
ssS'parent'
p71
Nsg64
(lp72
g57
(cgluon.html
TR
p73
g59
NtRp74
(dp75
g62
(dp76
sg71
g67
sg64
(lp77
g57
(cgluon.html
TD
p78
g59
NtRp79
(dp80
g62
(dp81
S'_style'
p82
S'font-weight:bold;vertical-align:top'
p83
ssg71
g74
sg64
(lp84
S'ajax'
p85
asbag57
(g78
g59
NtRp86
(dp87
g62
(dp88
S'_valign'
p89
S'top'
p90
ssg71
g74
sg64
(lp91
S':'
asbag57
(g78
g59
NtRp92
(dp93
g62
(dp94
sg71
g74
sg64
(lp95
g57
(g58
g59
NtRp96
(dp97
g62
(dp98
g70
I5
ssg71
g92
sg64
(lp99
S'False'
p100
asbasbasbag57
(g73
g59
NtRp101
(dp102
g62
(dp103
sg71
g67
sg64
(lp104
g57
(g78
g59
NtRp105
(dp106
g62
(dp107
g82
g83
ssg71
g101
sg64
(lp108
S'application'
p109
asbag57
(g78
g59
NtRp110
(dp111
g62
(dp112
g89
g90
ssg71
g101
sg64
(lp113
S':'
asbag57
(g78
g59
NtRp114
(dp115
g62
(dp116
sg71
g101
sg64
(lp117
g57
(g58
g59
NtRp118
(dp119
g62
(dp120
g70
I5
ssg71
g114
sg64
(lp121
S'igor'
p122
asbasbasbag57
(g73
g59
NtRp123
(dp124
g62
(dp125
sg71
g67
sg64
(lp126
g57
(g78
g59
NtRp127
(dp128
g62
(dp129
g82
g83
ssg71
g123
sg64
(lp130
g44
asbag57
(g78
g59
NtRp131
(dp132
g62
(dp133
g89
g90
ssg71
g123
sg64
(lp134
S':'
asbag57
(g78
g59
NtRp135
(dp136
g62
(dp137
sg71
g123
sg64
(lp138
g57
(g58
g59
NtRp139
(dp140
g62
(dp141
g70
I5
ssg71
g135
sg64
(lp142
g57
(g66
g59
NtRp143
(dp144
g62
(dp145
g70
I4
ssg71
Nsg64
(lp146
g57
(g73
g59
NtRp147
(dp148
g62
(dp149
sg71
g143
sg64
(lp150
g57
(g78
g59
NtRp151
(dp152
g62
(dp153
sg71
g147
sg64
(lp154
g57
(g58
g59
NtRp155
(dp156
g62
(dp157
g70
I4
ssg71
g151
sg64
(lp158
S'json'
p159
asbasbasbag57
(g73
g59
NtRp160
(dp161
g62
(dp162
sg71
g143
sg64
(lp163
g57
(g78
g59
NtRp164
(dp165
g62
(dp166
sg71
g160
sg64
(lp167
g57
(g58
g59
NtRp168
(dp169
g62
(dp170
g70
I4
ssg71
g164
sg64
(lp171
S'check_email_available'
p172
asbasbasbasbasbasbasbag57
(g73
g59
NtRp173
(dp174
g62
(dp175
sg71
g67
sg64
(lp176
g57
(g78
g59
NtRp177
(dp178
g62
(dp179
g82
g83
ssg71
g173
sg64
(lp180
S'body'
p181
asbag57
(g78
g59
NtRp182
(dp183
g62
(dp184
g89
g90
ssg71
g173
sg64
(lp185
S':'
asbag57
(g78
g59
NtRp186
(dp187
g62
(dp188
sg71
g173
sg64
(lp189
g57
(g58
g59
NtRp190
(dp191
g62
(dp192
g70
I5
ssg71
g186
sg64
(lp193
S'<cStringIO.StringO object at 0x00000000090DF538>'
p194
asbasbasbag57
(g73
g59
NtRp195
(dp196
g62
(dp197
sg71
g67
sg64
(lp198
g57
(g78
g59
NtRp199
(dp200
g62
(dp201
g82
g83
ssg71
g195
sg64
(lp202
S'client'
p203
asbag57
(g78
g59
NtRp204
(dp205
g62
(dp206
g89
g90
ssg71
g195
sg64
(lp207
S':'
asbag57
(g78
g59
NtRp208
(dp209
g62
(dp210
sg71
g195
sg64
(lp211
g57
(g58
g59
NtRp212
(dp213
g62
(dp214
g70
I5
ssg71
g208
sg64
(lp215
S'127.0.0.1'
p216
asbasbasbag57
(g73
g59
NtRp217
(dp218
g62
(dp219
sg71
g67
sg64
(lp220
g57
(g78
g59
NtRp221
(dp222
g62
(dp223
g82
g83
ssg71
g217
sg64
(lp224
S'controller'
p225
asbag57
(g78
g59
NtRp226
(dp227
g62
(dp228
g89
g90
ssg71
g217
sg64
(lp229
S':'
asbag57
(g78
g59
NtRp230
(dp231
g62
(dp232
sg71
g217
sg64
(lp233
g57
(g58
g59
NtRp234
(dp235
g62
(dp236
g70
I5
ssg71
g230
sg64
(lp237
S'user'
p238
asbasbasbag57
(g73
g59
NtRp239
(dp240
g62
(dp241
sg71
g67
sg64
(lp242
g57
(g78
g59
NtRp243
(dp244
g62
(dp245
g82
g83
ssg71
g239
sg64
(lp246
S'cookies'
p247
asbag57
(g78
g59
NtRp248
(dp249
g62
(dp250
g89
g90
ssg71
g239
sg64
(lp251
S':'
asbag57
(g78
g59
NtRp252
(dp253
g62
(dp254
sg71
g239
sg64
(lp255
g57
(g58
g59
NtRp256
(dp257
g62
(dp258
g70
I5
ssg71
g252
sg64
(lp259
g57
(g66
g59
NtRp260
(dp261
g62
(dp262
g70
I4
ssg71
Nsg64
(lp263
g57
(g73
g59
NtRp264
(dp265
g62
(dp266
sg71
g260
sg64
(lp267
g57
(g78
g59
NtRp268
(dp269
g62
(dp270
g82
g83
ssg71
g264
sg64
(lp271
S'session_id_admin'
p272
asbag57
(g78
g59
NtRp273
(dp274
g62
(dp275
g89
g90
ssg71
g264
sg64
(lp276
S':'
asbag57
(g78
g59
NtRp277
(dp278
g62
(dp279
sg71
g264
sg64
(lp280
g57
(g58
g59
NtRp281
(dp282
g62
(dp283
g70
I4
ssg71
g277
sg64
(lp284
g57
(g66
g59
NtRp285
(dp286
g62
(dp287
g70
I3
ssg71
Nsg64
(lp288
g57
(g73
g59
NtRp289
(dp290
g62
(dp291
sg71
g285
sg64
(lp292
g57
(g78
g59
NtRp293
(dp294
g62
(dp295
g82
g83
ssg71
g289
sg64
(lp296
S'comment'
p297
asbag57
(g78
g59
NtRp298
(dp299
g62
(dp300
g89
g90
ssg71
g289
sg64
(lp301
S':'
asbag57
(g78
g59
NtRp302
(dp303
g62
(dp304
sg71
g289
sg64
(lp305
g57
(g58
g59
NtRp306
(dp307
g62
(dp308
g70
I3
ssg71
g302
sg64
(lp309
S''
asbasbasbag57
(g73
g59
NtRp310
(dp311
g62
(dp312
sg71
g285
sg64
(lp313
g57
(g78
g59
NtRp314
(dp315
g62
(dp316
g82
g83
ssg71
g310
sg64
(lp317
S'domain'
p318
asbag57
(g78
g59
NtRp319
(dp320
g62
(dp321
g89
g90
ssg71
g310
sg64
(lp322
S':'
asbag57
(g78
g59
NtRp323
(dp324
g62
(dp325
sg71
g310
sg64
(lp326
g57
(g58
g59
NtRp327
(dp328
g62
(dp329
g70
I3
ssg71
g323
sg64
(lp330
S''
asbasbasbag57
(g73
g59
NtRp331
(dp332
g62
(dp333
sg71
g285
sg64
(lp334
g57
(g78
g59
NtRp335
(dp336
g62
(dp337
g82
g83
ssg71
g331
sg64
(lp338
S'expires'
p339
asbag57
(g78
g59
NtRp340
(dp341
g62
(dp342
g89
g90
ssg71
g331
sg64
(lp343
S':'
asbag57
(g78
g59
NtRp344
(dp345
g62
(dp346
sg71
g331
sg64
(lp347
g57
(g58
g59
NtRp348
(dp349
g62
(dp350
g70
I3
ssg71
g344
sg64
(lp351
S''
asbasbasbag57
(g73
g59
NtRp352
(dp353
g62
(dp354
sg71
g285
sg64
(lp355
g57
(g78
g59
NtRp356
(dp357
g62
(dp358
g82
g83
ssg71
g352
sg64
(lp359
S'httponly'
p360
asbag57
(g78
g59
NtRp361
(dp362
g62
(dp363
g89
g90
ssg71
g352
sg64
(lp364
S':'
asbag57
(g78
g59
NtRp365
(dp366
g62
(dp367
sg71
g352
sg64
(lp368
g57
(g58
g59
NtRp369
(dp370
g62
(dp371
g70
I3
ssg71
g365
sg64
(lp372
S''
asbasbasbag57
(g73
g59
NtRp373
(dp374
g62
(dp375
sg71
g285
sg64
(lp376
g57
(g78
g59
NtRp377
(dp378
g62
(dp379
g82
g83
ssg71
g373
sg64
(lp380
S'max-age'
p381
asbag57
(g78
g59
NtRp382
(dp383
g62
(dp384
g89
g90
ssg71
g373
sg64
(lp385
S':'
asbag57
(g78
g59
NtRp386
(dp387
g62
(dp388
sg71
g373
sg64
(lp389
g57
(g58
g59
NtRp390
(dp391
g62
(dp392
g70
I3
ssg71
g386
sg64
(lp393
S''
asbasbasbag57
(g73
g59
NtRp394
(dp395
g62
(dp396
sg71
g285
sg64
(lp397
g57
(g78
g59
NtRp398
(dp399
g62
(dp400
g82
g83
ssg71
g394
sg64
(lp401
S'path'
p402
asbag57
(g78
g59
NtRp403
(dp404
g62
(dp405
g89
g90
ssg71
g394
sg64
(lp406
S':'
asbag57
(g78
g59
NtRp407
(dp408
g62
(dp409
sg71
g394
sg64
(lp410
g57
(g58
g59
NtRp411
(dp412
g62
(dp413
g70
I3
ssg71
g407
sg64
(lp414
S''
asbasbasbag57
(g73
g59
NtRp415
(dp416
g62
(dp417
sg71
g285
sg64
(lp418
g57
(g78
g59
NtRp419
(dp420
g62
(dp421
g82
g83
ssg71
g415
sg64
(lp422
S'secure'
p423
asbag57
(g78
g59
NtRp424
(dp425
g62
(dp426
g89
g90
ssg71
g415
sg64
(lp427
S':'
asbag57
(g78
g59
NtRp428
(dp429
g62
(dp430
sg71
g415
sg64
(lp431
g57
(g58
g59
NtRp432
(dp433
g62
(dp434
g70
I3
ssg71
g428
sg64
(lp435
S''
asbasbasbag57
(g73
g59
NtRp436
(dp437
g62
(dp438
sg71
g285
sg64
(lp439
g57
(g78
g59
NtRp440
(dp441
g62
(dp442
g82
g83
ssg71
g436
sg64
(lp443
S'version'
p444
asbag57
(g78
g59
NtRp445
(dp446
g62
(dp447
g89
g90
ssg71
g436
sg64
(lp448
S':'
asbag57
(g78
g59
NtRp449
(dp450
g62
(dp451
sg71
g436
sg64
(lp452
g57
(g58
g59
NtRp453
(dp454
g62
(dp455
g70
I3
ssg71
g449
sg64
(lp456
S''
asbasbasbasbasbasbasbag57
(g73
g59
NtRp457
(dp458
g62
(dp459
sg71
g260
sg64
(lp460
g57
(g78
g59
NtRp461
(dp462
g62
(dp463
g82
g83
ssg71
g457
sg64
(lp464
S'session_id_igor'
p465
asbag57
(g78
g59
NtRp466
(dp467
g62
(dp468
g89
g90
ssg71
g457
sg64
(lp469
S':'
asbag57
(g78
g59
NtRp470
(dp471
g62
(dp472
sg71
g457
sg64
(lp473
g57
(g58
g59
NtRp474
(dp475
g62
(dp476
g70
I4
ssg71
g470
sg64
(lp477
g57
(g66
g59
NtRp478
(dp479
g62
(dp480
g70
I3
ssg71
Nsg64
(lp481
g57
(g73
g59
NtRp482
(dp483
g62
(dp484
sg71
g478
sg64
(lp485
g57
(g78
g59
NtRp486
(dp487
g62
(dp488
g82
g83
ssg71
g482
sg64
(lp489
g297
asbag57
(g78
g59
NtRp490
(dp491
g62
(dp492
g89
g90
ssg71
g482
sg64
(lp493
S':'
asbag57
(g78
g59
NtRp494
(dp495
g62
(dp496
sg71
g482
sg64
(lp497
g57
(g58
g59
NtRp498
(dp499
g62
(dp500
g70
I3
ssg71
g494
sg64
(lp501
S''
asbasbasbag57
(g73
g59
NtRp502
(dp503
g62
(dp504
sg71
g478
sg64
(lp505
g57
(g78
g59
NtRp506
(dp507
g62
(dp508
g82
g83
ssg71
g502
sg64
(lp509
g318
asbag57
(g78
g59
NtRp510
(dp511
g62
(dp512
g89
g90
ssg71
g502
sg64
(lp513
S':'
asbag57
(g78
g59
NtRp514
(dp515
g62
(dp516
sg71
g502
sg64
(lp517
g57
(g58
g59
NtRp518
(dp519
g62
(dp520
g70
I3
ssg71
g514
sg64
(lp521
S''
asbasbasbag57
(g73
g59
NtRp522
(dp523
g62
(dp524
sg71
g478
sg64
(lp525
g57
(g78
g59
NtRp526
(dp527
g62
(dp528
g82
g83
ssg71
g522
sg64
(lp529
g339
asbag57
(g78
g59
NtRp530
(dp531
g62
(dp532
g89
g90
ssg71
g522
sg64
(lp533
S':'
asbag57
(g78
g59
NtRp534
(dp535
g62
(dp536
sg71
g522
sg64
(lp537
g57
(g58
g59
NtRp538
(dp539
g62
(dp540
g70
I3
ssg71
g534
sg64
(lp541
S''
asbasbasbag57
(g73
g59
NtRp542
(dp543
g62
(dp544
sg71
g478
sg64
(lp545
g57
(g78
g59
NtRp546
(dp547
g62
(dp548
g82
g83
ssg71
g542
sg64
(lp549
g360
asbag57
(g78
g59
NtRp550
(dp551
g62
(dp552
g89
g90
ssg71
g542
sg64
(lp553
S':'
asbag57
(g78
g59
NtRp554
(dp555
g62
(dp556
sg71
g542
sg64
(lp557
g57
(g58
g59
NtRp558
(dp559
g62
(dp560
g70
I3
ssg71
g554
sg64
(lp561
S''
asbasbasbag57
(g73
g59
NtRp562
(dp563
g62
(dp564
sg71
g478
sg64
(lp565
g57
(g78
g59
NtRp566
(dp567
g62
(dp568
g82
g83
ssg71
g562
sg64
(lp569
g381
asbag57
(g78
g59
NtRp570
(dp571
g62
(dp572
g89
g90
ssg71
g562
sg64
(lp573
S':'
asbag57
(g78
g59
NtRp574
(dp575
g62
(dp576
sg71
g562
sg64
(lp577
g57
(g58
g59
NtRp578
(dp579
g62
(dp580
g70
I3
ssg71
g574
sg64
(lp581
S''
asbasbasbag57
(g73
g59
NtRp582
(dp583
g62
(dp584
sg71
g478
sg64
(lp585
g57
(g78
g59
NtRp586
(dp587
g62
(dp588
g82
g83
ssg71
g582
sg64
(lp589
g402
asbag57
(g78
g59
NtRp590
(dp591
g62
(dp592
g89
g90
ssg71
g582
sg64
(lp593
S':'
asbag57
(g78
g59
NtRp594
(dp595
g62
(dp596
sg71
g582
sg64
(lp597
g57
(g58
g59
NtRp598
(dp599
g62
(dp600
g70
I3
ssg71
g594
sg64
(lp601
S''
asbasbasbag57
(g73
g59
NtRp602
(dp603
g62
(dp604
sg71
g478
sg64
(lp605
g57
(g78
g59
NtRp606
(dp607
g62
(dp608
g82
g83
ssg71
g602
sg64
(lp609
g423
asbag57
(g78
g59
NtRp610
(dp611
g62
(dp612
g89
g90
ssg71
g602
sg64
(lp613
S':'
asbag57
(g78
g59
NtRp614
(dp615
g62
(dp616
sg71
g602
sg64
(lp617
g57
(g58
g59
NtRp618
(dp619
g62
(dp620
g70
I3
ssg71
g614
sg64
(lp621
S''
asbasbasbag57
(g73
g59
NtRp622
(dp623
g62
(dp624
sg71
g478
sg64
(lp625
g57
(g78
g59
NtRp626
(dp627
g62
(dp628
g82
g83
ssg71
g622
sg64
(lp629
g444
asbag57
(g78
g59
NtRp630
(dp631
g62
(dp632
g89
g90
ssg71
g622
sg64
(lp633
S':'
asbag57
(g78
g59
NtRp634
(dp635
g62
(dp636
sg71
g622
sg64
(lp637
g57
(g58
g59
NtRp638
(dp639
g62
(dp640
g70
I3
ssg71
g634
sg64
(lp641
S''
asbasbasbasbasbasbasbag57
(g73
g59
NtRp642
(dp643
g62
(dp644
sg71
g260
sg64
(lp645
g57
(g78
g59
NtRp646
(dp647
g62
(dp648
g82
g83
ssg71
g642
sg64
(lp649
S'session_id_welcome'
p650
asbag57
(g78
g59
NtRp651
(dp652
g62
(dp653
g89
g90
ssg71
g642
sg64
(lp654
S':'
asbag57
(g78
g59
NtRp655
(dp656
g62
(dp657
sg71
g642
sg64
(lp658
g57
(g58
g59
NtRp659
(dp660
g62
(dp661
g70
I4
ssg71
g655
sg64
(lp662
g57
(g66
g59
NtRp663
(dp664
g62
(dp665
g70
I3
ssg71
Nsg64
(lp666
g57
(g73
g59
NtRp667
(dp668
g62
(dp669
sg71
g663
sg64
(lp670
g57
(g78
g59
NtRp671
(dp672
g62
(dp673
g82
g83
ssg71
g667
sg64
(lp674
g297
asbag57
(g78
g59
NtRp675
(dp676
g62
(dp677
g89
g90
ssg71
g667
sg64
(lp678
S':'
asbag57
(g78
g59
NtRp679
(dp680
g62
(dp681
sg71
g667
sg64
(lp682
g57
(g58
g59
NtRp683
(dp684
g62
(dp685
g70
I3
ssg71
g679
sg64
(lp686
S''
asbasbasbag57
(g73
g59
NtRp687
(dp688
g62
(dp689
sg71
g663
sg64
(lp690
g57
(g78
g59
NtRp691
(dp692
g62
(dp693
g82
g83
ssg71
g687
sg64
(lp694
g318
asbag57
(g78
g59
NtRp695
(dp696
g62
(dp697
g89
g90
ssg71
g687
sg64
(lp698
S':'
asbag57
(g78
g59
NtRp699
(dp700
g62
(dp701
sg71
g687
sg64
(lp702
g57
(g58
g59
NtRp703
(dp704
g62
(dp705
g70
I3
ssg71
g699
sg64
(lp706
S''
asbasbasbag57
(g73
g59
NtRp707
(dp708
g62
(dp709
sg71
g663
sg64
(lp710
g57
(g78
g59
NtRp711
(dp712
g62
(dp713
g82
g83
ssg71
g707
sg64
(lp714
g339
asbag57
(g78
g59
NtRp715
(dp716
g62
(dp717
g89
g90
ssg71
g707
sg64
(lp718
S':'
asbag57
(g78
g59
NtRp719
(dp720
g62
(dp721
sg71
g707
sg64
(lp722
g57
(g58
g59
NtRp723
(dp724
g62
(dp725
g70
I3
ssg71
g719
sg64
(lp726
S''
asbasbasbag57
(g73
g59
NtRp727
(dp728
g62
(dp729
sg71
g663
sg64
(lp730
g57
(g78
g59
NtRp731
(dp732
g62
(dp733
g82
g83
ssg71
g727
sg64
(lp734
g360
asbag57
(g78
g59
NtRp735
(dp736
g62
(dp737
g89
g90
ssg71
g727
sg64
(lp738
S':'
asbag57
(g78
g59
NtRp739
(dp740
g62
(dp741
sg71
g727
sg64
(lp742
g57
(g58
g59
NtRp743
(dp744
g62
(dp745
g70
I3
ssg71
g739
sg64
(lp746
S''
asbasbasbag57
(g73
g59
NtRp747
(dp748
g62
(dp749
sg71
g663
sg64
(lp750
g57
(g78
g59
NtRp751
(dp752
g62
(dp753
g82
g83
ssg71
g747
sg64
(lp754
g381
asbag57
(g78
g59
NtRp755
(dp756
g62
(dp757
g89
g90
ssg71
g747
sg64
(lp758
S':'
asbag57
(g78
g59
NtRp759
(dp760
g62
(dp761
sg71
g747
sg64
(lp762
g57
(g58
g59
NtRp763
(dp764
g62
(dp765
g70
I3
ssg71
g759
sg64
(lp766
S''
asbasbasbag57
(g73
g59
NtRp767
(dp768
g62
(dp769
sg71
g663
sg64
(lp770
g57
(g78
g59
NtRp771
(dp772
g62
(dp773
g82
g83
ssg71
g767
sg64
(lp774
g402
asbag57
(g78
g59
NtRp775
(dp776
g62
(dp777
g89
g90
ssg71
g767
sg64
(lp778
S':'
asbag57
(g78
g59
NtRp779
(dp780
g62
(dp781
sg71
g767
sg64
(lp782
g57
(g58
g59
NtRp783
(dp784
g62
(dp785
g70
I3
ssg71
g779
sg64
(lp786
S''
asbasbasbag57
(g73
g59
NtRp787
(dp788
g62
(dp789
sg71
g663
sg64
(lp790
g57
(g78
g59
NtRp791
(dp792
g62
(dp793
g82
g83
ssg71
g787
sg64
(lp794
g423
asbag57
(g78
g59
NtRp795
(dp796
g62
(dp797
g89
g90
ssg71
g787
sg64
(lp798
S':'
asbag57
(g78
g59
NtRp799
(dp800
g62
(dp801
sg71
g787
sg64
(lp802
g57
(g58
g59
NtRp803
(dp804
g62
(dp805
g70
I3
ssg71
g799
sg64
(lp806
S''
asbasbasbag57
(g73
g59
NtRp807
(dp808
g62
(dp809
sg71
g663
sg64
(lp810
g57
(g78
g59
NtRp811
(dp812
g62
(dp813
g82
g83
ssg71
g807
sg64
(lp814
g444
asbag57
(g78
g59
NtRp815
(dp816
g62
(dp817
g89
g90
ssg71
g807
sg64
(lp818
S':'
asbag57
(g78
g59
NtRp819
(dp820
g62
(dp821
sg71
g807
sg64
(lp822
g57
(g58
g59
NtRp823
(dp824
g62
(dp825
g70
I3
ssg71
g819
sg64
(lp826
S''
asbasbasbasbasbasbasbasbasbasbasbag57
(g73
g59
NtRp827
(dp828
g62
(dp829
sg71
g67
sg64
(lp830
g57
(g78
g59
NtRp831
(dp832
g62
(dp833
g82
g83
ssg71
g827
sg64
(lp834
S'env'
p835
asbag57
(g78
g59
NtRp836
(dp837
g62
(dp838
g89
g90
ssg71
g827
sg64
(lp839
S':'
asbag57
(g78
g59
NtRp840
(dp841
g62
(dp842
sg71
g827
sg64
(lp843
g57
(g58
g59
NtRp844
(dp845
g62
(dp846
g70
I5
ssg71
g840
sg64
(lp847
g57
(g66
g59
NtRp848
(dp849
g62
(dp850
g70
I4
ssg71
Nsg64
(lp851
g57
(g73
g59
NtRp852
(dp853
g62
(dp854
sg71
g848
sg64
(lp855
g57
(g78
g59
NtRp856
(dp857
g62
(dp858
g82
g83
ssg71
g852
sg64
(lp859
S'app_folders'
p860
asbag57
(g78
g59
NtRp861
(dp862
g62
(dp863
g89
g90
ssg71
g852
sg64
(lp864
S':'
asbag57
(g78
g59
NtRp865
(dp866
g62
(dp867
sg71
g852
sg64
(lp868
g57
(g58
g59
NtRp869
(dp870
g62
(dp871
g70
I4
ssg71
g865
sg64
(lp872
S"set(['D:\\\\workspace\\\\CA\\\\IgoR\\\\C_Sources\\\\Server\\\\igor-assistant-ca-2012\\\\applications\\\\admin\\\\', 'D:\\\\workspace\\\\CA\\\\IgoR\\\\C_Sources\\\\Server\\\\igor-assistant-ca-2012\\\\applications\\\\igor\\\\', 'D:\\\\workspace\\\\CA\\\\IgoR\\\\C_Sources\\\\Server\\\\igor-assistant-ca-2012\\\\applications\\\\welcome\\\\'])"
p873
asbasbasbag57
(g73
g59
NtRp874
(dp875
g62
(dp876
sg71
g848
sg64
(lp877
g57
(g78
g59
NtRp878
(dp879
g62
(dp880
g82
g83
ssg71
g874
sg64
(lp881
S'applications_parent'
p882
asbag57
(g78
g59
NtRp883
(dp884
g62
(dp885
g89
g90
ssg71
g874
sg64
(lp886
S':'
asbag57
(g78
g59
NtRp887
(dp888
g62
(dp889
sg71
g874
sg64
(lp890
g57
(g58
g59
NtRp891
(dp892
g62
(dp893
g70
I4
ssg71
g887
sg64
(lp894
S'D:\\workspace\\CA\\IgoR\\C_Sources\\Server\\igor-assistant-ca-2012'
p895
asbasbasbag57
(g73
g59
NtRp896
(dp897
g62
(dp898
sg71
g848
sg64
(lp899
g57
(g78
g59
NtRp900
(dp901
g62
(dp902
g82
g83
ssg71
g896
sg64
(lp903
S'cmd_args'
p904
asbag57
(g78
g59
NtRp905
(dp906
g62
(dp907
g89
g90
ssg71
g896
sg64
(lp908
S':'
asbag57
(g78
g59
NtRp909
(dp910
g62
(dp911
sg71
g896
sg64
(lp912
g57
(g58
g59
NtRp913
(dp914
g62
(dp915
g70
I4
ssg71
g909
sg64
(lp916
g57
(g66
g59
NtRp917
(dp918
g62
(dp919
g70
I3
ssg71
Nsg64
(lp920
g57
(g73
g59
NtRp921
(dp922
g62
(dp923
sg71
g917
sg64
(lp924
g57
(g78
g59
NtRp925
(dp926
g62
(dp927
sg71
g921
sg64
(lp928
g57
(g58
g59
NtRp929
(dp930
g62
(dp931
g70
I3
ssg71
g925
sg64
(lp932
S'startserver'
p933
asbasbasbasbasbasbasbag57
(g73
g59
NtRp934
(dp935
g62
(dp936
sg71
g848
sg64
(lp937
g57
(g78
g59
NtRp938
(dp939
g62
(dp940
g82
g83
ssg71
g934
sg64
(lp941
S'cmd_options'
p942
asbag57
(g78
g59
NtRp943
(dp944
g62
(dp945
g89
g90
ssg71
g934
sg64
(lp946
S':'
asbag57
(g78
g59
NtRp947
(dp948
g62
(dp949
sg71
g934
sg64
(lp950
g57
(g58
g59
NtRp951
(dp952
g62
(dp953
g70
I4
ssg71
g947
sg64
(lp954
S"<Values at 0x3927d88: {'verbose': False, 'ip': '127.0.0.1', 'shutdown_timeout': 5, 'taskbar': False, 'nocron': False, 'pid_filename': 'httpserver.pid', 'maxthreads': None, 'softcron': False, 'server_name': 'PHUCNH-PC', 'bpython': False, 'nogui': False, 'port': 8000, 'extcron': False, 'debuglevel': 30, 'test': None, 'folder': 'D:\\\\workspace\\\\CA\\\\IgoR\\\\C_Sources\\\\Server\\\\igor-assistant-ca-2012', 'config': '', 'import_models': False, 'winservice': '', 'shell': None, 'run': '', 'log_filename': 'httpserver.log', 'args': [''], 'socket_timeout': 5, 'ssl_ca_certificate': None, 'scheduler': None, 'profiler_filename': None, 'ssl_private_key': '', 'password': '<ask>', 'request_queue_size': 5, 'ssl_certificate': '', 'cronjob': False, 'numthreads': None, 'quiet': False, 'interfaces': None, 'minthreads': None, 'timeout': 10, 'plain': False, 'nobanner': False}>"
p955
asbasbasbag57
(g73
g59
NtRp956
(dp957
g62
(dp958
sg71
g848
sg64
(lp959
g57
(g78
g59
NtRp960
(dp961
g62
(dp962
g82
g83
ssg71
g956
sg64
(lp963
S'db_sessions'
p964
asbag57
(g78
g59
NtRp965
(dp966
g62
(dp967
g89
g90
ssg71
g956
sg64
(lp968
S':'
asbag57
(g78
g59
NtRp969
(dp970
g62
(dp971
sg71
g956
sg64
(lp972
g57
(g58
g59
NtRp973
(dp974
g62
(dp975
g70
I4
ssg71
g969
sg64
(lp976
S'set([])'
p977
asbasbasbag57
(g73
g59
NtRp978
(dp979
g62
(dp980
sg71
g848
sg64
(lp981
g57
(g78
g59
NtRp982
(dp983
g62
(dp984
g82
g83
ssg71
g978
sg64
(lp985
S'debugging'
p986
asbag57
(g78
g59
NtRp987
(dp988
g62
(dp989
g89
g90
ssg71
g978
sg64
(lp990
S':'
asbag57
(g78
g59
NtRp991
(dp992
g62
(dp993
sg71
g978
sg64
(lp994
g57
(g58
g59
NtRp995
(dp996
g62
(dp997
g70
I4
ssg71
g991
sg64
(lp998
g100
asbasbasbag57
(g73
g59
NtRp999
(dp1000
g62
(dp1001
sg71
g848
sg64
(lp1002
g57
(g78
g59
NtRp1003
(dp1004
g62
(dp1005
g82
g83
ssg71
g999
sg64
(lp1006
S'gluon_parent'
p1007
asbag57
(g78
g59
NtRp1008
(dp1009
g62
(dp1010
g89
g90
ssg71
g999
sg64
(lp1011
S':'
asbag57
(g78
g59
NtRp1012
(dp1013
g62
(dp1014
sg71
g999
sg64
(lp1015
g57
(g58
g59
NtRp1016
(dp1017
g62
(dp1018
g70
I4
ssg71
g1012
sg64
(lp1019
S'D:\\workspace\\CA\\IgoR\\C_Sources\\Server\\igor-assistant-ca-2012'
p1020
asbasbasbag57
(g73
g59
NtRp1021
(dp1022
g62
(dp1023
sg71
g848
sg64
(lp1024
g57
(g78
g59
NtRp1025
(dp1026
g62
(dp1027
g82
g83
ssg71
g1021
sg64
(lp1028
S'http_accept'
p1029
asbag57
(g78
g59
NtRp1030
(dp1031
g62
(dp1032
g89
g90
ssg71
g1021
sg64
(lp1033
S':'
asbag57
(g78
g59
NtRp1034
(dp1035
g62
(dp1036
sg71
g1021
sg64
(lp1037
g57
(g58
g59
NtRp1038
(dp1039
g62
(dp1040
g70
I4
ssg71
g1034
sg64
(lp1041
S'text/html,application/xhtml+xml,application/xml;q=0.9,*/*;q=0.8'
p1042
asbasbasbag57
(g73
g59
NtRp1043
(dp1044
g62
(dp1045
sg71
g848
sg64
(lp1046
g57
(g78
g59
NtRp1047
(dp1048
g62
(dp1049
g82
g83
ssg71
g1043
sg64
(lp1050
S'http_accept_charset'
p1051
asbag57
(g78
g59
NtRp1052
(dp1053
g62
(dp1054
g89
g90
ssg71
g1043
sg64
(lp1055
S':'
asbag57
(g78
g59
NtRp1056
(dp1057
g62
(dp1058
sg71
g1043
sg64
(lp1059
g57
(g58
g59
NtRp1060
(dp1061
g62
(dp1062
g70
I4
ssg71
g1056
sg64
(lp1063
S'UTF-8,*;q=0.5'
p1064
asbasbasbag57
(g73
g59
NtRp1065
(dp1066
g62
(dp1067
sg71
g848
sg64
(lp1068
g57
(g78
g59
NtRp1069
(dp1070
g62
(dp1071
g82
g83
ssg71
g1065
sg64
(lp1072
S'http_accept_encoding'
p1073
asbag57
(g78
g59
NtRp1074
(dp1075
g62
(dp1076
g89
g90
ssg71
g1065
sg64
(lp1077
S':'
asbag57
(g78
g59
NtRp1078
(dp1079
g62
(dp1080
sg71
g1065
sg64
(lp1081
g57
(g58
g59
NtRp1082
(dp1083
g62
(dp1084
g70
I4
ssg71
g1078
sg64
(lp1085
S'gzip,deflate,sdch'
p1086
asbasbasbag57
(g73
g59
NtRp1087
(dp1088
g62
(dp1089
sg71
g848
sg64
(lp1090
g57
(g78
g59
NtRp1091
(dp1092
g62
(dp1093
g82
g83
ssg71
g1087
sg64
(lp1094
S'http_accept_language'
p1095
asbag57
(g78
g59
NtRp1096
(dp1097
g62
(dp1098
g89
g90
ssg71
g1087
sg64
(lp1099
S':'
asbag57
(g78
g59
NtRp1100
(dp1101
g62
(dp1102
sg71
g1087
sg64
(lp1103
g57
(g58
g59
NtRp1104
(dp1105
g62
(dp1106
g70
I4
ssg71
g1100
sg64
(lp1107
S'en-US,en;q=0.8,vi;q=0.6,fr-FR;q=0.4,fr;q=0.2'
p1108
asbasbasbag57
(g73
g59
NtRp1109
(dp1110
g62
(dp1111
sg71
g848
sg64
(lp1112
g57
(g78
g59
NtRp1113
(dp1114
g62
(dp1115
g82
g83
ssg71
g1109
sg64
(lp1116
S'http_connection'
p1117
asbag57
(g78
g59
NtRp1118
(dp1119
g62
(dp1120
g89
g90
ssg71
g1109
sg64
(lp1121
S':'
asbag57
(g78
g59
NtRp1122
(dp1123
g62
(dp1124
sg71
g1109
sg64
(lp1125
g57
(g58
g59
NtRp1126
(dp1127
g62
(dp1128
g70
I4
ssg71
g1122
sg64
(lp1129
S'keep-alive'
p1130
asbasbasbag57
(g73
g59
NtRp1131
(dp1132
g62
(dp1133
sg71
g848
sg64
(lp1134
g57
(g78
g59
NtRp1135
(dp1136
g62
(dp1137
g82
g83
ssg71
g1131
sg64
(lp1138
S'http_cookie'
p1139
asbag57
(g78
g59
NtRp1140
(dp1141
g62
(dp1142
g89
g90
ssg71
g1131
sg64
(lp1143
S':'
asbag57
(g78
g59
NtRp1144
(dp1145
g62
(dp1146
sg71
g1131
sg64
(lp1147
g57
(g58
g59
NtRp1148
(dp1149
g62
(dp1150
g70
I4
ssg71
g1144
sg64
(lp1151
S'session_id_welcome=127.0.0.1-f4d1faa4-aebd-4cd8-9afb-2c920137d110; session_id_admin=127.0.0.1-cb802793-3bdf-4758-b538-b2d687711887; session_id_igor=127.0.0.1-a04fa524-60aa-4124-a73f-56d6938d7384'
p1152
asbasbasbag57
(g73
g59
NtRp1153
(dp1154
g62
(dp1155
sg71
g848
sg64
(lp1156
g57
(g78
g59
NtRp1157
(dp1158
g62
(dp1159
g82
g83
ssg71
g1153
sg64
(lp1160
S'http_host'
p1161
asbag57
(g78
g59
NtRp1162
(dp1163
g62
(dp1164
g89
g90
ssg71
g1153
sg64
(lp1165
S':'
asbag57
(g78
g59
NtRp1166
(dp1167
g62
(dp1168
sg71
g1153
sg64
(lp1169
g57
(g58
g59
NtRp1170
(dp1171
g62
(dp1172
g70
I4
ssg71
g1166
sg64
(lp1173
S'127.0.0.1:8000'
p1174
asbasbasbag57
(g73
g59
NtRp1175
(dp1176
g62
(dp1177
sg71
g848
sg64
(lp1178
g57
(g78
g59
NtRp1179
(dp1180
g62
(dp1181
g82
g83
ssg71
g1175
sg64
(lp1182
S'http_user_agent'
p1183
asbag57
(g78
g59
NtRp1184
(dp1185
g62
(dp1186
g89
g90
ssg71
g1175
sg64
(lp1187
S':'
asbag57
(g78
g59
NtRp1188
(dp1189
g62
(dp1190
sg71
g1175
sg64
(lp1191
g57
(g58
g59
NtRp1192
(dp1193
g62
(dp1194
g70
I4
ssg71
g1188
sg64
(lp1195
S'Mozilla/5.0 (Windows NT 6.1; WOW64) AppleWebKit/536.11 (KHTML, like Gecko) Chrome/20.0.1132.57 Safari/536.11'
p1196
asbasbasbag57
(g73
g59
NtRp1197
(dp1198
g62
(dp1199
sg71
g848
sg64
(lp1200
g57
(g78
g59
NtRp1201
(dp1202
g62
(dp1203
g82
g83
ssg71
g1197
sg64
(lp1204
S'is_jython'
p1205
asbag57
(g78
g59
NtRp1206
(dp1207
g62
(dp1208
g89
g90
ssg71
g1197
sg64
(lp1209
S':'
asbag57
(g78
g59
NtRp1210
(dp1211
g62
(dp1212
sg71
g1197
sg64
(lp1213
g57
(g58
g59
NtRp1214
(dp1215
g62
(dp1216
g70
I4
ssg71
g1210
sg64
(lp1217
g100
asbasbasbag57
(g73
g59
NtRp1218
(dp1219
g62
(dp1220
sg71
g848
sg64
(lp1221
g57
(g78
g59
NtRp1222
(dp1223
g62
(dp1224
g82
g83
ssg71
g1218
sg64
(lp1225
S'is_pypy'
p1226
asbag57
(g78
g59
NtRp1227
(dp1228
g62
(dp1229
g89
g90
ssg71
g1218
sg64
(lp1230
S':'
asbag57
(g78
g59
NtRp1231
(dp1232
g62
(dp1233
sg71
g1218
sg64
(lp1234
g57
(g58
g59
NtRp1235
(dp1236
g62
(dp1237
g70
I4
ssg71
g1231
sg64
(lp1238
g100
asbasbasbag57
(g73
g59
NtRp1239
(dp1240
g62
(dp1241
sg71
g848
sg64
(lp1242
g57
(g78
g59
NtRp1243
(dp1244
g62
(dp1245
g82
g83
ssg71
g1239
sg64
(lp1246
S'path_info'
p1247
asbag57
(g78
g59
NtRp1248
(dp1249
g62
(dp1250
g89
g90
ssg71
g1239
sg64
(lp1251
S':'
asbag57
(g78
g59
NtRp1252
(dp1253
g62
(dp1254
sg71
g1239
sg64
(lp1255
g57
(g58
g59
NtRp1256
(dp1257
g62
(dp1258
g70
I4
ssg71
g1252
sg64
(lp1259
S'/igor/user/call/json/check_email_available'
p1260
asbasbasbag57
(g73
g59
NtRp1261
(dp1262
g62
(dp1263
sg71
g848
sg64
(lp1264
g57
(g78
g59
NtRp1265
(dp1266
g62
(dp1267
g82
g83
ssg71
g1261
sg64
(lp1268
S'query_string'
p1269
asbag57
(g78
g59
NtRp1270
(dp1271
g62
(dp1272
g89
g90
ssg71
g1261
sg64
(lp1273
S':'
asbag57
(g78
g59
NtRp1274
(dp1275
g62
(dp1276
sg71
g1261
sg64
(lp1277
g57
(g58
g59
NtRp1278
(dp1279
g62
(dp1280
g70
I4
ssg71
g1274
sg64
(lp1281
S'email=phucnh@gmail.com'
p1282
asbasbasbag57
(g73
g59
NtRp1283
(dp1284
g62
(dp1285
sg71
g848
sg64
(lp1286
g57
(g78
g59
NtRp1287
(dp1288
g62
(dp1289
g82
g83
ssg71
g1283
sg64
(lp1290
S'remote_addr'
p1291
asbag57
(g78
g59
NtRp1292
(dp1293
g62
(dp1294
g89
g90
ssg71
g1283
sg64
(lp1295
S':'
asbag57
(g78
g59
NtRp1296
(dp1297
g62
(dp1298
sg71
g1283
sg64
(lp1299
g57
(g58
g59
NtRp1300
(dp1301
g62
(dp1302
g70
I4
ssg71
g1296
sg64
(lp1303
g216
asbasbasbag57
(g73
g59
NtRp1304
(dp1305
g62
(dp1306
sg71
g848
sg64
(lp1307
g57
(g78
g59
NtRp1308
(dp1309
g62
(dp1310
g82
g83
ssg71
g1304
sg64
(lp1311
S'remote_port'
p1312
asbag57
(g78
g59
NtRp1313
(dp1314
g62
(dp1315
g89
g90
ssg71
g1304
sg64
(lp1316
S':'
asbag57
(g78
g59
NtRp1317
(dp1318
g62
(dp1319
sg71
g1304
sg64
(lp1320
g57
(g58
g59
NtRp1321
(dp1322
g62
(dp1323
g70
I4
ssg71
g1317
sg64
(lp1324
S'3711'
p1325
asbasbasbag57
(g73
g59
NtRp1326
(dp1327
g62
(dp1328
sg71
g848
sg64
(lp1329
g57
(g78
g59
NtRp1330
(dp1331
g62
(dp1332
g82
g83
ssg71
g1326
sg64
(lp1333
S'request_method'
p1334
asbag57
(g78
g59
NtRp1335
(dp1336
g62
(dp1337
g89
g90
ssg71
g1326
sg64
(lp1338
S':'
asbag57
(g78
g59
NtRp1339
(dp1340
g62
(dp1341
sg71
g1326
sg64
(lp1342
g57
(g58
g59
NtRp1343
(dp1344
g62
(dp1345
g70
I4
ssg71
g1339
sg64
(lp1346
S'GET'
p1347
asbasbasbag57
(g73
g59
NtRp1348
(dp1349
g62
(dp1350
sg71
g848
sg64
(lp1351
g57
(g78
g59
NtRp1352
(dp1353
g62
(dp1354
g82
g83
ssg71
g1348
sg64
(lp1355
S'script_name'
p1356
asbag57
(g78
g59
NtRp1357
(dp1358
g62
(dp1359
g89
g90
ssg71
g1348
sg64
(lp1360
S':'
asbag57
(g78
g59
NtRp1361
(dp1362
g62
(dp1363
sg71
g1348
sg64
(lp1364
g57
(g58
g59
NtRp1365
(dp1366
g62
(dp1367
g70
I4
ssg71
g1361
sg64
(lp1368
S''
asbasbasbag57
(g73
g59
NtRp1369
(dp1370
g62
(dp1371
sg71
g848
sg64
(lp1372
g57
(g78
g59
NtRp1373
(dp1374
g62
(dp1375
g82
g83
ssg71
g1369
sg64
(lp1376
S'server_name'
p1377
asbag57
(g78
g59
NtRp1378
(dp1379
g62
(dp1380
g89
g90
ssg71
g1369
sg64
(lp1381
S':'
asbag57
(g78
g59
NtRp1382
(dp1383
g62
(dp1384
sg71
g1369
sg64
(lp1385
g57
(g58
g59
NtRp1386
(dp1387
g62
(dp1388
g70
I4
ssg71
g1382
sg64
(lp1389
S'PHUCNH-PC'
p1390
asbasbasbag57
(g73
g59
NtRp1391
(dp1392
g62
(dp1393
sg71
g848
sg64
(lp1394
g57
(g78
g59
NtRp1395
(dp1396
g62
(dp1397
g82
g83
ssg71
g1391
sg64
(lp1398
S'server_port'
p1399
asbag57
(g78
g59
NtRp1400
(dp1401
g62
(dp1402
g89
g90
ssg71
g1391
sg64
(lp1403
S':'
asbag57
(g78
g59
NtRp1404
(dp1405
g62
(dp1406
sg71
g1391
sg64
(lp1407
g57
(g58
g59
NtRp1408
(dp1409
g62
(dp1410
g70
I4
ssg71
g1404
sg64
(lp1411
S'8000'
p1412
asbasbasbag57
(g73
g59
NtRp1413
(dp1414
g62
(dp1415
sg71
g848
sg64
(lp1416
g57
(g78
g59
NtRp1417
(dp1418
g62
(dp1419
g82
g83
ssg71
g1413
sg64
(lp1420
S'server_protocol'
p1421
asbag57
(g78
g59
NtRp1422
(dp1423
g62
(dp1424
g89
g90
ssg71
g1413
sg64
(lp1425
S':'
asbag57
(g78
g59
NtRp1426
(dp1427
g62
(dp1428
sg71
g1413
sg64
(lp1429
g57
(g58
g59
NtRp1430
(dp1431
g62
(dp1432
g70
I4
ssg71
g1426
sg64
(lp1433
S'HTTP/1.1'
p1434
asbasbasbag57
(g73
g59
NtRp1435
(dp1436
g62
(dp1437
sg71
g848
sg64
(lp1438
g57
(g78
g59
NtRp1439
(dp1440
g62
(dp1441
g82
g83
ssg71
g1435
sg64
(lp1442
S'server_software'
p1443
asbag57
(g78
g59
NtRp1444
(dp1445
g62
(dp1446
g89
g90
ssg71
g1435
sg64
(lp1447
S':'
asbag57
(g78
g59
NtRp1448
(dp1449
g62
(dp1450
sg71
g1435
sg64
(lp1451
g57
(g58
g59
NtRp1452
(dp1453
g62
(dp1454
g70
I4
ssg71
g1448
sg64
(lp1455
S'Rocket 1.2.4'
p1456
asbasbasbag57
(g73
g59
NtRp1457
(dp1458
g62
(dp1459
sg71
g848
sg64
(lp1460
g57
(g78
g59
NtRp1461
(dp1462
g62
(dp1463
g82
g83
ssg71
g1457
sg64
(lp1464
S'web2py_crontype'
p1465
asbag57
(g78
g59
NtRp1466
(dp1467
g62
(dp1468
g89
g90
ssg71
g1457
sg64
(lp1469
S':'
asbag57
(g78
g59
NtRp1470
(dp1471
g62
(dp1472
sg71
g1457
sg64
(lp1473
g57
(g58
g59
NtRp1474
(dp1475
g62
(dp1476
g70
I4
ssg71
g1470
sg64
(lp1477
S'hard'
p1478
asbasbasbag57
(g73
g59
NtRp1479
(dp1480
g62
(dp1481
sg71
g848
sg64
(lp1482
g57
(g78
g59
NtRp1483
(dp1484
g62
(dp1485
g82
g83
ssg71
g1479
sg64
(lp1486
S'web2py_path'
p1487
asbag57
(g78
g59
NtRp1488
(dp1489
g62
(dp1490
g89
g90
ssg71
g1479
sg64
(lp1491
S':'
asbag57
(g78
g59
NtRp1492
(dp1493
g62
(dp1494
sg71
g1479
sg64
(lp1495
g57
(g58
g59
NtRp1496
(dp1497
g62
(dp1498
g70
I4
ssg71
g1492
sg64
(lp1499
g895
asbasbasbag57
(g73
g59
NtRp1500
(dp1501
g62
(dp1502
sg71
g848
sg64
(lp1503
g57
(g78
g59
NtRp1504
(dp1505
g62
(dp1506
g82
g83
ssg71
g1500
sg64
(lp1507
S'web2py_version'
p1508
asbag57
(g78
g59
NtRp1509
(dp1510
g62
(dp1511
g89
g90
ssg71
g1500
sg64
(lp1512
S':'
asbag57
(g78
g59
NtRp1513
(dp1514
g62
(dp1515
sg71
g1500
sg64
(lp1516
g57
(g58
g59
NtRp1517
(dp1518
g62
(dp1519
g70
I4
ssg71
g1513
sg64
(lp1520
g57
(g66
g59
NtRp1521
(dp1522
g62
(dp1523
g70
I3
ssg71
Nsg64
(lp1524
g57
(g73
g59
NtRp1525
(dp1526
g62
(dp1527
sg71
g1521
sg64
(lp1528
g57
(g78
g59
NtRp1529
(dp1530
g62
(dp1531
sg71
g1525
sg64
(lp1532
g57
(g58
g59
NtRp1533
(dp1534
g62
(dp1535
g70
I3
ssg71
g1529
sg64
(lp1536
S'1'
asbasbasbag57
(g73
g59
NtRp1537
(dp1538
g62
(dp1539
sg71
g1521
sg64
(lp1540
g57
(g78
g59
NtRp1541
(dp1542
g62
(dp1543
sg71
g1537
sg64
(lp1544
g57
(g58
g59
NtRp1545
(dp1546
g62
(dp1547
g70
I3
ssg71
g1541
sg64
(lp1548
S'99'
p1549
asbasbasbag57
(g73
g59
NtRp1550
(dp1551
g62
(dp1552
sg71
g1521
sg64
(lp1553
g57
(g78
g59
NtRp1554
(dp1555
g62
(dp1556
sg71
g1550
sg64
(lp1557
g57
(g58
g59
NtRp1558
(dp1559
g62
(dp1560
g70
I3
ssg71
g1554
sg64
(lp1561
S'7'
asbasbasbag57
(g73
g59
NtRp1562
(dp1563
g62
(dp1564
sg71
g1521
sg64
(lp1565
g57
(g78
g59
NtRp1566
(dp1567
g62
(dp1568
sg71
g1562
sg64
(lp1569
g57
(g58
g59
NtRp1570
(dp1571
g62
(dp1572
g70
I3
ssg71
g1566
sg64
(lp1573
S'datetime.datetime(2012, 3, 4, 22, 12, 8)'
p1574
asbasbasbag57
(g73
g59
NtRp1575
(dp1576
g62
(dp1577
sg71
g1521
sg64
(lp1578
g57
(g78
g59
NtRp1579
(dp1580
g62
(dp1581
sg71
g1575
sg64
(lp1582
g57
(g58
g59
NtRp1583
(dp1584
g62
(dp1585
g70
I3
ssg71
g1579
sg64
(lp1586
S'stable'
p1587
asbasbasbasbasbasbasbag57
(g73
g59
NtRp1588
(dp1589
g62
(dp1590
sg71
g848
sg64
(lp1591
g57
(g78
g59
NtRp1592
(dp1593
g62
(dp1594
g82
g83
ssg71
g1588
sg64
(lp1595
S'wsgi_errors'
p1596
asbag57
(g78
g59
NtRp1597
(dp1598
g62
(dp1599
g89
g90
ssg71
g1588
sg64
(lp1600
S':'
asbag57
(g78
g59
NtRp1601
(dp1602
g62
(dp1603
sg71
g1588
sg64
(lp1604
g57
(g58
g59
NtRp1605
(dp1606
g62
(dp1607
g70
I4
ssg71
g1601
sg64
(lp1608
S"<open file '<stderr>', mode 'w' at 0x0000000001D0E1E0>"
p1609
asbasbasbag57
(g73
g59
NtRp1610
(dp1611
g62
(dp1612
sg71
g848
sg64
(lp1613
g57
(g78
g59
NtRp1614
(dp1615
g62
(dp1616
g82
g83
ssg71
g1610
sg64
(lp1617
S'wsgi_file_wrapper'
p1618
asbag57
(g78
g59
NtRp1619
(dp1620
g62
(dp1621
g89
g90
ssg71
g1610
sg64
(lp1622
S':'
asbag57
(g78
g59
NtRp1623
(dp1624
g62
(dp1625
sg71
g1610
sg64
(lp1626
g57
(g58
g59
NtRp1627
(dp1628
g62
(dp1629
g70
I4
ssg71
g1623
sg64
(lp1630
S'<class wsgiref.util.FileWrapper at 0x00000000037FCAC8>'
p1631
asbasbasbag57
(g73
g59
NtRp1632
(dp1633
g62
(dp1634
sg71
g848
sg64
(lp1635
g57
(g78
g59
NtRp1636
(dp1637
g62
(dp1638
g82
g83
ssg71
g1632
sg64
(lp1639
S'wsgi_input'
p1640
asbag57
(g78
g59
NtRp1641
(dp1642
g62
(dp1643
g89
g90
ssg71
g1632
sg64
(lp1644
S':'
asbag57
(g78
g59
NtRp1645
(dp1646
g62
(dp1647
sg71
g1632
sg64
(lp1648
g57
(g58
g59
NtRp1649
(dp1650
g62
(dp1651
g70
I4
ssg71
g1645
sg64
(lp1652
S'<socket._fileobject object at 0x00000000055D8138>'
p1653
asbasbasbag57
(g73
g59
NtRp1654
(dp1655
g62
(dp1656
sg71
g848
sg64
(lp1657
g57
(g78
g59
NtRp1658
(dp1659
g62
(dp1660
g82
g83
ssg71
g1654
sg64
(lp1661
S'wsgi_multiprocess'
p1662
asbag57
(g78
g59
NtRp1663
(dp1664
g62
(dp1665
g89
g90
ssg71
g1654
sg64
(lp1666
S':'
asbag57
(g78
g59
NtRp1667
(dp1668
g62
(dp1669
sg71
g1654
sg64
(lp1670
g57
(g58
g59
NtRp1671
(dp1672
g62
(dp1673
g70
I4
ssg71
g1667
sg64
(lp1674
g100
asbasbasbag57
(g73
g59
NtRp1675
(dp1676
g62
(dp1677
sg71
g848
sg64
(lp1678
g57
(g78
g59
NtRp1679
(dp1680
g62
(dp1681
g82
g83
ssg71
g1675
sg64
(lp1682
S'wsgi_multithread'
p1683
asbag57
(g78
g59
NtRp1684
(dp1685
g62
(dp1686
g89
g90
ssg71
g1675
sg64
(lp1687
S':'
asbag57
(g78
g59
NtRp1688
(dp1689
g62
(dp1690
sg71
g1675
sg64
(lp1691
g57
(g58
g59
NtRp1692
(dp1693
g62
(dp1694
g70
I4
ssg71
g1688
sg64
(lp1695
S'True'
p1696
asbasbasbag57
(g73
g59
NtRp1697
(dp1698
g62
(dp1699
sg71
g848
sg64
(lp1700
g57
(g78
g59
NtRp1701
(dp1702
g62
(dp1703
g82
g83
ssg71
g1697
sg64
(lp1704
S'wsgi_run_once'
p1705
asbag57
(g78
g59
NtRp1706
(dp1707
g62
(dp1708
g89
g90
ssg71
g1697
sg64
(lp1709
S':'
asbag57
(g78
g59
NtRp1710
(dp1711
g62
(dp1712
sg71
g1697
sg64
(lp1713
g57
(g58
g59
NtRp1714
(dp1715
g62
(dp1716
g70
I4
ssg71
g1710
sg64
(lp1717
g100
asbasbasbag57
(g73
g59
NtRp1718
(dp1719
g62
(dp1720
sg71
g848
sg64
(lp1721
g57
(g78
g59
NtRp1722
(dp1723
g62
(dp1724
g82
g83
ssg71
g1718
sg64
(lp1725
S'wsgi_url_scheme'
p1726
asbag57
(g78
g59
NtRp1727
(dp1728
g62
(dp1729
g89
g90
ssg71
g1718
sg64
(lp1730
S':'
asbag57
(g78
g59
NtRp1731
(dp1732
g62
(dp1733
sg71
g1718
sg64
(lp1734
g57
(g58
g59
NtRp1735
(dp1736
g62
(dp1737
g70
I4
ssg71
g1731
sg64
(lp1738
S'http'
p1739
asbasbasbag57
(g73
g59
NtRp1740
(dp1741
g62
(dp1742
sg71
g848
sg64
(lp1743
g57
(g78
g59
NtRp1744
(dp1745
g62
(dp1746
g82
g83
ssg71
g1740
sg64
(lp1747
S'wsgi_version'
p1748
asbag57
(g78
g59
NtRp1749
(dp1750
g62
(dp1751
g89
g90
ssg71
g1740
sg64
(lp1752
S':'
asbag57
(g78
g59
NtRp1753
(dp1754
g62
(dp1755
sg71
g1740
sg64
(lp1756
g57
(g58
g59
NtRp1757
(dp1758
g62
(dp1759
g70
I4
ssg71
g1753
sg64
(lp1760
g57
(g66
g59
NtRp1761
(dp1762
g62
(dp1763
g70
I3
ssg71
Nsg64
(lp1764
g57
(g73
g59
NtRp1765
(dp1766
g62
(dp1767
sg71
g1761
sg64
(lp1768
g57
(g78
g59
NtRp1769
(dp1770
g62
(dp1771
sg71
g1765
sg64
(lp1772
g57
(g58
g59
NtRp1773
(dp1774
g62
(dp1775
g70
I3
ssg71
g1769
sg64
(lp1776
S'1'
asbasbasbag57
(g73
g59
NtRp1777
(dp1778
g62
(dp1779
sg71
g1761
sg64
(lp1780
g57
(g78
g59
NtRp1781
(dp1782
g62
(dp1783
sg71
g1777
sg64
(lp1784
g57
(g58
g59
NtRp1785
(dp1786
g62
(dp1787
g70
I3
ssg71
g1781
sg64
(lp1788
S'0'
asbasbasbasbasbasbasbasbasbasbasbag57
(g73
g59
NtRp1789
(dp1790
g62
(dp1791
sg71
g67
sg64
(lp1792
g57
(g78
g59
NtRp1793
(dp1794
g62
(dp1795
g82
g83
ssg71
g1789
sg64
(lp1796
S'extension'
p1797
asbag57
(g78
g59
NtRp1798
(dp1799
g62
(dp1800
g89
g90
ssg71
g1789
sg64
(lp1801
S':'
asbag57
(g78
g59
NtRp1802
(dp1803
g62
(dp1804
sg71
g1789
sg64
(lp1805
g57
(g58
g59
NtRp1806
(dp1807
g62
(dp1808
g70
I5
ssg71
g1802
sg64
(lp1809
S'html'
p1810
asbasbasbag57
(g73
g59
NtRp1811
(dp1812
g62
(dp1813
sg71
g67
sg64
(lp1814
g57
(g78
g59
NtRp1815
(dp1816
g62
(dp1817
g82
g83
ssg71
g1811
sg64
(lp1818
S'folder'
p1819
asbag57
(g78
g59
NtRp1820
(dp1821
g62
(dp1822
g89
g90
ssg71
g1811
sg64
(lp1823
S':'
asbag57
(g78
g59
NtRp1824
(dp1825
g62
(dp1826
sg71
g1811
sg64
(lp1827
g57
(g58
g59
NtRp1828
(dp1829
g62
(dp1830
g70
I5
ssg71
g1824
sg64
(lp1831
S'D:\\workspace\\CA\\IgoR\\C_Sources\\Server\\igor-assistant-ca-2012\\applications\\igor\\'
p1832
asbasbasbag57
(g73
g59
NtRp1833
(dp1834
g62
(dp1835
sg71
g67
sg64
(lp1836
g57
(g78
g59
NtRp1837
(dp1838
g62
(dp1839
g82
g83
ssg71
g1833
sg64
(lp1840
S'function'
p1841
asbag57
(g78
g59
NtRp1842
(dp1843
g62
(dp1844
g89
g90
ssg71
g1833
sg64
(lp1845
S':'
asbag57
(g78
g59
NtRp1846
(dp1847
g62
(dp1848
sg71
g1833
sg64
(lp1849
g57
(g58
g59
NtRp1850
(dp1851
g62
(dp1852
g70
I5
ssg71
g1846
sg64
(lp1853
S'call'
p1854
asbasbasbag57
(g73
g59
NtRp1855
(dp1856
g62
(dp1857
sg71
g67
sg64
(lp1858
g57
(g78
g59
NtRp1859
(dp1860
g62
(dp1861
g82
g83
ssg71
g1855
sg64
(lp1862
S'get_vars'
p1863
asbag57
(g78
g59
NtRp1864
(dp1865
g62
(dp1866
g89
g90
ssg71
g1855
sg64
(lp1867
S':'
asbag57
(g78
g59
NtRp1868
(dp1869
g62
(dp1870
sg71
g1855
sg64
(lp1871
g57
(g58
g59
NtRp1872
(dp1873
g62
(dp1874
g70
I5
ssg71
g1868
sg64
(lp1875
g57
(g66
g59
NtRp1876
(dp1877
g62
(dp1878
g70
I4
ssg71
Nsg64
(lp1879
g57
(g73
g59
NtRp1880
(dp1881
g62
(dp1882
sg71
g1876
sg64
(lp1883
g57
(g78
g59
NtRp1884
(dp1885
g62
(dp1886
g82
g83
ssg71
g1880
sg64
(lp1887
S'email'
p1888
asbag57
(g78
g59
NtRp1889
(dp1890
g62
(dp1891
g89
g90
ssg71
g1880
sg64
(lp1892
S':'
asbag57
(g78
g59
NtRp1893
(dp1894
g62
(dp1895
sg71
g1880
sg64
(lp1896
g57
(g58
g59
NtRp1897
(dp1898
g62
(dp1899
g70
I4
ssg71
g1893
sg64
(lp1900
S'phucnh@gmail.com'
p1901
asbasbasbasbasbasbasbag57
(g73
g59
NtRp1902
(dp1903
g62
(dp1904
sg71
g67
sg64
(lp1905
g57
(g78
g59
NtRp1906
(dp1907
g62
(dp1908
g82
g83
ssg71
g1902
sg64
(lp1909
S'global_settings'
p1910
asbag57
(g78
g59
NtRp1911
(dp1912
g62
(dp1913
g89
g90
ssg71
g1902
sg64
(lp1914
S':'
asbag57
(g78
g59
NtRp1915
(dp1916
g62
(dp1917
sg71
g1902
sg64
(lp1918
g57
(g58
g59
NtRp1919
(dp1920
g62
(dp1921
g70
I5
ssg71
g1915
sg64
(lp1922
g57
(g66
g59
NtRp1923
(dp1924
g62
(dp1925
g70
I4
ssg71
Nsg64
(lp1926
g57
(g73
g59
NtRp1927
(dp1928
g62
(dp1929
sg71
g1923
sg64
(lp1930
g57
(g78
g59
NtRp1931
(dp1932
g62
(dp1933
g82
g83
ssg71
g1927
sg64
(lp1934
g860
asbag57
(g78
g59
NtRp1935
(dp1936
g62
(dp1937
g89
g90
ssg71
g1927
sg64
(lp1938
S':'
asbag57
(g78
g59
NtRp1939
(dp1940
g62
(dp1941
sg71
g1927
sg64
(lp1942
g57
(g58
g59
NtRp1943
(dp1944
g62
(dp1945
g70
I4
ssg71
g1939
sg64
(lp1946
S"set(['D:\\\\workspace\\\\CA\\\\IgoR\\\\C_Sources\\\\Server\\\\igor-assistant-ca-2012\\\\applications\\\\admin\\\\', 'D:\\\\workspace\\\\CA\\\\IgoR\\\\C_Sources\\\\Server\\\\igor-assistant-ca-2012\\\\applications\\\\igor\\\\', 'D:\\\\workspace\\\\CA\\\\IgoR\\\\C_Sources\\\\Server\\\\igor-assistant-ca-2012\\\\applications\\\\welcome\\\\'])"
p1947
asbasbasbag57
(g73
g59
NtRp1948
(dp1949
g62
(dp1950
sg71
g1923
sg64
(lp1951
g57
(g78
g59
NtRp1952
(dp1953
g62
(dp1954
g82
g83
ssg71
g1948
sg64
(lp1955
g882
asbag57
(g78
g59
NtRp1956
(dp1957
g62
(dp1958
g89
g90
ssg71
g1948
sg64
(lp1959
S':'
asbag57
(g78
g59
NtRp1960
(dp1961
g62
(dp1962
sg71
g1948
sg64
(lp1963
g57
(g58
g59
NtRp1964
(dp1965
g62
(dp1966
g70
I4
ssg71
g1960
sg64
(lp1967
g895
asbasbasbag57
(g73
g59
NtRp1968
(dp1969
g62
(dp1970
sg71
g1923
sg64
(lp1971
g57
(g78
g59
NtRp1972
(dp1973
g62
(dp1974
g82
g83
ssg71
g1968
sg64
(lp1975
g904
asbag57
(g78
g59
NtRp1976
(dp1977
g62
(dp1978
g89
g90
ssg71
g1968
sg64
(lp1979
S':'
asbag57
(g78
g59
NtRp1980
(dp1981
g62
(dp1982
sg71
g1968
sg64
(lp1983
g57
(g58
g59
NtRp1984
(dp1985
g62
(dp1986
g70
I4
ssg71
g1980
sg64
(lp1987
g57
(g66
g59
NtRp1988
(dp1989
g62
(dp1990
g70
I3
ssg71
Nsg64
(lp1991
g57
(g73
g59
NtRp1992
(dp1993
g62
(dp1994
sg71
g1988
sg64
(lp1995
g57
(g78
g59
NtRp1996
(dp1997
g62
(dp1998
sg71
g1992
sg64
(lp1999
g57
(g58
g59
NtRp2000
(dp2001
g62
(dp2002
g70
I3
ssg71
g1996
sg64
(lp2003
g933
asbasbasbasbasbasbasbag57
(g73
g59
NtRp2004
(dp2005
g62
(dp2006
sg71
g1923
sg64
(lp2007
g57
(g78
g59
NtRp2008
(dp2009
g62
(dp2010
g82
g83
ssg71
g2004
sg64
(lp2011
g942
asbag57
(g78
g59
NtRp2012
(dp2013
g62
(dp2014
g89
g90
ssg71
g2004
sg64
(lp2015
S':'
asbag57
(g78
g59
NtRp2016
(dp2017
g62
(dp2018
sg71
g2004
sg64
(lp2019
g57
(g58
g59
NtRp2020
(dp2021
g62
(dp2022
g70
I4
ssg71
g2016
sg64
(lp2023
S"<Values at 0x3927d88: {'verbose': False, 'ip': '127.0.0.1', 'shutdown_timeout': 5, 'taskbar': False, 'nocron': False, 'pid_filename': 'httpserver.pid', 'maxthreads': None, 'softcron': False, 'server_name': 'PHUCNH-PC', 'bpython': False, 'nogui': False, 'port': 8000, 'extcron': False, 'debuglevel': 30, 'test': None, 'folder': 'D:\\\\workspace\\\\CA\\\\IgoR\\\\C_Sources\\\\Server\\\\igor-assistant-ca-2012', 'config': '', 'import_models': False, 'winservice': '', 'shell': None, 'run': '', 'log_filename': 'httpserver.log', 'args': [''], 'socket_timeout': 5, 'ssl_ca_certificate': None, 'scheduler': None, 'profiler_filename': None, 'ssl_private_key': '', 'password': '<ask>', 'request_queue_size': 5, 'ssl_certificate': '', 'cronjob': False, 'numthreads': None, 'quiet': False, 'interfaces': None, 'minthreads': None, 'timeout': 10, 'plain': False, 'nobanner': False}>"
p2024
asbasbasbag57
(g73
g59
NtRp2025
(dp2026
g62
(dp2027
sg71
g1923
sg64
(lp2028
g57
(g78
g59
NtRp2029
(dp2030
g62
(dp2031
g82
g83
ssg71
g2025
sg64
(lp2032
g964
asbag57
(g78
g59
NtRp2033
(dp2034
g62
(dp2035
g89
g90
ssg71
g2025
sg64
(lp2036
S':'
asbag57
(g78
g59
NtRp2037
(dp2038
g62
(dp2039
sg71
g2025
sg64
(lp2040
g57
(g58
g59
NtRp2041
(dp2042
g62
(dp2043
g70
I4
ssg71
g2037
sg64
(lp2044
S'set([])'
p2045
asbasbasbag57
(g73
g59
NtRp2046
(dp2047
g62
(dp2048
sg71
g1923
sg64
(lp2049
g57
(g78
g59
NtRp2050
(dp2051
g62
(dp2052
g82
g83
ssg71
g2046
sg64
(lp2053
g986
asbag57
(g78
g59
NtRp2054
(dp2055
g62
(dp2056
g89
g90
ssg71
g2046
sg64
(lp2057
S':'
asbag57
(g78
g59
NtRp2058
(dp2059
g62
(dp2060
sg71
g2046
sg64
(lp2061
g57
(g58
g59
NtRp2062
(dp2063
g62
(dp2064
g70
I4
ssg71
g2058
sg64
(lp2065
g100
asbasbasbag57
(g73
g59
NtRp2066
(dp2067
g62
(dp2068
sg71
g1923
sg64
(lp2069
g57
(g78
g59
NtRp2070
(dp2071
g62
(dp2072
g82
g83
ssg71
g2066
sg64
(lp2073
g1007
asbag57
(g78
g59
NtRp2074
(dp2075
g62
(dp2076
g89
g90
ssg71
g2066
sg64
(lp2077
S':'
asbag57
(g78
g59
NtRp2078
(dp2079
g62
(dp2080
sg71
g2066
sg64
(lp2081
g57
(g58
g59
NtRp2082
(dp2083
g62
(dp2084
g70
I4
ssg71
g2078
sg64
(lp2085
g1020
asbasbasbag57
(g73
g59
NtRp2086
(dp2087
g62
(dp2088
sg71
g1923
sg64
(lp2089
g57
(g78
g59
NtRp2090
(dp2091
g62
(dp2092
g82
g83
ssg71
g2086
sg64
(lp2093
g1205
asbag57
(g78
g59
NtRp2094
(dp2095
g62
(dp2096
g89
g90
ssg71
g2086
sg64
(lp2097
S':'
asbag57
(g78
g59
NtRp2098
(dp2099
g62
(dp2100
sg71
g2086
sg64
(lp2101
g57
(g58
g59
NtRp2102
(dp2103
g62
(dp2104
g70
I4
ssg71
g2098
sg64
(lp2105
g100
asbasbasbag57
(g73
g59
NtRp2106
(dp2107
g62
(dp2108
sg71
g1923
sg64
(lp2109
g57
(g78
g59
NtRp2110
(dp2111
g62
(dp2112
g82
g83
ssg71
g2106
sg64
(lp2113
g1226
asbag57
(g78
g59
NtRp2114
(dp2115
g62
(dp2116
g89
g90
ssg71
g2106
sg64
(lp2117
S':'
asbag57
(g78
g59
NtRp2118
(dp2119
g62
(dp2120
sg71
g2106
sg64
(lp2121
g57
(g58
g59
NtRp2122
(dp2123
g62
(dp2124
g70
I4
ssg71
g2118
sg64
(lp2125
g100
asbasbasbag57
(g73
g59
NtRp2126
(dp2127
g62
(dp2128
sg71
g1923
sg64
(lp2129
g57
(g78
g59
NtRp2130
(dp2131
g62
(dp2132
g82
g83
ssg71
g2126
sg64
(lp2133
g1465
asbag57
(g78
g59
NtRp2134
(dp2135
g62
(dp2136
g89
g90
ssg71
g2126
sg64
(lp2137
S':'
asbag57
(g78
g59
NtRp2138
(dp2139
g62
(dp2140
sg71
g2126
sg64
(lp2141
g57
(g58
g59
NtRp2142
(dp2143
g62
(dp2144
g70
I4
ssg71
g2138
sg64
(lp2145
g1478
asbasbasbag57
(g73
g59
NtRp2146
(dp2147
g62
(dp2148
sg71
g1923
sg64
(lp2149
g57
(g78
g59
NtRp2150
(dp2151
g62
(dp2152
g82
g83
ssg71
g2146
sg64
(lp2153
g1508
asbag57
(g78
g59
NtRp2154
(dp2155
g62
(dp2156
g89
g90
ssg71
g2146
sg64
(lp2157
S':'
asbag57
(g78
g59
NtRp2158
(dp2159
g62
(dp2160
sg71
g2146
sg64
(lp2161
g57
(g58
g59
NtRp2162
(dp2163
g62
(dp2164
g70
I4
ssg71
g2158
sg64
(lp2165
g57
(g66
g59
NtRp2166
(dp2167
g62
(dp2168
g70
I3
ssg71
Nsg64
(lp2169
g57
(g73
g59
NtRp2170
(dp2171
g62
(dp2172
sg71
g2166
sg64
(lp2173
g57
(g78
g59
NtRp2174
(dp2175
g62
(dp2176
sg71
g2170
sg64
(lp2177
g57
(g58
g59
NtRp2178
(dp2179
g62
(dp2180
g70
I3
ssg71
g2174
sg64
(lp2181
S'1'
asbasbasbag57
(g73
g59
NtRp2182
(dp2183
g62
(dp2184
sg71
g2166
sg64
(lp2185
g57
(g78
g59
NtRp2186
(dp2187
g62
(dp2188
sg71
g2182
sg64
(lp2189
g57
(g58
g59
NtRp2190
(dp2191
g62
(dp2192
g70
I3
ssg71
g2186
sg64
(lp2193
S'99'
p2194
asbasbasbag57
(g73
g59
NtRp2195
(dp2196
g62
(dp2197
sg71
g2166
sg64
(lp2198
g57
(g78
g59
NtRp2199
(dp2200
g62
(dp2201
sg71
g2195
sg64
(lp2202
g57
(g58
g59
NtRp2203
(dp2204
g62
(dp2205
g70
I3
ssg71
g2199
sg64
(lp2206
S'7'
asbasbasbag57
(g73
g59
NtRp2207
(dp2208
g62
(dp2209
sg71
g2166
sg64
(lp2210
g57
(g78
g59
NtRp2211
(dp2212
g62
(dp2213
sg71
g2207
sg64
(lp2214
g57
(g58
g59
NtRp2215
(dp2216
g62
(dp2217
g70
I3
ssg71
g2211
sg64
(lp2218
S'datetime.datetime(2012, 3, 4, 22, 12, 8)'
p2219
asbasbasbag57
(g73
g59
NtRp2220
(dp2221
g62
(dp2222
sg71
g2166
sg64
(lp2223
g57
(g78
g59
NtRp2224
(dp2225
g62
(dp2226
sg71
g2220
sg64
(lp2227
g57
(g58
g59
NtRp2228
(dp2229
g62
(dp2230
g70
I3
ssg71
g2224
sg64
(lp2231
g1587
asbasbasbasbasbasbasbasbasbasbasbag57
(g73
g59
NtRp2232
(dp2233
g62
(dp2234
sg71
g67
sg64
(lp2235
g57
(g78
g59
NtRp2236
(dp2237
g62
(dp2238
g82
g83
ssg71
g2232
sg64
(lp2239
S'is_https'
p2240
asbag57
(g78
g59
NtRp2241
(dp2242
g62
(dp2243
g89
g90
ssg71
g2232
sg64
(lp2244
S':'
asbag57
(g78
g59
NtRp2245
(dp2246
g62
(dp2247
sg71
g2232
sg64
(lp2248
g57
(g58
g59
NtRp2249
(dp2250
g62
(dp2251
g70
I5
ssg71
g2245
sg64
(lp2252
g100
asbasbasbag57
(g73
g59
NtRp2253
(dp2254
g62
(dp2255
sg71
g67
sg64
(lp2256
g57
(g78
g59
NtRp2257
(dp2258
g62
(dp2259
g82
g83
ssg71
g2253
sg64
(lp2260
S'is_local'
p2261
asbag57
(g78
g59
NtRp2262
(dp2263
g62
(dp2264
g89
g90
ssg71
g2253
sg64
(lp2265
S':'
asbag57
(g78
g59
NtRp2266
(dp2267
g62
(dp2268
sg71
g2253
sg64
(lp2269
g57
(g58
g59
NtRp2270
(dp2271
g62
(dp2272
g70
I5
ssg71
g2266
sg64
(lp2273
g1696
asbasbasbag57
(g73
g59
NtRp2274
(dp2275
g62
(dp2276
sg71
g67
sg64
(lp2277
g57
(g78
g59
NtRp2278
(dp2279
g62
(dp2280
g82
g83
ssg71
g2274
sg64
(lp2281
S'is_restful'
p2282
asbag57
(g78
g59
NtRp2283
(dp2284
g62
(dp2285
g89
g90
ssg71
g2274
sg64
(lp2286
S':'
asbag57
(g78
g59
NtRp2287
(dp2288
g62
(dp2289
sg71
g2274
sg64
(lp2290
g57
(g58
g59
NtRp2291
(dp2292
g62
(dp2293
g70
I5
ssg71
g2287
sg64
(lp2294
g100
asbasbasbag57
(g73
g59
NtRp2295
(dp2296
g62
(dp2297
sg71
g67
sg64
(lp2298
g57
(g78
g59
NtRp2299
(dp2300
g62
(dp2301
g82
g83
ssg71
g2295
sg64
(lp2302
S'now'
p2303
asbag57
(g78
g59
NtRp2304
(dp2305
g62
(dp2306
g89
g90
ssg71
g2295
sg64
(lp2307
S':'
asbag57
(g78
g59
NtRp2308
(dp2309
g62
(dp2310
sg71
g2295
sg64
(lp2311
g57
(g58
g59
NtRp2312
(dp2313
g62
(dp2314
g70
I5
ssg71
g2308
sg64
(lp2315
S'datetime.datetime(2012, 7, 31, 11, 20, 40, 800000)'
p2316
asbasbasbag57
(g73
g59
NtRp2317
(dp2318
g62
(dp2319
sg71
g67
sg64
(lp2320
g57
(g78
g59
NtRp2321
(dp2322
g62
(dp2323
g82
g83
ssg71
g2317
sg64
(lp2324
S'post_vars'
p2325
asbag57
(g78
g59
NtRp2326
(dp2327
g62
(dp2328
g89
g90
ssg71
g2317
sg64
(lp2329
S':'
asbag57
(g78
g59
NtRp2330
(dp2331
g62
(dp2332
sg71
g2317
sg64
(lp2333
g57
(g58
g59
NtRp2334
(dp2335
g62
(dp2336
g70
I5
ssg71
g2330
sg64
(lp2337
g57
(g66
g59
NtRp2338
(dp2339
g62
(dp2340
g70
I4
ssg71
Nsg64
(lp2341
sbasbasbasbag57
(g73
g59
NtRp2342
(dp2343
g62
(dp2344
sg71
g67
sg64
(lp2345
g57
(g78
g59
NtRp2346
(dp2347
g62
(dp2348
g82
g83
ssg71
g2342
sg64
(lp2349
S'raw_args'
p2350
asbag57
(g78
g59
NtRp2351
(dp2352
g62
(dp2353
g89
g90
ssg71
g2342
sg64
(lp2354
S':'
asbag57
(g78
g59
NtRp2355
(dp2356
g62
(dp2357
sg71
g2342
sg64
(lp2358
g57
(g58
g59
NtRp2359
(dp2360
g62
(dp2361
g70
I5
ssg71
g2355
sg64
(lp2362
S'json/check_email_available'
p2363
asbasbasbag57
(g73
g59
NtRp2364
(dp2365
g62
(dp2366
sg71
g67
sg64
(lp2367
g57
(g78
g59
NtRp2368
(dp2369
g62
(dp2370
g82
g83
ssg71
g2364
sg64
(lp2371
S'url'
p2372
asbag57
(g78
g59
NtRp2373
(dp2374
g62
(dp2375
g89
g90
ssg71
g2364
sg64
(lp2376
S':'
asbag57
(g78
g59
NtRp2377
(dp2378
g62
(dp2379
sg71
g2364
sg64
(lp2380
g57
(g58
g59
NtRp2381
(dp2382
g62
(dp2383
g70
I5
ssg71
g2377
sg64
(lp2384
S'/igor/user/call/json/check_email_available'
p2385
asbasbasbag57
(g73
g59
NtRp2386
(dp2387
g62
(dp2388
sg71
g67
sg64
(lp2389
g57
(g78
g59
NtRp2390
(dp2391
g62
(dp2392
g82
g83
ssg71
g2386
sg64
(lp2393
S'utcnow'
p2394
asbag57
(g78
g59
NtRp2395
(dp2396
g62
(dp2397
g89
g90
ssg71
g2386
sg64
(lp2398
S':'
asbag57
(g78
g59
NtRp2399
(dp2400
g62
(dp2401
sg71
g2386
sg64
(lp2402
g57
(g58
g59
NtRp2403
(dp2404
g62
(dp2405
g70
I5
ssg71
g2399
sg64
(lp2406
S'datetime.datetime(2012, 7, 31, 4, 20, 40, 800000)'
p2407
asbasbasbag57
(g73
g59
NtRp2408
(dp2409
g62
(dp2410
sg71
g67
sg64
(lp2411
g57
(g78
g59
NtRp2412
(dp2413
g62
(dp2414
g82
g83
ssg71
g2408
sg64
(lp2415
S'uuid'
p2416
asbag57
(g78
g59
NtRp2417
(dp2418
g62
(dp2419
g89
g90
ssg71
g2408
sg64
(lp2420
S':'
asbag57
(g78
g59
NtRp2421
(dp2422
g62
(dp2423
sg71
g2408
sg64
(lp2424
g57
(g58
g59
NtRp2425
(dp2426
g62
(dp2427
g70
I5
ssg71
g2421
sg64
(lp2428
S'igor/127.0.0.1.2012-07-31.11-20-40.eab54560-01e7-4e9e-a9f7-af78108e8241'
p2429
asbasbasbag57
(g73
g59
NtRp2430
(dp2431
g62
(dp2432
sg71
g67
sg64
(lp2433
g57
(g78
g59
NtRp2434
(dp2435
g62
(dp2436
g82
g83
ssg71
g2430
sg64
(lp2437
S'vars'
p2438
asbag57
(g78
g59
NtRp2439
(dp2440
g62
(dp2441
g89
g90
ssg71
g2430
sg64
(lp2442
S':'
asbag57
(g78
g59
NtRp2443
(dp2444
g62
(dp2445
sg71
g2430
sg64
(lp2446
g57
(g58
g59
NtRp2447
(dp2448
g62
(dp2449
g70
I5
ssg71
g2443
sg64
(lp2450
g57
(g66
g59
NtRp2451
(dp2452
g62
(dp2453
g70
I4
ssg71
Nsg64
(lp2454
g57
(g73
g59
NtRp2455
(dp2456
g62
(dp2457
sg71
g2451
sg64
(lp2458
g57
(g78
g59
NtRp2459
(dp2460
g62
(dp2461
g82
g83
ssg71
g2455
sg64
(lp2462
g1888
asbag57
(g78
g59
NtRp2463
(dp2464
g62
(dp2465
g89
g90
ssg71
g2455
sg64
(lp2466
S':'
asbag57
(g78
g59
NtRp2467
(dp2468
g62
(dp2469
sg71
g2455
sg64
(lp2470
g57
(g58
g59
NtRp2471
(dp2472
g62
(dp2473
g70
I4
ssg71
g2467
sg64
(lp2474
g1901
asbasbasbasbasbasbasbag57
(g73
g59
NtRp2475
(dp2476
g62
(dp2477
sg71
g67
sg64
(lp2478
g57
(g78
g59
NtRp2479
(dp2480
g62
(dp2481
g82
g83
ssg71
g2475
sg64
(lp2482
S'wsgi'
p2483
asbag57
(g78
g59
NtRp2484
(dp2485
g62
(dp2486
g89
g90
ssg71
g2475
sg64
(lp2487
S':'
asbag57
(g78
g59
NtRp2488
(dp2489
g62
(dp2490
sg71
g2475
sg64
(lp2491
g57
(g58
g59
NtRp2492
(dp2493
g62
(dp2494
g70
I5
ssg71
g2488
sg64
(lp2495
g57
(g66
g59
NtRp2496
(dp2497
g62
(dp2498
g70
I4
ssg71
Nsg64
(lp2499
g57
(g73
g59
NtRp2500
(dp2501
g62
(dp2502
sg71
g2496
sg64
(lp2503
g57
(g78
g59
NtRp2504
(dp2505
g62
(dp2506
g82
g83
ssg71
g2500
sg64
(lp2507
S'environ'
p2508
asbag57
(g78
g59
NtRp2509
(dp2510
g62
(dp2511
g89
g90
ssg71
g2500
sg64
(lp2512
S':'
asbag57
(g78
g59
NtRp2513
(dp2514
g62
(dp2515
sg71
g2500
sg64
(lp2516
g57
(g58
g59
NtRp2517
(dp2518
g62
(dp2519
g70
I4
ssg71
g2513
sg64
(lp2520
g57
(g66
g59
NtRp2521
(dp2522
g62
(dp2523
g70
I3
ssg71
Nsg64
(lp2524
g57
(g73
g59
NtRp2525
(dp2526
g62
(dp2527
sg71
g2521
sg64
(lp2528
g57
(g78
g59
NtRp2529
(dp2530
g62
(dp2531
g82
g83
ssg71
g2525
sg64
(lp2532
S'HTTP_ACCEPT'
p2533
asbag57
(g78
g59
NtRp2534
(dp2535
g62
(dp2536
g89
g90
ssg71
g2525
sg64
(lp2537
S':'
asbag57
(g78
g59
NtRp2538
(dp2539
g62
(dp2540
sg71
g2525
sg64
(lp2541
g57
(g58
g59
NtRp2542
(dp2543
g62
(dp2544
g70
I3
ssg71
g2538
sg64
(lp2545
g1042
asbasbasbag57
(g73
g59
NtRp2546
(dp2547
g62
(dp2548
sg71
g2521
sg64
(lp2549
g57
(g78
g59
NtRp2550
(dp2551
g62
(dp2552
g82
g83
ssg71
g2546
sg64
(lp2553
S'HTTP_ACCEPT_CHARSET'
p2554
asbag57
(g78
g59
NtRp2555
(dp2556
g62
(dp2557
g89
g90
ssg71
g2546
sg64
(lp2558
S':'
asbag57
(g78
g59
NtRp2559
(dp2560
g62
(dp2561
sg71
g2546
sg64
(lp2562
g57
(g58
g59
NtRp2563
(dp2564
g62
(dp2565
g70
I3
ssg71
g2559
sg64
(lp2566
g1064
asbasbasbag57
(g73
g59
NtRp2567
(dp2568
g62
(dp2569
sg71
g2521
sg64
(lp2570
g57
(g78
g59
NtRp2571
(dp2572
g62
(dp2573
g82
g83
ssg71
g2567
sg64
(lp2574
S'HTTP_ACCEPT_ENCODING'
p2575
asbag57
(g78
g59
NtRp2576
(dp2577
g62
(dp2578
g89
g90
ssg71
g2567
sg64
(lp2579
S':'
asbag57
(g78
g59
NtRp2580
(dp2581
g62
(dp2582
sg71
g2567
sg64
(lp2583
g57
(g58
g59
NtRp2584
(dp2585
g62
(dp2586
g70
I3
ssg71
g2580
sg64
(lp2587
g1086
asbasbasbag57
(g73
g59
NtRp2588
(dp2589
g62
(dp2590
sg71
g2521
sg64
(lp2591
g57
(g78
g59
NtRp2592
(dp2593
g62
(dp2594
g82
g83
ssg71
g2588
sg64
(lp2595
S'HTTP_ACCEPT_LANGUAGE'
p2596
asbag57
(g78
g59
NtRp2597
(dp2598
g62
(dp2599
g89
g90
ssg71
g2588
sg64
(lp2600
S':'
asbag57
(g78
g59
NtRp2601
(dp2602
g62
(dp2603
sg71
g2588
sg64
(lp2604
g57
(g58
g59
NtRp2605
(dp2606
g62
(dp2607
g70
I3
ssg71
g2601
sg64
(lp2608
g1108
asbasbasbag57
(g73
g59
NtRp2609
(dp2610
g62
(dp2611
sg71
g2521
sg64
(lp2612
g57
(g78
g59
NtRp2613
(dp2614
g62
(dp2615
g82
g83
ssg71
g2609
sg64
(lp2616
S'HTTP_CONNECTION'
p2617
asbag57
(g78
g59
NtRp2618
(dp2619
g62
(dp2620
g89
g90
ssg71
g2609
sg64
(lp2621
S':'
asbag57
(g78
g59
NtRp2622
(dp2623
g62
(dp2624
sg71
g2609
sg64
(lp2625
g57
(g58
g59
NtRp2626
(dp2627
g62
(dp2628
g70
I3
ssg71
g2622
sg64
(lp2629
g1130
asbasbasbag57
(g73
g59
NtRp2630
(dp2631
g62
(dp2632
sg71
g2521
sg64
(lp2633
g57
(g78
g59
NtRp2634
(dp2635
g62
(dp2636
g82
g83
ssg71
g2630
sg64
(lp2637
S'HTTP_COOKIE'
p2638
asbag57
(g78
g59
NtRp2639
(dp2640
g62
(dp2641
g89
g90
ssg71
g2630
sg64
(lp2642
S':'
asbag57
(g78
g59
NtRp2643
(dp2644
g62
(dp2645
sg71
g2630
sg64
(lp2646
g57
(g58
g59
NtRp2647
(dp2648
g62
(dp2649
g70
I3
ssg71
g2643
sg64
(lp2650
g1152
asbasbasbag57
(g73
g59
NtRp2651
(dp2652
g62
(dp2653
sg71
g2521
sg64
(lp2654
g57
(g78
g59
NtRp2655
(dp2656
g62
(dp2657
g82
g83
ssg71
g2651
sg64
(lp2658
S'HTTP_HOST'
p2659
asbag57
(g78
g59
NtRp2660
(dp2661
g62
(dp2662
g89
g90
ssg71
g2651
sg64
(lp2663
S':'
asbag57
(g78
g59
NtRp2664
(dp2665
g62
(dp2666
sg71
g2651
sg64
(lp2667
g57
(g58
g59
NtRp2668
(dp2669
g62
(dp2670
g70
I3
ssg71
g2664
sg64
(lp2671
g1174
asbasbasbag57
(g73
g59
NtRp2672
(dp2673
g62
(dp2674
sg71
g2521
sg64
(lp2675
g57
(g78
g59
NtRp2676
(dp2677
g62
(dp2678
g82
g83
ssg71
g2672
sg64
(lp2679
S'HTTP_USER_AGENT'
p2680
asbag57
(g78
g59
NtRp2681
(dp2682
g62
(dp2683
g89
g90
ssg71
g2672
sg64
(lp2684
S':'
asbag57
(g78
g59
NtRp2685
(dp2686
g62
(dp2687
sg71
g2672
sg64
(lp2688
g57
(g58
g59
NtRp2689
(dp2690
g62
(dp2691
g70
I3
ssg71
g2685
sg64
(lp2692
g1196
asbasbasbag57
(g73
g59
NtRp2693
(dp2694
g62
(dp2695
sg71
g2521
sg64
(lp2696
g57
(g78
g59
NtRp2697
(dp2698
g62
(dp2699
g82
g83
ssg71
g2693
sg64
(lp2700
S'PATH_INFO'
p2701
asbag57
(g78
g59
NtRp2702
(dp2703
g62
(dp2704
g89
g90
ssg71
g2693
sg64
(lp2705
S':'
asbag57
(g78
g59
NtRp2706
(dp2707
g62
(dp2708
sg71
g2693
sg64
(lp2709
g57
(g58
g59
NtRp2710
(dp2711
g62
(dp2712
g70
I3
ssg71
g2706
sg64
(lp2713
g1260
asbasbasbag57
(g73
g59
NtRp2714
(dp2715
g62
(dp2716
sg71
g2521
sg64
(lp2717
g57
(g78
g59
NtRp2718
(dp2719
g62
(dp2720
g82
g83
ssg71
g2714
sg64
(lp2721
S'QUERY_STRING'
p2722
asbag57
(g78
g59
NtRp2723
(dp2724
g62
(dp2725
g89
g90
ssg71
g2714
sg64
(lp2726
S':'
asbag57
(g78
g59
NtRp2727
(dp2728
g62
(dp2729
sg71
g2714
sg64
(lp2730
g57
(g58
g59
NtRp2731
(dp2732
g62
(dp2733
g70
I3
ssg71
g2727
sg64
(lp2734
g1282
asbasbasbag57
(g73
g59
NtRp2735
(dp2736
g62
(dp2737
sg71
g2521
sg64
(lp2738
g57
(g78
g59
NtRp2739
(dp2740
g62
(dp2741
g82
g83
ssg71
g2735
sg64
(lp2742
S'REMOTE_ADDR'
p2743
asbag57
(g78
g59
NtRp2744
(dp2745
g62
(dp2746
g89
g90
ssg71
g2735
sg64
(lp2747
S':'
asbag57
(g78
g59
NtRp2748
(dp2749
g62
(dp2750
sg71
g2735
sg64
(lp2751
g57
(g58
g59
NtRp2752
(dp2753
g62
(dp2754
g70
I3
ssg71
g2748
sg64
(lp2755
g216
asbasbasbag57
(g73
g59
NtRp2756
(dp2757
g62
(dp2758
sg71
g2521
sg64
(lp2759
g57
(g78
g59
NtRp2760
(dp2761
g62
(dp2762
g82
g83
ssg71
g2756
sg64
(lp2763
S'REMOTE_PORT'
p2764
asbag57
(g78
g59
NtRp2765
(dp2766
g62
(dp2767
g89
g90
ssg71
g2756
sg64
(lp2768
S':'
asbag57
(g78
g59
NtRp2769
(dp2770
g62
(dp2771
sg71
g2756
sg64
(lp2772
g57
(g58
g59
NtRp2773
(dp2774
g62
(dp2775
g70
I3
ssg71
g2769
sg64
(lp2776
g1325
asbasbasbag57
(g73
g59
NtRp2777
(dp2778
g62
(dp2779
sg71
g2521
sg64
(lp2780
g57
(g78
g59
NtRp2781
(dp2782
g62
(dp2783
g82
g83
ssg71
g2777
sg64
(lp2784
S'REQUEST_METHOD'
p2785
asbag57
(g78
g59
NtRp2786
(dp2787
g62
(dp2788
g89
g90
ssg71
g2777
sg64
(lp2789
S':'
asbag57
(g78
g59
NtRp2790
(dp2791
g62
(dp2792
sg71
g2777
sg64
(lp2793
g57
(g58
g59
NtRp2794
(dp2795
g62
(dp2796
g70
I3
ssg71
g2790
sg64
(lp2797
g1347
asbasbasbag57
(g73
g59
NtRp2798
(dp2799
g62
(dp2800
sg71
g2521
sg64
(lp2801
g57
(g78
g59
NtRp2802
(dp2803
g62
(dp2804
g82
g83
ssg71
g2798
sg64
(lp2805
S'SCRIPT_NAME'
p2806
asbag57
(g78
g59
NtRp2807
(dp2808
g62
(dp2809
g89
g90
ssg71
g2798
sg64
(lp2810
S':'
asbag57
(g78
g59
NtRp2811
(dp2812
g62
(dp2813
sg71
g2798
sg64
(lp2814
g57
(g58
g59
NtRp2815
(dp2816
g62
(dp2817
g70
I3
ssg71
g2811
sg64
(lp2818
S''
asbasbasbag57
(g73
g59
NtRp2819
(dp2820
g62
(dp2821
sg71
g2521
sg64
(lp2822
g57
(g78
g59
NtRp2823
(dp2824
g62
(dp2825
g82
g83
ssg71
g2819
sg64
(lp2826
S'SERVER_NAME'
p2827
asbag57
(g78
g59
NtRp2828
(dp2829
g62
(dp2830
g89
g90
ssg71
g2819
sg64
(lp2831
S':'
asbag57
(g78
g59
NtRp2832
(dp2833
g62
(dp2834
sg71
g2819
sg64
(lp2835
g57
(g58
g59
NtRp2836
(dp2837
g62
(dp2838
g70
I3
ssg71
g2832
sg64
(lp2839
g1390
asbasbasbag57
(g73
g59
NtRp2840
(dp2841
g62
(dp2842
sg71
g2521
sg64
(lp2843
g57
(g78
g59
NtRp2844
(dp2845
g62
(dp2846
g82
g83
ssg71
g2840
sg64
(lp2847
S'SERVER_PORT'
p2848
asbag57
(g78
g59
NtRp2849
(dp2850
g62
(dp2851
g89
g90
ssg71
g2840
sg64
(lp2852
S':'
asbag57
(g78
g59
NtRp2853
(dp2854
g62
(dp2855
sg71
g2840
sg64
(lp2856
g57
(g58
g59
NtRp2857
(dp2858
g62
(dp2859
g70
I3
ssg71
g2853
sg64
(lp2860
g1412
asbasbasbag57
(g73
g59
NtRp2861
(dp2862
g62
(dp2863
sg71
g2521
sg64
(lp2864
g57
(g78
g59
NtRp2865
(dp2866
g62
(dp2867
g82
g83
ssg71
g2861
sg64
(lp2868
S'SERVER_PROTOCOL'
p2869
asbag57
(g78
g59
NtRp2870
(dp2871
g62
(dp2872
g89
g90
ssg71
g2861
sg64
(lp2873
S':'
asbag57
(g78
g59
NtRp2874
(dp2875
g62
(dp2876
sg71
g2861
sg64
(lp2877
g57
(g58
g59
NtRp2878
(dp2879
g62
(dp2880
g70
I3
ssg71
g2874
sg64
(lp2881
g1434
asbasbasbag57
(g73
g59
NtRp2882
(dp2883
g62
(dp2884
sg71
g2521
sg64
(lp2885
g57
(g78
g59
NtRp2886
(dp2887
g62
(dp2888
g82
g83
ssg71
g2882
sg64
(lp2889
S'SERVER_SOFTWARE'
p2890
asbag57
(g78
g59
NtRp2891
(dp2892
g62
(dp2893
g89
g90
ssg71
g2882
sg64
(lp2894
S':'
asbag57
(g78
g59
NtRp2895
(dp2896
g62
(dp2897
sg71
g2882
sg64
(lp2898
g57
(g58
g59
NtRp2899
(dp2900
g62
(dp2901
g70
I3
ssg71
g2895
sg64
(lp2902
g1456
asbasbasbag57
(g73
g59
NtRp2903
(dp2904
g62
(dp2905
sg71
g2521
sg64
(lp2906
g57
(g78
g59
NtRp2907
(dp2908
g62
(dp2909
g82
g83
ssg71
g2903
sg64
(lp2910
S'wsgi.errors'
p2911
asbag57
(g78
g59
NtRp2912
(dp2913
g62
(dp2914
g89
g90
ssg71
g2903
sg64
(lp2915
S':'
asbag57
(g78
g59
NtRp2916
(dp2917
g62
(dp2918
sg71
g2903
sg64
(lp2919
g57
(g58
g59
NtRp2920
(dp2921
g62
(dp2922
g70
I3
ssg71
g2916
sg64
(lp2923
S"<open file '<stderr>', mode 'w' at 0x0000000001D0E1E0>"
p2924
asbasbasbag57
(g73
g59
NtRp2925
(dp2926
g62
(dp2927
sg71
g2521
sg64
(lp2928
g57
(g78
g59
NtRp2929
(dp2930
g62
(dp2931
g82
g83
ssg71
g2925
sg64
(lp2932
S'wsgi.file_wrapper'
p2933
asbag57
(g78
g59
NtRp2934
(dp2935
g62
(dp2936
g89
g90
ssg71
g2925
sg64
(lp2937
S':'
asbag57
(g78
g59
NtRp2938
(dp2939
g62
(dp2940
sg71
g2925
sg64
(lp2941
g57
(g58
g59
NtRp2942
(dp2943
g62
(dp2944
g70
I3
ssg71
g2938
sg64
(lp2945
S'<class wsgiref.util.FileWrapper at 0x00000000037FCAC8>'
p2946
asbasbasbag57
(g73
g59
NtRp2947
(dp2948
g62
(dp2949
sg71
g2521
sg64
(lp2950
g57
(g78
g59
NtRp2951
(dp2952
g62
(dp2953
g82
g83
ssg71
g2947
sg64
(lp2954
S'wsgi.input'
p2955
asbag57
(g78
g59
NtRp2956
(dp2957
g62
(dp2958
g89
g90
ssg71
g2947
sg64
(lp2959
S':'
asbag57
(g78
g59
NtRp2960
(dp2961
g62
(dp2962
sg71
g2947
sg64
(lp2963
g57
(g58
g59
NtRp2964
(dp2965
g62
(dp2966
g70
I3
ssg71
g2960
sg64
(lp2967
S'<cStringIO.StringO object at 0x00000000090DF538>'
p2968
asbasbasbag57
(g73
g59
NtRp2969
(dp2970
g62
(dp2971
sg71
g2521
sg64
(lp2972
g57
(g78
g59
NtRp2973
(dp2974
g62
(dp2975
g82
g83
ssg71
g2969
sg64
(lp2976
S'wsgi.multiprocess'
p2977
asbag57
(g78
g59
NtRp2978
(dp2979
g62
(dp2980
g89
g90
ssg71
g2969
sg64
(lp2981
S':'
asbag57
(g78
g59
NtRp2982
(dp2983
g62
(dp2984
sg71
g2969
sg64
(lp2985
g57
(g58
g59
NtRp2986
(dp2987
g62
(dp2988
g70
I3
ssg71
g2982
sg64
(lp2989
g100
asbasbasbag57
(g73
g59
NtRp2990
(dp2991
g62
(dp2992
sg71
g2521
sg64
(lp2993
g57
(g78
g59
NtRp2994
(dp2995
g62
(dp2996
g82
g83
ssg71
g2990
sg64
(lp2997
S'wsgi.multithread'
p2998
asbag57
(g78
g59
NtRp2999
(dp3000
g62
(dp3001
g89
g90
ssg71
g2990
sg64
(lp3002
S':'
asbag57
(g78
g59
NtRp3003
(dp3004
g62
(dp3005
sg71
g2990
sg64
(lp3006
g57
(g58
g59
NtRp3007
(dp3008
g62
(dp3009
g70
I3
ssg71
g3003
sg64
(lp3010
g1696
asbasbasbag57
(g73
g59
NtRp3011
(dp3012
g62
(dp3013
sg71
g2521
sg64
(lp3014
g57
(g78
g59
NtRp3015
(dp3016
g62
(dp3017
g82
g83
ssg71
g3011
sg64
(lp3018
S'wsgi.run_once'
p3019
asbag57
(g78
g59
NtRp3020
(dp3021
g62
(dp3022
g89
g90
ssg71
g3011
sg64
(lp3023
S':'
asbag57
(g78
g59
NtRp3024
(dp3025
g62
(dp3026
sg71
g3011
sg64
(lp3027
g57
(g58
g59
NtRp3028
(dp3029
g62
(dp3030
g70
I3
ssg71
g3024
sg64
(lp3031
g100
asbasbasbag57
(g73
g59
NtRp3032
(dp3033
g62
(dp3034
sg71
g2521
sg64
(lp3035
g57
(g78
g59
NtRp3036
(dp3037
g62
(dp3038
g82
g83
ssg71
g3032
sg64
(lp3039
S'wsgi.url_scheme'
p3040
asbag57
(g78
g59
NtRp3041
(dp3042
g62
(dp3043
g89
g90
ssg71
g3032
sg64
(lp3044
S':'
asbag57
(g78
g59
NtRp3045
(dp3046
g62
(dp3047
sg71
g3032
sg64
(lp3048
g57
(g58
g59
NtRp3049
(dp3050
g62
(dp3051
g70
I3
ssg71
g3045
sg64
(lp3052
g1739
asbasbasbag57
(g73
g59
NtRp3053
(dp3054
g62
(dp3055
sg71
g2521
sg64
(lp3056
g57
(g78
g59
NtRp3057
(dp3058
g62
(dp3059
g82
g83
ssg71
g3053
sg64
(lp3060
S'wsgi.version'
p3061
asbag57
(g78
g59
NtRp3062
(dp3063
g62
(dp3064
g89
g90
ssg71
g3053
sg64
(lp3065
S':'
asbag57
(g78
g59
NtRp3066
(dp3067
g62
(dp3068
sg71
g3053
sg64
(lp3069
g57
(g58
g59
NtRp3070
(dp3071
g62
(dp3072
g70
I3
ssg71
g3066
sg64
(lp3073
S'1'
asbasbasbasbasbasbasbasbasbasbasbasbasbsS'frames'
p3074
(lp3075
(dp3076
S'file'
p3077
S'D:\\workspace\\CA\\IgoR\\C_Sources\\Server\\igor-assistant-ca-2012\\gluon\\restricted.py'
p3078
sS'dump'
p3079
(dp3080
S'environment'
p3081
S"{'A': <class 'gluon.html.A'>, 'Auth': <class 'gluon.tools.Auth'>, 'B': <class 'gluon.html.B'>, 'BEAUTIFY': <class 'gluon.html.BEAUTIFY'>, 'BODY': <class 'gluon.html.BODY'>, 'BR': <class 'gluon.html.BR'>, 'BUTTON': <class 'gluon.html.BUTTON'>, 'CAT': <class 'gluon.html.CAT'>, 'CENTER': <class 'gluon.html.CENTER'>, 'CLEANUP': <class 'gluon.validators.CLEANUP'>, ...}"
p3082
sS'ccode'
p3083
S'<code object <module> at 00000000090C04B0, file ...2\\applications\\igor\\controllers/user.py", line 9>'
p3084
ssS'lnum'
p3085
I205
sS'lines'
p3086
(dp3087
I200
S'    try:'
p3088
sI201
S'        if type(code) == types.CodeType:'
p3089
sI202
S'            ccode = code'
p3090
sI203
S'        else:'
p3091
sI204
S'            ccode = compile2(code,layer)'
p3092
sI205
S'        exec ccode in environment'
p3093
sI206
S'    except HTTP:'
p3094
sI207
S'        raise'
p3095
sI208
S'    except RestrictedError:'
p3096
sI209
S'        # do not encapsulate (obfuscate) the original RestrictedError'
p3097
ssS'call'
p3098
S"(code='# -*- coding: utf-8 -*-\\n# this file is released ...lient_data\\nresponse._vars=response._caller(call)\\n', environment={'A': <class 'gluon.html.A'>, 'Auth': <class 'gluon.tools.Auth'>, 'B': <class 'gluon.html.B'>, 'BEAUTIFY': <class 'gluon.html.BEAUTIFY'>, 'BODY': <class 'gluon.html.BODY'>, 'BR': <class 'gluon.html.BR'>, 'BUTTON': <class 'gluon.html.BUTTON'>, 'CAT': <class 'gluon.html.CAT'>, 'CENTER': <class 'gluon.html.CENTER'>, 'CLEANUP': <class 'gluon.validators.CLEANUP'>, ...}, layer=r'D:\\workspace\\CA\\IgoR\\C_Sources\\Server\\igor-assistant-ca-2012\\applications\\igor\\controllers/user.py')"
p3099
sS'func'
p3100
S'restricted'
p3101
sa(dp3102
g3077
S'D:\\workspace\\CA\\IgoR\\C_Sources\\Server\\igor-assistant-ca-2012\\applications\\igor\\controllers\\user.py'
p3103
sg3079
(dp3104
sg3085
I125
sg3086
(dp3105
I115
S'\t\t\t\tavatar    = user.avatar,'
p3106
sI116
S'\t\t\t\tstudentid = user.student_code,'
p3107
sI117
S'\t\t\t\temail     = auth.email,'
p3108
sI118
S'\t\t\t\tgroup     = user.class_group,'
p3109
sI119
S'\t\t\t\tcourse    = user.user_course'
p3110
sI120
S'\t\t\t\t)'
p3111
sI121
S''
sI122
S'\t\tclient_data.append (client)'
p3112
sI123
S''
sI124
S'\treturn client_data'
p3113
ssg3098
S'()'
p3114
sg3100
S'<module>'
p3115
sa(dp3116
g3077
S'D:\\workspace\\CA\\IgoR\\C_Sources\\Server\\igor-assistant-ca-2012\\gluon\\globals.py'
p3117
sg3079
(dp3118
S'self'
p3119
S'undefined'
p3120
sS'f'
S'<function call>'
p3121
ssg3085
I173
sg3086
(dp3122
I168
S'        self.menu = []             # used by the default view layout'
p3123
sI169
S'        self.files = []            # used by web2py_ajax.html'
p3124
sI170
S'        self.generic_patterns = [] # patterns to allow generic views'
p3125
sI171
S"        self.delimiters = ('{{','}}')"
p3126
sI172
S'        self._vars = None'
p3127
sI173
S'        self._caller = lambda f: f()'
p3128
sI174
S'        self._view_environment = None'
p3129
sI175
S'        self._custom_commit = None'
p3130
sI176
S'        self._custom_rollback = None'
p3131
sI177
S''
ssg3098
S'(f=<function call>)'
p3132
sg3100
S'<lambda>'
p3133
sa(dp3134
g3077
S'D:\\workspace\\CA\\IgoR\\C_Sources\\Server\\igor-assistant-ca-2012\\applications\\igor\\controllers\\user.py'
p3135
sg3079
(dp3136
S'global service'
p3137
S'<gluon.tools.Service object>'
p3138
ssg3085
I20
sg3086
(dp3139
I15
S''
sI16
S''
sI17
S'def call():'
p3140
sI18
S'\tsession.forget()'
p3141
sI19
S''
sI20
S'\treturn service()'
p3142
sI21
S''
sI22
S'# Registration new user'
p3143
sI23
S'@request.restful()'
p3144
sI24
S'def register():'
p3145
ssg3098
S'()'
p3146
sg3100
g3098
sa(dp3147
g3077
S'D:\\workspace\\CA\\IgoR\\C_Sources\\Server\\igor-assistant-ca-2012\\gluon\\tools.py'
p3148
sg3079
(dp3149
S'request.args'
p3150
S"['json', 'check_email_available']"
p3151
sS'self.serve_json'
p3152
S'<bound method Service.serve_json of <gluon.tools.Service object>>'
p3153
sS'self'
p3154
S'<gluon.tools.Service object>'
p3155
sS'request'
p3156
S"<Storage {'body': <cStringIO.StringO object at 0...'phucnh@gmail.com'}>, 'post_vars': <Storage {}>}>"
p3157
ssg3085
I4015
sg3086
(dp3158
I4010
S"        elif arg0 == 'csv':"
p3159
sI4011
S'            return self.serve_csv(request.args[1:])'
p3160
sI4012
S"        elif arg0 == 'xml':"
p3161
sI4013
S'            return self.serve_xml(request.args[1:])'
p3162
sI4014
S"        elif arg0 == 'json':"
p3163
sI4015
S'            return self.serve_json(request.args[1:])'
p3164
sI4016
S'        # phucnh add 20120730'
p3165
sI4017
S"        elif arg0 == 'jsonp':"
p3166
sI4018
S'            return self.serve_jsonp(request.args[1:])'
p3167
sI4019
S'        # end phucnh add 20120730'
p3168
ssg3098
S'(self=<gluon.tools.Service object>)'
p3169
sg3100
S'__call__'
p3170
sa(dp3171
g3077
S'D:\\workspace\\CA\\IgoR\\C_Sources\\Server\\igor-assistant-ca-2012\\gluon\\tools.py'
p3172
sg3079
(dp3173
S'args'
p3174
S"['check_email_available']"
p3175
sS'd'
S"{'email': 'phucnh@gmail.com'}"
p3176
sS'self'
p3177
S'<gluon.tools.Service object>'
p3178
sS'global universal_caller'
p3179
S'<function universal_caller>'
p3180
sS'self.json_procedures'
p3181
S"{'check_email_available': <function check_email_available>, 'get_user_detail': <function get_user_detail>, 'login': <function login>, 'search_user': <function search_user>}"
p3182
sS's'
g3120
ssg3085
I3808
sg3086
(dp3183
I3808
S'            s = universal_caller(self.json_procedures[args[0]],*args[1:],**d)'
p3184
sI3809
S"            if hasattr(s, 'as_list'):"
p3185
sI3810
S'                s = s.as_list()'
p3186
sI3811
S'            return response.json(s)'
p3187
sI3812
S'        self.error()'
p3188
sI3803
S"        response.headers['Content-Type'] = 'application/json; charset=utf-8'"
p3189
sI3804
S'        if not args:'
p3190
sI3805
S'            args = request.args'
p3191
sI3806
S'        d = dict(request.vars)'
p3192
sI3807
S'        if args and args[0] in self.json_procedures:'
p3193
ssg3098
S"(self=<gluon.tools.Service object>, args=['check_email_available'])"
p3194
sg3100
S'serve_json'
p3195
sa(dp3196
g3077
S'D:\\workspace\\CA\\IgoR\\C_Sources\\Server\\igor-assistant-ca-2012\\gluon\\tools.py'
p3197
sg3079
(dp3198
S'arg_dict'
p3199
S"{'email': 'phucnh@gmail.com'}"
p3200
sS'f'
S'<function check_email_available>'
p3201
ssg3085
I3490
sg3086
(dp3202
I3488
S'                arg_dict[arg_name] = b[arg_name]'
p3203
sI3489
S''
sI3490
S'        return f(**arg_dict)'
p3204
sI3491
S''
sI3492
S'    # Raise an error, the function cannot be called.'
p3205
sI3493
S'    raise HTTP(404, "Object does not exist")'
p3206
sI3494
S''
sI3485
S'        # However, we need to update the arg_dict with the values from the named arguments as well.'
p3207
sI3486
S'        for arg_name in named_args:'
p3208
sI3487
S'            if b.has_key(arg_name):'
p3209
ssg3098
S"(f=<function check_email_available>, *a=(), **b={'email': 'phucnh@gmail.com'})"
p3210
sg3100
S'universal_caller'
p3211
sa(dp3212
g3077
S'D:\\workspace\\CA\\IgoR\\C_Sources\\Server\\igor-assistant-ca-2012\\applications\\igor\\controllers\\user.py'
p3213
sg3079
(dp3214
S'global login'
p3215
S'None'
p3216
sS'password'
p3217
g3120
sS'email'
p3218
S"'phucnh@gmail.com'"
p3219
ssg3085
I35
sg3086
(dp3220
I32
S'@service.json'
p3221
sI33
S'def check_email_available(email):'
p3222
sI34
S''
sI35
S'\tif (db(db.auth.email == email).isempty()):'
p3223
sI36
S'\t\treturn MessagePackager.get_packaged_message (MessageStatus.OK,'
p3224
sI37
S'\t\t\t"1")'
p3225
sI38
S'\telse:'
p3226
sI39
S'\t\treturn MessagePackager.get_packaged_message (MessageStatus.OK,'
p3227
sI30
S''
sI31
S'@service.jsonp'
p3228
ssg3098
S"(email='phucnh@gmail.com')"
p3229
sg3100
S'check_email_available'
p3230
sa(dp3231
g3077
S'D:\\workspace\\CA\\IgoR\\C_Sources\\Server\\igor-assistant-ca-2012\\gluon\\dal.py'
p3232
sg3079
(dp3233
S'self'
p3234
S"<DAL {'auth_event': <Table {'origin': <gluon.dal...gluon.dal.Field object at 0x00000000090DF0F0>}>}>"
p3235
sS'key'
p3236
S"'auth'"
p3237
ssg3085
I6343
sg3086
(dp3238
I6338
S''
sI6339
S'    def __setitem__(self, key, value):'
p3239
sI6340
S'        dict.__setitem__(self, str(key), value)'
p3240
sI6341
S''
sI6342
S'    def __getattr__(self, key):'
p3241
sI6343
S'        return self[key]'
p3242
sI6344
S''
sI6345
S'    def __setattr__(self, key, value):'
p3243
sI6346
S"        if key[:1]!='_' and key in self:"
p3244
sI6347
S'            raise SyntaxError, \\'
p3245
ssg3098
S"(self=<DAL {'auth_event': <Table {'origin': <gluon.dal...gluon.dal.Field object at 0x00000000090DF0F0>}>}>, key='auth')"
p3246
sg3100
S'__getattr__'
p3247
sa(dp3248
g3077
S'D:\\workspace\\CA\\IgoR\\C_Sources\\Server\\igor-assistant-ca-2012\\gluon\\dal.py'
p3249
sg3079
(dp3250
S'builtinstr'
p3251
S"<type 'str'>"
p3252
sS'self'
p3253
S"<DAL {'auth_event': <Table {'origin': <gluon.dal...gluon.dal.Field object at 0x00000000090DF0F0>}>}>"
p3254
sS'dict.__getitem__'
p3255
S"<method '__getitem__' of 'dict' objects>"
p3256
sS'key'
p3257
S"'auth'"
p3258
sS'builtindict'
p3259
S"<type 'dict'>"
p3260
ssg3085
I6337
sg3086
(dp3261
I6336
S'    def __getitem__(self, key):'
p3262
sI6337
S'        return dict.__getitem__(self, str(key))'
p3263
sI6338
S''
sI6339
S'    def __setitem__(self, key, value):'
p3264
sI6340
S'        dict.__setitem__(self, str(key), value)'
p3265
sI6341
S''
sI6332
S'    def __iter__(self):'
p3266
sI6333
S'        for tablename in self.tables:'
p3267
sI6334
S'            yield self[tablename]'
p3268
sI6335
S''
ssg3098
S"(self=<DAL {'auth_event': <Table {'origin': <gluon.dal...gluon.dal.Field object at 0x00000000090DF0F0>}>}>, key='auth')"
p3269
sg3100
g20
sasS'pyver'
p3270
S'Python 2.7.3: C:\\Python27\\python.exe'
p3271
sS'session'
p3272
g57
(g58
g59
NtRp3273
(dp3274
g62
(dp3275
sg64
(lp3276
g57
(g66
g59
NtRp3277
(dp3278
g62
(dp3279
g70
I5
ssg71
Nsg64
(lp3280
sbasbsS'etype'
p3281
S"<type 'exceptions.KeyError'>"
p3282
sS'date'
p3283
S'Tue Jul 31 11:20:40 2012'
p3284
sS'response'
p3285
g57
(g58
g59
NtRp3286
(dp3287
g62
(dp3288
sg64
(lp3289
g57
(g66
g59
NtRp3290
(dp3291
g62
(dp3292
g70
I5
ssg71
Nsg64
(lp3293
g57
(g73
g59
NtRp3294
(dp3295
g62
(dp3296
sg71
g3290
sg64
(lp3297
g57
(g78
g59
NtRp3298
(dp3299
g62
(dp3300
g82
g83
ssg71
g3294
sg64
(lp3301
g181
asbag57
(g78
g59
NtRp3302
(dp3303
g62
(dp3304
g89
g90
ssg71
g3294
sg64
(lp3305
S':'
asbag57
(g78
g59
NtRp3306
(dp3307
g62
(dp3308
sg71
g3294
sg64
(lp3309
g57
(g58
g59
NtRp3310
(dp3311
g62
(dp3312
g70
I5
ssg71
g3306
sg64
(lp3313
S'<cStringIO.StringO object at 0x00000000056F3688>'
p3314
asbasbasbag57
(g73
g59
NtRp3315
(dp3316
g62
(dp3317
sg71
g3290
sg64
(lp3318
g57
(g78
g59
NtRp3319
(dp3320
g62
(dp3321
g82
g83
ssg71
g3315
sg64
(lp3322
g247
asbag57
(g78
g59
NtRp3323
(dp3324
g62
(dp3325
g89
g90
ssg71
g3315
sg64
(lp3326
S':'
asbag57
(g78
g59
NtRp3327
(dp3328
g62
(dp3329
sg71
g3315
sg64
(lp3330
g57
(g58
g59
NtRp3331
(dp3332
g62
(dp3333
g70
I5
ssg71
g3327
sg64
(lp3334
g57
(g66
g59
NtRp3335
(dp3336
g62
(dp3337
g70
I4
ssg71
Nsg64
(lp3338
g57
(g73
g59
NtRp3339
(dp3340
g62
(dp3341
sg71
g3335
sg64
(lp3342
g57
(g78
g59
NtRp3343
(dp3344
g62
(dp3345
g82
g83
ssg71
g3339
sg64
(lp3346
S'session_id_igor'
p3347
asbag57
(g78
g59
NtRp3348
(dp3349
g62
(dp3350
g89
g90
ssg71
g3339
sg64
(lp3351
S':'
asbag57
(g78
g59
NtRp3352
(dp3353
g62
(dp3354
sg71
g3339
sg64
(lp3355
g57
(g58
g59
NtRp3356
(dp3357
g62
(dp3358
g70
I4
ssg71
g3352
sg64
(lp3359
g57
(g66
g59
NtRp3360
(dp3361
g62
(dp3362
g70
I3
ssg71
Nsg64
(lp3363
g57
(g73
g59
NtRp3364
(dp3365
g62
(dp3366
sg71
g3360
sg64
(lp3367
g57
(g78
g59
NtRp3368
(dp3369
g62
(dp3370
g82
g83
ssg71
g3364
sg64
(lp3371
g297
asbag57
(g78
g59
NtRp3372
(dp3373
g62
(dp3374
g89
g90
ssg71
g3364
sg64
(lp3375
S':'
asbag57
(g78
g59
NtRp3376
(dp3377
g62
(dp3378
sg71
g3364
sg64
(lp3379
g57
(g58
g59
NtRp3380
(dp3381
g62
(dp3382
g70
I3
ssg71
g3376
sg64
(lp3383
S''
asbasbasbag57
(g73
g59
NtRp3384
(dp3385
g62
(dp3386
sg71
g3360
sg64
(lp3387
g57
(g78
g59
NtRp3388
(dp3389
g62
(dp3390
g82
g83
ssg71
g3384
sg64
(lp3391
g318
asbag57
(g78
g59
NtRp3392
(dp3393
g62
(dp3394
g89
g90
ssg71
g3384
sg64
(lp3395
S':'
asbag57
(g78
g59
NtRp3396
(dp3397
g62
(dp3398
sg71
g3384
sg64
(lp3399
g57
(g58
g59
NtRp3400
(dp3401
g62
(dp3402
g70
I3
ssg71
g3396
sg64
(lp3403
S''
asbasbasbag57
(g73
g59
NtRp3404
(dp3405
g62
(dp3406
sg71
g3360
sg64
(lp3407
g57
(g78
g59
NtRp3408
(dp3409
g62
(dp3410
g82
g83
ssg71
g3404
sg64
(lp3411
g339
asbag57
(g78
g59
NtRp3412
(dp3413
g62
(dp3414
g89
g90
ssg71
g3404
sg64
(lp3415
S':'
asbag57
(g78
g59
NtRp3416
(dp3417
g62
(dp3418
sg71
g3404
sg64
(lp3419
g57
(g58
g59
NtRp3420
(dp3421
g62
(dp3422
g70
I3
ssg71
g3416
sg64
(lp3423
S''
asbasbasbag57
(g73
g59
NtRp3424
(dp3425
g62
(dp3426
sg71
g3360
sg64
(lp3427
g57
(g78
g59
NtRp3428
(dp3429
g62
(dp3430
g82
g83
ssg71
g3424
sg64
(lp3431
g360
asbag57
(g78
g59
NtRp3432
(dp3433
g62
(dp3434
g89
g90
ssg71
g3424
sg64
(lp3435
S':'
asbag57
(g78
g59
NtRp3436
(dp3437
g62
(dp3438
sg71
g3424
sg64
(lp3439
g57
(g58
g59
NtRp3440
(dp3441
g62
(dp3442
g70
I3
ssg71
g3436
sg64
(lp3443
S''
asbasbasbag57
(g73
g59
NtRp3444
(dp3445
g62
(dp3446
sg71
g3360
sg64
(lp3447
g57
(g78
g59
NtRp3448
(dp3449
g62
(dp3450
g82
g83
ssg71
g3444
sg64
(lp3451
g381
asbag57
(g78
g59
NtRp3452
(dp3453
g62
(dp3454
g89
g90
ssg71
g3444
sg64
(lp3455
S':'
asbag57
(g78
g59
NtRp3456
(dp3457
g62
(dp3458
sg71
g3444
sg64
(lp3459
g57
(g58
g59
NtRp3460
(dp3461
g62
(dp3462
g70
I3
ssg71
g3456
sg64
(lp3463
S''
asbasbasbag57
(g73
g59
NtRp3464
(dp3465
g62
(dp3466
sg71
g3360
sg64
(lp3467
g57
(g78
g59
NtRp3468
(dp3469
g62
(dp3470
g82
g83
ssg71
g3464
sg64
(lp3471
g402
asbag57
(g78
g59
NtRp3472
(dp3473
g62
(dp3474
g89
g90
ssg71
g3464
sg64
(lp3475
S':'
asbag57
(g78
g59
NtRp3476
(dp3477
g62
(dp3478
sg71
g3464
sg64
(lp3479
g57
(g58
g59
NtRp3480
(dp3481
g62
(dp3482
g70
I3
ssg71
g3476
sg64
(lp3483
S'/'
asbasbasbag57
(g73
g59
NtRp3484
(dp3485
g62
(dp3486
sg71
g3360
sg64
(lp3487
g57
(g78
g59
NtRp3488
(dp3489
g62
(dp3490
g82
g83
ssg71
g3484
sg64
(lp3491
g423
asbag57
(g78
g59
NtRp3492
(dp3493
g62
(dp3494
g89
g90
ssg71
g3484
sg64
(lp3495
S':'
asbag57
(g78
g59
NtRp3496
(dp3497
g62
(dp3498
sg71
g3484
sg64
(lp3499
g57
(g58
g59
NtRp3500
(dp3501
g62
(dp3502
g70
I3
ssg71
g3496
sg64
(lp3503
S''
asbasbasbag57
(g73
g59
NtRp3504
(dp3505
g62
(dp3506
sg71
g3360
sg64
(lp3507
g57
(g78
g59
NtRp3508
(dp3509
g62
(dp3510
g82
g83
ssg71
g3504
sg64
(lp3511
g444
asbag57
(g78
g59
NtRp3512
(dp3513
g62
(dp3514
g89
g90
ssg71
g3504
sg64
(lp3515
S':'
asbag57
(g78
g59
NtRp3516
(dp3517
g62
(dp3518
sg71
g3504
sg64
(lp3519
g57
(g58
g59
NtRp3520
(dp3521
g62
(dp3522
g70
I3
ssg71
g3516
sg64
(lp3523
S''
asbasbasbasbasbasbasbasbasbasbasbag57
(g73
g59
NtRp3524
(dp3525
g62
(dp3526
sg71
g3290
sg64
(lp3527
g57
(g78
g59
NtRp3528
(dp3529
g62
(dp3530
g82
g83
ssg71
g3524
sg64
(lp3531
S'delimiters'
p3532
asbag57
(g78
g59
NtRp3533
(dp3534
g62
(dp3535
g89
g90
ssg71
g3524
sg64
(lp3536
S':'
asbag57
(g78
g59
NtRp3537
(dp3538
g62
(dp3539
sg71
g3524
sg64
(lp3540
g57
(g58
g59
NtRp3541
(dp3542
g62
(dp3543
g70
I5
ssg71
g3537
sg64
(lp3544
g57
(g66
g59
NtRp3545
(dp3546
g62
(dp3547
g70
I4
ssg71
Nsg64
(lp3548
g57
(g73
g59
NtRp3549
(dp3550
g62
(dp3551
sg71
g3545
sg64
(lp3552
g57
(g78
g59
NtRp3553
(dp3554
g62
(dp3555
sg71
g3549
sg64
(lp3556
g57
(g58
g59
NtRp3557
(dp3558
g62
(dp3559
g70
I4
ssg71
g3553
sg64
(lp3560
S'{{'
p3561
asbasbasbag57
(g73
g59
NtRp3562
(dp3563
g62
(dp3564
sg71
g3545
sg64
(lp3565
g57
(g78
g59
NtRp3566
(dp3567
g62
(dp3568
sg71
g3562
sg64
(lp3569
g57
(g58
g59
NtRp3570
(dp3571
g62
(dp3572
g70
I4
ssg71
g3566
sg64
(lp3573
S'}}'
p3574
asbasbasbasbasbasbasbag57
(g73
g59
NtRp3575
(dp3576
g62
(dp3577
sg71
g3290
sg64
(lp3578
g57
(g78
g59
NtRp3579
(dp3580
g62
(dp3581
g82
g83
ssg71
g3575
sg64
(lp3582
S'files'
p3583
asbag57
(g78
g59
NtRp3584
(dp3585
g62
(dp3586
g89
g90
ssg71
g3575
sg64
(lp3587
S':'
asbag57
(g78
g59
NtRp3588
(dp3589
g62
(dp3590
sg71
g3575
sg64
(lp3591
g57
(g58
g59
NtRp3592
(dp3593
g62
(dp3594
g70
I5
ssg71
g3588
sg64
(lp3595
g57
(g66
g59
NtRp3596
(dp3597
g62
(dp3598
g70
I4
ssg71
Nsg64
(lp3599
sbasbasbasbag57
(g73
g59
NtRp3600
(dp3601
g62
(dp3602
sg71
g3290
sg64
(lp3603
g57
(g78
g59
NtRp3604
(dp3605
g62
(dp3606
g82
g83
ssg71
g3600
sg64
(lp3607
S'flash'
p3608
asbag57
(g78
g59
NtRp3609
(dp3610
g62
(dp3611
g89
g90
ssg71
g3600
sg64
(lp3612
S':'
asbag57
(g78
g59
NtRp3613
(dp3614
g62
(dp3615
sg71
g3600
sg64
(lp3616
g57
(g58
g59
NtRp3617
(dp3618
g62
(dp3619
g70
I5
ssg71
g3613
sg64
(lp3620
S''
asbasbasbag57
(g73
g59
NtRp3621
(dp3622
g62
(dp3623
sg71
g3290
sg64
(lp3624
g57
(g78
g59
NtRp3625
(dp3626
g62
(dp3627
g82
g83
ssg71
g3621
sg64
(lp3628
S'generic_patterns'
p3629
asbag57
(g78
g59
NtRp3630
(dp3631
g62
(dp3632
g89
g90
ssg71
g3621
sg64
(lp3633
S':'
asbag57
(g78
g59
NtRp3634
(dp3635
g62
(dp3636
sg71
g3621
sg64
(lp3637
g57
(g58
g59
NtRp3638
(dp3639
g62
(dp3640
g70
I5
ssg71
g3634
sg64
(lp3641
g57
(g66
g59
NtRp3642
(dp3643
g62
(dp3644
g70
I4
ssg71
Nsg64
(lp3645
g57
(g73
g59
NtRp3646
(dp3647
g62
(dp3648
sg71
g3642
sg64
(lp3649
g57
(g78
g59
NtRp3650
(dp3651
g62
(dp3652
sg71
g3646
sg64
(lp3653
g57
(g58
g59
NtRp3654
(dp3655
g62
(dp3656
g70
I4
ssg71
g3650
sg64
(lp3657
S'*'
asbasbasbasbasbasbasbag57
(g73
g59
NtRp3658
(dp3659
g62
(dp3660
sg71
g3290
sg64
(lp3661
g57
(g78
g59
NtRp3662
(dp3663
g62
(dp3664
g82
g83
ssg71
g3658
sg64
(lp3665
S'headers'
p3666
asbag57
(g78
g59
NtRp3667
(dp3668
g62
(dp3669
g89
g90
ssg71
g3658
sg64
(lp3670
S':'
asbag57
(g78
g59
NtRp3671
(dp3672
g62
(dp3673
sg71
g3658
sg64
(lp3674
g57
(g58
g59
NtRp3675
(dp3676
g62
(dp3677
g70
I5
ssg71
g3671
sg64
(lp3678
g57
(g66
g59
NtRp3679
(dp3680
g62
(dp3681
g70
I4
ssg71
Nsg64
(lp3682
g57
(g73
g59
NtRp3683
(dp3684
g62
(dp3685
sg71
g3679
sg64
(lp3686
g57
(g78
g59
NtRp3687
(dp3688
g62
(dp3689
g82
g83
ssg71
g3683
sg64
(lp3690
S'Cache-Control'
p3691
asbag57
(g78
g59
NtRp3692
(dp3693
g62
(dp3694
g89
g90
ssg71
g3683
sg64
(lp3695
S':'
asbag57
(g78
g59
NtRp3696
(dp3697
g62
(dp3698
sg71
g3683
sg64
(lp3699
g57
(g58
g59
NtRp3700
(dp3701
g62
(dp3702
g70
I4
ssg71
g3696
sg64
(lp3703
S'no-store, no-cache, must-revalidate, post-check=0, pre-check=0'
p3704
asbasbasbag57
(g73
g59
NtRp3705
(dp3706
g62
(dp3707
sg71
g3679
sg64
(lp3708
g57
(g78
g59
NtRp3709
(dp3710
g62
(dp3711
g82
g83
ssg71
g3705
sg64
(lp3712
S'Content-Type'
p3713
asbag57
(g78
g59
NtRp3714
(dp3715
g62
(dp3716
g89
g90
ssg71
g3705
sg64
(lp3717
S':'
asbag57
(g78
g59
NtRp3718
(dp3719
g62
(dp3720
sg71
g3705
sg64
(lp3721
g57
(g58
g59
NtRp3722
(dp3723
g62
(dp3724
g70
I4
ssg71
g3718
sg64
(lp3725
S'application/json; charset=utf-8'
p3726
asbasbasbag57
(g73
g59
NtRp3727
(dp3728
g62
(dp3729
sg71
g3679
sg64
(lp3730
g57
(g78
g59
NtRp3731
(dp3732
g62
(dp3733
g82
g83
ssg71
g3727
sg64
(lp3734
S'Expires'
p3735
asbag57
(g78
g59
NtRp3736
(dp3737
g62
(dp3738
g89
g90
ssg71
g3727
sg64
(lp3739
S':'
asbag57
(g78
g59
NtRp3740
(dp3741
g62
(dp3742
sg71
g3727
sg64
(lp3743
g57
(g58
g59
NtRp3744
(dp3745
g62
(dp3746
g70
I4
ssg71
g3740
sg64
(lp3747
S'Tue, 31 Jul 2012 04:20:40 GMT'
p3748
asbasbasbag57
(g73
g59
NtRp3749
(dp3750
g62
(dp3751
sg71
g3679
sg64
(lp3752
g57
(g78
g59
NtRp3753
(dp3754
g62
(dp3755
g82
g83
ssg71
g3749
sg64
(lp3756
S'Pragma'
p3757
asbag57
(g78
g59
NtRp3758
(dp3759
g62
(dp3760
g89
g90
ssg71
g3749
sg64
(lp3761
S':'
asbag57
(g78
g59
NtRp3762
(dp3763
g62
(dp3764
sg71
g3749
sg64
(lp3765
g57
(g58
g59
NtRp3766
(dp3767
g62
(dp3768
g70
I4
ssg71
g3762
sg64
(lp3769
S'no-cache'
p3770
asbasbasbag57
(g73
g59
NtRp3771
(dp3772
g62
(dp3773
sg71
g3679
sg64
(lp3774
g57
(g78
g59
NtRp3775
(dp3776
g62
(dp3777
g82
g83
ssg71
g3771
sg64
(lp3778
S'X-Powered-By'
p3779
asbag57
(g78
g59
NtRp3780
(dp3781
g62
(dp3782
g89
g90
ssg71
g3771
sg64
(lp3783
S':'
asbag57
(g78
g59
NtRp3784
(dp3785
g62
(dp3786
sg71
g3771
sg64
(lp3787
g57
(g58
g59
NtRp3788
(dp3789
g62
(dp3790
g70
I4
ssg71
g3784
sg64
(lp3791
S'web2py'
p3792
asbasbasbasbasbasbasbag57
(g73
g59
NtRp3793
(dp3794
g62
(dp3795
sg71
g3290
sg64
(lp3796
g57
(g78
g59
NtRp3797
(dp3798
g62
(dp3799
g82
g83
ssg71
g3793
sg64
(lp3800
S'menu'
p3801
asbag57
(g78
g59
NtRp3802
(dp3803
g62
(dp3804
g89
g90
ssg71
g3793
sg64
(lp3805
S':'
asbag57
(g78
g59
NtRp3806
(dp3807
g62
(dp3808
sg71
g3793
sg64
(lp3809
g57
(g58
g59
NtRp3810
(dp3811
g62
(dp3812
g70
I5
ssg71
g3806
sg64
(lp3813
g57
(g66
g59
NtRp3814
(dp3815
g62
(dp3816
g70
I4
ssg71
Nsg64
(lp3817
g57
(g73
g59
NtRp3818
(dp3819
g62
(dp3820
sg71
g3814
sg64
(lp3821
g57
(g78
g59
NtRp3822
(dp3823
g62
(dp3824
sg71
g3818
sg64
(lp3825
g57
(g58
g59
NtRp3826
(dp3827
g62
(dp3828
g70
I4
ssg71
g3822
sg64
(lp3829
g57
(g66
g59
NtRp3830
(dp3831
g62
(dp3832
g70
I3
ssg71
Nsg64
(lp3833
g57
(g73
g59
NtRp3834
(dp3835
g62
(dp3836
sg71
g3830
sg64
(lp3837
g57
(g78
g59
NtRp3838
(dp3839
g62
(dp3840
sg71
g3834
sg64
(lp3841
g57
(g58
g59
NtRp3842
(dp3843
g62
(dp3844
g70
I3
ssg71
g3838
sg64
(lp3845
cgluon.languages
lazyT_unpickle
p3846
(S't\x04\x00\x00\x00Home'
tRp3847
asbasbasbag57
(g73
g59
NtRp3848
(dp3849
g62
(dp3850
sg71
g3830
sg64
(lp3851
g57
(g78
g59
NtRp3852
(dp3853
g62
(dp3854
sg71
g3848
sg64
(lp3855
g57
(g58
g59
NtRp3856
(dp3857
g62
(dp3858
g70
I3
ssg71
g3852
sg64
(lp3859
g100
asbasbasbag57
(g73
g59
NtRp3860
(dp3861
g62
(dp3862
sg71
g3830
sg64
(lp3863
g57
(g78
g59
NtRp3864
(dp3865
g62
(dp3866
sg71
g3860
sg64
(lp3867
g57
(g58
g59
NtRp3868
(dp3869
g62
(dp3870
g70
I3
ssg71
g3864
sg64
(lp3871
S'/igor/default/index'
p3872
asbasbasbag57
(g73
g59
NtRp3873
(dp3874
g62
(dp3875
sg71
g3830
sg64
(lp3876
g57
(g78
g59
NtRp3877
(dp3878
g62
(dp3879
sg71
g3873
sg64
(lp3880
g57
(g58
g59
NtRp3881
(dp3882
g62
(dp3883
g70
I3
ssg71
g3877
sg64
(lp3884
g57
(g66
g59
NtRp3885
(dp3886
g62
(dp3887
g70
I2
ssg71
Nsg64
(lp3888
sbasbasbasbasbasbasbasbag57
(g73
g59
NtRp3889
(dp3890
g62
(dp3891
sg71
g3814
sg64
(lp3892
g57
(g78
g59
NtRp3893
(dp3894
g62
(dp3895
sg71
g3889
sg64
(lp3896
g57
(g58
g59
NtRp3897
(dp3898
g62
(dp3899
g70
I4
ssg71
g3893
sg64
(lp3900
g57
(g66
g59
NtRp3901
(dp3902
g62
(dp3903
g70
I3
ssg71
Nsg64
(lp3904
g57
(g73
g59
NtRp3905
(dp3906
g62
(dp3907
sg71
g3901
sg64
(lp3908
g57
(g78
g59
NtRp3909
(dp3910
g62
(dp3911
sg71
g3905
sg64
(lp3912
g57
(g58
g59
NtRp3913
(dp3914
g62
(dp3915
g70
I3
ssg71
g3909
sg64
(lp3916
g57
(cgluon.html
SPAN
p3917
g59
NtRp3918
(dp3919
g62
(dp3920
g82
S'color:yellow'
p3921
ssg71
Nsg64
(lp3922
g3792
asbasbasbasbag57
(g73
g59
NtRp3923
(dp3924
g62
(dp3925
sg71
g3901
sg64
(lp3926
g57
(g78
g59
NtRp3927
(dp3928
g62
(dp3929
sg71
g3923
sg64
(lp3930
g57
(g58
g59
NtRp3931
(dp3932
g62
(dp3933
g70
I3
ssg71
g3927
sg64
(lp3934
g100
asbasbasbag57
(g73
g59
NtRp3935
(dp3936
g62
(dp3937
sg71
g3901
sg64
(lp3938
g57
(g78
g59
NtRp3939
(dp3940
g62
(dp3941
sg71
g3935
sg64
(lp3942
g57
(g58
g59
NtRp3943
(dp3944
g62
(dp3945
g70
I3
ssg71
g3939
sg64
(lp3946
S'None'
p3947
asbasbasbag57
(g73
g59
NtRp3948
(dp3949
g62
(dp3950
sg71
g3901
sg64
(lp3951
g57
(g78
g59
NtRp3952
(dp3953
g62
(dp3954
sg71
g3948
sg64
(lp3955
g57
(g58
g59
NtRp3956
(dp3957
g62
(dp3958
g70
I3
ssg71
g3952
sg64
(lp3959
g57
(g66
g59
NtRp3960
(dp3961
g62
(dp3962
g70
I2
ssg71
Nsg64
(lp3963
g57
(g73
g59
NtRp3964
(dp3965
g62
(dp3966
sg71
g3960
sg64
(lp3967
g57
(g78
g59
NtRp3968
(dp3969
g62
(dp3970
sg71
g3964
sg64
(lp3971
g57
(g58
g59
NtRp3972
(dp3973
g62
(dp3974
g70
I2
ssg71
g3968
sg64
(lp3975
g57
(g66
g59
NtRp3976
(dp3977
g62
(dp3978
g70
I1
ssg71
Nsg64
(lp3979
g57
(g73
g59
NtRp3980
(dp3981
g62
(dp3982
sg71
g3976
sg64
(lp3983
g57
(g78
g59
NtRp3984
(dp3985
g62
(dp3986
sg71
g3980
sg64
(lp3987
g57
(g58
g59
NtRp3988
(dp3989
g62
(dp3990
g70
I1
ssg71
g3984
sg64
(lp3991
g3846
(S's\x08\x00\x00\x00My Sites'
tRp3992
asbasbasbag57
(g73
g59
NtRp3993
(dp3994
g62
(dp3995
sg71
g3976
sg64
(lp3996
g57
(g78
g59
NtRp3997
(dp3998
g62
(dp3999
sg71
g3993
sg64
(lp4000
g57
(g58
g59
NtRp4001
(dp4002
g62
(dp4003
g70
I1
ssg71
g3997
sg64
(lp4004
I00
asbasbasbag57
(g73
g59
NtRp4005
(dp4006
g62
(dp4007
sg71
g3976
sg64
(lp4008
g57
(g78
g59
NtRp4009
(dp4010
g62
(dp4011
sg71
g4005
sg64
(lp4012
g57
(g58
g59
NtRp4013
(dp4014
g62
(dp4015
g70
I1
ssg71
g4009
sg64
(lp4016
S'/admin/default/site'
p4017
asbasbasbasbasbasbasbag57
(g73
g59
NtRp4018
(dp4019
g62
(dp4020
sg71
g3960
sg64
(lp4021
g57
(g78
g59
NtRp4022
(dp4023
g62
(dp4024
sg71
g4018
sg64
(lp4025
g57
(g58
g59
NtRp4026
(dp4027
g62
(dp4028
g70
I2
ssg71
g4022
sg64
(lp4029
g57
(g66
g59
NtRp4030
(dp4031
g62
(dp4032
g70
I1
ssg71
Nsg64
(lp4033
g57
(g73
g59
NtRp4034
(dp4035
g62
(dp4036
sg71
g4030
sg64
(lp4037
g57
(g78
g59
NtRp4038
(dp4039
g62
(dp4040
sg71
g4034
sg64
(lp4041
g57
(g58
g59
NtRp4042
(dp4043
g62
(dp4044
g70
I1
ssg71
g4038
sg64
(lp4045
g3846
(S's\x08\x00\x00\x00This App'
tRp4046
asbasbasbag57
(g73
g59
NtRp4047
(dp4048
g62
(dp4049
sg71
g4030
sg64
(lp4050
g57
(g78
g59
NtRp4051
(dp4052
g62
(dp4053
sg71
g4047
sg64
(lp4054
g57
(g58
g59
NtRp4055
(dp4056
g62
(dp4057
g70
I1
ssg71
g4051
sg64
(lp4058
I00
asbasbasbag57
(g73
g59
NtRp4059
(dp4060
g62
(dp4061
sg71
g4030
sg64
(lp4062
g57
(g78
g59
NtRp4063
(dp4064
g62
(dp4065
sg71
g4059
sg64
(lp4066
g57
(g58
g59
NtRp4067
(dp4068
g62
(dp4069
g70
I1
ssg71
g4063
sg64
(lp4070
S'/admin/default/design/igor'
p4071
asbasbasbag57
(g73
g59
NtRp4072
(dp4073
g62
(dp4074
sg71
g4030
sg64
(lp4075
g57
(g78
g59
NtRp4076
(dp4077
g62
(dp4078
sg71
g4072
sg64
(lp4079
g57
(g58
g59
NtRp4080
(dp4081
g62
(dp4082
g70
I1
ssg71
g4076
sg64
(lp4083
(lp4084
(g3846
(S't\n\x00\x00\x00Controller'
tRp4085
I00
S'/admin/default/edit/igor/controllers/user.py'
tp4086
a(g3846
(S't\x04\x00\x00\x00View'
tRp4087
I00
S'/admin/default/edit/igor/views/user/call.html'
tp4088
a(g3846
(S't\x06\x00\x00\x00Layout'
tRp4089
I00
S'/admin/default/edit/igor/views/layout.html'
tp4090
a(g3846
(S't\n\x00\x00\x00Stylesheet'
tRp4091
I00
S'/admin/default/edit/igor/static/css/web2py.css'
tp4092
a(g3846
(S's\x08\x00\x00\x00DB Model'
tRp4093
I00
S'/admin/default/edit/igor/models/db.py'
tp4094
a(g3846
(S's\n\x00\x00\x00Menu Model'
tRp4095
I00
S'/admin/default/edit/igor/models/menu.py'
tp4096
a(g3846
(S't\x08\x00\x00\x00Database'
tRp4097
I00
S'/igor/appadmin/index'
tp4098
a(g3846
(S't\x06\x00\x00\x00Errors'
tRp4099
I00
S'/admin/default/errors/igor'
tp4100
a(g3846
(S't\x05\x00\x00\x00About'
tRp4101
I00
S'/admin/default/about/igor'
tp4102
aasbasbasbasbasbasbasbag57
(g73
g59
NtRp4103
(dp4104
g62
(dp4105
sg71
g3960
sg64
(lp4106
g57
(g78
g59
NtRp4107
(dp4108
g62
(dp4109
sg71
g4103
sg64
(lp4110
g57
(g58
g59
NtRp4111
(dp4112
g62
(dp4113
g70
I2
ssg71
g4107
sg64
(lp4114
g57
(g66
g59
NtRp4115
(dp4116
g62
(dp4117
g70
I1
ssg71
Nsg64
(lp4118
g57
(g73
g59
NtRp4119
(dp4120
g62
(dp4121
sg71
g4115
sg64
(lp4122
g57
(g78
g59
NtRp4123
(dp4124
g62
(dp4125
sg71
g4119
sg64
(lp4126
g57
(g58
g59
NtRp4127
(dp4128
g62
(dp4129
g70
I1
ssg71
g4123
sg64
(lp4130
S'web2py.com'
p4131
asbasbasbag57
(g73
g59
NtRp4132
(dp4133
g62
(dp4134
sg71
g4115
sg64
(lp4135
g57
(g78
g59
NtRp4136
(dp4137
g62
(dp4138
sg71
g4132
sg64
(lp4139
g57
(g58
g59
NtRp4140
(dp4141
g62
(dp4142
g70
I1
ssg71
g4136
sg64
(lp4143
I00
asbasbasbag57
(g73
g59
NtRp4144
(dp4145
g62
(dp4146
sg71
g4115
sg64
(lp4147
g57
(g78
g59
NtRp4148
(dp4149
g62
(dp4150
sg71
g4144
sg64
(lp4151
g57
(g58
g59
NtRp4152
(dp4153
g62
(dp4154
g70
I1
ssg71
g4148
sg64
(lp4155
S'http://www.web2py.com'
p4156
asbasbasbag57
(g73
g59
NtRp4157
(dp4158
g62
(dp4159
sg71
g4115
sg64
(lp4160
g57
(g78
g59
NtRp4161
(dp4162
g62
(dp4163
sg71
g4157
sg64
(lp4164
g57
(g58
g59
NtRp4165
(dp4166
g62
(dp4167
g70
I1
ssg71
g4161
sg64
(lp4168
(lp4169
(g3846
(S't\x08\x00\x00\x00Download'
tRp4170
I00
S'http://www.web2py.com/examples/default/download'
p4171
tp4172
a(g3846
(S't\x07\x00\x00\x00Support'
tRp4173
I00
S'http://www.web2py.com/examples/default/support'
p4174
tp4175
a(g3846
(S't\x04\x00\x00\x00Demo'
tRp4176
I00
S'http://web2py.com/demo_admin'
p4177
tp4178
a(g3846
(S's\x0e\x00\x00\x00Quick Examples'
tRp4179
I00
S'http://web2py.com/examples/default/examples'
p4180
tp4181
a(g3846
(S't\x03\x00\x00\x00FAQ'
tRp4182
I00
S'http://web2py.com/AlterEgo'
p4183
tp4184
a(g3846
(S't\x06\x00\x00\x00Videos'
tRp4185
I00
S'http://www.web2py.com/examples/default/videos/'
p4186
tp4187
a(g3846
(S's\x11\x00\x00\x00Free Applications'
tRp4188
I00
S'http://web2py.com/appliances'
p4189
tp4190
a(g3846
(S't\x07\x00\x00\x00Plugins'
tRp4191
I00
S'http://web2py.com/plugins'
p4192
tp4193
a(g3846
(S't\x07\x00\x00\x00Layouts'
tRp4194
I00
S'http://web2py.com/layouts'
p4195
tp4196
a(g3846
(S't\x07\x00\x00\x00Recipes'
tRp4197
I00
S'http://web2pyslices.com/'
p4198
tp4199
a(g3846
(S't\x08\x00\x00\x00Semantic'
tRp4200
I00
S'http://web2py.com/semantic'
p4201
tp4202
aasbasbasbasbasbasbasbag57
(g73
g59
NtRp4203
(dp4204
g62
(dp4205
sg71
g3960
sg64
(lp4206
g57
(g78
g59
NtRp4207
(dp4208
g62
(dp4209
sg71
g4203
sg64
(lp4210
g57
(g58
g59
NtRp4211
(dp4212
g62
(dp4213
g70
I2
ssg71
g4207
sg64
(lp4214
g57
(g66
g59
NtRp4215
(dp4216
g62
(dp4217
g70
I1
ssg71
Nsg64
(lp4218
g57
(g73
g59
NtRp4219
(dp4220
g62
(dp4221
sg71
g4215
sg64
(lp4222
g57
(g78
g59
NtRp4223
(dp4224
g62
(dp4225
sg71
g4219
sg64
(lp4226
g57
(g58
g59
NtRp4227
(dp4228
g62
(dp4229
g70
I1
ssg71
g4223
sg64
(lp4230
g3846
(S't\r\x00\x00\x00Documentation'
tRp4231
asbasbasbag57
(g73
g59
NtRp4232
(dp4233
g62
(dp4234
sg71
g4215
sg64
(lp4235
g57
(g78
g59
NtRp4236
(dp4237
g62
(dp4238
sg71
g4232
sg64
(lp4239
g57
(g58
g59
NtRp4240
(dp4241
g62
(dp4242
g70
I1
ssg71
g4236
sg64
(lp4243
I00
asbasbasbag57
(g73
g59
NtRp4244
(dp4245
g62
(dp4246
sg71
g4215
sg64
(lp4247
g57
(g78
g59
NtRp4248
(dp4249
g62
(dp4250
sg71
g4244
sg64
(lp4251
g57
(g58
g59
NtRp4252
(dp4253
g62
(dp4254
g70
I1
ssg71
g4248
sg64
(lp4255
S'http://www.web2py.com/book'
p4256
asbasbasbag57
(g73
g59
NtRp4257
(dp4258
g62
(dp4259
sg71
g4215
sg64
(lp4260
g57
(g78
g59
NtRp4261
(dp4262
g62
(dp4263
sg71
g4257
sg64
(lp4264
g57
(g58
g59
NtRp4265
(dp4266
g62
(dp4267
g70
I1
ssg71
g4261
sg64
(lp4268
(lp4269
(g3846
(S't\x07\x00\x00\x00Preface'
tRp4270
I00
S'http://www.web2py.com/book/default/chapter/00'
p4271
tp4272
a(g3846
(S't\x0c\x00\x00\x00Introduction'
tRp4273
I00
S'http://www.web2py.com/book/default/chapter/01'
p4274
tp4275
a(g3846
(S't\x06\x00\x00\x00Python'
tRp4276
I00
S'http://www.web2py.com/book/default/chapter/02'
p4277
tp4278
a(g3846
(S't\x08\x00\x00\x00Overview'
tRp4279
I00
S'http://www.web2py.com/book/default/chapter/03'
p4280
tp4281
a(g3846
(S's\x08\x00\x00\x00The Core'
tRp4282
I00
S'http://www.web2py.com/book/default/chapter/04'
p4283
tp4284
a(g3846
(S's\t\x00\x00\x00The Views'
tRp4285
I00
S'http://www.web2py.com/book/default/chapter/05'
p4286
tp4287
a(g3846
(S't\x08\x00\x00\x00Database'
tRp4288
I00
S'http://www.web2py.com/book/default/chapter/06'
p4289
tp4290
a(g3846
(S's\x14\x00\x00\x00Forms and Validators'
tRp4291
I00
S'http://www.web2py.com/book/default/chapter/07'
p4292
tp4293
a(g3846
(S's\r\x00\x00\x00Email and SMS'
tRp4294
I00
S'http://www.web2py.com/book/default/chapter/08'
p4295
tp4296
a(g3846
(S's\x0e\x00\x00\x00Access Control'
tRp4297
I00
S'http://www.web2py.com/book/default/chapter/09'
p4298
tp4299
a(g3846
(S't\x08\x00\x00\x00Services'
tRp4300
I00
S'http://www.web2py.com/book/default/chapter/10'
p4301
tp4302
a(g3846
(S's\x0c\x00\x00\x00Ajax Recipes'
tRp4303
I00
S'http://www.web2py.com/book/default/chapter/11'
p4304
tp4305
a(g3846
(S's\x16\x00\x00\x00Components and Plugins'
tRp4306
I00
S'http://www.web2py.com/book/default/chapter/12'
p4307
tp4308
a(g3846
(S's\x12\x00\x00\x00Deployment Recipes'
tRp4309
I00
S'http://www.web2py.com/book/default/chapter/13'
p4310
tp4311
a(g3846
(S's\r\x00\x00\x00Other Recipes'
tRp4312
I00
S'http://www.web2py.com/book/default/chapter/14'
p4313
tp4314
a(g3846
(S's\r\x00\x00\x00Buy this book'
tRp4315
I00
S'http://stores.lulu.com/web2py'
p4316
tp4317
aasbasbasbasbasbasbasbag57
(g73
g59
NtRp4318
(dp4319
g62
(dp4320
sg71
g3960
sg64
(lp4321
g57
(g78
g59
NtRp4322
(dp4323
g62
(dp4324
sg71
g4318
sg64
(lp4325
g57
(g58
g59
NtRp4326
(dp4327
g62
(dp4328
g70
I2
ssg71
g4322
sg64
(lp4329
g57
(g66
g59
NtRp4330
(dp4331
g62
(dp4332
g70
I1
ssg71
Nsg64
(lp4333
g57
(g73
g59
NtRp4334
(dp4335
g62
(dp4336
sg71
g4330
sg64
(lp4337
g57
(g78
g59
NtRp4338
(dp4339
g62
(dp4340
sg71
g4334
sg64
(lp4341
g57
(g58
g59
NtRp4342
(dp4343
g62
(dp4344
g70
I1
ssg71
g4338
sg64
(lp4345
g3846
(S't\t\x00\x00\x00Community'
tRp4346
asbasbasbag57
(g73
g59
NtRp4347
(dp4348
g62
(dp4349
sg71
g4330
sg64
(lp4350
g57
(g78
g59
NtRp4351
(dp4352
g62
(dp4353
sg71
g4347
sg64
(lp4354
g57
(g58
g59
NtRp4355
(dp4356
g62
(dp4357
g70
I1
ssg71
g4351
sg64
(lp4358
I00
asbasbasbag57
(g73
g59
NtRp4359
(dp4360
g62
(dp4361
sg71
g4330
sg64
(lp4362
g57
(g78
g59
NtRp4363
(dp4364
g62
(dp4365
sg71
g4359
sg64
(lp4366
g57
(g58
g59
NtRp4367
(dp4368
g62
(dp4369
g70
I1
ssg71
g4363
sg64
(lp4370
Nasbasbasbag57
(g73
g59
NtRp4371
(dp4372
g62
(dp4373
sg71
g4330
sg64
(lp4374
g57
(g78
g59
NtRp4375
(dp4376
g62
(dp4377
sg71
g4371
sg64
(lp4378
g57
(g58
g59
NtRp4379
(dp4380
g62
(dp4381
g70
I1
ssg71
g4375
sg64
(lp4382
(lp4383
(g3846
(S't\x06\x00\x00\x00Groups'
tRp4384
I00
S'http://www.web2py.com/examples/default/usergroups'
p4385
tp4386
a(g3846
(S't\x07\x00\x00\x00Twitter'
tRp4387
I00
S'http://twitter.com/web2py'
p4388
tp4389
a(g3846
(S's\t\x00\x00\x00Live Chat'
tRp4390
I00
S'http://webchat.freenode.net/?channels=web2py'
p4391
tp4392
aasbasbasbasbasbasbasbag57
(g73
g59
NtRp4393
(dp4394
g62
(dp4395
sg71
g3960
sg64
(lp4396
g57
(g78
g59
NtRp4397
(dp4398
g62
(dp4399
sg71
g4393
sg64
(lp4400
g57
(g58
g59
NtRp4401
(dp4402
g62
(dp4403
g70
I2
ssg71
g4397
sg64
(lp4404
g57
(g66
g59
NtRp4405
(dp4406
g62
(dp4407
g70
I1
ssg71
Nsg64
(lp4408
g57
(g73
g59
NtRp4409
(dp4410
g62
(dp4411
sg71
g4405
sg64
(lp4412
g57
(g78
g59
NtRp4413
(dp4414
g62
(dp4415
sg71
g4409
sg64
(lp4416
g57
(g58
g59
NtRp4417
(dp4418
g62
(dp4419
g70
I1
ssg71
g4413
sg64
(lp4420
g3846
(S't\x07\x00\x00\x00Plugins'
tRp4421
asbasbasbag57
(g73
g59
NtRp4422
(dp4423
g62
(dp4424
sg71
g4405
sg64
(lp4425
g57
(g78
g59
NtRp4426
(dp4427
g62
(dp4428
sg71
g4422
sg64
(lp4429
g57
(g58
g59
NtRp4430
(dp4431
g62
(dp4432
g70
I1
ssg71
g4426
sg64
(lp4433
I00
asbasbasbag57
(g73
g59
NtRp4434
(dp4435
g62
(dp4436
sg71
g4405
sg64
(lp4437
g57
(g78
g59
NtRp4438
(dp4439
g62
(dp4440
sg71
g4434
sg64
(lp4441
g57
(g58
g59
NtRp4442
(dp4443
g62
(dp4444
g70
I1
ssg71
g4438
sg64
(lp4445
Nasbasbasbag57
(g73
g59
NtRp4446
(dp4447
g62
(dp4448
sg71
g4405
sg64
(lp4449
g57
(g78
g59
NtRp4450
(dp4451
g62
(dp4452
sg71
g4446
sg64
(lp4453
g57
(g58
g59
NtRp4454
(dp4455
g62
(dp4456
g70
I1
ssg71
g4450
sg64
(lp4457
(lp4458
(S'plugin_wiki'
p4459
I00
S'http://web2py.com/examples/default/download'
p4460
tp4461
a(g3846
(S's\r\x00\x00\x00Other Plugins'
tRp4462
I00
g4192
tp4463
a(g3846
(S's\x0e\x00\x00\x00Layout Plugins'
tRp4464
I00
g4195
tp4465
aasbasbasbasbasbasbasbasbasbasbasbasbasbasbasbasbasbasbasbag57
(g73
g59
NtRp4466
(dp4467
g62
(dp4468
sg71
g3290
sg64
(lp4469
g57
(g78
g59
NtRp4470
(dp4471
g62
(dp4472
g82
g83
ssg71
g4466
sg64
(lp4473
S'meta'
p4474
asbag57
(g78
g59
NtRp4475
(dp4476
g62
(dp4477
g89
g90
ssg71
g4466
sg64
(lp4478
S':'
asbag57
(g78
g59
NtRp4479
(dp4480
g62
(dp4481
sg71
g4466
sg64
(lp4482
g57
(g58
g59
NtRp4483
(dp4484
g62
(dp4485
g70
I5
ssg71
g4479
sg64
(lp4486
g57
(g66
g59
NtRp4487
(dp4488
g62
(dp4489
g70
I4
ssg71
Nsg64
(lp4490
g57
(g73
g59
NtRp4491
(dp4492
g62
(dp4493
sg71
g4487
sg64
(lp4494
g57
(g78
g59
NtRp4495
(dp4496
g62
(dp4497
g82
g83
ssg71
g4491
sg64
(lp4498
S'author'
p4499
asbag57
(g78
g59
NtRp4500
(dp4501
g62
(dp4502
g89
g90
ssg71
g4491
sg64
(lp4503
S':'
asbag57
(g78
g59
NtRp4504
(dp4505
g62
(dp4506
sg71
g4491
sg64
(lp4507
g57
(g58
g59
NtRp4508
(dp4509
g62
(dp4510
g70
I4
ssg71
g4504
sg64
(lp4511
S'Your Name <you@example.com>'
p4512
asbasbasbag57
(g73
g59
NtRp4513
(dp4514
g62
(dp4515
sg71
g4487
sg64
(lp4516
g57
(g78
g59
NtRp4517
(dp4518
g62
(dp4519
g82
g83
ssg71
g4513
sg64
(lp4520
S'copyright'
p4521
asbag57
(g78
g59
NtRp4522
(dp4523
g62
(dp4524
g89
g90
ssg71
g4513
sg64
(lp4525
S':'
asbag57
(g78
g59
NtRp4526
(dp4527
g62
(dp4528
sg71
g4513
sg64
(lp4529
g57
(g58
g59
NtRp4530
(dp4531
g62
(dp4532
g70
I4
ssg71
g4526
sg64
(lp4533
S'Copyright 2011'
p4534
asbasbasbag57
(g73
g59
NtRp4535
(dp4536
g62
(dp4537
sg71
g4487
sg64
(lp4538
g57
(g78
g59
NtRp4539
(dp4540
g62
(dp4541
g82
g83
ssg71
g4535
sg64
(lp4542
S'description'
p4543
asbag57
(g78
g59
NtRp4544
(dp4545
g62
(dp4546
g89
g90
ssg71
g4535
sg64
(lp4547
S':'
asbag57
(g78
g59
NtRp4548
(dp4549
g62
(dp4550
sg71
g4535
sg64
(lp4551
g57
(g58
g59
NtRp4552
(dp4553
g62
(dp4554
g70
I4
ssg71
g4548
sg64
(lp4555
S'a cool new app'
p4556
asbasbasbag57
(g73
g59
NtRp4557
(dp4558
g62
(dp4559
sg71
g4487
sg64
(lp4560
g57
(g78
g59
NtRp4561
(dp4562
g62
(dp4563
g82
g83
ssg71
g4557
sg64
(lp4564
S'generator'
p4565
asbag57
(g78
g59
NtRp4566
(dp4567
g62
(dp4568
g89
g90
ssg71
g4557
sg64
(lp4569
S':'
asbag57
(g78
g59
NtRp4570
(dp4571
g62
(dp4572
sg71
g4557
sg64
(lp4573
g57
(g58
g59
NtRp4574
(dp4575
g62
(dp4576
g70
I4
ssg71
g4570
sg64
(lp4577
S'Web2py Web Framework'
p4578
asbasbasbag57
(g73
g59
NtRp4579
(dp4580
g62
(dp4581
sg71
g4487
sg64
(lp4582
g57
(g78
g59
NtRp4583
(dp4584
g62
(dp4585
g82
g83
ssg71
g4579
sg64
(lp4586
S'keywords'
p4587
asbag57
(g78
g59
NtRp4588
(dp4589
g62
(dp4590
g89
g90
ssg71
g4579
sg64
(lp4591
S':'
asbag57
(g78
g59
NtRp4592
(dp4593
g62
(dp4594
sg71
g4579
sg64
(lp4595
g57
(g58
g59
NtRp4596
(dp4597
g62
(dp4598
g70
I4
ssg71
g4592
sg64
(lp4599
S'web2py, python, framework'
p4600
asbasbasbasbasbasbasbag57
(g73
g59
NtRp4601
(dp4602
g62
(dp4603
sg71
g3290
sg64
(lp4604
g57
(g78
g59
NtRp4605
(dp4606
g62
(dp4607
g82
g83
ssg71
g4601
sg64
(lp4608
S'postprocessing'
p4609
asbag57
(g78
g59
NtRp4610
(dp4611
g62
(dp4612
g89
g90
ssg71
g4601
sg64
(lp4613
S':'
asbag57
(g78
g59
NtRp4614
(dp4615
g62
(dp4616
sg71
g4601
sg64
(lp4617
g57
(g58
g59
NtRp4618
(dp4619
g62
(dp4620
g70
I5
ssg71
g4614
sg64
(lp4621
g57
(g66
g59
NtRp4622
(dp4623
g62
(dp4624
g70
I4
ssg71
Nsg64
(lp4625
sbasbasbasbag57
(g73
g59
NtRp4626
(dp4627
g62
(dp4628
sg71
g3290
sg64
(lp4629
g57
(g78
g59
NtRp4630
(dp4631
g62
(dp4632
g82
g83
ssg71
g4626
sg64
(lp4633
S'session_file'
p4634
asbag57
(g78
g59
NtRp4635
(dp4636
g62
(dp4637
g89
g90
ssg71
g4626
sg64
(lp4638
S':'
asbag57
(g78
g59
NtRp4639
(dp4640
g62
(dp4641
sg71
g4626
sg64
(lp4642
g57
(g58
g59
NtRp4643
(dp4644
g62
(dp4645
g70
I5
ssg71
g4639
sg64
(lp4646
S"<open file 'D:\\workspace\\CA\\IgoR\\C_Sources\\Server\\igor-assistant-ca-2012\\applications\\igor\\sessions\\127.0.0.1-a04fa524-60aa-4124-a73f-56d6938d7384', mode 'rb+' at 0x0000000005729F60>"
p4647
asbasbasbag57
(g73
g59
NtRp4648
(dp4649
g62
(dp4650
sg71
g3290
sg64
(lp4651
g57
(g78
g59
NtRp4652
(dp4653
g62
(dp4654
g82
g83
ssg71
g4648
sg64
(lp4655
S'session_filename'
p4656
asbag57
(g78
g59
NtRp4657
(dp4658
g62
(dp4659
g89
g90
ssg71
g4648
sg64
(lp4660
S':'
asbag57
(g78
g59
NtRp4661
(dp4662
g62
(dp4663
sg71
g4648
sg64
(lp4664
g57
(g58
g59
NtRp4665
(dp4666
g62
(dp4667
g70
I5
ssg71
g4661
sg64
(lp4668
S'D:\\workspace\\CA\\IgoR\\C_Sources\\Server\\igor-assistant-ca-2012\\applications\\igor\\sessions\\127.0.0.1-a04fa524-60aa-4124-a73f-56d6938d7384'
p4669
asbasbasbag57
(g73
g59
NtRp4670
(dp4671
g62
(dp4672
sg71
g3290
sg64
(lp4673
g57
(g78
g59
NtRp4674
(dp4675
g62
(dp4676
g82
g83
ssg71
g4670
sg64
(lp4677
S'session_id'
p4678
asbag57
(g78
g59
NtRp4679
(dp4680
g62
(dp4681
g89
g90
ssg71
g4670
sg64
(lp4682
S':'
asbag57
(g78
g59
NtRp4683
(dp4684
g62
(dp4685
sg71
g4670
sg64
(lp4686
g57
(g58
g59
NtRp4687
(dp4688
g62
(dp4689
g70
I5
ssg71
g4683
sg64
(lp4690
S'127.0.0.1-a04fa524-60aa-4124-a73f-56d6938d7384'
p4691
asbasbasbag57
(g73
g59
NtRp4692
(dp4693
g62
(dp4694
sg71
g3290
sg64
(lp4695
g57
(g78
g59
NtRp4696
(dp4697
g62
(dp4698
g82
g83
ssg71
g4692
sg64
(lp4699
S'session_id_name'
p4700
asbag57
(g78
g59
NtRp4701
(dp4702
g62
(dp4703
g89
g90
ssg71
g4692
sg64
(lp4704
S':'
asbag57
(g78
g59
NtRp4705
(dp4706
g62
(dp4707
sg71
g4692
sg64
(lp4708
g57
(g58
g59
NtRp4709
(dp4710
g62
(dp4711
g70
I5
ssg71
g4705
sg64
(lp4712
g3347
asbasbasbag57
(g73
g59
NtRp4713
(dp4714
g62
(dp4715
sg71
g3290
sg64
(lp4716
g57
(g78
g59
NtRp4717
(dp4718
g62
(dp4719
g82
g83
ssg71
g4713
sg64
(lp4720
S'session_locked'
p4721
asbag57
(g78
g59
NtRp4722
(dp4723
g62
(dp4724
g89
g90
ssg71
g4713
sg64
(lp4725
S':'
asbag57
(g78
g59
NtRp4726
(dp4727
g62
(dp4728
sg71
g4713
sg64
(lp4729
g57
(g58
g59
NtRp4730
(dp4731
g62
(dp4732
g70
I5
ssg71
g4726
sg64
(lp4733
g1696
asbasbasbag57
(g73
g59
NtRp4734
(dp4735
g62
(dp4736
sg71
g3290
sg64
(lp4737
g57
(g78
g59
NtRp4738
(dp4739
g62
(dp4740
g82
g83
ssg71
g4734
sg64
(lp4741
S'session_new'
p4742
asbag57
(g78
g59
NtRp4743
(dp4744
g62
(dp4745
g89
g90
ssg71
g4734
sg64
(lp4746
S':'
asbag57
(g78
g59
NtRp4747
(dp4748
g62
(dp4749
sg71
g4734
sg64
(lp4750
g57
(g58
g59
NtRp4751
(dp4752
g62
(dp4753
g70
I5
ssg71
g4747
sg64
(lp4754
g100
asbasbasbag57
(g73
g59
NtRp4755
(dp4756
g62
(dp4757
sg71
g3290
sg64
(lp4758
g57
(g78
g59
NtRp4759
(dp4760
g62
(dp4761
g82
g83
ssg71
g4755
sg64
(lp4762
S'status'
p4763
asbag57
(g78
g59
NtRp4764
(dp4765
g62
(dp4766
g89
g90
ssg71
g4755
sg64
(lp4767
S':'
asbag57
(g78
g59
NtRp4768
(dp4769
g62
(dp4770
sg71
g4755
sg64
(lp4771
g57
(g58
g59
NtRp4772
(dp4773
g62
(dp4774
g70
I5
ssg71
g4768
sg64
(lp4775
S'200'
p4776
asbasbasbag57
(g73
g59
NtRp4777
(dp4778
g62
(dp4779
sg71
g3290
sg64
(lp4780
g57
(g78
g59
NtRp4781
(dp4782
g62
(dp4783
g82
g83
ssg71
g4777
sg64
(lp4784
S'subtitle'
p4785
asbag57
(g78
g59
NtRp4786
(dp4787
g62
(dp4788
g89
g90
ssg71
g4777
sg64
(lp4789
S':'
asbag57
(g78
g59
NtRp4790
(dp4791
g62
(dp4792
sg71
g4777
sg64
(lp4793
g57
(g58
g59
NtRp4794
(dp4795
g62
(dp4796
g70
I5
ssg71
g4790
sg64
(lp4797
g3846
(S's\r\x00\x00\x00customize me!'
tRp4798
asbasbasbag57
(g73
g59
NtRp4799
(dp4800
g62
(dp4801
sg71
g3290
sg64
(lp4802
g57
(g78
g59
NtRp4803
(dp4804
g62
(dp4805
g82
g83
ssg71
g4799
sg64
(lp4806
S'title'
p4807
asbag57
(g78
g59
NtRp4808
(dp4809
g62
(dp4810
g89
g90
ssg71
g4799
sg64
(lp4811
S':'
asbag57
(g78
g59
NtRp4812
(dp4813
g62
(dp4814
sg71
g4799
sg64
(lp4815
g57
(g58
g59
NtRp4816
(dp4817
g62
(dp4818
g70
I5
ssg71
g4812
sg64
(lp4819
S'Igor'
p4820
asbasbasbag57
(g73
g59
NtRp4821
(dp4822
g62
(dp4823
sg71
g3290
sg64
(lp4824
g57
(g78
g59
NtRp4825
(dp4826
g62
(dp4827
g82
g83
ssg71
g4821
sg64
(lp4828
g2416
asbag57
(g78
g59
NtRp4829
(dp4830
g62
(dp4831
g89
g90
ssg71
g4821
sg64
(lp4832
S':'
asbag57
(g78
g59
NtRp4833
(dp4834
g62
(dp4835
sg71
g4821
sg64
(lp4836
g57
(g58
g59
NtRp4837
(dp4838
g62
(dp4839
g70
I5
ssg71
g4833
sg64
(lp4840
g2429
asbasbasbag57
(g73
g59
NtRp4841
(dp4842
g62
(dp4843
sg71
g3290
sg64
(lp4844
g57
(g78
g59
NtRp4845
(dp4846
g62
(dp4847
g82
g83
ssg71
g4841
sg64
(lp4848
S'view'
p4849
asbag57
(g78
g59
NtRp4850
(dp4851
g62
(dp4852
g89
g90
ssg71
g4841
sg64
(lp4853
S':'
asbag57
(g78
g59
NtRp4854
(dp4855
g62
(dp4856
sg71
g4841
sg64
(lp4857
g57
(g58
g59
NtRp4858
(dp4859
g62
(dp4860
g70
I5
ssg71
g4854
sg64
(lp4861
S'user/call.html'
p4862
asbasbasbasbasbsS'locals'
p4863
(dp4864
S'self'
p4865
S"<DAL {'auth_event': <Table {'origin': <gluon.dal...gluon.dal.Field object at 0x00000000090DF0F0>}>}>"
p4866
sS'key'
p4867
S"'auth'"
p4868
sssS'traceback'
p4869
S'Traceback (most recent call last):\n  File "D:\\workspace\\CA\\IgoR\\C_Sources\\Server\\igor-assistant-ca-2012\\gluon\\restricted.py", line 205, in restricted\n    exec ccode in environment\n  File "D:\\workspace\\CA\\IgoR\\C_Sources\\Server\\igor-assistant-ca-2012\\applications\\igor\\controllers/user.py", line 125, in <module>\n  File "D:\\workspace\\CA\\IgoR\\C_Sources\\Server\\igor-assistant-ca-2012\\gluon\\globals.py", line 173, in <lambda>\n    self._caller = lambda f: f()\n  File "D:\\workspace\\CA\\IgoR\\C_Sources\\Server\\igor-assistant-ca-2012\\applications\\igor\\controllers/user.py", line 20, in call\n    return service()\n  File "D:\\workspace\\CA\\IgoR\\C_Sources\\Server\\igor-assistant-ca-2012\\gluon\\tools.py", line 4015, in __call__\n    return self.serve_json(request.args[1:])\n  File "D:\\workspace\\CA\\IgoR\\C_Sources\\Server\\igor-assistant-ca-2012\\gluon\\tools.py", line 3808, in serve_json\n    s = universal_caller(self.json_procedures[args[0]],*args[1:],**d)\n  File "D:\\workspace\\CA\\IgoR\\C_Sources\\Server\\igor-assistant-ca-2012\\gluon\\tools.py", line 3490, in universal_caller\n    return f(**arg_dict)\n  File "D:\\workspace\\CA\\IgoR\\C_Sources\\Server\\igor-assistant-ca-2012\\applications\\igor\\controllers/user.py", line 35, in check_email_available\n    if (db(db.auth.email == email).isempty()):\n  File "D:\\workspace\\CA\\IgoR\\C_Sources\\Server\\igor-assistant-ca-2012\\gluon\\dal.py", line 6343, in __getattr__\n    return self[key]\n  File "D:\\workspace\\CA\\IgoR\\C_Sources\\Server\\igor-assistant-ca-2012\\gluon\\dal.py", line 6337, in __getitem__\n    return dict.__getitem__(self, str(key))\nKeyError: \'auth\'\n'
p4870
s.