(dp1
S'output'
p2
S"<type 'exceptions.ValueError'> No JSON object could be decoded"
p3
sS'layer'
p4
S'D:\\workspace\\ca\\IgoR\\C_Sources\\Server\\igor-assistant-ca-2012\\applications\\igor\\controllers/class_subject.py'
p5
sS'code'
p6
S'# -*- coding: utf-8 -*-\n# this file is released under public domain and you can use without limitations\n\n#########################################################################\n## This is class_subject controller\n## Author: phucnh, tuna\n#########################################################################\n\nfrom message_packager import *\nfrom gluon.dal import Rows\nfrom gluon.tools import Service\nservice = Service()\n\n# Get all classes by specific subject\n@request.restful()\ndef get_classes_by_subject():\n\tresponse.view = \'generic.json\'\n\tdef GET(subject_id, term = 0):\n\n\t\t# Validate input \n\t\tif (not subject_id.isdigit()):\n\t\t\treturn MessagePackager.get_packaged_message (\n\t\t\t\tMessageStatus.ERROR, \n\t\t\t\t"subject id must be numberic")\n\n\t\tif (not (str (term)).isdigit()):\n\t\t\treturn MessagePackager.get_packaged_message(\n\t\t\t\tMessageStatus.ERROR,\n\t\t\t\t"term must be numberic")\n\n\t\tif (int (subject_id) < 0):\n\t\t\treturn MessagePackager.get_packaged_message (\n\t\t\t\tMessageStatus.ERROR, \n\t\t\t\t"subject id can not less than 1")\n\n\t\t# Get data\n\t\tif (term == 0):\n\t\t\tterm = get_current_term()\n\n\t\tclasses = db(\n\t\t\tdb.class_subject.subject == subject_id and \n\t\t\tdb.class_subject.term == term).select()\n\n\t\treturn MessagePackager.get_packaged_message(MessageStatus.OK, classes)\n\n\treturn locals()\n\n\n# Get class detail\n# @request.restful()\n# def get_class_detail():\n# \tresponse.view = \'generic.json\'\n# \tdef GET(id):\n\n# \t\t# Validate input \n# \t\tif (not id.isdigit()):\n# \t\t\treturn MessagePackager.get_packaged_message (\n# \t\t\t\tMessageStatus.ERROR, \n# \t\t\t\t"class id must be numberic")\n\n# \t\tif (int (id) < 0):\n# \t\t\treturn MessagePackager.get_packaged_message (\n# \t\t\t\tMessageStatus.ERROR, \n# \t\t\t\t"class id can not less than 1")\n\n# \t\t# Get data\n\n# \t\tclass_subject = db(db.class_subject.id == id).select()\n\n# \t\tclass_subject = format_client_data(class_subject)\n\n# \t\treturn MessagePackager.get_packaged_message(MessageStatus.OK, class_subject)\n\n# \treturn locals()\n\ndef call():\n\tsession.forget()\n\n\treturn service()\n\nimport gluon.contenttype\n\n@service.json\ndef get_class_detail(id):\n\t# response.view = \'generic.jsonp\'\n\t# response.headers[\'Content-Type\'] = gluon.contenttype.contenttype(\'.js\')\n\n\t# Validate input \n\tif (not id.isdigit()):\n\t\treturn MessagePackager.get_packaged_message (\n\t\t\tMessageStatus.ERROR, \n\t\t\t"class id must be numberic")\n\n\tif (int (id) < 0):\n\t\treturn MessagePackager.get_packaged_message (\n\t\t\tMessageStatus.ERROR, \n\t\t\t"class id can not less than 1")\n\n\t# Get data\n\n\tclass_subject = db(db.class_subject.id == id).select()\n\n\tclass_subject = format_client_data(class_subject)\n\n\treturn MessagePackager.get_packaged_message(MessageStatus.OK, class_subject)\n\n# Get all classes of user\n# Input:\n# \tinteger user_id\n# \tinteger term\n@request.restful()\ndef get_classes_by_user():\n\tresponse.view = \'generic.json\'\n\tdef GET(user_id, term = 0):\n\n\t\t# Get data\n\t\tif (term == 0):\n\t\t\tterm = get_current_term()\n\n\t\tuser_schedulers = db(db.scheduler.owner == user_id).select()\n\t\t\n\t\tclasses = list()\n\n\t\tfor user_scheduler in user_schedulers:\n\n\t\t\tclass_subject = db(\n\t\t\t\t(db.class_subject.id == user_scheduler.class_subject) &\n\t\t\t\t(db.class_subject.term == term)).select().first()\n\n\n\t\t\tif (class_subject != None):\n\t\t\t\tclasses.append(class_subject)\n\n\t\tclasses = format_client_data(classes)\n\n\t\treturn MessagePackager.get_packaged_message(MessageStatus.OK, classes)\n\n\treturn locals()\n\n@request.restful()\ndef add_class_to_user():\n\tresponse.view = \'generic.json\'\n\tdef GET(class_id, user_id):\n\n\t\t# Validate input\n\t\tif (not class_id.isdigit()):\n\t\t\treturn MessagePackager.get_packaged_message (\n\t\t\t\tMessageStatus.ERROR, \n\t\t\t\t"class id must be numberic")\n\n\t\tif (not user_id.isdigit()):\n\t\t\treturn MessagePackager.get_packaged_message (\n\t\t\t\tMessageStatus.ERROR, \n\t\t\t\t"user id must be numberic")\n\n\t\t# Insert new data\n\t\t# TODO: add class\'s rule\n\n\t\ttry:\n\t\t\tscheduler_id = db.scheduler.insert(\n\t\t\t\towner         = user_id,\n\t\t\t\tclass_subject = class_id,\n\t\t\t\tterm          = get_current_term())\n\t\texcept Exception, err:\n\t\t\treturn MessagePackager.get_packaged_message(MessageStatus.ERROR, str (err) )\n\n\t\treturn MessagePackager.get_packaged_message(MessageStatus.OK, scheduler_id)\n\n\treturn locals()\n\n@request.restful()\ndef delete_class():\n\tresponse.view = \'generic.json\'\n\tdef GET(user_id, class_id):\n\n\t\ttry:\n\t\t\tscheduler = delete_scheduler(user_id, class_id);\n\t\texcept Exception, err:\n\t\t\treturn MessagePackager.get_packaged_message(MessageStatus.ERROR, str (err) )\n\n\t\treturn MessagePackager.get_packaged_message(MessageStatus.OK, scheduler)\n\n\treturn locals()\n\n# Format class data to client data\ndef format_client_data(classes):\n\tif (classes == None):\n\t\treturn\n\n\tclient_data = list()\n\n\tfor class_subject in classes:\n\n\t\tsubject = db(db.subject.id == class_subject.subject).select().first()\n\t\tclass_schedulers = db(db.class_scheduler.class_subject == class_subject.id).select()\n\t\t\n\t\tif (subject == None):\n\t\t\tcontinue\n\t\t# print class_schedulers\n\t\tfor class_scheduler in class_schedulers:\n\t\t\t\n\t\t\t# Get session list (integer)\n\t\t\tsessions = get_class_sessions(class_scheduler.period)\n\n\t\t\t# Morning session\n\t\t\tmorning = [session for session in sessions if session <=6]\n\t\t\tafternoon = [session for session in sessions if session >= 7]\n\n\n\t\t\tif (morning):\n\t\t\t\tclient = class_data_format(\n\t\t\t\t\tclass_subject, class_scheduler,\n\t\t\t\t\tsubject, morning, "Morning")\n\t\t\t\t\n\t\t\t\tclient_data.append(client)\n\n\t\t\tif (afternoon):\n\t\t\t\tclient = class_data_format(\n\t\t\t\t\tclass_subject, class_scheduler,\n\t\t\t\t\tsubject, afternoon, "Afternoon")\n\n\t\t\t\tclient_data.append (client)\n\n\treturn client_data\n\ndef class_data_format(class_subject, class_scheduler ,subject, session, period):\n\tclient = dict(\n\t\tclass_id     = class_subject.id,\n\t\tclass_code   = class_subject.class_code,\n\t\tsubject_name = subject.name,\n\t\tsubject_code = subject.subject_code,\n\t\tnum_of_day   = class_scheduler.day_of_week,\n        #"total_session": "Session 1-2-3",\n        teacher_name = class_subject.teacher,\n        location     = class_subject.location,\n        period = period,\n\t\tsession_start = str(session[0]),\n\t\t)\n\n\treturn client\nresponse._vars=response._caller(call)\n'
p7
sS'snapshot'
p8
(dp9
S'exception'
p10
(dp11
S'__hash__'
p12
S"<method-wrapper '__hash__' of exceptions.ValueError object>"
p13
sS'__setattr__'
p14
S"<method-wrapper '__setattr__' of exceptions.ValueError object>"
p15
sS'__reduce_ex__'
p16
S'<built-in method __reduce_ex__ of exceptions.ValueError object>'
p17
sS'__getslice__'
p18
S"<method-wrapper '__getslice__' of exceptions.ValueError object>"
p19
sS'__getitem__'
p20
S"<method-wrapper '__getitem__' of exceptions.ValueError object>"
p21
sS'__setstate__'
p22
S'<built-in method __setstate__ of exceptions.ValueError object>'
p23
sS'__reduce__'
p24
S'<built-in method __reduce__ of exceptions.ValueError object>'
p25
sS'__str__'
p26
S"<method-wrapper '__str__' of exceptions.ValueError object>"
p27
sS'__format__'
p28
S'<built-in method __format__ of exceptions.ValueError object>'
p29
sS'__getattribute__'
p30
S"<method-wrapper '__getattribute__' of exceptions.ValueError object>"
p31
sS'__class__'
p32
S"<type 'exceptions.ValueError'>"
p33
sS'__unicode__'
p34
S'<built-in method __unicode__ of exceptions.ValueError object>'
p35
sS'__delattr__'
p36
S"<method-wrapper '__delattr__' of exceptions.ValueError object>"
p37
sS'__subclasshook__'
p38
S'<built-in method __subclasshook__ of type object>'
p39
sS'__repr__'
p40
S"<method-wrapper '__repr__' of exceptions.ValueError object>"
p41
sS'__dict__'
p42
S'{}'
p43
sS'args'
p44
S"('No JSON object could be decoded',)"
p45
sS'__sizeof__'
p46
S'<built-in method __sizeof__ of exceptions.ValueError object>'
p47
sS'__doc__'
p48
S"'Inappropriate argument value (of correct type).'"
p49
sS'__init__'
p50
S"<method-wrapper '__init__' of exceptions.ValueError object>"
p51
sS'__new__'
p52
S'<built-in method __new__ of type object>'
p53
ssS'evalue'
p54
S'No JSON object could be decoded'
p55
sS'request'
p56
ccopy_reg
_reconstructor
p57
(cgluon.html
BEAUTIFY
p58
c__builtin__
object
p59
NtRp60
(dp61
S'attributes'
p62
(dp63
sS'components'
p64
(lp65
g57
(cgluon.html
TABLE
p66
g59
NtRp67
(dp68
g62
(dp69
S'level'
p70
I5
ssS'parent'
p71
Nsg64
(lp72
g57
(cgluon.html
TR
p73
g59
NtRp74
(dp75
g62
(dp76
sg71
g67
sg64
(lp77
g57
(cgluon.html
TD
p78
g59
NtRp79
(dp80
g62
(dp81
S'_style'
p82
S'font-weight:bold;vertical-align:top'
p83
ssg71
g74
sg64
(lp84
S'ajax'
p85
asbag57
(g78
g59
NtRp86
(dp87
g62
(dp88
S'_valign'
p89
S'top'
p90
ssg71
g74
sg64
(lp91
S':'
asbag57
(g78
g59
NtRp92
(dp93
g62
(dp94
sg71
g74
sg64
(lp95
g57
(g58
g59
NtRp96
(dp97
g62
(dp98
g70
I5
ssg71
g92
sg64
(lp99
S'False'
p100
asbasbasbag57
(g73
g59
NtRp101
(dp102
g62
(dp103
sg71
g67
sg64
(lp104
g57
(g78
g59
NtRp105
(dp106
g62
(dp107
g82
g83
ssg71
g101
sg64
(lp108
S'application'
p109
asbag57
(g78
g59
NtRp110
(dp111
g62
(dp112
g89
g90
ssg71
g101
sg64
(lp113
S':'
asbag57
(g78
g59
NtRp114
(dp115
g62
(dp116
sg71
g101
sg64
(lp117
g57
(g58
g59
NtRp118
(dp119
g62
(dp120
g70
I5
ssg71
g114
sg64
(lp121
S'igor'
p122
asbasbasbag57
(g73
g59
NtRp123
(dp124
g62
(dp125
sg71
g67
sg64
(lp126
g57
(g78
g59
NtRp127
(dp128
g62
(dp129
g82
g83
ssg71
g123
sg64
(lp130
g44
asbag57
(g78
g59
NtRp131
(dp132
g62
(dp133
g89
g90
ssg71
g123
sg64
(lp134
S':'
asbag57
(g78
g59
NtRp135
(dp136
g62
(dp137
sg71
g123
sg64
(lp138
g57
(g58
g59
NtRp139
(dp140
g62
(dp141
g70
I5
ssg71
g135
sg64
(lp142
g57
(g66
g59
NtRp143
(dp144
g62
(dp145
g70
I4
ssg71
Nsg64
(lp146
g57
(g73
g59
NtRp147
(dp148
g62
(dp149
sg71
g143
sg64
(lp150
g57
(g78
g59
NtRp151
(dp152
g62
(dp153
sg71
g147
sg64
(lp154
g57
(g58
g59
NtRp155
(dp156
g62
(dp157
g70
I4
ssg71
g151
sg64
(lp158
S'jsonrpc'
p159
asbasbasbag57
(g73
g59
NtRp160
(dp161
g62
(dp162
sg71
g143
sg64
(lp163
g57
(g78
g59
NtRp164
(dp165
g62
(dp166
sg71
g160
sg64
(lp167
g57
(g58
g59
NtRp168
(dp169
g62
(dp170
g70
I4
ssg71
g164
sg64
(lp171
S'get_class_detail'
p172
asbasbasbasbasbasbasbag57
(g73
g59
NtRp173
(dp174
g62
(dp175
sg71
g67
sg64
(lp176
g57
(g78
g59
NtRp177
(dp178
g62
(dp179
g82
g83
ssg71
g173
sg64
(lp180
S'body'
p181
asbag57
(g78
g59
NtRp182
(dp183
g62
(dp184
g89
g90
ssg71
g173
sg64
(lp185
S':'
asbag57
(g78
g59
NtRp186
(dp187
g62
(dp188
sg71
g173
sg64
(lp189
g57
(g58
g59
NtRp190
(dp191
g62
(dp192
g70
I5
ssg71
g186
sg64
(lp193
S'<cStringIO.StringO object at 0x00000000058076C0>'
p194
asbasbasbag57
(g73
g59
NtRp195
(dp196
g62
(dp197
sg71
g67
sg64
(lp198
g57
(g78
g59
NtRp199
(dp200
g62
(dp201
g82
g83
ssg71
g195
sg64
(lp202
S'client'
p203
asbag57
(g78
g59
NtRp204
(dp205
g62
(dp206
g89
g90
ssg71
g195
sg64
(lp207
S':'
asbag57
(g78
g59
NtRp208
(dp209
g62
(dp210
sg71
g195
sg64
(lp211
g57
(g58
g59
NtRp212
(dp213
g62
(dp214
g70
I5
ssg71
g208
sg64
(lp215
S'127.0.0.1'
p216
asbasbasbag57
(g73
g59
NtRp217
(dp218
g62
(dp219
sg71
g67
sg64
(lp220
g57
(g78
g59
NtRp221
(dp222
g62
(dp223
g82
g83
ssg71
g217
sg64
(lp224
S'controller'
p225
asbag57
(g78
g59
NtRp226
(dp227
g62
(dp228
g89
g90
ssg71
g217
sg64
(lp229
S':'
asbag57
(g78
g59
NtRp230
(dp231
g62
(dp232
sg71
g217
sg64
(lp233
g57
(g58
g59
NtRp234
(dp235
g62
(dp236
g70
I5
ssg71
g230
sg64
(lp237
S'class_subject'
p238
asbasbasbag57
(g73
g59
NtRp239
(dp240
g62
(dp241
sg71
g67
sg64
(lp242
g57
(g78
g59
NtRp243
(dp244
g62
(dp245
g82
g83
ssg71
g239
sg64
(lp246
S'cookies'
p247
asbag57
(g78
g59
NtRp248
(dp249
g62
(dp250
g89
g90
ssg71
g239
sg64
(lp251
S':'
asbag57
(g78
g59
NtRp252
(dp253
g62
(dp254
sg71
g239
sg64
(lp255
g57
(g58
g59
NtRp256
(dp257
g62
(dp258
g70
I5
ssg71
g252
sg64
(lp259
g57
(g66
g59
NtRp260
(dp261
g62
(dp262
g70
I4
ssg71
Nsg64
(lp263
g57
(g73
g59
NtRp264
(dp265
g62
(dp266
sg71
g260
sg64
(lp267
g57
(g78
g59
NtRp268
(dp269
g62
(dp270
g82
g83
ssg71
g264
sg64
(lp271
S'session_id_admin'
p272
asbag57
(g78
g59
NtRp273
(dp274
g62
(dp275
g89
g90
ssg71
g264
sg64
(lp276
S':'
asbag57
(g78
g59
NtRp277
(dp278
g62
(dp279
sg71
g264
sg64
(lp280
g57
(g58
g59
NtRp281
(dp282
g62
(dp283
g70
I4
ssg71
g277
sg64
(lp284
g57
(g66
g59
NtRp285
(dp286
g62
(dp287
g70
I3
ssg71
Nsg64
(lp288
g57
(g73
g59
NtRp289
(dp290
g62
(dp291
sg71
g285
sg64
(lp292
g57
(g78
g59
NtRp293
(dp294
g62
(dp295
g82
g83
ssg71
g289
sg64
(lp296
S'comment'
p297
asbag57
(g78
g59
NtRp298
(dp299
g62
(dp300
g89
g90
ssg71
g289
sg64
(lp301
S':'
asbag57
(g78
g59
NtRp302
(dp303
g62
(dp304
sg71
g289
sg64
(lp305
g57
(g58
g59
NtRp306
(dp307
g62
(dp308
g70
I3
ssg71
g302
sg64
(lp309
S''
asbasbasbag57
(g73
g59
NtRp310
(dp311
g62
(dp312
sg71
g285
sg64
(lp313
g57
(g78
g59
NtRp314
(dp315
g62
(dp316
g82
g83
ssg71
g310
sg64
(lp317
S'domain'
p318
asbag57
(g78
g59
NtRp319
(dp320
g62
(dp321
g89
g90
ssg71
g310
sg64
(lp322
S':'
asbag57
(g78
g59
NtRp323
(dp324
g62
(dp325
sg71
g310
sg64
(lp326
g57
(g58
g59
NtRp327
(dp328
g62
(dp329
g70
I3
ssg71
g323
sg64
(lp330
S''
asbasbasbag57
(g73
g59
NtRp331
(dp332
g62
(dp333
sg71
g285
sg64
(lp334
g57
(g78
g59
NtRp335
(dp336
g62
(dp337
g82
g83
ssg71
g331
sg64
(lp338
S'expires'
p339
asbag57
(g78
g59
NtRp340
(dp341
g62
(dp342
g89
g90
ssg71
g331
sg64
(lp343
S':'
asbag57
(g78
g59
NtRp344
(dp345
g62
(dp346
sg71
g331
sg64
(lp347
g57
(g58
g59
NtRp348
(dp349
g62
(dp350
g70
I3
ssg71
g344
sg64
(lp351
S''
asbasbasbag57
(g73
g59
NtRp352
(dp353
g62
(dp354
sg71
g285
sg64
(lp355
g57
(g78
g59
NtRp356
(dp357
g62
(dp358
g82
g83
ssg71
g352
sg64
(lp359
S'httponly'
p360
asbag57
(g78
g59
NtRp361
(dp362
g62
(dp363
g89
g90
ssg71
g352
sg64
(lp364
S':'
asbag57
(g78
g59
NtRp365
(dp366
g62
(dp367
sg71
g352
sg64
(lp368
g57
(g58
g59
NtRp369
(dp370
g62
(dp371
g70
I3
ssg71
g365
sg64
(lp372
S''
asbasbasbag57
(g73
g59
NtRp373
(dp374
g62
(dp375
sg71
g285
sg64
(lp376
g57
(g78
g59
NtRp377
(dp378
g62
(dp379
g82
g83
ssg71
g373
sg64
(lp380
S'max-age'
p381
asbag57
(g78
g59
NtRp382
(dp383
g62
(dp384
g89
g90
ssg71
g373
sg64
(lp385
S':'
asbag57
(g78
g59
NtRp386
(dp387
g62
(dp388
sg71
g373
sg64
(lp389
g57
(g58
g59
NtRp390
(dp391
g62
(dp392
g70
I3
ssg71
g386
sg64
(lp393
S''
asbasbasbag57
(g73
g59
NtRp394
(dp395
g62
(dp396
sg71
g285
sg64
(lp397
g57
(g78
g59
NtRp398
(dp399
g62
(dp400
g82
g83
ssg71
g394
sg64
(lp401
S'path'
p402
asbag57
(g78
g59
NtRp403
(dp404
g62
(dp405
g89
g90
ssg71
g394
sg64
(lp406
S':'
asbag57
(g78
g59
NtRp407
(dp408
g62
(dp409
sg71
g394
sg64
(lp410
g57
(g58
g59
NtRp411
(dp412
g62
(dp413
g70
I3
ssg71
g407
sg64
(lp414
S''
asbasbasbag57
(g73
g59
NtRp415
(dp416
g62
(dp417
sg71
g285
sg64
(lp418
g57
(g78
g59
NtRp419
(dp420
g62
(dp421
g82
g83
ssg71
g415
sg64
(lp422
S'secure'
p423
asbag57
(g78
g59
NtRp424
(dp425
g62
(dp426
g89
g90
ssg71
g415
sg64
(lp427
S':'
asbag57
(g78
g59
NtRp428
(dp429
g62
(dp430
sg71
g415
sg64
(lp431
g57
(g58
g59
NtRp432
(dp433
g62
(dp434
g70
I3
ssg71
g428
sg64
(lp435
S''
asbasbasbag57
(g73
g59
NtRp436
(dp437
g62
(dp438
sg71
g285
sg64
(lp439
g57
(g78
g59
NtRp440
(dp441
g62
(dp442
g82
g83
ssg71
g436
sg64
(lp443
S'version'
p444
asbag57
(g78
g59
NtRp445
(dp446
g62
(dp447
g89
g90
ssg71
g436
sg64
(lp448
S':'
asbag57
(g78
g59
NtRp449
(dp450
g62
(dp451
sg71
g436
sg64
(lp452
g57
(g58
g59
NtRp453
(dp454
g62
(dp455
g70
I3
ssg71
g449
sg64
(lp456
S''
asbasbasbasbasbasbasbag57
(g73
g59
NtRp457
(dp458
g62
(dp459
sg71
g260
sg64
(lp460
g57
(g78
g59
NtRp461
(dp462
g62
(dp463
g82
g83
ssg71
g457
sg64
(lp464
S'session_id_igor'
p465
asbag57
(g78
g59
NtRp466
(dp467
g62
(dp468
g89
g90
ssg71
g457
sg64
(lp469
S':'
asbag57
(g78
g59
NtRp470
(dp471
g62
(dp472
sg71
g457
sg64
(lp473
g57
(g58
g59
NtRp474
(dp475
g62
(dp476
g70
I4
ssg71
g470
sg64
(lp477
g57
(g66
g59
NtRp478
(dp479
g62
(dp480
g70
I3
ssg71
Nsg64
(lp481
g57
(g73
g59
NtRp482
(dp483
g62
(dp484
sg71
g478
sg64
(lp485
g57
(g78
g59
NtRp486
(dp487
g62
(dp488
g82
g83
ssg71
g482
sg64
(lp489
g297
asbag57
(g78
g59
NtRp490
(dp491
g62
(dp492
g89
g90
ssg71
g482
sg64
(lp493
S':'
asbag57
(g78
g59
NtRp494
(dp495
g62
(dp496
sg71
g482
sg64
(lp497
g57
(g58
g59
NtRp498
(dp499
g62
(dp500
g70
I3
ssg71
g494
sg64
(lp501
S''
asbasbasbag57
(g73
g59
NtRp502
(dp503
g62
(dp504
sg71
g478
sg64
(lp505
g57
(g78
g59
NtRp506
(dp507
g62
(dp508
g82
g83
ssg71
g502
sg64
(lp509
g318
asbag57
(g78
g59
NtRp510
(dp511
g62
(dp512
g89
g90
ssg71
g502
sg64
(lp513
S':'
asbag57
(g78
g59
NtRp514
(dp515
g62
(dp516
sg71
g502
sg64
(lp517
g57
(g58
g59
NtRp518
(dp519
g62
(dp520
g70
I3
ssg71
g514
sg64
(lp521
S''
asbasbasbag57
(g73
g59
NtRp522
(dp523
g62
(dp524
sg71
g478
sg64
(lp525
g57
(g78
g59
NtRp526
(dp527
g62
(dp528
g82
g83
ssg71
g522
sg64
(lp529
g339
asbag57
(g78
g59
NtRp530
(dp531
g62
(dp532
g89
g90
ssg71
g522
sg64
(lp533
S':'
asbag57
(g78
g59
NtRp534
(dp535
g62
(dp536
sg71
g522
sg64
(lp537
g57
(g58
g59
NtRp538
(dp539
g62
(dp540
g70
I3
ssg71
g534
sg64
(lp541
S''
asbasbasbag57
(g73
g59
NtRp542
(dp543
g62
(dp544
sg71
g478
sg64
(lp545
g57
(g78
g59
NtRp546
(dp547
g62
(dp548
g82
g83
ssg71
g542
sg64
(lp549
g360
asbag57
(g78
g59
NtRp550
(dp551
g62
(dp552
g89
g90
ssg71
g542
sg64
(lp553
S':'
asbag57
(g78
g59
NtRp554
(dp555
g62
(dp556
sg71
g542
sg64
(lp557
g57
(g58
g59
NtRp558
(dp559
g62
(dp560
g70
I3
ssg71
g554
sg64
(lp561
S''
asbasbasbag57
(g73
g59
NtRp562
(dp563
g62
(dp564
sg71
g478
sg64
(lp565
g57
(g78
g59
NtRp566
(dp567
g62
(dp568
g82
g83
ssg71
g562
sg64
(lp569
g381
asbag57
(g78
g59
NtRp570
(dp571
g62
(dp572
g89
g90
ssg71
g562
sg64
(lp573
S':'
asbag57
(g78
g59
NtRp574
(dp575
g62
(dp576
sg71
g562
sg64
(lp577
g57
(g58
g59
NtRp578
(dp579
g62
(dp580
g70
I3
ssg71
g574
sg64
(lp581
S''
asbasbasbag57
(g73
g59
NtRp582
(dp583
g62
(dp584
sg71
g478
sg64
(lp585
g57
(g78
g59
NtRp586
(dp587
g62
(dp588
g82
g83
ssg71
g582
sg64
(lp589
g402
asbag57
(g78
g59
NtRp590
(dp591
g62
(dp592
g89
g90
ssg71
g582
sg64
(lp593
S':'
asbag57
(g78
g59
NtRp594
(dp595
g62
(dp596
sg71
g582
sg64
(lp597
g57
(g58
g59
NtRp598
(dp599
g62
(dp600
g70
I3
ssg71
g594
sg64
(lp601
S''
asbasbasbag57
(g73
g59
NtRp602
(dp603
g62
(dp604
sg71
g478
sg64
(lp605
g57
(g78
g59
NtRp606
(dp607
g62
(dp608
g82
g83
ssg71
g602
sg64
(lp609
g423
asbag57
(g78
g59
NtRp610
(dp611
g62
(dp612
g89
g90
ssg71
g602
sg64
(lp613
S':'
asbag57
(g78
g59
NtRp614
(dp615
g62
(dp616
sg71
g602
sg64
(lp617
g57
(g58
g59
NtRp618
(dp619
g62
(dp620
g70
I3
ssg71
g614
sg64
(lp621
S''
asbasbasbag57
(g73
g59
NtRp622
(dp623
g62
(dp624
sg71
g478
sg64
(lp625
g57
(g78
g59
NtRp626
(dp627
g62
(dp628
g82
g83
ssg71
g622
sg64
(lp629
g444
asbag57
(g78
g59
NtRp630
(dp631
g62
(dp632
g89
g90
ssg71
g622
sg64
(lp633
S':'
asbag57
(g78
g59
NtRp634
(dp635
g62
(dp636
sg71
g622
sg64
(lp637
g57
(g58
g59
NtRp638
(dp639
g62
(dp640
g70
I3
ssg71
g634
sg64
(lp641
S''
asbasbasbasbasbasbasbag57
(g73
g59
NtRp642
(dp643
g62
(dp644
sg71
g260
sg64
(lp645
g57
(g78
g59
NtRp646
(dp647
g62
(dp648
g82
g83
ssg71
g642
sg64
(lp649
S'session_id_welcome'
p650
asbag57
(g78
g59
NtRp651
(dp652
g62
(dp653
g89
g90
ssg71
g642
sg64
(lp654
S':'
asbag57
(g78
g59
NtRp655
(dp656
g62
(dp657
sg71
g642
sg64
(lp658
g57
(g58
g59
NtRp659
(dp660
g62
(dp661
g70
I4
ssg71
g655
sg64
(lp662
g57
(g66
g59
NtRp663
(dp664
g62
(dp665
g70
I3
ssg71
Nsg64
(lp666
g57
(g73
g59
NtRp667
(dp668
g62
(dp669
sg71
g663
sg64
(lp670
g57
(g78
g59
NtRp671
(dp672
g62
(dp673
g82
g83
ssg71
g667
sg64
(lp674
g297
asbag57
(g78
g59
NtRp675
(dp676
g62
(dp677
g89
g90
ssg71
g667
sg64
(lp678
S':'
asbag57
(g78
g59
NtRp679
(dp680
g62
(dp681
sg71
g667
sg64
(lp682
g57
(g58
g59
NtRp683
(dp684
g62
(dp685
g70
I3
ssg71
g679
sg64
(lp686
S''
asbasbasbag57
(g73
g59
NtRp687
(dp688
g62
(dp689
sg71
g663
sg64
(lp690
g57
(g78
g59
NtRp691
(dp692
g62
(dp693
g82
g83
ssg71
g687
sg64
(lp694
g318
asbag57
(g78
g59
NtRp695
(dp696
g62
(dp697
g89
g90
ssg71
g687
sg64
(lp698
S':'
asbag57
(g78
g59
NtRp699
(dp700
g62
(dp701
sg71
g687
sg64
(lp702
g57
(g58
g59
NtRp703
(dp704
g62
(dp705
g70
I3
ssg71
g699
sg64
(lp706
S''
asbasbasbag57
(g73
g59
NtRp707
(dp708
g62
(dp709
sg71
g663
sg64
(lp710
g57
(g78
g59
NtRp711
(dp712
g62
(dp713
g82
g83
ssg71
g707
sg64
(lp714
g339
asbag57
(g78
g59
NtRp715
(dp716
g62
(dp717
g89
g90
ssg71
g707
sg64
(lp718
S':'
asbag57
(g78
g59
NtRp719
(dp720
g62
(dp721
sg71
g707
sg64
(lp722
g57
(g58
g59
NtRp723
(dp724
g62
(dp725
g70
I3
ssg71
g719
sg64
(lp726
S''
asbasbasbag57
(g73
g59
NtRp727
(dp728
g62
(dp729
sg71
g663
sg64
(lp730
g57
(g78
g59
NtRp731
(dp732
g62
(dp733
g82
g83
ssg71
g727
sg64
(lp734
g360
asbag57
(g78
g59
NtRp735
(dp736
g62
(dp737
g89
g90
ssg71
g727
sg64
(lp738
S':'
asbag57
(g78
g59
NtRp739
(dp740
g62
(dp741
sg71
g727
sg64
(lp742
g57
(g58
g59
NtRp743
(dp744
g62
(dp745
g70
I3
ssg71
g739
sg64
(lp746
S''
asbasbasbag57
(g73
g59
NtRp747
(dp748
g62
(dp749
sg71
g663
sg64
(lp750
g57
(g78
g59
NtRp751
(dp752
g62
(dp753
g82
g83
ssg71
g747
sg64
(lp754
g381
asbag57
(g78
g59
NtRp755
(dp756
g62
(dp757
g89
g90
ssg71
g747
sg64
(lp758
S':'
asbag57
(g78
g59
NtRp759
(dp760
g62
(dp761
sg71
g747
sg64
(lp762
g57
(g58
g59
NtRp763
(dp764
g62
(dp765
g70
I3
ssg71
g759
sg64
(lp766
S''
asbasbasbag57
(g73
g59
NtRp767
(dp768
g62
(dp769
sg71
g663
sg64
(lp770
g57
(g78
g59
NtRp771
(dp772
g62
(dp773
g82
g83
ssg71
g767
sg64
(lp774
g402
asbag57
(g78
g59
NtRp775
(dp776
g62
(dp777
g89
g90
ssg71
g767
sg64
(lp778
S':'
asbag57
(g78
g59
NtRp779
(dp780
g62
(dp781
sg71
g767
sg64
(lp782
g57
(g58
g59
NtRp783
(dp784
g62
(dp785
g70
I3
ssg71
g779
sg64
(lp786
S''
asbasbasbag57
(g73
g59
NtRp787
(dp788
g62
(dp789
sg71
g663
sg64
(lp790
g57
(g78
g59
NtRp791
(dp792
g62
(dp793
g82
g83
ssg71
g787
sg64
(lp794
g423
asbag57
(g78
g59
NtRp795
(dp796
g62
(dp797
g89
g90
ssg71
g787
sg64
(lp798
S':'
asbag57
(g78
g59
NtRp799
(dp800
g62
(dp801
sg71
g787
sg64
(lp802
g57
(g58
g59
NtRp803
(dp804
g62
(dp805
g70
I3
ssg71
g799
sg64
(lp806
S''
asbasbasbag57
(g73
g59
NtRp807
(dp808
g62
(dp809
sg71
g663
sg64
(lp810
g57
(g78
g59
NtRp811
(dp812
g62
(dp813
g82
g83
ssg71
g807
sg64
(lp814
g444
asbag57
(g78
g59
NtRp815
(dp816
g62
(dp817
g89
g90
ssg71
g807
sg64
(lp818
S':'
asbag57
(g78
g59
NtRp819
(dp820
g62
(dp821
sg71
g807
sg64
(lp822
g57
(g58
g59
NtRp823
(dp824
g62
(dp825
g70
I3
ssg71
g819
sg64
(lp826
S''
asbasbasbasbasbasbasbasbasbasbasbag57
(g73
g59
NtRp827
(dp828
g62
(dp829
sg71
g67
sg64
(lp830
g57
(g78
g59
NtRp831
(dp832
g62
(dp833
g82
g83
ssg71
g827
sg64
(lp834
S'env'
p835
asbag57
(g78
g59
NtRp836
(dp837
g62
(dp838
g89
g90
ssg71
g827
sg64
(lp839
S':'
asbag57
(g78
g59
NtRp840
(dp841
g62
(dp842
sg71
g827
sg64
(lp843
g57
(g58
g59
NtRp844
(dp845
g62
(dp846
g70
I5
ssg71
g840
sg64
(lp847
g57
(g66
g59
NtRp848
(dp849
g62
(dp850
g70
I4
ssg71
Nsg64
(lp851
g57
(g73
g59
NtRp852
(dp853
g62
(dp854
sg71
g848
sg64
(lp855
g57
(g78
g59
NtRp856
(dp857
g62
(dp858
g82
g83
ssg71
g852
sg64
(lp859
S'app_folders'
p860
asbag57
(g78
g59
NtRp861
(dp862
g62
(dp863
g89
g90
ssg71
g852
sg64
(lp864
S':'
asbag57
(g78
g59
NtRp865
(dp866
g62
(dp867
sg71
g852
sg64
(lp868
g57
(g58
g59
NtRp869
(dp870
g62
(dp871
g70
I4
ssg71
g865
sg64
(lp872
S"set(['D:\\\\workspace\\\\ca\\\\IgoR\\\\C_Sources\\\\Server\\\\igor-assistant-ca-2012\\\\applications\\\\igor\\\\', 'D:\\\\workspace\\\\ca\\\\IgoR\\\\C_Sources\\\\Server\\\\igor-assistant-ca-2012\\\\applications\\\\welcome\\\\'])"
p873
asbasbasbag57
(g73
g59
NtRp874
(dp875
g62
(dp876
sg71
g848
sg64
(lp877
g57
(g78
g59
NtRp878
(dp879
g62
(dp880
g82
g83
ssg71
g874
sg64
(lp881
S'applications_parent'
p882
asbag57
(g78
g59
NtRp883
(dp884
g62
(dp885
g89
g90
ssg71
g874
sg64
(lp886
S':'
asbag57
(g78
g59
NtRp887
(dp888
g62
(dp889
sg71
g874
sg64
(lp890
g57
(g58
g59
NtRp891
(dp892
g62
(dp893
g70
I4
ssg71
g887
sg64
(lp894
S'D:\\workspace\\ca\\IgoR\\C_Sources\\Server\\igor-assistant-ca-2012'
p895
asbasbasbag57
(g73
g59
NtRp896
(dp897
g62
(dp898
sg71
g848
sg64
(lp899
g57
(g78
g59
NtRp900
(dp901
g62
(dp902
g82
g83
ssg71
g896
sg64
(lp903
S'cmd_args'
p904
asbag57
(g78
g59
NtRp905
(dp906
g62
(dp907
g89
g90
ssg71
g896
sg64
(lp908
S':'
asbag57
(g78
g59
NtRp909
(dp910
g62
(dp911
sg71
g896
sg64
(lp912
g57
(g58
g59
NtRp913
(dp914
g62
(dp915
g70
I4
ssg71
g909
sg64
(lp916
g57
(g66
g59
NtRp917
(dp918
g62
(dp919
g70
I3
ssg71
Nsg64
(lp920
g57
(g73
g59
NtRp921
(dp922
g62
(dp923
sg71
g917
sg64
(lp924
g57
(g78
g59
NtRp925
(dp926
g62
(dp927
sg71
g921
sg64
(lp928
g57
(g58
g59
NtRp929
(dp930
g62
(dp931
g70
I3
ssg71
g925
sg64
(lp932
S'startserver'
p933
asbasbasbasbasbasbasbag57
(g73
g59
NtRp934
(dp935
g62
(dp936
sg71
g848
sg64
(lp937
g57
(g78
g59
NtRp938
(dp939
g62
(dp940
g82
g83
ssg71
g934
sg64
(lp941
S'cmd_options'
p942
asbag57
(g78
g59
NtRp943
(dp944
g62
(dp945
g89
g90
ssg71
g934
sg64
(lp946
S':'
asbag57
(g78
g59
NtRp947
(dp948
g62
(dp949
sg71
g934
sg64
(lp950
g57
(g58
g59
NtRp951
(dp952
g62
(dp953
g70
I4
ssg71
g947
sg64
(lp954
S"<Values at 0x3623d88: {'verbose': False, 'ip': '127.0.0.1', 'shutdown_timeout': 5, 'taskbar': False, 'nocron': False, 'pid_filename': 'httpserver.pid', 'maxthreads': None, 'softcron': False, 'server_name': 'PHUCNH-PC', 'bpython': False, 'nogui': False, 'port': 8000, 'extcron': False, 'debuglevel': 30, 'test': None, 'folder': 'D:\\\\workspace\\\\ca\\\\IgoR\\\\C_Sources\\\\Server\\\\igor-assistant-ca-2012', 'config': '', 'import_models': False, 'winservice': '', 'shell': None, 'run': '', 'log_filename': 'httpserver.log', 'args': [''], 'socket_timeout': 5, 'ssl_ca_certificate': None, 'scheduler': None, 'profiler_filename': None, 'ssl_private_key': '', 'password': '<ask>', 'request_queue_size': 5, 'ssl_certificate': '', 'cronjob': False, 'numthreads': None, 'quiet': False, 'interfaces': None, 'minthreads': None, 'timeout': 10, 'plain': False, 'nobanner': False}>"
p955
asbasbasbag57
(g73
g59
NtRp956
(dp957
g62
(dp958
sg71
g848
sg64
(lp959
g57
(g78
g59
NtRp960
(dp961
g62
(dp962
g82
g83
ssg71
g956
sg64
(lp963
S'db_sessions'
p964
asbag57
(g78
g59
NtRp965
(dp966
g62
(dp967
g89
g90
ssg71
g956
sg64
(lp968
S':'
asbag57
(g78
g59
NtRp969
(dp970
g62
(dp971
sg71
g956
sg64
(lp972
g57
(g58
g59
NtRp973
(dp974
g62
(dp975
g70
I4
ssg71
g969
sg64
(lp976
S'set([])'
p977
asbasbasbag57
(g73
g59
NtRp978
(dp979
g62
(dp980
sg71
g848
sg64
(lp981
g57
(g78
g59
NtRp982
(dp983
g62
(dp984
g82
g83
ssg71
g978
sg64
(lp985
S'debugging'
p986
asbag57
(g78
g59
NtRp987
(dp988
g62
(dp989
g89
g90
ssg71
g978
sg64
(lp990
S':'
asbag57
(g78
g59
NtRp991
(dp992
g62
(dp993
sg71
g978
sg64
(lp994
g57
(g58
g59
NtRp995
(dp996
g62
(dp997
g70
I4
ssg71
g991
sg64
(lp998
g100
asbasbasbag57
(g73
g59
NtRp999
(dp1000
g62
(dp1001
sg71
g848
sg64
(lp1002
g57
(g78
g59
NtRp1003
(dp1004
g62
(dp1005
g82
g83
ssg71
g999
sg64
(lp1006
S'gluon_parent'
p1007
asbag57
(g78
g59
NtRp1008
(dp1009
g62
(dp1010
g89
g90
ssg71
g999
sg64
(lp1011
S':'
asbag57
(g78
g59
NtRp1012
(dp1013
g62
(dp1014
sg71
g999
sg64
(lp1015
g57
(g58
g59
NtRp1016
(dp1017
g62
(dp1018
g70
I4
ssg71
g1012
sg64
(lp1019
S'D:\\workspace\\ca\\IgoR\\C_Sources\\Server\\igor-assistant-ca-2012'
p1020
asbasbasbag57
(g73
g59
NtRp1021
(dp1022
g62
(dp1023
sg71
g848
sg64
(lp1024
g57
(g78
g59
NtRp1025
(dp1026
g62
(dp1027
g82
g83
ssg71
g1021
sg64
(lp1028
S'http_accept'
p1029
asbag57
(g78
g59
NtRp1030
(dp1031
g62
(dp1032
g89
g90
ssg71
g1021
sg64
(lp1033
S':'
asbag57
(g78
g59
NtRp1034
(dp1035
g62
(dp1036
sg71
g1021
sg64
(lp1037
g57
(g58
g59
NtRp1038
(dp1039
g62
(dp1040
g70
I4
ssg71
g1034
sg64
(lp1041
S'text/html,application/xhtml+xml,application/xml;q=0.9,*/*;q=0.8'
p1042
asbasbasbag57
(g73
g59
NtRp1043
(dp1044
g62
(dp1045
sg71
g848
sg64
(lp1046
g57
(g78
g59
NtRp1047
(dp1048
g62
(dp1049
g82
g83
ssg71
g1043
sg64
(lp1050
S'http_accept_charset'
p1051
asbag57
(g78
g59
NtRp1052
(dp1053
g62
(dp1054
g89
g90
ssg71
g1043
sg64
(lp1055
S':'
asbag57
(g78
g59
NtRp1056
(dp1057
g62
(dp1058
sg71
g1043
sg64
(lp1059
g57
(g58
g59
NtRp1060
(dp1061
g62
(dp1062
g70
I4
ssg71
g1056
sg64
(lp1063
S'UTF-8,*;q=0.5'
p1064
asbasbasbag57
(g73
g59
NtRp1065
(dp1066
g62
(dp1067
sg71
g848
sg64
(lp1068
g57
(g78
g59
NtRp1069
(dp1070
g62
(dp1071
g82
g83
ssg71
g1065
sg64
(lp1072
S'http_accept_encoding'
p1073
asbag57
(g78
g59
NtRp1074
(dp1075
g62
(dp1076
g89
g90
ssg71
g1065
sg64
(lp1077
S':'
asbag57
(g78
g59
NtRp1078
(dp1079
g62
(dp1080
sg71
g1065
sg64
(lp1081
g57
(g58
g59
NtRp1082
(dp1083
g62
(dp1084
g70
I4
ssg71
g1078
sg64
(lp1085
S'gzip,deflate,sdch'
p1086
asbasbasbag57
(g73
g59
NtRp1087
(dp1088
g62
(dp1089
sg71
g848
sg64
(lp1090
g57
(g78
g59
NtRp1091
(dp1092
g62
(dp1093
g82
g83
ssg71
g1087
sg64
(lp1094
S'http_accept_language'
p1095
asbag57
(g78
g59
NtRp1096
(dp1097
g62
(dp1098
g89
g90
ssg71
g1087
sg64
(lp1099
S':'
asbag57
(g78
g59
NtRp1100
(dp1101
g62
(dp1102
sg71
g1087
sg64
(lp1103
g57
(g58
g59
NtRp1104
(dp1105
g62
(dp1106
g70
I4
ssg71
g1100
sg64
(lp1107
S'en-US,en;q=0.8,vi;q=0.6,fr-FR;q=0.4,fr;q=0.2'
p1108
asbasbasbag57
(g73
g59
NtRp1109
(dp1110
g62
(dp1111
sg71
g848
sg64
(lp1112
g57
(g78
g59
NtRp1113
(dp1114
g62
(dp1115
g82
g83
ssg71
g1109
sg64
(lp1116
S'http_connection'
p1117
asbag57
(g78
g59
NtRp1118
(dp1119
g62
(dp1120
g89
g90
ssg71
g1109
sg64
(lp1121
S':'
asbag57
(g78
g59
NtRp1122
(dp1123
g62
(dp1124
sg71
g1109
sg64
(lp1125
g57
(g58
g59
NtRp1126
(dp1127
g62
(dp1128
g70
I4
ssg71
g1122
sg64
(lp1129
S'keep-alive'
p1130
asbasbasbag57
(g73
g59
NtRp1131
(dp1132
g62
(dp1133
sg71
g848
sg64
(lp1134
g57
(g78
g59
NtRp1135
(dp1136
g62
(dp1137
g82
g83
ssg71
g1131
sg64
(lp1138
S'http_cookie'
p1139
asbag57
(g78
g59
NtRp1140
(dp1141
g62
(dp1142
g89
g90
ssg71
g1131
sg64
(lp1143
S':'
asbag57
(g78
g59
NtRp1144
(dp1145
g62
(dp1146
sg71
g1131
sg64
(lp1147
g57
(g58
g59
NtRp1148
(dp1149
g62
(dp1150
g70
I4
ssg71
g1144
sg64
(lp1151
S'session_id_igor=127.0.0.1-8ed3e98d-1cf8-49f8-b746-81d904934cc2; session_id_admin=127.0.0.1-09abd0ca-c550-4c89-9a05-f31195dc8a18; session_id_welcome=127.0.0.1-79d5828c-c17a-4224-96b8-25d49468e5fc'
p1152
asbasbasbag57
(g73
g59
NtRp1153
(dp1154
g62
(dp1155
sg71
g848
sg64
(lp1156
g57
(g78
g59
NtRp1157
(dp1158
g62
(dp1159
g82
g83
ssg71
g1153
sg64
(lp1160
S'http_host'
p1161
asbag57
(g78
g59
NtRp1162
(dp1163
g62
(dp1164
g89
g90
ssg71
g1153
sg64
(lp1165
S':'
asbag57
(g78
g59
NtRp1166
(dp1167
g62
(dp1168
sg71
g1153
sg64
(lp1169
g57
(g58
g59
NtRp1170
(dp1171
g62
(dp1172
g70
I4
ssg71
g1166
sg64
(lp1173
S'127.0.0.1:8000'
p1174
asbasbasbag57
(g73
g59
NtRp1175
(dp1176
g62
(dp1177
sg71
g848
sg64
(lp1178
g57
(g78
g59
NtRp1179
(dp1180
g62
(dp1181
g82
g83
ssg71
g1175
sg64
(lp1182
S'http_user_agent'
p1183
asbag57
(g78
g59
NtRp1184
(dp1185
g62
(dp1186
g89
g90
ssg71
g1175
sg64
(lp1187
S':'
asbag57
(g78
g59
NtRp1188
(dp1189
g62
(dp1190
sg71
g1175
sg64
(lp1191
g57
(g58
g59
NtRp1192
(dp1193
g62
(dp1194
g70
I4
ssg71
g1188
sg64
(lp1195
S'Mozilla/5.0 (Windows NT 6.1; WOW64) AppleWebKit/536.11 (KHTML, like Gecko) Chrome/20.0.1132.57 Safari/536.11'
p1196
asbasbasbag57
(g73
g59
NtRp1197
(dp1198
g62
(dp1199
sg71
g848
sg64
(lp1200
g57
(g78
g59
NtRp1201
(dp1202
g62
(dp1203
g82
g83
ssg71
g1197
sg64
(lp1204
S'is_jython'
p1205
asbag57
(g78
g59
NtRp1206
(dp1207
g62
(dp1208
g89
g90
ssg71
g1197
sg64
(lp1209
S':'
asbag57
(g78
g59
NtRp1210
(dp1211
g62
(dp1212
sg71
g1197
sg64
(lp1213
g57
(g58
g59
NtRp1214
(dp1215
g62
(dp1216
g70
I4
ssg71
g1210
sg64
(lp1217
g100
asbasbasbag57
(g73
g59
NtRp1218
(dp1219
g62
(dp1220
sg71
g848
sg64
(lp1221
g57
(g78
g59
NtRp1222
(dp1223
g62
(dp1224
g82
g83
ssg71
g1218
sg64
(lp1225
S'is_pypy'
p1226
asbag57
(g78
g59
NtRp1227
(dp1228
g62
(dp1229
g89
g90
ssg71
g1218
sg64
(lp1230
S':'
asbag57
(g78
g59
NtRp1231
(dp1232
g62
(dp1233
sg71
g1218
sg64
(lp1234
g57
(g58
g59
NtRp1235
(dp1236
g62
(dp1237
g70
I4
ssg71
g1231
sg64
(lp1238
g100
asbasbasbag57
(g73
g59
NtRp1239
(dp1240
g62
(dp1241
sg71
g848
sg64
(lp1242
g57
(g78
g59
NtRp1243
(dp1244
g62
(dp1245
g82
g83
ssg71
g1239
sg64
(lp1246
S'path_info'
p1247
asbag57
(g78
g59
NtRp1248
(dp1249
g62
(dp1250
g89
g90
ssg71
g1239
sg64
(lp1251
S':'
asbag57
(g78
g59
NtRp1252
(dp1253
g62
(dp1254
sg71
g1239
sg64
(lp1255
g57
(g58
g59
NtRp1256
(dp1257
g62
(dp1258
g70
I4
ssg71
g1252
sg64
(lp1259
S'/igor/class_subject/call/jsonrpc/get_class_detail'
p1260
asbasbasbag57
(g73
g59
NtRp1261
(dp1262
g62
(dp1263
sg71
g848
sg64
(lp1264
g57
(g78
g59
NtRp1265
(dp1266
g62
(dp1267
g82
g83
ssg71
g1261
sg64
(lp1268
S'query_string'
p1269
asbag57
(g78
g59
NtRp1270
(dp1271
g62
(dp1272
g89
g90
ssg71
g1261
sg64
(lp1273
S':'
asbag57
(g78
g59
NtRp1274
(dp1275
g62
(dp1276
sg71
g1261
sg64
(lp1277
g57
(g58
g59
NtRp1278
(dp1279
g62
(dp1280
g70
I4
ssg71
g1274
sg64
(lp1281
S'id=8'
p1282
asbasbasbag57
(g73
g59
NtRp1283
(dp1284
g62
(dp1285
sg71
g848
sg64
(lp1286
g57
(g78
g59
NtRp1287
(dp1288
g62
(dp1289
g82
g83
ssg71
g1283
sg64
(lp1290
S'remote_addr'
p1291
asbag57
(g78
g59
NtRp1292
(dp1293
g62
(dp1294
g89
g90
ssg71
g1283
sg64
(lp1295
S':'
asbag57
(g78
g59
NtRp1296
(dp1297
g62
(dp1298
sg71
g1283
sg64
(lp1299
g57
(g58
g59
NtRp1300
(dp1301
g62
(dp1302
g70
I4
ssg71
g1296
sg64
(lp1303
g216
asbasbasbag57
(g73
g59
NtRp1304
(dp1305
g62
(dp1306
sg71
g848
sg64
(lp1307
g57
(g78
g59
NtRp1308
(dp1309
g62
(dp1310
g82
g83
ssg71
g1304
sg64
(lp1311
S'remote_port'
p1312
asbag57
(g78
g59
NtRp1313
(dp1314
g62
(dp1315
g89
g90
ssg71
g1304
sg64
(lp1316
S':'
asbag57
(g78
g59
NtRp1317
(dp1318
g62
(dp1319
sg71
g1304
sg64
(lp1320
g57
(g58
g59
NtRp1321
(dp1322
g62
(dp1323
g70
I4
ssg71
g1317
sg64
(lp1324
S'23020'
p1325
asbasbasbag57
(g73
g59
NtRp1326
(dp1327
g62
(dp1328
sg71
g848
sg64
(lp1329
g57
(g78
g59
NtRp1330
(dp1331
g62
(dp1332
g82
g83
ssg71
g1326
sg64
(lp1333
S'request_method'
p1334
asbag57
(g78
g59
NtRp1335
(dp1336
g62
(dp1337
g89
g90
ssg71
g1326
sg64
(lp1338
S':'
asbag57
(g78
g59
NtRp1339
(dp1340
g62
(dp1341
sg71
g1326
sg64
(lp1342
g57
(g58
g59
NtRp1343
(dp1344
g62
(dp1345
g70
I4
ssg71
g1339
sg64
(lp1346
S'GET'
p1347
asbasbasbag57
(g73
g59
NtRp1348
(dp1349
g62
(dp1350
sg71
g848
sg64
(lp1351
g57
(g78
g59
NtRp1352
(dp1353
g62
(dp1354
g82
g83
ssg71
g1348
sg64
(lp1355
S'script_name'
p1356
asbag57
(g78
g59
NtRp1357
(dp1358
g62
(dp1359
g89
g90
ssg71
g1348
sg64
(lp1360
S':'
asbag57
(g78
g59
NtRp1361
(dp1362
g62
(dp1363
sg71
g1348
sg64
(lp1364
g57
(g58
g59
NtRp1365
(dp1366
g62
(dp1367
g70
I4
ssg71
g1361
sg64
(lp1368
S''
asbasbasbag57
(g73
g59
NtRp1369
(dp1370
g62
(dp1371
sg71
g848
sg64
(lp1372
g57
(g78
g59
NtRp1373
(dp1374
g62
(dp1375
g82
g83
ssg71
g1369
sg64
(lp1376
S'server_name'
p1377
asbag57
(g78
g59
NtRp1378
(dp1379
g62
(dp1380
g89
g90
ssg71
g1369
sg64
(lp1381
S':'
asbag57
(g78
g59
NtRp1382
(dp1383
g62
(dp1384
sg71
g1369
sg64
(lp1385
g57
(g58
g59
NtRp1386
(dp1387
g62
(dp1388
g70
I4
ssg71
g1382
sg64
(lp1389
S'PHUCNH-PC'
p1390
asbasbasbag57
(g73
g59
NtRp1391
(dp1392
g62
(dp1393
sg71
g848
sg64
(lp1394
g57
(g78
g59
NtRp1395
(dp1396
g62
(dp1397
g82
g83
ssg71
g1391
sg64
(lp1398
S'server_port'
p1399
asbag57
(g78
g59
NtRp1400
(dp1401
g62
(dp1402
g89
g90
ssg71
g1391
sg64
(lp1403
S':'
asbag57
(g78
g59
NtRp1404
(dp1405
g62
(dp1406
sg71
g1391
sg64
(lp1407
g57
(g58
g59
NtRp1408
(dp1409
g62
(dp1410
g70
I4
ssg71
g1404
sg64
(lp1411
S'8000'
p1412
asbasbasbag57
(g73
g59
NtRp1413
(dp1414
g62
(dp1415
sg71
g848
sg64
(lp1416
g57
(g78
g59
NtRp1417
(dp1418
g62
(dp1419
g82
g83
ssg71
g1413
sg64
(lp1420
S'server_protocol'
p1421
asbag57
(g78
g59
NtRp1422
(dp1423
g62
(dp1424
g89
g90
ssg71
g1413
sg64
(lp1425
S':'
asbag57
(g78
g59
NtRp1426
(dp1427
g62
(dp1428
sg71
g1413
sg64
(lp1429
g57
(g58
g59
NtRp1430
(dp1431
g62
(dp1432
g70
I4
ssg71
g1426
sg64
(lp1433
S'HTTP/1.1'
p1434
asbasbasbag57
(g73
g59
NtRp1435
(dp1436
g62
(dp1437
sg71
g848
sg64
(lp1438
g57
(g78
g59
NtRp1439
(dp1440
g62
(dp1441
g82
g83
ssg71
g1435
sg64
(lp1442
S'server_software'
p1443
asbag57
(g78
g59
NtRp1444
(dp1445
g62
(dp1446
g89
g90
ssg71
g1435
sg64
(lp1447
S':'
asbag57
(g78
g59
NtRp1448
(dp1449
g62
(dp1450
sg71
g1435
sg64
(lp1451
g57
(g58
g59
NtRp1452
(dp1453
g62
(dp1454
g70
I4
ssg71
g1448
sg64
(lp1455
S'Rocket 1.2.4'
p1456
asbasbasbag57
(g73
g59
NtRp1457
(dp1458
g62
(dp1459
sg71
g848
sg64
(lp1460
g57
(g78
g59
NtRp1461
(dp1462
g62
(dp1463
g82
g83
ssg71
g1457
sg64
(lp1464
S'web2py_crontype'
p1465
asbag57
(g78
g59
NtRp1466
(dp1467
g62
(dp1468
g89
g90
ssg71
g1457
sg64
(lp1469
S':'
asbag57
(g78
g59
NtRp1470
(dp1471
g62
(dp1472
sg71
g1457
sg64
(lp1473
g57
(g58
g59
NtRp1474
(dp1475
g62
(dp1476
g70
I4
ssg71
g1470
sg64
(lp1477
S'hard'
p1478
asbasbasbag57
(g73
g59
NtRp1479
(dp1480
g62
(dp1481
sg71
g848
sg64
(lp1482
g57
(g78
g59
NtRp1483
(dp1484
g62
(dp1485
g82
g83
ssg71
g1479
sg64
(lp1486
S'web2py_path'
p1487
asbag57
(g78
g59
NtRp1488
(dp1489
g62
(dp1490
g89
g90
ssg71
g1479
sg64
(lp1491
S':'
asbag57
(g78
g59
NtRp1492
(dp1493
g62
(dp1494
sg71
g1479
sg64
(lp1495
g57
(g58
g59
NtRp1496
(dp1497
g62
(dp1498
g70
I4
ssg71
g1492
sg64
(lp1499
g895
asbasbasbag57
(g73
g59
NtRp1500
(dp1501
g62
(dp1502
sg71
g848
sg64
(lp1503
g57
(g78
g59
NtRp1504
(dp1505
g62
(dp1506
g82
g83
ssg71
g1500
sg64
(lp1507
S'web2py_version'
p1508
asbag57
(g78
g59
NtRp1509
(dp1510
g62
(dp1511
g89
g90
ssg71
g1500
sg64
(lp1512
S':'
asbag57
(g78
g59
NtRp1513
(dp1514
g62
(dp1515
sg71
g1500
sg64
(lp1516
g57
(g58
g59
NtRp1517
(dp1518
g62
(dp1519
g70
I4
ssg71
g1513
sg64
(lp1520
g57
(g66
g59
NtRp1521
(dp1522
g62
(dp1523
g70
I3
ssg71
Nsg64
(lp1524
g57
(g73
g59
NtRp1525
(dp1526
g62
(dp1527
sg71
g1521
sg64
(lp1528
g57
(g78
g59
NtRp1529
(dp1530
g62
(dp1531
sg71
g1525
sg64
(lp1532
g57
(g58
g59
NtRp1533
(dp1534
g62
(dp1535
g70
I3
ssg71
g1529
sg64
(lp1536
S'1'
asbasbasbag57
(g73
g59
NtRp1537
(dp1538
g62
(dp1539
sg71
g1521
sg64
(lp1540
g57
(g78
g59
NtRp1541
(dp1542
g62
(dp1543
sg71
g1537
sg64
(lp1544
g57
(g58
g59
NtRp1545
(dp1546
g62
(dp1547
g70
I3
ssg71
g1541
sg64
(lp1548
S'99'
p1549
asbasbasbag57
(g73
g59
NtRp1550
(dp1551
g62
(dp1552
sg71
g1521
sg64
(lp1553
g57
(g78
g59
NtRp1554
(dp1555
g62
(dp1556
sg71
g1550
sg64
(lp1557
g57
(g58
g59
NtRp1558
(dp1559
g62
(dp1560
g70
I3
ssg71
g1554
sg64
(lp1561
S'7'
asbasbasbag57
(g73
g59
NtRp1562
(dp1563
g62
(dp1564
sg71
g1521
sg64
(lp1565
g57
(g78
g59
NtRp1566
(dp1567
g62
(dp1568
sg71
g1562
sg64
(lp1569
g57
(g58
g59
NtRp1570
(dp1571
g62
(dp1572
g70
I3
ssg71
g1566
sg64
(lp1573
S'datetime.datetime(2012, 3, 4, 22, 12, 8)'
p1574
asbasbasbag57
(g73
g59
NtRp1575
(dp1576
g62
(dp1577
sg71
g1521
sg64
(lp1578
g57
(g78
g59
NtRp1579
(dp1580
g62
(dp1581
sg71
g1575
sg64
(lp1582
g57
(g58
g59
NtRp1583
(dp1584
g62
(dp1585
g70
I3
ssg71
g1579
sg64
(lp1586
S'stable'
p1587
asbasbasbasbasbasbasbag57
(g73
g59
NtRp1588
(dp1589
g62
(dp1590
sg71
g848
sg64
(lp1591
g57
(g78
g59
NtRp1592
(dp1593
g62
(dp1594
g82
g83
ssg71
g1588
sg64
(lp1595
S'wsgi_errors'
p1596
asbag57
(g78
g59
NtRp1597
(dp1598
g62
(dp1599
g89
g90
ssg71
g1588
sg64
(lp1600
S':'
asbag57
(g78
g59
NtRp1601
(dp1602
g62
(dp1603
sg71
g1588
sg64
(lp1604
g57
(g58
g59
NtRp1605
(dp1606
g62
(dp1607
g70
I4
ssg71
g1601
sg64
(lp1608
S"<open file '<stderr>', mode 'w' at 0x0000000001C9E1E0>"
p1609
asbasbasbag57
(g73
g59
NtRp1610
(dp1611
g62
(dp1612
sg71
g848
sg64
(lp1613
g57
(g78
g59
NtRp1614
(dp1615
g62
(dp1616
g82
g83
ssg71
g1610
sg64
(lp1617
S'wsgi_file_wrapper'
p1618
asbag57
(g78
g59
NtRp1619
(dp1620
g62
(dp1621
g89
g90
ssg71
g1610
sg64
(lp1622
S':'
asbag57
(g78
g59
NtRp1623
(dp1624
g62
(dp1625
sg71
g1610
sg64
(lp1626
g57
(g58
g59
NtRp1627
(dp1628
g62
(dp1629
g70
I4
ssg71
g1623
sg64
(lp1630
S'<class wsgiref.util.FileWrapper at 0x00000000034E0AC8>'
p1631
asbasbasbag57
(g73
g59
NtRp1632
(dp1633
g62
(dp1634
sg71
g848
sg64
(lp1635
g57
(g78
g59
NtRp1636
(dp1637
g62
(dp1638
g82
g83
ssg71
g1632
sg64
(lp1639
S'wsgi_input'
p1640
asbag57
(g78
g59
NtRp1641
(dp1642
g62
(dp1643
g89
g90
ssg71
g1632
sg64
(lp1644
S':'
asbag57
(g78
g59
NtRp1645
(dp1646
g62
(dp1647
sg71
g1632
sg64
(lp1648
g57
(g58
g59
NtRp1649
(dp1650
g62
(dp1651
g70
I4
ssg71
g1645
sg64
(lp1652
S'<socket._fileobject object at 0x00000000057BA138>'
p1653
asbasbasbag57
(g73
g59
NtRp1654
(dp1655
g62
(dp1656
sg71
g848
sg64
(lp1657
g57
(g78
g59
NtRp1658
(dp1659
g62
(dp1660
g82
g83
ssg71
g1654
sg64
(lp1661
S'wsgi_multiprocess'
p1662
asbag57
(g78
g59
NtRp1663
(dp1664
g62
(dp1665
g89
g90
ssg71
g1654
sg64
(lp1666
S':'
asbag57
(g78
g59
NtRp1667
(dp1668
g62
(dp1669
sg71
g1654
sg64
(lp1670
g57
(g58
g59
NtRp1671
(dp1672
g62
(dp1673
g70
I4
ssg71
g1667
sg64
(lp1674
g100
asbasbasbag57
(g73
g59
NtRp1675
(dp1676
g62
(dp1677
sg71
g848
sg64
(lp1678
g57
(g78
g59
NtRp1679
(dp1680
g62
(dp1681
g82
g83
ssg71
g1675
sg64
(lp1682
S'wsgi_multithread'
p1683
asbag57
(g78
g59
NtRp1684
(dp1685
g62
(dp1686
g89
g90
ssg71
g1675
sg64
(lp1687
S':'
asbag57
(g78
g59
NtRp1688
(dp1689
g62
(dp1690
sg71
g1675
sg64
(lp1691
g57
(g58
g59
NtRp1692
(dp1693
g62
(dp1694
g70
I4
ssg71
g1688
sg64
(lp1695
S'True'
p1696
asbasbasbag57
(g73
g59
NtRp1697
(dp1698
g62
(dp1699
sg71
g848
sg64
(lp1700
g57
(g78
g59
NtRp1701
(dp1702
g62
(dp1703
g82
g83
ssg71
g1697
sg64
(lp1704
S'wsgi_run_once'
p1705
asbag57
(g78
g59
NtRp1706
(dp1707
g62
(dp1708
g89
g90
ssg71
g1697
sg64
(lp1709
S':'
asbag57
(g78
g59
NtRp1710
(dp1711
g62
(dp1712
sg71
g1697
sg64
(lp1713
g57
(g58
g59
NtRp1714
(dp1715
g62
(dp1716
g70
I4
ssg71
g1710
sg64
(lp1717
g100
asbasbasbag57
(g73
g59
NtRp1718
(dp1719
g62
(dp1720
sg71
g848
sg64
(lp1721
g57
(g78
g59
NtRp1722
(dp1723
g62
(dp1724
g82
g83
ssg71
g1718
sg64
(lp1725
S'wsgi_url_scheme'
p1726
asbag57
(g78
g59
NtRp1727
(dp1728
g62
(dp1729
g89
g90
ssg71
g1718
sg64
(lp1730
S':'
asbag57
(g78
g59
NtRp1731
(dp1732
g62
(dp1733
sg71
g1718
sg64
(lp1734
g57
(g58
g59
NtRp1735
(dp1736
g62
(dp1737
g70
I4
ssg71
g1731
sg64
(lp1738
S'http'
p1739
asbasbasbag57
(g73
g59
NtRp1740
(dp1741
g62
(dp1742
sg71
g848
sg64
(lp1743
g57
(g78
g59
NtRp1744
(dp1745
g62
(dp1746
g82
g83
ssg71
g1740
sg64
(lp1747
S'wsgi_version'
p1748
asbag57
(g78
g59
NtRp1749
(dp1750
g62
(dp1751
g89
g90
ssg71
g1740
sg64
(lp1752
S':'
asbag57
(g78
g59
NtRp1753
(dp1754
g62
(dp1755
sg71
g1740
sg64
(lp1756
g57
(g58
g59
NtRp1757
(dp1758
g62
(dp1759
g70
I4
ssg71
g1753
sg64
(lp1760
g57
(g66
g59
NtRp1761
(dp1762
g62
(dp1763
g70
I3
ssg71
Nsg64
(lp1764
g57
(g73
g59
NtRp1765
(dp1766
g62
(dp1767
sg71
g1761
sg64
(lp1768
g57
(g78
g59
NtRp1769
(dp1770
g62
(dp1771
sg71
g1765
sg64
(lp1772
g57
(g58
g59
NtRp1773
(dp1774
g62
(dp1775
g70
I3
ssg71
g1769
sg64
(lp1776
S'1'
asbasbasbag57
(g73
g59
NtRp1777
(dp1778
g62
(dp1779
sg71
g1761
sg64
(lp1780
g57
(g78
g59
NtRp1781
(dp1782
g62
(dp1783
sg71
g1777
sg64
(lp1784
g57
(g58
g59
NtRp1785
(dp1786
g62
(dp1787
g70
I3
ssg71
g1781
sg64
(lp1788
S'0'
asbasbasbasbasbasbasbasbasbasbasbag57
(g73
g59
NtRp1789
(dp1790
g62
(dp1791
sg71
g67
sg64
(lp1792
g57
(g78
g59
NtRp1793
(dp1794
g62
(dp1795
g82
g83
ssg71
g1789
sg64
(lp1796
S'extension'
p1797
asbag57
(g78
g59
NtRp1798
(dp1799
g62
(dp1800
g89
g90
ssg71
g1789
sg64
(lp1801
S':'
asbag57
(g78
g59
NtRp1802
(dp1803
g62
(dp1804
sg71
g1789
sg64
(lp1805
g57
(g58
g59
NtRp1806
(dp1807
g62
(dp1808
g70
I5
ssg71
g1802
sg64
(lp1809
S'html'
p1810
asbasbasbag57
(g73
g59
NtRp1811
(dp1812
g62
(dp1813
sg71
g67
sg64
(lp1814
g57
(g78
g59
NtRp1815
(dp1816
g62
(dp1817
g82
g83
ssg71
g1811
sg64
(lp1818
S'folder'
p1819
asbag57
(g78
g59
NtRp1820
(dp1821
g62
(dp1822
g89
g90
ssg71
g1811
sg64
(lp1823
S':'
asbag57
(g78
g59
NtRp1824
(dp1825
g62
(dp1826
sg71
g1811
sg64
(lp1827
g57
(g58
g59
NtRp1828
(dp1829
g62
(dp1830
g70
I5
ssg71
g1824
sg64
(lp1831
S'D:\\workspace\\ca\\IgoR\\C_Sources\\Server\\igor-assistant-ca-2012\\applications\\igor\\'
p1832
asbasbasbag57
(g73
g59
NtRp1833
(dp1834
g62
(dp1835
sg71
g67
sg64
(lp1836
g57
(g78
g59
NtRp1837
(dp1838
g62
(dp1839
g82
g83
ssg71
g1833
sg64
(lp1840
S'function'
p1841
asbag57
(g78
g59
NtRp1842
(dp1843
g62
(dp1844
g89
g90
ssg71
g1833
sg64
(lp1845
S':'
asbag57
(g78
g59
NtRp1846
(dp1847
g62
(dp1848
sg71
g1833
sg64
(lp1849
g57
(g58
g59
NtRp1850
(dp1851
g62
(dp1852
g70
I5
ssg71
g1846
sg64
(lp1853
S'call'
p1854
asbasbasbag57
(g73
g59
NtRp1855
(dp1856
g62
(dp1857
sg71
g67
sg64
(lp1858
g57
(g78
g59
NtRp1859
(dp1860
g62
(dp1861
g82
g83
ssg71
g1855
sg64
(lp1862
S'get_vars'
p1863
asbag57
(g78
g59
NtRp1864
(dp1865
g62
(dp1866
g89
g90
ssg71
g1855
sg64
(lp1867
S':'
asbag57
(g78
g59
NtRp1868
(dp1869
g62
(dp1870
sg71
g1855
sg64
(lp1871
g57
(g58
g59
NtRp1872
(dp1873
g62
(dp1874
g70
I5
ssg71
g1868
sg64
(lp1875
g57
(g66
g59
NtRp1876
(dp1877
g62
(dp1878
g70
I4
ssg71
Nsg64
(lp1879
g57
(g73
g59
NtRp1880
(dp1881
g62
(dp1882
sg71
g1876
sg64
(lp1883
g57
(g78
g59
NtRp1884
(dp1885
g62
(dp1886
g82
g83
ssg71
g1880
sg64
(lp1887
S'id'
p1888
asbag57
(g78
g59
NtRp1889
(dp1890
g62
(dp1891
g89
g90
ssg71
g1880
sg64
(lp1892
S':'
asbag57
(g78
g59
NtRp1893
(dp1894
g62
(dp1895
sg71
g1880
sg64
(lp1896
g57
(g58
g59
NtRp1897
(dp1898
g62
(dp1899
g70
I4
ssg71
g1893
sg64
(lp1900
S'8'
asbasbasbasbasbasbasbag57
(g73
g59
NtRp1901
(dp1902
g62
(dp1903
sg71
g67
sg64
(lp1904
g57
(g78
g59
NtRp1905
(dp1906
g62
(dp1907
g82
g83
ssg71
g1901
sg64
(lp1908
S'global_settings'
p1909
asbag57
(g78
g59
NtRp1910
(dp1911
g62
(dp1912
g89
g90
ssg71
g1901
sg64
(lp1913
S':'
asbag57
(g78
g59
NtRp1914
(dp1915
g62
(dp1916
sg71
g1901
sg64
(lp1917
g57
(g58
g59
NtRp1918
(dp1919
g62
(dp1920
g70
I5
ssg71
g1914
sg64
(lp1921
g57
(g66
g59
NtRp1922
(dp1923
g62
(dp1924
g70
I4
ssg71
Nsg64
(lp1925
g57
(g73
g59
NtRp1926
(dp1927
g62
(dp1928
sg71
g1922
sg64
(lp1929
g57
(g78
g59
NtRp1930
(dp1931
g62
(dp1932
g82
g83
ssg71
g1926
sg64
(lp1933
g860
asbag57
(g78
g59
NtRp1934
(dp1935
g62
(dp1936
g89
g90
ssg71
g1926
sg64
(lp1937
S':'
asbag57
(g78
g59
NtRp1938
(dp1939
g62
(dp1940
sg71
g1926
sg64
(lp1941
g57
(g58
g59
NtRp1942
(dp1943
g62
(dp1944
g70
I4
ssg71
g1938
sg64
(lp1945
S"set(['D:\\\\workspace\\\\ca\\\\IgoR\\\\C_Sources\\\\Server\\\\igor-assistant-ca-2012\\\\applications\\\\igor\\\\', 'D:\\\\workspace\\\\ca\\\\IgoR\\\\C_Sources\\\\Server\\\\igor-assistant-ca-2012\\\\applications\\\\welcome\\\\'])"
p1946
asbasbasbag57
(g73
g59
NtRp1947
(dp1948
g62
(dp1949
sg71
g1922
sg64
(lp1950
g57
(g78
g59
NtRp1951
(dp1952
g62
(dp1953
g82
g83
ssg71
g1947
sg64
(lp1954
g882
asbag57
(g78
g59
NtRp1955
(dp1956
g62
(dp1957
g89
g90
ssg71
g1947
sg64
(lp1958
S':'
asbag57
(g78
g59
NtRp1959
(dp1960
g62
(dp1961
sg71
g1947
sg64
(lp1962
g57
(g58
g59
NtRp1963
(dp1964
g62
(dp1965
g70
I4
ssg71
g1959
sg64
(lp1966
g895
asbasbasbag57
(g73
g59
NtRp1967
(dp1968
g62
(dp1969
sg71
g1922
sg64
(lp1970
g57
(g78
g59
NtRp1971
(dp1972
g62
(dp1973
g82
g83
ssg71
g1967
sg64
(lp1974
g904
asbag57
(g78
g59
NtRp1975
(dp1976
g62
(dp1977
g89
g90
ssg71
g1967
sg64
(lp1978
S':'
asbag57
(g78
g59
NtRp1979
(dp1980
g62
(dp1981
sg71
g1967
sg64
(lp1982
g57
(g58
g59
NtRp1983
(dp1984
g62
(dp1985
g70
I4
ssg71
g1979
sg64
(lp1986
g57
(g66
g59
NtRp1987
(dp1988
g62
(dp1989
g70
I3
ssg71
Nsg64
(lp1990
g57
(g73
g59
NtRp1991
(dp1992
g62
(dp1993
sg71
g1987
sg64
(lp1994
g57
(g78
g59
NtRp1995
(dp1996
g62
(dp1997
sg71
g1991
sg64
(lp1998
g57
(g58
g59
NtRp1999
(dp2000
g62
(dp2001
g70
I3
ssg71
g1995
sg64
(lp2002
g933
asbasbasbasbasbasbasbag57
(g73
g59
NtRp2003
(dp2004
g62
(dp2005
sg71
g1922
sg64
(lp2006
g57
(g78
g59
NtRp2007
(dp2008
g62
(dp2009
g82
g83
ssg71
g2003
sg64
(lp2010
g942
asbag57
(g78
g59
NtRp2011
(dp2012
g62
(dp2013
g89
g90
ssg71
g2003
sg64
(lp2014
S':'
asbag57
(g78
g59
NtRp2015
(dp2016
g62
(dp2017
sg71
g2003
sg64
(lp2018
g57
(g58
g59
NtRp2019
(dp2020
g62
(dp2021
g70
I4
ssg71
g2015
sg64
(lp2022
S"<Values at 0x3623d88: {'verbose': False, 'ip': '127.0.0.1', 'shutdown_timeout': 5, 'taskbar': False, 'nocron': False, 'pid_filename': 'httpserver.pid', 'maxthreads': None, 'softcron': False, 'server_name': 'PHUCNH-PC', 'bpython': False, 'nogui': False, 'port': 8000, 'extcron': False, 'debuglevel': 30, 'test': None, 'folder': 'D:\\\\workspace\\\\ca\\\\IgoR\\\\C_Sources\\\\Server\\\\igor-assistant-ca-2012', 'config': '', 'import_models': False, 'winservice': '', 'shell': None, 'run': '', 'log_filename': 'httpserver.log', 'args': [''], 'socket_timeout': 5, 'ssl_ca_certificate': None, 'scheduler': None, 'profiler_filename': None, 'ssl_private_key': '', 'password': '<ask>', 'request_queue_size': 5, 'ssl_certificate': '', 'cronjob': False, 'numthreads': None, 'quiet': False, 'interfaces': None, 'minthreads': None, 'timeout': 10, 'plain': False, 'nobanner': False}>"
p2023
asbasbasbag57
(g73
g59
NtRp2024
(dp2025
g62
(dp2026
sg71
g1922
sg64
(lp2027
g57
(g78
g59
NtRp2028
(dp2029
g62
(dp2030
g82
g83
ssg71
g2024
sg64
(lp2031
g964
asbag57
(g78
g59
NtRp2032
(dp2033
g62
(dp2034
g89
g90
ssg71
g2024
sg64
(lp2035
S':'
asbag57
(g78
g59
NtRp2036
(dp2037
g62
(dp2038
sg71
g2024
sg64
(lp2039
g57
(g58
g59
NtRp2040
(dp2041
g62
(dp2042
g70
I4
ssg71
g2036
sg64
(lp2043
S'set([])'
p2044
asbasbasbag57
(g73
g59
NtRp2045
(dp2046
g62
(dp2047
sg71
g1922
sg64
(lp2048
g57
(g78
g59
NtRp2049
(dp2050
g62
(dp2051
g82
g83
ssg71
g2045
sg64
(lp2052
g986
asbag57
(g78
g59
NtRp2053
(dp2054
g62
(dp2055
g89
g90
ssg71
g2045
sg64
(lp2056
S':'
asbag57
(g78
g59
NtRp2057
(dp2058
g62
(dp2059
sg71
g2045
sg64
(lp2060
g57
(g58
g59
NtRp2061
(dp2062
g62
(dp2063
g70
I4
ssg71
g2057
sg64
(lp2064
g100
asbasbasbag57
(g73
g59
NtRp2065
(dp2066
g62
(dp2067
sg71
g1922
sg64
(lp2068
g57
(g78
g59
NtRp2069
(dp2070
g62
(dp2071
g82
g83
ssg71
g2065
sg64
(lp2072
g1007
asbag57
(g78
g59
NtRp2073
(dp2074
g62
(dp2075
g89
g90
ssg71
g2065
sg64
(lp2076
S':'
asbag57
(g78
g59
NtRp2077
(dp2078
g62
(dp2079
sg71
g2065
sg64
(lp2080
g57
(g58
g59
NtRp2081
(dp2082
g62
(dp2083
g70
I4
ssg71
g2077
sg64
(lp2084
g1020
asbasbasbag57
(g73
g59
NtRp2085
(dp2086
g62
(dp2087
sg71
g1922
sg64
(lp2088
g57
(g78
g59
NtRp2089
(dp2090
g62
(dp2091
g82
g83
ssg71
g2085
sg64
(lp2092
g1205
asbag57
(g78
g59
NtRp2093
(dp2094
g62
(dp2095
g89
g90
ssg71
g2085
sg64
(lp2096
S':'
asbag57
(g78
g59
NtRp2097
(dp2098
g62
(dp2099
sg71
g2085
sg64
(lp2100
g57
(g58
g59
NtRp2101
(dp2102
g62
(dp2103
g70
I4
ssg71
g2097
sg64
(lp2104
g100
asbasbasbag57
(g73
g59
NtRp2105
(dp2106
g62
(dp2107
sg71
g1922
sg64
(lp2108
g57
(g78
g59
NtRp2109
(dp2110
g62
(dp2111
g82
g83
ssg71
g2105
sg64
(lp2112
g1226
asbag57
(g78
g59
NtRp2113
(dp2114
g62
(dp2115
g89
g90
ssg71
g2105
sg64
(lp2116
S':'
asbag57
(g78
g59
NtRp2117
(dp2118
g62
(dp2119
sg71
g2105
sg64
(lp2120
g57
(g58
g59
NtRp2121
(dp2122
g62
(dp2123
g70
I4
ssg71
g2117
sg64
(lp2124
g100
asbasbasbag57
(g73
g59
NtRp2125
(dp2126
g62
(dp2127
sg71
g1922
sg64
(lp2128
g57
(g78
g59
NtRp2129
(dp2130
g62
(dp2131
g82
g83
ssg71
g2125
sg64
(lp2132
g1465
asbag57
(g78
g59
NtRp2133
(dp2134
g62
(dp2135
g89
g90
ssg71
g2125
sg64
(lp2136
S':'
asbag57
(g78
g59
NtRp2137
(dp2138
g62
(dp2139
sg71
g2125
sg64
(lp2140
g57
(g58
g59
NtRp2141
(dp2142
g62
(dp2143
g70
I4
ssg71
g2137
sg64
(lp2144
g1478
asbasbasbag57
(g73
g59
NtRp2145
(dp2146
g62
(dp2147
sg71
g1922
sg64
(lp2148
g57
(g78
g59
NtRp2149
(dp2150
g62
(dp2151
g82
g83
ssg71
g2145
sg64
(lp2152
g1508
asbag57
(g78
g59
NtRp2153
(dp2154
g62
(dp2155
g89
g90
ssg71
g2145
sg64
(lp2156
S':'
asbag57
(g78
g59
NtRp2157
(dp2158
g62
(dp2159
sg71
g2145
sg64
(lp2160
g57
(g58
g59
NtRp2161
(dp2162
g62
(dp2163
g70
I4
ssg71
g2157
sg64
(lp2164
g57
(g66
g59
NtRp2165
(dp2166
g62
(dp2167
g70
I3
ssg71
Nsg64
(lp2168
g57
(g73
g59
NtRp2169
(dp2170
g62
(dp2171
sg71
g2165
sg64
(lp2172
g57
(g78
g59
NtRp2173
(dp2174
g62
(dp2175
sg71
g2169
sg64
(lp2176
g57
(g58
g59
NtRp2177
(dp2178
g62
(dp2179
g70
I3
ssg71
g2173
sg64
(lp2180
S'1'
asbasbasbag57
(g73
g59
NtRp2181
(dp2182
g62
(dp2183
sg71
g2165
sg64
(lp2184
g57
(g78
g59
NtRp2185
(dp2186
g62
(dp2187
sg71
g2181
sg64
(lp2188
g57
(g58
g59
NtRp2189
(dp2190
g62
(dp2191
g70
I3
ssg71
g2185
sg64
(lp2192
S'99'
p2193
asbasbasbag57
(g73
g59
NtRp2194
(dp2195
g62
(dp2196
sg71
g2165
sg64
(lp2197
g57
(g78
g59
NtRp2198
(dp2199
g62
(dp2200
sg71
g2194
sg64
(lp2201
g57
(g58
g59
NtRp2202
(dp2203
g62
(dp2204
g70
I3
ssg71
g2198
sg64
(lp2205
S'7'
asbasbasbag57
(g73
g59
NtRp2206
(dp2207
g62
(dp2208
sg71
g2165
sg64
(lp2209
g57
(g78
g59
NtRp2210
(dp2211
g62
(dp2212
sg71
g2206
sg64
(lp2213
g57
(g58
g59
NtRp2214
(dp2215
g62
(dp2216
g70
I3
ssg71
g2210
sg64
(lp2217
S'datetime.datetime(2012, 3, 4, 22, 12, 8)'
p2218
asbasbasbag57
(g73
g59
NtRp2219
(dp2220
g62
(dp2221
sg71
g2165
sg64
(lp2222
g57
(g78
g59
NtRp2223
(dp2224
g62
(dp2225
sg71
g2219
sg64
(lp2226
g57
(g58
g59
NtRp2227
(dp2228
g62
(dp2229
g70
I3
ssg71
g2223
sg64
(lp2230
g1587
asbasbasbasbasbasbasbasbasbasbasbag57
(g73
g59
NtRp2231
(dp2232
g62
(dp2233
sg71
g67
sg64
(lp2234
g57
(g78
g59
NtRp2235
(dp2236
g62
(dp2237
g82
g83
ssg71
g2231
sg64
(lp2238
S'is_https'
p2239
asbag57
(g78
g59
NtRp2240
(dp2241
g62
(dp2242
g89
g90
ssg71
g2231
sg64
(lp2243
S':'
asbag57
(g78
g59
NtRp2244
(dp2245
g62
(dp2246
sg71
g2231
sg64
(lp2247
g57
(g58
g59
NtRp2248
(dp2249
g62
(dp2250
g70
I5
ssg71
g2244
sg64
(lp2251
g100
asbasbasbag57
(g73
g59
NtRp2252
(dp2253
g62
(dp2254
sg71
g67
sg64
(lp2255
g57
(g78
g59
NtRp2256
(dp2257
g62
(dp2258
g82
g83
ssg71
g2252
sg64
(lp2259
S'is_local'
p2260
asbag57
(g78
g59
NtRp2261
(dp2262
g62
(dp2263
g89
g90
ssg71
g2252
sg64
(lp2264
S':'
asbag57
(g78
g59
NtRp2265
(dp2266
g62
(dp2267
sg71
g2252
sg64
(lp2268
g57
(g58
g59
NtRp2269
(dp2270
g62
(dp2271
g70
I5
ssg71
g2265
sg64
(lp2272
g1696
asbasbasbag57
(g73
g59
NtRp2273
(dp2274
g62
(dp2275
sg71
g67
sg64
(lp2276
g57
(g78
g59
NtRp2277
(dp2278
g62
(dp2279
g82
g83
ssg71
g2273
sg64
(lp2280
S'is_restful'
p2281
asbag57
(g78
g59
NtRp2282
(dp2283
g62
(dp2284
g89
g90
ssg71
g2273
sg64
(lp2285
S':'
asbag57
(g78
g59
NtRp2286
(dp2287
g62
(dp2288
sg71
g2273
sg64
(lp2289
g57
(g58
g59
NtRp2290
(dp2291
g62
(dp2292
g70
I5
ssg71
g2286
sg64
(lp2293
g100
asbasbasbag57
(g73
g59
NtRp2294
(dp2295
g62
(dp2296
sg71
g67
sg64
(lp2297
g57
(g78
g59
NtRp2298
(dp2299
g62
(dp2300
g82
g83
ssg71
g2294
sg64
(lp2301
S'now'
p2302
asbag57
(g78
g59
NtRp2303
(dp2304
g62
(dp2305
g89
g90
ssg71
g2294
sg64
(lp2306
S':'
asbag57
(g78
g59
NtRp2307
(dp2308
g62
(dp2309
sg71
g2294
sg64
(lp2310
g57
(g58
g59
NtRp2311
(dp2312
g62
(dp2313
g70
I5
ssg71
g2307
sg64
(lp2314
S'datetime.datetime(2012, 7, 31, 0, 9, 13, 558000)'
p2315
asbasbasbag57
(g73
g59
NtRp2316
(dp2317
g62
(dp2318
sg71
g67
sg64
(lp2319
g57
(g78
g59
NtRp2320
(dp2321
g62
(dp2322
g82
g83
ssg71
g2316
sg64
(lp2323
S'post_vars'
p2324
asbag57
(g78
g59
NtRp2325
(dp2326
g62
(dp2327
g89
g90
ssg71
g2316
sg64
(lp2328
S':'
asbag57
(g78
g59
NtRp2329
(dp2330
g62
(dp2331
sg71
g2316
sg64
(lp2332
g57
(g58
g59
NtRp2333
(dp2334
g62
(dp2335
g70
I5
ssg71
g2329
sg64
(lp2336
g57
(g66
g59
NtRp2337
(dp2338
g62
(dp2339
g70
I4
ssg71
Nsg64
(lp2340
sbasbasbasbag57
(g73
g59
NtRp2341
(dp2342
g62
(dp2343
sg71
g67
sg64
(lp2344
g57
(g78
g59
NtRp2345
(dp2346
g62
(dp2347
g82
g83
ssg71
g2341
sg64
(lp2348
S'raw_args'
p2349
asbag57
(g78
g59
NtRp2350
(dp2351
g62
(dp2352
g89
g90
ssg71
g2341
sg64
(lp2353
S':'
asbag57
(g78
g59
NtRp2354
(dp2355
g62
(dp2356
sg71
g2341
sg64
(lp2357
g57
(g58
g59
NtRp2358
(dp2359
g62
(dp2360
g70
I5
ssg71
g2354
sg64
(lp2361
S'jsonrpc/get_class_detail'
p2362
asbasbasbag57
(g73
g59
NtRp2363
(dp2364
g62
(dp2365
sg71
g67
sg64
(lp2366
g57
(g78
g59
NtRp2367
(dp2368
g62
(dp2369
g82
g83
ssg71
g2363
sg64
(lp2370
S'url'
p2371
asbag57
(g78
g59
NtRp2372
(dp2373
g62
(dp2374
g89
g90
ssg71
g2363
sg64
(lp2375
S':'
asbag57
(g78
g59
NtRp2376
(dp2377
g62
(dp2378
sg71
g2363
sg64
(lp2379
g57
(g58
g59
NtRp2380
(dp2381
g62
(dp2382
g70
I5
ssg71
g2376
sg64
(lp2383
S'/igor/class_subject/call/jsonrpc/get_class_detail'
p2384
asbasbasbag57
(g73
g59
NtRp2385
(dp2386
g62
(dp2387
sg71
g67
sg64
(lp2388
g57
(g78
g59
NtRp2389
(dp2390
g62
(dp2391
g82
g83
ssg71
g2385
sg64
(lp2392
S'utcnow'
p2393
asbag57
(g78
g59
NtRp2394
(dp2395
g62
(dp2396
g89
g90
ssg71
g2385
sg64
(lp2397
S':'
asbag57
(g78
g59
NtRp2398
(dp2399
g62
(dp2400
sg71
g2385
sg64
(lp2401
g57
(g58
g59
NtRp2402
(dp2403
g62
(dp2404
g70
I5
ssg71
g2398
sg64
(lp2405
S'datetime.datetime(2012, 7, 30, 17, 9, 13, 558000)'
p2406
asbasbasbag57
(g73
g59
NtRp2407
(dp2408
g62
(dp2409
sg71
g67
sg64
(lp2410
g57
(g78
g59
NtRp2411
(dp2412
g62
(dp2413
g82
g83
ssg71
g2407
sg64
(lp2414
S'uuid'
p2415
asbag57
(g78
g59
NtRp2416
(dp2417
g62
(dp2418
g89
g90
ssg71
g2407
sg64
(lp2419
S':'
asbag57
(g78
g59
NtRp2420
(dp2421
g62
(dp2422
sg71
g2407
sg64
(lp2423
g57
(g58
g59
NtRp2424
(dp2425
g62
(dp2426
g70
I5
ssg71
g2420
sg64
(lp2427
S'igor/127.0.0.1.2012-07-31.00-09-13.132ac3c5-d71a-423e-b339-ce484022eed3'
p2428
asbasbasbag57
(g73
g59
NtRp2429
(dp2430
g62
(dp2431
sg71
g67
sg64
(lp2432
g57
(g78
g59
NtRp2433
(dp2434
g62
(dp2435
g82
g83
ssg71
g2429
sg64
(lp2436
S'vars'
p2437
asbag57
(g78
g59
NtRp2438
(dp2439
g62
(dp2440
g89
g90
ssg71
g2429
sg64
(lp2441
S':'
asbag57
(g78
g59
NtRp2442
(dp2443
g62
(dp2444
sg71
g2429
sg64
(lp2445
g57
(g58
g59
NtRp2446
(dp2447
g62
(dp2448
g70
I5
ssg71
g2442
sg64
(lp2449
g57
(g66
g59
NtRp2450
(dp2451
g62
(dp2452
g70
I4
ssg71
Nsg64
(lp2453
g57
(g73
g59
NtRp2454
(dp2455
g62
(dp2456
sg71
g2450
sg64
(lp2457
g57
(g78
g59
NtRp2458
(dp2459
g62
(dp2460
g82
g83
ssg71
g2454
sg64
(lp2461
g1888
asbag57
(g78
g59
NtRp2462
(dp2463
g62
(dp2464
g89
g90
ssg71
g2454
sg64
(lp2465
S':'
asbag57
(g78
g59
NtRp2466
(dp2467
g62
(dp2468
sg71
g2454
sg64
(lp2469
g57
(g58
g59
NtRp2470
(dp2471
g62
(dp2472
g70
I4
ssg71
g2466
sg64
(lp2473
S'8'
asbasbasbasbasbasbasbag57
(g73
g59
NtRp2474
(dp2475
g62
(dp2476
sg71
g67
sg64
(lp2477
g57
(g78
g59
NtRp2478
(dp2479
g62
(dp2480
g82
g83
ssg71
g2474
sg64
(lp2481
S'wsgi'
p2482
asbag57
(g78
g59
NtRp2483
(dp2484
g62
(dp2485
g89
g90
ssg71
g2474
sg64
(lp2486
S':'
asbag57
(g78
g59
NtRp2487
(dp2488
g62
(dp2489
sg71
g2474
sg64
(lp2490
g57
(g58
g59
NtRp2491
(dp2492
g62
(dp2493
g70
I5
ssg71
g2487
sg64
(lp2494
g57
(g66
g59
NtRp2495
(dp2496
g62
(dp2497
g70
I4
ssg71
Nsg64
(lp2498
g57
(g73
g59
NtRp2499
(dp2500
g62
(dp2501
sg71
g2495
sg64
(lp2502
g57
(g78
g59
NtRp2503
(dp2504
g62
(dp2505
g82
g83
ssg71
g2499
sg64
(lp2506
S'environ'
p2507
asbag57
(g78
g59
NtRp2508
(dp2509
g62
(dp2510
g89
g90
ssg71
g2499
sg64
(lp2511
S':'
asbag57
(g78
g59
NtRp2512
(dp2513
g62
(dp2514
sg71
g2499
sg64
(lp2515
g57
(g58
g59
NtRp2516
(dp2517
g62
(dp2518
g70
I4
ssg71
g2512
sg64
(lp2519
g57
(g66
g59
NtRp2520
(dp2521
g62
(dp2522
g70
I3
ssg71
Nsg64
(lp2523
g57
(g73
g59
NtRp2524
(dp2525
g62
(dp2526
sg71
g2520
sg64
(lp2527
g57
(g78
g59
NtRp2528
(dp2529
g62
(dp2530
g82
g83
ssg71
g2524
sg64
(lp2531
S'HTTP_ACCEPT'
p2532
asbag57
(g78
g59
NtRp2533
(dp2534
g62
(dp2535
g89
g90
ssg71
g2524
sg64
(lp2536
S':'
asbag57
(g78
g59
NtRp2537
(dp2538
g62
(dp2539
sg71
g2524
sg64
(lp2540
g57
(g58
g59
NtRp2541
(dp2542
g62
(dp2543
g70
I3
ssg71
g2537
sg64
(lp2544
g1042
asbasbasbag57
(g73
g59
NtRp2545
(dp2546
g62
(dp2547
sg71
g2520
sg64
(lp2548
g57
(g78
g59
NtRp2549
(dp2550
g62
(dp2551
g82
g83
ssg71
g2545
sg64
(lp2552
S'HTTP_ACCEPT_CHARSET'
p2553
asbag57
(g78
g59
NtRp2554
(dp2555
g62
(dp2556
g89
g90
ssg71
g2545
sg64
(lp2557
S':'
asbag57
(g78
g59
NtRp2558
(dp2559
g62
(dp2560
sg71
g2545
sg64
(lp2561
g57
(g58
g59
NtRp2562
(dp2563
g62
(dp2564
g70
I3
ssg71
g2558
sg64
(lp2565
g1064
asbasbasbag57
(g73
g59
NtRp2566
(dp2567
g62
(dp2568
sg71
g2520
sg64
(lp2569
g57
(g78
g59
NtRp2570
(dp2571
g62
(dp2572
g82
g83
ssg71
g2566
sg64
(lp2573
S'HTTP_ACCEPT_ENCODING'
p2574
asbag57
(g78
g59
NtRp2575
(dp2576
g62
(dp2577
g89
g90
ssg71
g2566
sg64
(lp2578
S':'
asbag57
(g78
g59
NtRp2579
(dp2580
g62
(dp2581
sg71
g2566
sg64
(lp2582
g57
(g58
g59
NtRp2583
(dp2584
g62
(dp2585
g70
I3
ssg71
g2579
sg64
(lp2586
g1086
asbasbasbag57
(g73
g59
NtRp2587
(dp2588
g62
(dp2589
sg71
g2520
sg64
(lp2590
g57
(g78
g59
NtRp2591
(dp2592
g62
(dp2593
g82
g83
ssg71
g2587
sg64
(lp2594
S'HTTP_ACCEPT_LANGUAGE'
p2595
asbag57
(g78
g59
NtRp2596
(dp2597
g62
(dp2598
g89
g90
ssg71
g2587
sg64
(lp2599
S':'
asbag57
(g78
g59
NtRp2600
(dp2601
g62
(dp2602
sg71
g2587
sg64
(lp2603
g57
(g58
g59
NtRp2604
(dp2605
g62
(dp2606
g70
I3
ssg71
g2600
sg64
(lp2607
g1108
asbasbasbag57
(g73
g59
NtRp2608
(dp2609
g62
(dp2610
sg71
g2520
sg64
(lp2611
g57
(g78
g59
NtRp2612
(dp2613
g62
(dp2614
g82
g83
ssg71
g2608
sg64
(lp2615
S'HTTP_CONNECTION'
p2616
asbag57
(g78
g59
NtRp2617
(dp2618
g62
(dp2619
g89
g90
ssg71
g2608
sg64
(lp2620
S':'
asbag57
(g78
g59
NtRp2621
(dp2622
g62
(dp2623
sg71
g2608
sg64
(lp2624
g57
(g58
g59
NtRp2625
(dp2626
g62
(dp2627
g70
I3
ssg71
g2621
sg64
(lp2628
g1130
asbasbasbag57
(g73
g59
NtRp2629
(dp2630
g62
(dp2631
sg71
g2520
sg64
(lp2632
g57
(g78
g59
NtRp2633
(dp2634
g62
(dp2635
g82
g83
ssg71
g2629
sg64
(lp2636
S'HTTP_COOKIE'
p2637
asbag57
(g78
g59
NtRp2638
(dp2639
g62
(dp2640
g89
g90
ssg71
g2629
sg64
(lp2641
S':'
asbag57
(g78
g59
NtRp2642
(dp2643
g62
(dp2644
sg71
g2629
sg64
(lp2645
g57
(g58
g59
NtRp2646
(dp2647
g62
(dp2648
g70
I3
ssg71
g2642
sg64
(lp2649
g1152
asbasbasbag57
(g73
g59
NtRp2650
(dp2651
g62
(dp2652
sg71
g2520
sg64
(lp2653
g57
(g78
g59
NtRp2654
(dp2655
g62
(dp2656
g82
g83
ssg71
g2650
sg64
(lp2657
S'HTTP_HOST'
p2658
asbag57
(g78
g59
NtRp2659
(dp2660
g62
(dp2661
g89
g90
ssg71
g2650
sg64
(lp2662
S':'
asbag57
(g78
g59
NtRp2663
(dp2664
g62
(dp2665
sg71
g2650
sg64
(lp2666
g57
(g58
g59
NtRp2667
(dp2668
g62
(dp2669
g70
I3
ssg71
g2663
sg64
(lp2670
g1174
asbasbasbag57
(g73
g59
NtRp2671
(dp2672
g62
(dp2673
sg71
g2520
sg64
(lp2674
g57
(g78
g59
NtRp2675
(dp2676
g62
(dp2677
g82
g83
ssg71
g2671
sg64
(lp2678
S'HTTP_USER_AGENT'
p2679
asbag57
(g78
g59
NtRp2680
(dp2681
g62
(dp2682
g89
g90
ssg71
g2671
sg64
(lp2683
S':'
asbag57
(g78
g59
NtRp2684
(dp2685
g62
(dp2686
sg71
g2671
sg64
(lp2687
g57
(g58
g59
NtRp2688
(dp2689
g62
(dp2690
g70
I3
ssg71
g2684
sg64
(lp2691
g1196
asbasbasbag57
(g73
g59
NtRp2692
(dp2693
g62
(dp2694
sg71
g2520
sg64
(lp2695
g57
(g78
g59
NtRp2696
(dp2697
g62
(dp2698
g82
g83
ssg71
g2692
sg64
(lp2699
S'PATH_INFO'
p2700
asbag57
(g78
g59
NtRp2701
(dp2702
g62
(dp2703
g89
g90
ssg71
g2692
sg64
(lp2704
S':'
asbag57
(g78
g59
NtRp2705
(dp2706
g62
(dp2707
sg71
g2692
sg64
(lp2708
g57
(g58
g59
NtRp2709
(dp2710
g62
(dp2711
g70
I3
ssg71
g2705
sg64
(lp2712
g1260
asbasbasbag57
(g73
g59
NtRp2713
(dp2714
g62
(dp2715
sg71
g2520
sg64
(lp2716
g57
(g78
g59
NtRp2717
(dp2718
g62
(dp2719
g82
g83
ssg71
g2713
sg64
(lp2720
S'QUERY_STRING'
p2721
asbag57
(g78
g59
NtRp2722
(dp2723
g62
(dp2724
g89
g90
ssg71
g2713
sg64
(lp2725
S':'
asbag57
(g78
g59
NtRp2726
(dp2727
g62
(dp2728
sg71
g2713
sg64
(lp2729
g57
(g58
g59
NtRp2730
(dp2731
g62
(dp2732
g70
I3
ssg71
g2726
sg64
(lp2733
g1282
asbasbasbag57
(g73
g59
NtRp2734
(dp2735
g62
(dp2736
sg71
g2520
sg64
(lp2737
g57
(g78
g59
NtRp2738
(dp2739
g62
(dp2740
g82
g83
ssg71
g2734
sg64
(lp2741
S'REMOTE_ADDR'
p2742
asbag57
(g78
g59
NtRp2743
(dp2744
g62
(dp2745
g89
g90
ssg71
g2734
sg64
(lp2746
S':'
asbag57
(g78
g59
NtRp2747
(dp2748
g62
(dp2749
sg71
g2734
sg64
(lp2750
g57
(g58
g59
NtRp2751
(dp2752
g62
(dp2753
g70
I3
ssg71
g2747
sg64
(lp2754
g216
asbasbasbag57
(g73
g59
NtRp2755
(dp2756
g62
(dp2757
sg71
g2520
sg64
(lp2758
g57
(g78
g59
NtRp2759
(dp2760
g62
(dp2761
g82
g83
ssg71
g2755
sg64
(lp2762
S'REMOTE_PORT'
p2763
asbag57
(g78
g59
NtRp2764
(dp2765
g62
(dp2766
g89
g90
ssg71
g2755
sg64
(lp2767
S':'
asbag57
(g78
g59
NtRp2768
(dp2769
g62
(dp2770
sg71
g2755
sg64
(lp2771
g57
(g58
g59
NtRp2772
(dp2773
g62
(dp2774
g70
I3
ssg71
g2768
sg64
(lp2775
g1325
asbasbasbag57
(g73
g59
NtRp2776
(dp2777
g62
(dp2778
sg71
g2520
sg64
(lp2779
g57
(g78
g59
NtRp2780
(dp2781
g62
(dp2782
g82
g83
ssg71
g2776
sg64
(lp2783
S'REQUEST_METHOD'
p2784
asbag57
(g78
g59
NtRp2785
(dp2786
g62
(dp2787
g89
g90
ssg71
g2776
sg64
(lp2788
S':'
asbag57
(g78
g59
NtRp2789
(dp2790
g62
(dp2791
sg71
g2776
sg64
(lp2792
g57
(g58
g59
NtRp2793
(dp2794
g62
(dp2795
g70
I3
ssg71
g2789
sg64
(lp2796
g1347
asbasbasbag57
(g73
g59
NtRp2797
(dp2798
g62
(dp2799
sg71
g2520
sg64
(lp2800
g57
(g78
g59
NtRp2801
(dp2802
g62
(dp2803
g82
g83
ssg71
g2797
sg64
(lp2804
S'SCRIPT_NAME'
p2805
asbag57
(g78
g59
NtRp2806
(dp2807
g62
(dp2808
g89
g90
ssg71
g2797
sg64
(lp2809
S':'
asbag57
(g78
g59
NtRp2810
(dp2811
g62
(dp2812
sg71
g2797
sg64
(lp2813
g57
(g58
g59
NtRp2814
(dp2815
g62
(dp2816
g70
I3
ssg71
g2810
sg64
(lp2817
S''
asbasbasbag57
(g73
g59
NtRp2818
(dp2819
g62
(dp2820
sg71
g2520
sg64
(lp2821
g57
(g78
g59
NtRp2822
(dp2823
g62
(dp2824
g82
g83
ssg71
g2818
sg64
(lp2825
S'SERVER_NAME'
p2826
asbag57
(g78
g59
NtRp2827
(dp2828
g62
(dp2829
g89
g90
ssg71
g2818
sg64
(lp2830
S':'
asbag57
(g78
g59
NtRp2831
(dp2832
g62
(dp2833
sg71
g2818
sg64
(lp2834
g57
(g58
g59
NtRp2835
(dp2836
g62
(dp2837
g70
I3
ssg71
g2831
sg64
(lp2838
g1390
asbasbasbag57
(g73
g59
NtRp2839
(dp2840
g62
(dp2841
sg71
g2520
sg64
(lp2842
g57
(g78
g59
NtRp2843
(dp2844
g62
(dp2845
g82
g83
ssg71
g2839
sg64
(lp2846
S'SERVER_PORT'
p2847
asbag57
(g78
g59
NtRp2848
(dp2849
g62
(dp2850
g89
g90
ssg71
g2839
sg64
(lp2851
S':'
asbag57
(g78
g59
NtRp2852
(dp2853
g62
(dp2854
sg71
g2839
sg64
(lp2855
g57
(g58
g59
NtRp2856
(dp2857
g62
(dp2858
g70
I3
ssg71
g2852
sg64
(lp2859
g1412
asbasbasbag57
(g73
g59
NtRp2860
(dp2861
g62
(dp2862
sg71
g2520
sg64
(lp2863
g57
(g78
g59
NtRp2864
(dp2865
g62
(dp2866
g82
g83
ssg71
g2860
sg64
(lp2867
S'SERVER_PROTOCOL'
p2868
asbag57
(g78
g59
NtRp2869
(dp2870
g62
(dp2871
g89
g90
ssg71
g2860
sg64
(lp2872
S':'
asbag57
(g78
g59
NtRp2873
(dp2874
g62
(dp2875
sg71
g2860
sg64
(lp2876
g57
(g58
g59
NtRp2877
(dp2878
g62
(dp2879
g70
I3
ssg71
g2873
sg64
(lp2880
g1434
asbasbasbag57
(g73
g59
NtRp2881
(dp2882
g62
(dp2883
sg71
g2520
sg64
(lp2884
g57
(g78
g59
NtRp2885
(dp2886
g62
(dp2887
g82
g83
ssg71
g2881
sg64
(lp2888
S'SERVER_SOFTWARE'
p2889
asbag57
(g78
g59
NtRp2890
(dp2891
g62
(dp2892
g89
g90
ssg71
g2881
sg64
(lp2893
S':'
asbag57
(g78
g59
NtRp2894
(dp2895
g62
(dp2896
sg71
g2881
sg64
(lp2897
g57
(g58
g59
NtRp2898
(dp2899
g62
(dp2900
g70
I3
ssg71
g2894
sg64
(lp2901
g1456
asbasbasbag57
(g73
g59
NtRp2902
(dp2903
g62
(dp2904
sg71
g2520
sg64
(lp2905
g57
(g78
g59
NtRp2906
(dp2907
g62
(dp2908
g82
g83
ssg71
g2902
sg64
(lp2909
S'wsgi.errors'
p2910
asbag57
(g78
g59
NtRp2911
(dp2912
g62
(dp2913
g89
g90
ssg71
g2902
sg64
(lp2914
S':'
asbag57
(g78
g59
NtRp2915
(dp2916
g62
(dp2917
sg71
g2902
sg64
(lp2918
g57
(g58
g59
NtRp2919
(dp2920
g62
(dp2921
g70
I3
ssg71
g2915
sg64
(lp2922
S"<open file '<stderr>', mode 'w' at 0x0000000001C9E1E0>"
p2923
asbasbasbag57
(g73
g59
NtRp2924
(dp2925
g62
(dp2926
sg71
g2520
sg64
(lp2927
g57
(g78
g59
NtRp2928
(dp2929
g62
(dp2930
g82
g83
ssg71
g2924
sg64
(lp2931
S'wsgi.file_wrapper'
p2932
asbag57
(g78
g59
NtRp2933
(dp2934
g62
(dp2935
g89
g90
ssg71
g2924
sg64
(lp2936
S':'
asbag57
(g78
g59
NtRp2937
(dp2938
g62
(dp2939
sg71
g2924
sg64
(lp2940
g57
(g58
g59
NtRp2941
(dp2942
g62
(dp2943
g70
I3
ssg71
g2937
sg64
(lp2944
S'<class wsgiref.util.FileWrapper at 0x00000000034E0AC8>'
p2945
asbasbasbag57
(g73
g59
NtRp2946
(dp2947
g62
(dp2948
sg71
g2520
sg64
(lp2949
g57
(g78
g59
NtRp2950
(dp2951
g62
(dp2952
g82
g83
ssg71
g2946
sg64
(lp2953
S'wsgi.input'
p2954
asbag57
(g78
g59
NtRp2955
(dp2956
g62
(dp2957
g89
g90
ssg71
g2946
sg64
(lp2958
S':'
asbag57
(g78
g59
NtRp2959
(dp2960
g62
(dp2961
sg71
g2946
sg64
(lp2962
g57
(g58
g59
NtRp2963
(dp2964
g62
(dp2965
g70
I3
ssg71
g2959
sg64
(lp2966
S'<cStringIO.StringO object at 0x00000000058076C0>'
p2967
asbasbasbag57
(g73
g59
NtRp2968
(dp2969
g62
(dp2970
sg71
g2520
sg64
(lp2971
g57
(g78
g59
NtRp2972
(dp2973
g62
(dp2974
g82
g83
ssg71
g2968
sg64
(lp2975
S'wsgi.multiprocess'
p2976
asbag57
(g78
g59
NtRp2977
(dp2978
g62
(dp2979
g89
g90
ssg71
g2968
sg64
(lp2980
S':'
asbag57
(g78
g59
NtRp2981
(dp2982
g62
(dp2983
sg71
g2968
sg64
(lp2984
g57
(g58
g59
NtRp2985
(dp2986
g62
(dp2987
g70
I3
ssg71
g2981
sg64
(lp2988
g100
asbasbasbag57
(g73
g59
NtRp2989
(dp2990
g62
(dp2991
sg71
g2520
sg64
(lp2992
g57
(g78
g59
NtRp2993
(dp2994
g62
(dp2995
g82
g83
ssg71
g2989
sg64
(lp2996
S'wsgi.multithread'
p2997
asbag57
(g78
g59
NtRp2998
(dp2999
g62
(dp3000
g89
g90
ssg71
g2989
sg64
(lp3001
S':'
asbag57
(g78
g59
NtRp3002
(dp3003
g62
(dp3004
sg71
g2989
sg64
(lp3005
g57
(g58
g59
NtRp3006
(dp3007
g62
(dp3008
g70
I3
ssg71
g3002
sg64
(lp3009
g1696
asbasbasbag57
(g73
g59
NtRp3010
(dp3011
g62
(dp3012
sg71
g2520
sg64
(lp3013
g57
(g78
g59
NtRp3014
(dp3015
g62
(dp3016
g82
g83
ssg71
g3010
sg64
(lp3017
S'wsgi.run_once'
p3018
asbag57
(g78
g59
NtRp3019
(dp3020
g62
(dp3021
g89
g90
ssg71
g3010
sg64
(lp3022
S':'
asbag57
(g78
g59
NtRp3023
(dp3024
g62
(dp3025
sg71
g3010
sg64
(lp3026
g57
(g58
g59
NtRp3027
(dp3028
g62
(dp3029
g70
I3
ssg71
g3023
sg64
(lp3030
g100
asbasbasbag57
(g73
g59
NtRp3031
(dp3032
g62
(dp3033
sg71
g2520
sg64
(lp3034
g57
(g78
g59
NtRp3035
(dp3036
g62
(dp3037
g82
g83
ssg71
g3031
sg64
(lp3038
S'wsgi.url_scheme'
p3039
asbag57
(g78
g59
NtRp3040
(dp3041
g62
(dp3042
g89
g90
ssg71
g3031
sg64
(lp3043
S':'
asbag57
(g78
g59
NtRp3044
(dp3045
g62
(dp3046
sg71
g3031
sg64
(lp3047
g57
(g58
g59
NtRp3048
(dp3049
g62
(dp3050
g70
I3
ssg71
g3044
sg64
(lp3051
g1739
asbasbasbag57
(g73
g59
NtRp3052
(dp3053
g62
(dp3054
sg71
g2520
sg64
(lp3055
g57
(g78
g59
NtRp3056
(dp3057
g62
(dp3058
g82
g83
ssg71
g3052
sg64
(lp3059
S'wsgi.version'
p3060
asbag57
(g78
g59
NtRp3061
(dp3062
g62
(dp3063
g89
g90
ssg71
g3052
sg64
(lp3064
S':'
asbag57
(g78
g59
NtRp3065
(dp3066
g62
(dp3067
sg71
g3052
sg64
(lp3068
g57
(g58
g59
NtRp3069
(dp3070
g62
(dp3071
g70
I3
ssg71
g3065
sg64
(lp3072
S'1'
asbasbasbasbasbasbasbasbasbasbasbasbasbsS'frames'
p3073
(lp3074
(dp3075
S'file'
p3076
S'D:\\workspace\\ca\\IgoR\\C_Sources\\Server\\igor-assistant-ca-2012\\gluon\\restricted.py'
p3077
sS'dump'
p3078
(dp3079
S'environment'
p3080
S"{'A': <class 'gluon.html.A'>, 'Auth': <class 'gluon.tools.Auth'>, 'B': <class 'gluon.html.B'>, 'BEAUTIFY': <class 'gluon.html.BEAUTIFY'>, 'BODY': <class 'gluon.html.BODY'>, 'BR': <class 'gluon.html.BR'>, 'BUTTON': <class 'gluon.html.BUTTON'>, 'CAT': <class 'gluon.html.CAT'>, 'CENTER': <class 'gluon.html.CENTER'>, 'CLEANUP': <class 'gluon.validators.CLEANUP'>, ...}"
p3081
sS'ccode'
p3082
S'<code object <module> at 000000000581D630, file ...tions\\igor\\controllers/class_subject.py", line 9>'
p3083
ssS'lnum'
p3084
I205
sS'lines'
p3085
(dp3086
I200
S'    try:'
p3087
sI201
S'        if type(code) == types.CodeType:'
p3088
sI202
S'            ccode = code'
p3089
sI203
S'        else:'
p3090
sI204
S'            ccode = compile2(code,layer)'
p3091
sI205
S'        exec ccode in environment'
p3092
sI206
S'    except HTTP:'
p3093
sI207
S'        raise'
p3094
sI208
S'    except RestrictedError:'
p3095
sI209
S'        # do not encapsulate (obfuscate) the original RestrictedError'
p3096
ssS'call'
p3097
S"(code='# -*- coding: utf-8 -*-\\n# this file is released ...urn client\\nresponse._vars=response._caller(call)\\n', environment={'A': <class 'gluon.html.A'>, 'Auth': <class 'gluon.tools.Auth'>, 'B': <class 'gluon.html.B'>, 'BEAUTIFY': <class 'gluon.html.BEAUTIFY'>, 'BODY': <class 'gluon.html.BODY'>, 'BR': <class 'gluon.html.BR'>, 'BUTTON': <class 'gluon.html.BUTTON'>, 'CAT': <class 'gluon.html.CAT'>, 'CENTER': <class 'gluon.html.CENTER'>, 'CLEANUP': <class 'gluon.validators.CLEANUP'>, ...}, layer=r'D:\\workspace\\ca\\IgoR\\C_Sources\\Server\\igor-assis...12\\applications\\igor\\controllers/class_subject.py')"
p3098
sS'func'
p3099
S'restricted'
p3100
sa(dp3101
g3076
S'D:\\workspace\\ca\\IgoR\\C_Sources\\Server\\igor-assistant-ca-2012\\applications\\igor\\controllers\\class_subject.py'
p3102
sg3078
(dp3103
sg3084
I241
sg3085
(dp3104
I231
S'\t\tsubject_code = subject.subject_code,'
p3105
sI232
S'\t\tnum_of_day   = class_scheduler.day_of_week,'
p3106
sI233
S'        #"total_session": "Session 1-2-3",'
p3107
sI234
S'        teacher_name = class_subject.teacher,'
p3108
sI235
S'        location     = class_subject.location,'
p3109
sI236
S'        period = period,'
p3110
sI237
S'\t\tsession_start = str(session[0]),'
p3111
sI238
S'\t\t)'
p3112
sI239
S''
sI240
S'\treturn client'
p3113
ssg3097
S'()'
p3114
sg3099
S'<module>'
p3115
sa(dp3116
g3076
S'D:\\workspace\\ca\\IgoR\\C_Sources\\Server\\igor-assistant-ca-2012\\gluon\\globals.py'
p3117
sg3078
(dp3118
S'self'
p3119
S'undefined'
p3120
sS'f'
S'<function call>'
p3121
ssg3084
I173
sg3085
(dp3122
I168
S'        self.menu = []             # used by the default view layout'
p3123
sI169
S'        self.files = []            # used by web2py_ajax.html'
p3124
sI170
S'        self.generic_patterns = [] # patterns to allow generic views'
p3125
sI171
S"        self.delimiters = ('{{','}}')"
p3126
sI172
S'        self._vars = None'
p3127
sI173
S'        self._caller = lambda f: f()'
p3128
sI174
S'        self._view_environment = None'
p3129
sI175
S'        self._custom_commit = None'
p3130
sI176
S'        self._custom_rollback = None'
p3131
sI177
S''
ssg3097
S'(f=<function call>)'
p3132
sg3099
S'<lambda>'
p3133
sa(dp3134
g3076
S'D:\\workspace\\ca\\IgoR\\C_Sources\\Server\\igor-assistant-ca-2012\\applications\\igor\\controllers\\class_subject.py'
p3135
sg3078
(dp3136
S'global service'
p3137
S'<gluon.tools.Service object>'
p3138
ssg3084
I79
sg3085
(dp3139
I74
S'# \treturn locals()'
p3140
sI75
S''
sI76
S'def call():'
p3141
sI77
S'\tsession.forget()'
p3142
sI78
S''
sI79
S'\treturn service()'
p3143
sI80
S''
sI81
S'import gluon.contenttype'
p3144
sI82
S''
sI83
S'@service.json'
p3145
ssg3097
S'()'
p3146
sg3099
g3097
sa(dp3147
g3076
S'D:\\workspace\\ca\\IgoR\\C_Sources\\Server\\igor-assistant-ca-2012\\gluon\\tools.py'
p3148
sg3078
(dp3149
S'self.serve_jsonrpc'
p3150
S'<bound method Service.serve_jsonrpc of <gluon.tools.Service object>>'
p3151
sS'self'
p3152
S'<gluon.tools.Service object>'
p3153
ssg3084
I4015
sg3085
(dp3154
I4010
S'        # phucnh add 20120730'
p3155
sI4011
S"        elif arg0 == 'jsonp':"
p3156
sI4012
S'            return self.serve_jsonp(request.args[1:])'
p3157
sI4013
S'        # end phucnh add 20120730'
p3158
sI4014
S"        elif arg0 == 'jsonrpc':"
p3159
sI4015
S'            return self.serve_jsonrpc()'
p3160
sI4016
S"        elif arg0 == 'xmlrpc':"
p3161
sI4017
S'            return self.serve_xmlrpc()'
p3162
sI4018
S"        elif arg0 == 'amfrpc':"
p3163
sI4019
S'            return self.serve_amfrpc()'
p3164
ssg3097
S'(self=<gluon.tools.Service object>)'
p3165
sg3099
S'__call__'
p3166
sa(dp3167
g3076
S'D:\\workspace\\ca\\IgoR\\C_Sources\\Server\\igor-assistant-ca-2012\\gluon\\tools.py'
p3168
sg3078
(dp3169
S'global json_parser'
p3170
S"<module 'json' from 'C:\\Python27\\lib\\json\\__init__.pyc'>"
p3171
sS'request'
p3172
S"<Storage {'body': <cStringIO.StringO object at 0...Storage {'id': '8'}>, 'post_vars': <Storage {}>}>"
p3173
sS'request.body.read'
p3174
S'<built-in method read of cStringIO.StringO object>'
p3175
sS'request.body'
p3176
S'<cStringIO.StringO object>'
p3177
sS'json_parser.loads'
p3178
S'<function loads>'
p3179
sS'data'
p3180
g3120
ssg3084
I3851
sg3085
(dp3181
I3846
S''
sI3847
S'        request = current.request'
p3182
sI3848
S'        response = current.response'
p3183
sI3849
S"        response.headers['Content-Type'] = 'application/json; charset=utf-8'"
p3184
sI3850
S'        methods = self.jsonrpc_procedures'
p3185
sI3851
S'        data = json_parser.loads(request.body.read())'
p3186
sI3852
S"        id, method, params = data['id'], data['method'], data.get('params','')"
p3187
sI3853
S'        if not method in methods:'
p3188
sI3854
S'            return return_error(id, 100, \'method "%s" does not exist\' % method)'
p3189
sI3855
S'        try:'
p3190
ssg3097
S'(self=<gluon.tools.Service object>)'
p3191
sg3099
S'serve_jsonrpc'
p3192
sa(dp3193
g3076
S'C:\\Python27\\lib\\json\\__init__.py'
p3194
sg3078
(dp3195
S's'
S"''"
p3196
sS'global _default_decoder'
p3197
S'<json.decoder.JSONDecoder object>'
p3198
sS'_default_decoder.decode'
p3199
S'<bound method JSONDecoder.decode of <json.decoder.JSONDecoder object>>'
p3200
ssg3084
I326
sg3085
(dp3201
I321
S''
sI322
S'    """'
p3202
sI323
S'    if (cls is None and encoding is None and object_hook is None and'
p3203
sI324
S'            parse_int is None and parse_float is None and'
p3204
sI325
S'            parse_constant is None and object_pairs_hook is None and not kw):'
p3205
sI326
S'        return _default_decoder.decode(s)'
p3206
sI327
S'    if cls is None:'
p3207
sI328
S'        cls = JSONDecoder'
p3208
sI329
S'    if object_hook is not None:'
p3209
sI330
S"        kw['object_hook'] = object_hook"
p3210
ssg3097
S"(s='', encoding=None, cls=None, object_hook=None, parse_float=None, parse_int=None, parse_constant=None, object_pairs_hook=None, **kw={})"
p3211
sg3099
S'loads'
p3212
sa(dp3213
g3076
S'C:\\Python27\\lib\\json\\decoder.py'
p3214
sg3078
(dp3215
S').end'
p3216
g3120
sS'end'
p3217
g3120
sS'idx'
p3218
g3120
sS'_w'
p3219
S'<built-in method match of _sre.SRE_Pattern object>'
p3220
sS'self'
p3221
S'<json.decoder.JSONDecoder object>'
p3222
sS's'
S"''"
p3223
sS'self.raw_decode'
p3224
S'<bound method JSONDecoder.raw_decode of <json.decoder.JSONDecoder object>>'
p3225
sS'obj'
p3226
g3120
ssg3084
I366
sg3085
(dp3227
I361
S'    def decode(self, s, _w=WHITESPACE.match):'
p3228
sI362
S'        """Return the Python representation of ``s`` (a ``str`` or ``unicode``'
p3229
sI363
S'        instance containing a JSON document)'
p3230
sI364
S''
sI365
S'        """'
p3231
sI366
S'        obj, end = self.raw_decode(s, idx=_w(s, 0).end())'
p3232
sI367
S'        end = _w(s, end).end()'
p3233
sI368
S'        if end != len(s):'
p3234
sI369
S'            raise ValueError(errmsg("Extra data", s, end, len(s)))'
p3235
sI370
S'        return obj'
p3236
ssg3097
S"(self=<json.decoder.JSONDecoder object>, s='', _w=<built-in method match of _sre.SRE_Pattern object>)"
p3237
sg3099
S'decode'
p3238
sa(dp3239
g3076
S'C:\\Python27\\lib\\json\\decoder.py'
p3240
sg3078
(dp3241
S'builtinValueError'
p3242
S"<type 'exceptions.ValueError'>"
p3243
ssg3084
I384
sg3085
(dp3244
I384
S'            raise ValueError("No JSON object could be decoded")'
p3245
sI385
S'        return obj, end'
p3246
sI376
S''
sI377
S'        This can be used to decode a JSON document from a string that may'
p3247
sI378
S'        have extraneous data at the end.'
p3248
sI379
S''
sI380
S'        """'
p3249
sI381
S'        try:'
p3250
sI382
S'            obj, end = self.scan_once(s, idx)'
p3251
sI383
S'        except StopIteration:'
p3252
ssg3097
S"(self=<json.decoder.JSONDecoder object>, s='', idx=0)"
p3253
sg3099
S'raw_decode'
p3254
sasS'pyver'
p3255
S'Python 2.7.3: C:\\Python27\\python.exe'
p3256
sS'session'
p3257
g57
(g58
g59
NtRp3258
(dp3259
g62
(dp3260
sg64
(lp3261
g57
(g66
g59
NtRp3262
(dp3263
g62
(dp3264
g70
I5
ssg71
Nsg64
(lp3265
sbasbsS'etype'
p3266
S"<type 'exceptions.ValueError'>"
p3267
sS'date'
p3268
S'Tue Jul 31 00:09:13 2012'
p3269
sS'response'
p3270
g57
(g58
g59
NtRp3271
(dp3272
g62
(dp3273
sg64
(lp3274
g57
(g66
g59
NtRp3275
(dp3276
g62
(dp3277
g70
I5
ssg71
Nsg64
(lp3278
g57
(g73
g59
NtRp3279
(dp3280
g62
(dp3281
sg71
g3275
sg64
(lp3282
g57
(g78
g59
NtRp3283
(dp3284
g62
(dp3285
g82
g83
ssg71
g3279
sg64
(lp3286
g181
asbag57
(g78
g59
NtRp3287
(dp3288
g62
(dp3289
g89
g90
ssg71
g3279
sg64
(lp3290
S':'
asbag57
(g78
g59
NtRp3291
(dp3292
g62
(dp3293
sg71
g3279
sg64
(lp3294
g57
(g58
g59
NtRp3295
(dp3296
g62
(dp3297
g70
I5
ssg71
g3291
sg64
(lp3298
S'<cStringIO.StringO object at 0x00000000057BFE30>'
p3299
asbasbasbag57
(g73
g59
NtRp3300
(dp3301
g62
(dp3302
sg71
g3275
sg64
(lp3303
g57
(g78
g59
NtRp3304
(dp3305
g62
(dp3306
g82
g83
ssg71
g3300
sg64
(lp3307
g247
asbag57
(g78
g59
NtRp3308
(dp3309
g62
(dp3310
g89
g90
ssg71
g3300
sg64
(lp3311
S':'
asbag57
(g78
g59
NtRp3312
(dp3313
g62
(dp3314
sg71
g3300
sg64
(lp3315
g57
(g58
g59
NtRp3316
(dp3317
g62
(dp3318
g70
I5
ssg71
g3312
sg64
(lp3319
g57
(g66
g59
NtRp3320
(dp3321
g62
(dp3322
g70
I4
ssg71
Nsg64
(lp3323
g57
(g73
g59
NtRp3324
(dp3325
g62
(dp3326
sg71
g3320
sg64
(lp3327
g57
(g78
g59
NtRp3328
(dp3329
g62
(dp3330
g82
g83
ssg71
g3324
sg64
(lp3331
S'session_id_igor'
p3332
asbag57
(g78
g59
NtRp3333
(dp3334
g62
(dp3335
g89
g90
ssg71
g3324
sg64
(lp3336
S':'
asbag57
(g78
g59
NtRp3337
(dp3338
g62
(dp3339
sg71
g3324
sg64
(lp3340
g57
(g58
g59
NtRp3341
(dp3342
g62
(dp3343
g70
I4
ssg71
g3337
sg64
(lp3344
g57
(g66
g59
NtRp3345
(dp3346
g62
(dp3347
g70
I3
ssg71
Nsg64
(lp3348
g57
(g73
g59
NtRp3349
(dp3350
g62
(dp3351
sg71
g3345
sg64
(lp3352
g57
(g78
g59
NtRp3353
(dp3354
g62
(dp3355
g82
g83
ssg71
g3349
sg64
(lp3356
g297
asbag57
(g78
g59
NtRp3357
(dp3358
g62
(dp3359
g89
g90
ssg71
g3349
sg64
(lp3360
S':'
asbag57
(g78
g59
NtRp3361
(dp3362
g62
(dp3363
sg71
g3349
sg64
(lp3364
g57
(g58
g59
NtRp3365
(dp3366
g62
(dp3367
g70
I3
ssg71
g3361
sg64
(lp3368
S''
asbasbasbag57
(g73
g59
NtRp3369
(dp3370
g62
(dp3371
sg71
g3345
sg64
(lp3372
g57
(g78
g59
NtRp3373
(dp3374
g62
(dp3375
g82
g83
ssg71
g3369
sg64
(lp3376
g318
asbag57
(g78
g59
NtRp3377
(dp3378
g62
(dp3379
g89
g90
ssg71
g3369
sg64
(lp3380
S':'
asbag57
(g78
g59
NtRp3381
(dp3382
g62
(dp3383
sg71
g3369
sg64
(lp3384
g57
(g58
g59
NtRp3385
(dp3386
g62
(dp3387
g70
I3
ssg71
g3381
sg64
(lp3388
S''
asbasbasbag57
(g73
g59
NtRp3389
(dp3390
g62
(dp3391
sg71
g3345
sg64
(lp3392
g57
(g78
g59
NtRp3393
(dp3394
g62
(dp3395
g82
g83
ssg71
g3389
sg64
(lp3396
g339
asbag57
(g78
g59
NtRp3397
(dp3398
g62
(dp3399
g89
g90
ssg71
g3389
sg64
(lp3400
S':'
asbag57
(g78
g59
NtRp3401
(dp3402
g62
(dp3403
sg71
g3389
sg64
(lp3404
g57
(g58
g59
NtRp3405
(dp3406
g62
(dp3407
g70
I3
ssg71
g3401
sg64
(lp3408
S''
asbasbasbag57
(g73
g59
NtRp3409
(dp3410
g62
(dp3411
sg71
g3345
sg64
(lp3412
g57
(g78
g59
NtRp3413
(dp3414
g62
(dp3415
g82
g83
ssg71
g3409
sg64
(lp3416
g360
asbag57
(g78
g59
NtRp3417
(dp3418
g62
(dp3419
g89
g90
ssg71
g3409
sg64
(lp3420
S':'
asbag57
(g78
g59
NtRp3421
(dp3422
g62
(dp3423
sg71
g3409
sg64
(lp3424
g57
(g58
g59
NtRp3425
(dp3426
g62
(dp3427
g70
I3
ssg71
g3421
sg64
(lp3428
S''
asbasbasbag57
(g73
g59
NtRp3429
(dp3430
g62
(dp3431
sg71
g3345
sg64
(lp3432
g57
(g78
g59
NtRp3433
(dp3434
g62
(dp3435
g82
g83
ssg71
g3429
sg64
(lp3436
g381
asbag57
(g78
g59
NtRp3437
(dp3438
g62
(dp3439
g89
g90
ssg71
g3429
sg64
(lp3440
S':'
asbag57
(g78
g59
NtRp3441
(dp3442
g62
(dp3443
sg71
g3429
sg64
(lp3444
g57
(g58
g59
NtRp3445
(dp3446
g62
(dp3447
g70
I3
ssg71
g3441
sg64
(lp3448
S''
asbasbasbag57
(g73
g59
NtRp3449
(dp3450
g62
(dp3451
sg71
g3345
sg64
(lp3452
g57
(g78
g59
NtRp3453
(dp3454
g62
(dp3455
g82
g83
ssg71
g3449
sg64
(lp3456
g402
asbag57
(g78
g59
NtRp3457
(dp3458
g62
(dp3459
g89
g90
ssg71
g3449
sg64
(lp3460
S':'
asbag57
(g78
g59
NtRp3461
(dp3462
g62
(dp3463
sg71
g3449
sg64
(lp3464
g57
(g58
g59
NtRp3465
(dp3466
g62
(dp3467
g70
I3
ssg71
g3461
sg64
(lp3468
S'/'
asbasbasbag57
(g73
g59
NtRp3469
(dp3470
g62
(dp3471
sg71
g3345
sg64
(lp3472
g57
(g78
g59
NtRp3473
(dp3474
g62
(dp3475
g82
g83
ssg71
g3469
sg64
(lp3476
g423
asbag57
(g78
g59
NtRp3477
(dp3478
g62
(dp3479
g89
g90
ssg71
g3469
sg64
(lp3480
S':'
asbag57
(g78
g59
NtRp3481
(dp3482
g62
(dp3483
sg71
g3469
sg64
(lp3484
g57
(g58
g59
NtRp3485
(dp3486
g62
(dp3487
g70
I3
ssg71
g3481
sg64
(lp3488
S''
asbasbasbag57
(g73
g59
NtRp3489
(dp3490
g62
(dp3491
sg71
g3345
sg64
(lp3492
g57
(g78
g59
NtRp3493
(dp3494
g62
(dp3495
g82
g83
ssg71
g3489
sg64
(lp3496
g444
asbag57
(g78
g59
NtRp3497
(dp3498
g62
(dp3499
g89
g90
ssg71
g3489
sg64
(lp3500
S':'
asbag57
(g78
g59
NtRp3501
(dp3502
g62
(dp3503
sg71
g3489
sg64
(lp3504
g57
(g58
g59
NtRp3505
(dp3506
g62
(dp3507
g70
I3
ssg71
g3501
sg64
(lp3508
S''
asbasbasbasbasbasbasbasbasbasbasbag57
(g73
g59
NtRp3509
(dp3510
g62
(dp3511
sg71
g3275
sg64
(lp3512
g57
(g78
g59
NtRp3513
(dp3514
g62
(dp3515
g82
g83
ssg71
g3509
sg64
(lp3516
S'delimiters'
p3517
asbag57
(g78
g59
NtRp3518
(dp3519
g62
(dp3520
g89
g90
ssg71
g3509
sg64
(lp3521
S':'
asbag57
(g78
g59
NtRp3522
(dp3523
g62
(dp3524
sg71
g3509
sg64
(lp3525
g57
(g58
g59
NtRp3526
(dp3527
g62
(dp3528
g70
I5
ssg71
g3522
sg64
(lp3529
g57
(g66
g59
NtRp3530
(dp3531
g62
(dp3532
g70
I4
ssg71
Nsg64
(lp3533
g57
(g73
g59
NtRp3534
(dp3535
g62
(dp3536
sg71
g3530
sg64
(lp3537
g57
(g78
g59
NtRp3538
(dp3539
g62
(dp3540
sg71
g3534
sg64
(lp3541
g57
(g58
g59
NtRp3542
(dp3543
g62
(dp3544
g70
I4
ssg71
g3538
sg64
(lp3545
S'{{'
p3546
asbasbasbag57
(g73
g59
NtRp3547
(dp3548
g62
(dp3549
sg71
g3530
sg64
(lp3550
g57
(g78
g59
NtRp3551
(dp3552
g62
(dp3553
sg71
g3547
sg64
(lp3554
g57
(g58
g59
NtRp3555
(dp3556
g62
(dp3557
g70
I4
ssg71
g3551
sg64
(lp3558
S'}}'
p3559
asbasbasbasbasbasbasbag57
(g73
g59
NtRp3560
(dp3561
g62
(dp3562
sg71
g3275
sg64
(lp3563
g57
(g78
g59
NtRp3564
(dp3565
g62
(dp3566
g82
g83
ssg71
g3560
sg64
(lp3567
S'files'
p3568
asbag57
(g78
g59
NtRp3569
(dp3570
g62
(dp3571
g89
g90
ssg71
g3560
sg64
(lp3572
S':'
asbag57
(g78
g59
NtRp3573
(dp3574
g62
(dp3575
sg71
g3560
sg64
(lp3576
g57
(g58
g59
NtRp3577
(dp3578
g62
(dp3579
g70
I5
ssg71
g3573
sg64
(lp3580
g57
(g66
g59
NtRp3581
(dp3582
g62
(dp3583
g70
I4
ssg71
Nsg64
(lp3584
sbasbasbasbag57
(g73
g59
NtRp3585
(dp3586
g62
(dp3587
sg71
g3275
sg64
(lp3588
g57
(g78
g59
NtRp3589
(dp3590
g62
(dp3591
g82
g83
ssg71
g3585
sg64
(lp3592
S'flash'
p3593
asbag57
(g78
g59
NtRp3594
(dp3595
g62
(dp3596
g89
g90
ssg71
g3585
sg64
(lp3597
S':'
asbag57
(g78
g59
NtRp3598
(dp3599
g62
(dp3600
sg71
g3585
sg64
(lp3601
g57
(g58
g59
NtRp3602
(dp3603
g62
(dp3604
g70
I5
ssg71
g3598
sg64
(lp3605
S''
asbasbasbag57
(g73
g59
NtRp3606
(dp3607
g62
(dp3608
sg71
g3275
sg64
(lp3609
g57
(g78
g59
NtRp3610
(dp3611
g62
(dp3612
g82
g83
ssg71
g3606
sg64
(lp3613
S'generic_patterns'
p3614
asbag57
(g78
g59
NtRp3615
(dp3616
g62
(dp3617
g89
g90
ssg71
g3606
sg64
(lp3618
S':'
asbag57
(g78
g59
NtRp3619
(dp3620
g62
(dp3621
sg71
g3606
sg64
(lp3622
g57
(g58
g59
NtRp3623
(dp3624
g62
(dp3625
g70
I5
ssg71
g3619
sg64
(lp3626
g57
(g66
g59
NtRp3627
(dp3628
g62
(dp3629
g70
I4
ssg71
Nsg64
(lp3630
g57
(g73
g59
NtRp3631
(dp3632
g62
(dp3633
sg71
g3627
sg64
(lp3634
g57
(g78
g59
NtRp3635
(dp3636
g62
(dp3637
sg71
g3631
sg64
(lp3638
g57
(g58
g59
NtRp3639
(dp3640
g62
(dp3641
g70
I4
ssg71
g3635
sg64
(lp3642
S'*'
asbasbasbasbasbasbasbag57
(g73
g59
NtRp3643
(dp3644
g62
(dp3645
sg71
g3275
sg64
(lp3646
g57
(g78
g59
NtRp3647
(dp3648
g62
(dp3649
g82
g83
ssg71
g3643
sg64
(lp3650
S'headers'
p3651
asbag57
(g78
g59
NtRp3652
(dp3653
g62
(dp3654
g89
g90
ssg71
g3643
sg64
(lp3655
S':'
asbag57
(g78
g59
NtRp3656
(dp3657
g62
(dp3658
sg71
g3643
sg64
(lp3659
g57
(g58
g59
NtRp3660
(dp3661
g62
(dp3662
g70
I5
ssg71
g3656
sg64
(lp3663
g57
(g66
g59
NtRp3664
(dp3665
g62
(dp3666
g70
I4
ssg71
Nsg64
(lp3667
g57
(g73
g59
NtRp3668
(dp3669
g62
(dp3670
sg71
g3664
sg64
(lp3671
g57
(g78
g59
NtRp3672
(dp3673
g62
(dp3674
g82
g83
ssg71
g3668
sg64
(lp3675
S'Cache-Control'
p3676
asbag57
(g78
g59
NtRp3677
(dp3678
g62
(dp3679
g89
g90
ssg71
g3668
sg64
(lp3680
S':'
asbag57
(g78
g59
NtRp3681
(dp3682
g62
(dp3683
sg71
g3668
sg64
(lp3684
g57
(g58
g59
NtRp3685
(dp3686
g62
(dp3687
g70
I4
ssg71
g3681
sg64
(lp3688
S'no-store, no-cache, must-revalidate, post-check=0, pre-check=0'
p3689
asbasbasbag57
(g73
g59
NtRp3690
(dp3691
g62
(dp3692
sg71
g3664
sg64
(lp3693
g57
(g78
g59
NtRp3694
(dp3695
g62
(dp3696
g82
g83
ssg71
g3690
sg64
(lp3697
S'Content-Type'
p3698
asbag57
(g78
g59
NtRp3699
(dp3700
g62
(dp3701
g89
g90
ssg71
g3690
sg64
(lp3702
S':'
asbag57
(g78
g59
NtRp3703
(dp3704
g62
(dp3705
sg71
g3690
sg64
(lp3706
g57
(g58
g59
NtRp3707
(dp3708
g62
(dp3709
g70
I4
ssg71
g3703
sg64
(lp3710
S'application/json; charset=utf-8'
p3711
asbasbasbag57
(g73
g59
NtRp3712
(dp3713
g62
(dp3714
sg71
g3664
sg64
(lp3715
g57
(g78
g59
NtRp3716
(dp3717
g62
(dp3718
g82
g83
ssg71
g3712
sg64
(lp3719
S'Expires'
p3720
asbag57
(g78
g59
NtRp3721
(dp3722
g62
(dp3723
g89
g90
ssg71
g3712
sg64
(lp3724
S':'
asbag57
(g78
g59
NtRp3725
(dp3726
g62
(dp3727
sg71
g3712
sg64
(lp3728
g57
(g58
g59
NtRp3729
(dp3730
g62
(dp3731
g70
I4
ssg71
g3725
sg64
(lp3732
S'Mon, 30 Jul 2012 17:09:13 GMT'
p3733
asbasbasbag57
(g73
g59
NtRp3734
(dp3735
g62
(dp3736
sg71
g3664
sg64
(lp3737
g57
(g78
g59
NtRp3738
(dp3739
g62
(dp3740
g82
g83
ssg71
g3734
sg64
(lp3741
S'Pragma'
p3742
asbag57
(g78
g59
NtRp3743
(dp3744
g62
(dp3745
g89
g90
ssg71
g3734
sg64
(lp3746
S':'
asbag57
(g78
g59
NtRp3747
(dp3748
g62
(dp3749
sg71
g3734
sg64
(lp3750
g57
(g58
g59
NtRp3751
(dp3752
g62
(dp3753
g70
I4
ssg71
g3747
sg64
(lp3754
S'no-cache'
p3755
asbasbasbag57
(g73
g59
NtRp3756
(dp3757
g62
(dp3758
sg71
g3664
sg64
(lp3759
g57
(g78
g59
NtRp3760
(dp3761
g62
(dp3762
g82
g83
ssg71
g3756
sg64
(lp3763
S'X-Powered-By'
p3764
asbag57
(g78
g59
NtRp3765
(dp3766
g62
(dp3767
g89
g90
ssg71
g3756
sg64
(lp3768
S':'
asbag57
(g78
g59
NtRp3769
(dp3770
g62
(dp3771
sg71
g3756
sg64
(lp3772
g57
(g58
g59
NtRp3773
(dp3774
g62
(dp3775
g70
I4
ssg71
g3769
sg64
(lp3776
S'web2py'
p3777
asbasbasbasbasbasbasbag57
(g73
g59
NtRp3778
(dp3779
g62
(dp3780
sg71
g3275
sg64
(lp3781
g57
(g78
g59
NtRp3782
(dp3783
g62
(dp3784
g82
g83
ssg71
g3778
sg64
(lp3785
S'menu'
p3786
asbag57
(g78
g59
NtRp3787
(dp3788
g62
(dp3789
g89
g90
ssg71
g3778
sg64
(lp3790
S':'
asbag57
(g78
g59
NtRp3791
(dp3792
g62
(dp3793
sg71
g3778
sg64
(lp3794
g57
(g58
g59
NtRp3795
(dp3796
g62
(dp3797
g70
I5
ssg71
g3791
sg64
(lp3798
g57
(g66
g59
NtRp3799
(dp3800
g62
(dp3801
g70
I4
ssg71
Nsg64
(lp3802
g57
(g73
g59
NtRp3803
(dp3804
g62
(dp3805
sg71
g3799
sg64
(lp3806
g57
(g78
g59
NtRp3807
(dp3808
g62
(dp3809
sg71
g3803
sg64
(lp3810
g57
(g58
g59
NtRp3811
(dp3812
g62
(dp3813
g70
I4
ssg71
g3807
sg64
(lp3814
g57
(g66
g59
NtRp3815
(dp3816
g62
(dp3817
g70
I3
ssg71
Nsg64
(lp3818
g57
(g73
g59
NtRp3819
(dp3820
g62
(dp3821
sg71
g3815
sg64
(lp3822
g57
(g78
g59
NtRp3823
(dp3824
g62
(dp3825
sg71
g3819
sg64
(lp3826
g57
(g58
g59
NtRp3827
(dp3828
g62
(dp3829
g70
I3
ssg71
g3823
sg64
(lp3830
cgluon.languages
lazyT_unpickle
p3831
(S't\x04\x00\x00\x00Home'
tRp3832
asbasbasbag57
(g73
g59
NtRp3833
(dp3834
g62
(dp3835
sg71
g3815
sg64
(lp3836
g57
(g78
g59
NtRp3837
(dp3838
g62
(dp3839
sg71
g3833
sg64
(lp3840
g57
(g58
g59
NtRp3841
(dp3842
g62
(dp3843
g70
I3
ssg71
g3837
sg64
(lp3844
g100
asbasbasbag57
(g73
g59
NtRp3845
(dp3846
g62
(dp3847
sg71
g3815
sg64
(lp3848
g57
(g78
g59
NtRp3849
(dp3850
g62
(dp3851
sg71
g3845
sg64
(lp3852
g57
(g58
g59
NtRp3853
(dp3854
g62
(dp3855
g70
I3
ssg71
g3849
sg64
(lp3856
S'/igor/default/index'
p3857
asbasbasbag57
(g73
g59
NtRp3858
(dp3859
g62
(dp3860
sg71
g3815
sg64
(lp3861
g57
(g78
g59
NtRp3862
(dp3863
g62
(dp3864
sg71
g3858
sg64
(lp3865
g57
(g58
g59
NtRp3866
(dp3867
g62
(dp3868
g70
I3
ssg71
g3862
sg64
(lp3869
g57
(g66
g59
NtRp3870
(dp3871
g62
(dp3872
g70
I2
ssg71
Nsg64
(lp3873
sbasbasbasbasbasbasbasbag57
(g73
g59
NtRp3874
(dp3875
g62
(dp3876
sg71
g3799
sg64
(lp3877
g57
(g78
g59
NtRp3878
(dp3879
g62
(dp3880
sg71
g3874
sg64
(lp3881
g57
(g58
g59
NtRp3882
(dp3883
g62
(dp3884
g70
I4
ssg71
g3878
sg64
(lp3885
g57
(g66
g59
NtRp3886
(dp3887
g62
(dp3888
g70
I3
ssg71
Nsg64
(lp3889
g57
(g73
g59
NtRp3890
(dp3891
g62
(dp3892
sg71
g3886
sg64
(lp3893
g57
(g78
g59
NtRp3894
(dp3895
g62
(dp3896
sg71
g3890
sg64
(lp3897
g57
(g58
g59
NtRp3898
(dp3899
g62
(dp3900
g70
I3
ssg71
g3894
sg64
(lp3901
g57
(cgluon.html
SPAN
p3902
g59
NtRp3903
(dp3904
g62
(dp3905
g82
S'color:yellow'
p3906
ssg71
Nsg64
(lp3907
g3777
asbasbasbasbag57
(g73
g59
NtRp3908
(dp3909
g62
(dp3910
sg71
g3886
sg64
(lp3911
g57
(g78
g59
NtRp3912
(dp3913
g62
(dp3914
sg71
g3908
sg64
(lp3915
g57
(g58
g59
NtRp3916
(dp3917
g62
(dp3918
g70
I3
ssg71
g3912
sg64
(lp3919
g100
asbasbasbag57
(g73
g59
NtRp3920
(dp3921
g62
(dp3922
sg71
g3886
sg64
(lp3923
g57
(g78
g59
NtRp3924
(dp3925
g62
(dp3926
sg71
g3920
sg64
(lp3927
g57
(g58
g59
NtRp3928
(dp3929
g62
(dp3930
g70
I3
ssg71
g3924
sg64
(lp3931
S'None'
p3932
asbasbasbag57
(g73
g59
NtRp3933
(dp3934
g62
(dp3935
sg71
g3886
sg64
(lp3936
g57
(g78
g59
NtRp3937
(dp3938
g62
(dp3939
sg71
g3933
sg64
(lp3940
g57
(g58
g59
NtRp3941
(dp3942
g62
(dp3943
g70
I3
ssg71
g3937
sg64
(lp3944
g57
(g66
g59
NtRp3945
(dp3946
g62
(dp3947
g70
I2
ssg71
Nsg64
(lp3948
g57
(g73
g59
NtRp3949
(dp3950
g62
(dp3951
sg71
g3945
sg64
(lp3952
g57
(g78
g59
NtRp3953
(dp3954
g62
(dp3955
sg71
g3949
sg64
(lp3956
g57
(g58
g59
NtRp3957
(dp3958
g62
(dp3959
g70
I2
ssg71
g3953
sg64
(lp3960
g57
(g66
g59
NtRp3961
(dp3962
g62
(dp3963
g70
I1
ssg71
Nsg64
(lp3964
g57
(g73
g59
NtRp3965
(dp3966
g62
(dp3967
sg71
g3961
sg64
(lp3968
g57
(g78
g59
NtRp3969
(dp3970
g62
(dp3971
sg71
g3965
sg64
(lp3972
g57
(g58
g59
NtRp3973
(dp3974
g62
(dp3975
g70
I1
ssg71
g3969
sg64
(lp3976
g3831
(S's\x08\x00\x00\x00My Sites'
tRp3977
asbasbasbag57
(g73
g59
NtRp3978
(dp3979
g62
(dp3980
sg71
g3961
sg64
(lp3981
g57
(g78
g59
NtRp3982
(dp3983
g62
(dp3984
sg71
g3978
sg64
(lp3985
g57
(g58
g59
NtRp3986
(dp3987
g62
(dp3988
g70
I1
ssg71
g3982
sg64
(lp3989
I00
asbasbasbag57
(g73
g59
NtRp3990
(dp3991
g62
(dp3992
sg71
g3961
sg64
(lp3993
g57
(g78
g59
NtRp3994
(dp3995
g62
(dp3996
sg71
g3990
sg64
(lp3997
g57
(g58
g59
NtRp3998
(dp3999
g62
(dp4000
g70
I1
ssg71
g3994
sg64
(lp4001
S'/admin/default/site'
p4002
asbasbasbasbasbasbasbag57
(g73
g59
NtRp4003
(dp4004
g62
(dp4005
sg71
g3945
sg64
(lp4006
g57
(g78
g59
NtRp4007
(dp4008
g62
(dp4009
sg71
g4003
sg64
(lp4010
g57
(g58
g59
NtRp4011
(dp4012
g62
(dp4013
g70
I2
ssg71
g4007
sg64
(lp4014
g57
(g66
g59
NtRp4015
(dp4016
g62
(dp4017
g70
I1
ssg71
Nsg64
(lp4018
g57
(g73
g59
NtRp4019
(dp4020
g62
(dp4021
sg71
g4015
sg64
(lp4022
g57
(g78
g59
NtRp4023
(dp4024
g62
(dp4025
sg71
g4019
sg64
(lp4026
g57
(g58
g59
NtRp4027
(dp4028
g62
(dp4029
g70
I1
ssg71
g4023
sg64
(lp4030
g3831
(S's\x08\x00\x00\x00This App'
tRp4031
asbasbasbag57
(g73
g59
NtRp4032
(dp4033
g62
(dp4034
sg71
g4015
sg64
(lp4035
g57
(g78
g59
NtRp4036
(dp4037
g62
(dp4038
sg71
g4032
sg64
(lp4039
g57
(g58
g59
NtRp4040
(dp4041
g62
(dp4042
g70
I1
ssg71
g4036
sg64
(lp4043
I00
asbasbasbag57
(g73
g59
NtRp4044
(dp4045
g62
(dp4046
sg71
g4015
sg64
(lp4047
g57
(g78
g59
NtRp4048
(dp4049
g62
(dp4050
sg71
g4044
sg64
(lp4051
g57
(g58
g59
NtRp4052
(dp4053
g62
(dp4054
g70
I1
ssg71
g4048
sg64
(lp4055
S'/admin/default/design/igor'
p4056
asbasbasbag57
(g73
g59
NtRp4057
(dp4058
g62
(dp4059
sg71
g4015
sg64
(lp4060
g57
(g78
g59
NtRp4061
(dp4062
g62
(dp4063
sg71
g4057
sg64
(lp4064
g57
(g58
g59
NtRp4065
(dp4066
g62
(dp4067
g70
I1
ssg71
g4061
sg64
(lp4068
(lp4069
(g3831
(S't\n\x00\x00\x00Controller'
tRp4070
I00
S'/admin/default/edit/igor/controllers/class_subject.py'
tp4071
a(g3831
(S't\x04\x00\x00\x00View'
tRp4072
I00
S'/admin/default/edit/igor/views/class_subject/call.html'
tp4073
a(g3831
(S't\x06\x00\x00\x00Layout'
tRp4074
I00
S'/admin/default/edit/igor/views/layout.html'
tp4075
a(g3831
(S't\n\x00\x00\x00Stylesheet'
tRp4076
I00
S'/admin/default/edit/igor/static/css/web2py.css'
tp4077
a(g3831
(S's\x08\x00\x00\x00DB Model'
tRp4078
I00
S'/admin/default/edit/igor/models/db.py'
tp4079
a(g3831
(S's\n\x00\x00\x00Menu Model'
tRp4080
I00
S'/admin/default/edit/igor/models/menu.py'
tp4081
a(g3831
(S't\x08\x00\x00\x00Database'
tRp4082
I00
S'/igor/appadmin/index'
tp4083
a(g3831
(S't\x06\x00\x00\x00Errors'
tRp4084
I00
S'/admin/default/errors/igor'
tp4085
a(g3831
(S't\x05\x00\x00\x00About'
tRp4086
I00
S'/admin/default/about/igor'
tp4087
aasbasbasbasbasbasbasbag57
(g73
g59
NtRp4088
(dp4089
g62
(dp4090
sg71
g3945
sg64
(lp4091
g57
(g78
g59
NtRp4092
(dp4093
g62
(dp4094
sg71
g4088
sg64
(lp4095
g57
(g58
g59
NtRp4096
(dp4097
g62
(dp4098
g70
I2
ssg71
g4092
sg64
(lp4099
g57
(g66
g59
NtRp4100
(dp4101
g62
(dp4102
g70
I1
ssg71
Nsg64
(lp4103
g57
(g73
g59
NtRp4104
(dp4105
g62
(dp4106
sg71
g4100
sg64
(lp4107
g57
(g78
g59
NtRp4108
(dp4109
g62
(dp4110
sg71
g4104
sg64
(lp4111
g57
(g58
g59
NtRp4112
(dp4113
g62
(dp4114
g70
I1
ssg71
g4108
sg64
(lp4115
S'web2py.com'
p4116
asbasbasbag57
(g73
g59
NtRp4117
(dp4118
g62
(dp4119
sg71
g4100
sg64
(lp4120
g57
(g78
g59
NtRp4121
(dp4122
g62
(dp4123
sg71
g4117
sg64
(lp4124
g57
(g58
g59
NtRp4125
(dp4126
g62
(dp4127
g70
I1
ssg71
g4121
sg64
(lp4128
I00
asbasbasbag57
(g73
g59
NtRp4129
(dp4130
g62
(dp4131
sg71
g4100
sg64
(lp4132
g57
(g78
g59
NtRp4133
(dp4134
g62
(dp4135
sg71
g4129
sg64
(lp4136
g57
(g58
g59
NtRp4137
(dp4138
g62
(dp4139
g70
I1
ssg71
g4133
sg64
(lp4140
S'http://www.web2py.com'
p4141
asbasbasbag57
(g73
g59
NtRp4142
(dp4143
g62
(dp4144
sg71
g4100
sg64
(lp4145
g57
(g78
g59
NtRp4146
(dp4147
g62
(dp4148
sg71
g4142
sg64
(lp4149
g57
(g58
g59
NtRp4150
(dp4151
g62
(dp4152
g70
I1
ssg71
g4146
sg64
(lp4153
(lp4154
(g3831
(S't\x08\x00\x00\x00Download'
tRp4155
I00
S'http://www.web2py.com/examples/default/download'
p4156
tp4157
a(g3831
(S't\x07\x00\x00\x00Support'
tRp4158
I00
S'http://www.web2py.com/examples/default/support'
p4159
tp4160
a(g3831
(S't\x04\x00\x00\x00Demo'
tRp4161
I00
S'http://web2py.com/demo_admin'
p4162
tp4163
a(g3831
(S's\x0e\x00\x00\x00Quick Examples'
tRp4164
I00
S'http://web2py.com/examples/default/examples'
p4165
tp4166
a(g3831
(S't\x03\x00\x00\x00FAQ'
tRp4167
I00
S'http://web2py.com/AlterEgo'
p4168
tp4169
a(g3831
(S't\x06\x00\x00\x00Videos'
tRp4170
I00
S'http://www.web2py.com/examples/default/videos/'
p4171
tp4172
a(g3831
(S's\x11\x00\x00\x00Free Applications'
tRp4173
I00
S'http://web2py.com/appliances'
p4174
tp4175
a(g3831
(S't\x07\x00\x00\x00Plugins'
tRp4176
I00
S'http://web2py.com/plugins'
p4177
tp4178
a(g3831
(S't\x07\x00\x00\x00Layouts'
tRp4179
I00
S'http://web2py.com/layouts'
p4180
tp4181
a(g3831
(S't\x07\x00\x00\x00Recipes'
tRp4182
I00
S'http://web2pyslices.com/'
p4183
tp4184
a(g3831
(S't\x08\x00\x00\x00Semantic'
tRp4185
I00
S'http://web2py.com/semantic'
p4186
tp4187
aasbasbasbasbasbasbasbag57
(g73
g59
NtRp4188
(dp4189
g62
(dp4190
sg71
g3945
sg64
(lp4191
g57
(g78
g59
NtRp4192
(dp4193
g62
(dp4194
sg71
g4188
sg64
(lp4195
g57
(g58
g59
NtRp4196
(dp4197
g62
(dp4198
g70
I2
ssg71
g4192
sg64
(lp4199
g57
(g66
g59
NtRp4200
(dp4201
g62
(dp4202
g70
I1
ssg71
Nsg64
(lp4203
g57
(g73
g59
NtRp4204
(dp4205
g62
(dp4206
sg71
g4200
sg64
(lp4207
g57
(g78
g59
NtRp4208
(dp4209
g62
(dp4210
sg71
g4204
sg64
(lp4211
g57
(g58
g59
NtRp4212
(dp4213
g62
(dp4214
g70
I1
ssg71
g4208
sg64
(lp4215
g3831
(S't\r\x00\x00\x00Documentation'
tRp4216
asbasbasbag57
(g73
g59
NtRp4217
(dp4218
g62
(dp4219
sg71
g4200
sg64
(lp4220
g57
(g78
g59
NtRp4221
(dp4222
g62
(dp4223
sg71
g4217
sg64
(lp4224
g57
(g58
g59
NtRp4225
(dp4226
g62
(dp4227
g70
I1
ssg71
g4221
sg64
(lp4228
I00
asbasbasbag57
(g73
g59
NtRp4229
(dp4230
g62
(dp4231
sg71
g4200
sg64
(lp4232
g57
(g78
g59
NtRp4233
(dp4234
g62
(dp4235
sg71
g4229
sg64
(lp4236
g57
(g58
g59
NtRp4237
(dp4238
g62
(dp4239
g70
I1
ssg71
g4233
sg64
(lp4240
S'http://www.web2py.com/book'
p4241
asbasbasbag57
(g73
g59
NtRp4242
(dp4243
g62
(dp4244
sg71
g4200
sg64
(lp4245
g57
(g78
g59
NtRp4246
(dp4247
g62
(dp4248
sg71
g4242
sg64
(lp4249
g57
(g58
g59
NtRp4250
(dp4251
g62
(dp4252
g70
I1
ssg71
g4246
sg64
(lp4253
(lp4254
(g3831
(S't\x07\x00\x00\x00Preface'
tRp4255
I00
S'http://www.web2py.com/book/default/chapter/00'
p4256
tp4257
a(g3831
(S't\x0c\x00\x00\x00Introduction'
tRp4258
I00
S'http://www.web2py.com/book/default/chapter/01'
p4259
tp4260
a(g3831
(S't\x06\x00\x00\x00Python'
tRp4261
I00
S'http://www.web2py.com/book/default/chapter/02'
p4262
tp4263
a(g3831
(S't\x08\x00\x00\x00Overview'
tRp4264
I00
S'http://www.web2py.com/book/default/chapter/03'
p4265
tp4266
a(g3831
(S's\x08\x00\x00\x00The Core'
tRp4267
I00
S'http://www.web2py.com/book/default/chapter/04'
p4268
tp4269
a(g3831
(S's\t\x00\x00\x00The Views'
tRp4270
I00
S'http://www.web2py.com/book/default/chapter/05'
p4271
tp4272
a(g3831
(S't\x08\x00\x00\x00Database'
tRp4273
I00
S'http://www.web2py.com/book/default/chapter/06'
p4274
tp4275
a(g3831
(S's\x14\x00\x00\x00Forms and Validators'
tRp4276
I00
S'http://www.web2py.com/book/default/chapter/07'
p4277
tp4278
a(g3831
(S's\r\x00\x00\x00Email and SMS'
tRp4279
I00
S'http://www.web2py.com/book/default/chapter/08'
p4280
tp4281
a(g3831
(S's\x0e\x00\x00\x00Access Control'
tRp4282
I00
S'http://www.web2py.com/book/default/chapter/09'
p4283
tp4284
a(g3831
(S't\x08\x00\x00\x00Services'
tRp4285
I00
S'http://www.web2py.com/book/default/chapter/10'
p4286
tp4287
a(g3831
(S's\x0c\x00\x00\x00Ajax Recipes'
tRp4288
I00
S'http://www.web2py.com/book/default/chapter/11'
p4289
tp4290
a(g3831
(S's\x16\x00\x00\x00Components and Plugins'
tRp4291
I00
S'http://www.web2py.com/book/default/chapter/12'
p4292
tp4293
a(g3831
(S's\x12\x00\x00\x00Deployment Recipes'
tRp4294
I00
S'http://www.web2py.com/book/default/chapter/13'
p4295
tp4296
a(g3831
(S's\r\x00\x00\x00Other Recipes'
tRp4297
I00
S'http://www.web2py.com/book/default/chapter/14'
p4298
tp4299
a(g3831
(S's\r\x00\x00\x00Buy this book'
tRp4300
I00
S'http://stores.lulu.com/web2py'
p4301
tp4302
aasbasbasbasbasbasbasbag57
(g73
g59
NtRp4303
(dp4304
g62
(dp4305
sg71
g3945
sg64
(lp4306
g57
(g78
g59
NtRp4307
(dp4308
g62
(dp4309
sg71
g4303
sg64
(lp4310
g57
(g58
g59
NtRp4311
(dp4312
g62
(dp4313
g70
I2
ssg71
g4307
sg64
(lp4314
g57
(g66
g59
NtRp4315
(dp4316
g62
(dp4317
g70
I1
ssg71
Nsg64
(lp4318
g57
(g73
g59
NtRp4319
(dp4320
g62
(dp4321
sg71
g4315
sg64
(lp4322
g57
(g78
g59
NtRp4323
(dp4324
g62
(dp4325
sg71
g4319
sg64
(lp4326
g57
(g58
g59
NtRp4327
(dp4328
g62
(dp4329
g70
I1
ssg71
g4323
sg64
(lp4330
g3831
(S't\t\x00\x00\x00Community'
tRp4331
asbasbasbag57
(g73
g59
NtRp4332
(dp4333
g62
(dp4334
sg71
g4315
sg64
(lp4335
g57
(g78
g59
NtRp4336
(dp4337
g62
(dp4338
sg71
g4332
sg64
(lp4339
g57
(g58
g59
NtRp4340
(dp4341
g62
(dp4342
g70
I1
ssg71
g4336
sg64
(lp4343
I00
asbasbasbag57
(g73
g59
NtRp4344
(dp4345
g62
(dp4346
sg71
g4315
sg64
(lp4347
g57
(g78
g59
NtRp4348
(dp4349
g62
(dp4350
sg71
g4344
sg64
(lp4351
g57
(g58
g59
NtRp4352
(dp4353
g62
(dp4354
g70
I1
ssg71
g4348
sg64
(lp4355
Nasbasbasbag57
(g73
g59
NtRp4356
(dp4357
g62
(dp4358
sg71
g4315
sg64
(lp4359
g57
(g78
g59
NtRp4360
(dp4361
g62
(dp4362
sg71
g4356
sg64
(lp4363
g57
(g58
g59
NtRp4364
(dp4365
g62
(dp4366
g70
I1
ssg71
g4360
sg64
(lp4367
(lp4368
(g3831
(S't\x06\x00\x00\x00Groups'
tRp4369
I00
S'http://www.web2py.com/examples/default/usergroups'
p4370
tp4371
a(g3831
(S't\x07\x00\x00\x00Twitter'
tRp4372
I00
S'http://twitter.com/web2py'
p4373
tp4374
a(g3831
(S's\t\x00\x00\x00Live Chat'
tRp4375
I00
S'http://webchat.freenode.net/?channels=web2py'
p4376
tp4377
aasbasbasbasbasbasbasbag57
(g73
g59
NtRp4378
(dp4379
g62
(dp4380
sg71
g3945
sg64
(lp4381
g57
(g78
g59
NtRp4382
(dp4383
g62
(dp4384
sg71
g4378
sg64
(lp4385
g57
(g58
g59
NtRp4386
(dp4387
g62
(dp4388
g70
I2
ssg71
g4382
sg64
(lp4389
g57
(g66
g59
NtRp4390
(dp4391
g62
(dp4392
g70
I1
ssg71
Nsg64
(lp4393
g57
(g73
g59
NtRp4394
(dp4395
g62
(dp4396
sg71
g4390
sg64
(lp4397
g57
(g78
g59
NtRp4398
(dp4399
g62
(dp4400
sg71
g4394
sg64
(lp4401
g57
(g58
g59
NtRp4402
(dp4403
g62
(dp4404
g70
I1
ssg71
g4398
sg64
(lp4405
g3831
(S't\x07\x00\x00\x00Plugins'
tRp4406
asbasbasbag57
(g73
g59
NtRp4407
(dp4408
g62
(dp4409
sg71
g4390
sg64
(lp4410
g57
(g78
g59
NtRp4411
(dp4412
g62
(dp4413
sg71
g4407
sg64
(lp4414
g57
(g58
g59
NtRp4415
(dp4416
g62
(dp4417
g70
I1
ssg71
g4411
sg64
(lp4418
I00
asbasbasbag57
(g73
g59
NtRp4419
(dp4420
g62
(dp4421
sg71
g4390
sg64
(lp4422
g57
(g78
g59
NtRp4423
(dp4424
g62
(dp4425
sg71
g4419
sg64
(lp4426
g57
(g58
g59
NtRp4427
(dp4428
g62
(dp4429
g70
I1
ssg71
g4423
sg64
(lp4430
Nasbasbasbag57
(g73
g59
NtRp4431
(dp4432
g62
(dp4433
sg71
g4390
sg64
(lp4434
g57
(g78
g59
NtRp4435
(dp4436
g62
(dp4437
sg71
g4431
sg64
(lp4438
g57
(g58
g59
NtRp4439
(dp4440
g62
(dp4441
g70
I1
ssg71
g4435
sg64
(lp4442
(lp4443
(S'plugin_wiki'
p4444
I00
S'http://web2py.com/examples/default/download'
p4445
tp4446
a(g3831
(S's\r\x00\x00\x00Other Plugins'
tRp4447
I00
g4177
tp4448
a(g3831
(S's\x0e\x00\x00\x00Layout Plugins'
tRp4449
I00
g4180
tp4450
aasbasbasbasbasbasbasbasbasbasbasbasbasbasbasbasbasbasbasbag57
(g73
g59
NtRp4451
(dp4452
g62
(dp4453
sg71
g3275
sg64
(lp4454
g57
(g78
g59
NtRp4455
(dp4456
g62
(dp4457
g82
g83
ssg71
g4451
sg64
(lp4458
S'meta'
p4459
asbag57
(g78
g59
NtRp4460
(dp4461
g62
(dp4462
g89
g90
ssg71
g4451
sg64
(lp4463
S':'
asbag57
(g78
g59
NtRp4464
(dp4465
g62
(dp4466
sg71
g4451
sg64
(lp4467
g57
(g58
g59
NtRp4468
(dp4469
g62
(dp4470
g70
I5
ssg71
g4464
sg64
(lp4471
g57
(g66
g59
NtRp4472
(dp4473
g62
(dp4474
g70
I4
ssg71
Nsg64
(lp4475
g57
(g73
g59
NtRp4476
(dp4477
g62
(dp4478
sg71
g4472
sg64
(lp4479
g57
(g78
g59
NtRp4480
(dp4481
g62
(dp4482
g82
g83
ssg71
g4476
sg64
(lp4483
S'author'
p4484
asbag57
(g78
g59
NtRp4485
(dp4486
g62
(dp4487
g89
g90
ssg71
g4476
sg64
(lp4488
S':'
asbag57
(g78
g59
NtRp4489
(dp4490
g62
(dp4491
sg71
g4476
sg64
(lp4492
g57
(g58
g59
NtRp4493
(dp4494
g62
(dp4495
g70
I4
ssg71
g4489
sg64
(lp4496
S'Your Name <you@example.com>'
p4497
asbasbasbag57
(g73
g59
NtRp4498
(dp4499
g62
(dp4500
sg71
g4472
sg64
(lp4501
g57
(g78
g59
NtRp4502
(dp4503
g62
(dp4504
g82
g83
ssg71
g4498
sg64
(lp4505
S'copyright'
p4506
asbag57
(g78
g59
NtRp4507
(dp4508
g62
(dp4509
g89
g90
ssg71
g4498
sg64
(lp4510
S':'
asbag57
(g78
g59
NtRp4511
(dp4512
g62
(dp4513
sg71
g4498
sg64
(lp4514
g57
(g58
g59
NtRp4515
(dp4516
g62
(dp4517
g70
I4
ssg71
g4511
sg64
(lp4518
S'Copyright 2011'
p4519
asbasbasbag57
(g73
g59
NtRp4520
(dp4521
g62
(dp4522
sg71
g4472
sg64
(lp4523
g57
(g78
g59
NtRp4524
(dp4525
g62
(dp4526
g82
g83
ssg71
g4520
sg64
(lp4527
S'description'
p4528
asbag57
(g78
g59
NtRp4529
(dp4530
g62
(dp4531
g89
g90
ssg71
g4520
sg64
(lp4532
S':'
asbag57
(g78
g59
NtRp4533
(dp4534
g62
(dp4535
sg71
g4520
sg64
(lp4536
g57
(g58
g59
NtRp4537
(dp4538
g62
(dp4539
g70
I4
ssg71
g4533
sg64
(lp4540
S'a cool new app'
p4541
asbasbasbag57
(g73
g59
NtRp4542
(dp4543
g62
(dp4544
sg71
g4472
sg64
(lp4545
g57
(g78
g59
NtRp4546
(dp4547
g62
(dp4548
g82
g83
ssg71
g4542
sg64
(lp4549
S'generator'
p4550
asbag57
(g78
g59
NtRp4551
(dp4552
g62
(dp4553
g89
g90
ssg71
g4542
sg64
(lp4554
S':'
asbag57
(g78
g59
NtRp4555
(dp4556
g62
(dp4557
sg71
g4542
sg64
(lp4558
g57
(g58
g59
NtRp4559
(dp4560
g62
(dp4561
g70
I4
ssg71
g4555
sg64
(lp4562
S'Web2py Web Framework'
p4563
asbasbasbag57
(g73
g59
NtRp4564
(dp4565
g62
(dp4566
sg71
g4472
sg64
(lp4567
g57
(g78
g59
NtRp4568
(dp4569
g62
(dp4570
g82
g83
ssg71
g4564
sg64
(lp4571
S'keywords'
p4572
asbag57
(g78
g59
NtRp4573
(dp4574
g62
(dp4575
g89
g90
ssg71
g4564
sg64
(lp4576
S':'
asbag57
(g78
g59
NtRp4577
(dp4578
g62
(dp4579
sg71
g4564
sg64
(lp4580
g57
(g58
g59
NtRp4581
(dp4582
g62
(dp4583
g70
I4
ssg71
g4577
sg64
(lp4584
S'web2py, python, framework'
p4585
asbasbasbasbasbasbasbag57
(g73
g59
NtRp4586
(dp4587
g62
(dp4588
sg71
g3275
sg64
(lp4589
g57
(g78
g59
NtRp4590
(dp4591
g62
(dp4592
g82
g83
ssg71
g4586
sg64
(lp4593
S'postprocessing'
p4594
asbag57
(g78
g59
NtRp4595
(dp4596
g62
(dp4597
g89
g90
ssg71
g4586
sg64
(lp4598
S':'
asbag57
(g78
g59
NtRp4599
(dp4600
g62
(dp4601
sg71
g4586
sg64
(lp4602
g57
(g58
g59
NtRp4603
(dp4604
g62
(dp4605
g70
I5
ssg71
g4599
sg64
(lp4606
g57
(g66
g59
NtRp4607
(dp4608
g62
(dp4609
g70
I4
ssg71
Nsg64
(lp4610
sbasbasbasbag57
(g73
g59
NtRp4611
(dp4612
g62
(dp4613
sg71
g3275
sg64
(lp4614
g57
(g78
g59
NtRp4615
(dp4616
g62
(dp4617
g82
g83
ssg71
g4611
sg64
(lp4618
S'session_filename'
p4619
asbag57
(g78
g59
NtRp4620
(dp4621
g62
(dp4622
g89
g90
ssg71
g4611
sg64
(lp4623
S':'
asbag57
(g78
g59
NtRp4624
(dp4625
g62
(dp4626
sg71
g4611
sg64
(lp4627
g57
(g58
g59
NtRp4628
(dp4629
g62
(dp4630
g70
I5
ssg71
g4624
sg64
(lp4631
S'D:\\workspace\\ca\\IgoR\\C_Sources\\Server\\igor-assistant-ca-2012\\applications\\igor\\sessions\\127.0.0.1-ca8c4619-04b8-41ab-b690-dd05d53a6001'
p4632
asbasbasbag57
(g73
g59
NtRp4633
(dp4634
g62
(dp4635
sg71
g3275
sg64
(lp4636
g57
(g78
g59
NtRp4637
(dp4638
g62
(dp4639
g82
g83
ssg71
g4633
sg64
(lp4640
S'session_id'
p4641
asbag57
(g78
g59
NtRp4642
(dp4643
g62
(dp4644
g89
g90
ssg71
g4633
sg64
(lp4645
S':'
asbag57
(g78
g59
NtRp4646
(dp4647
g62
(dp4648
sg71
g4633
sg64
(lp4649
g57
(g58
g59
NtRp4650
(dp4651
g62
(dp4652
g70
I5
ssg71
g4646
sg64
(lp4653
S'127.0.0.1-ca8c4619-04b8-41ab-b690-dd05d53a6001'
p4654
asbasbasbag57
(g73
g59
NtRp4655
(dp4656
g62
(dp4657
sg71
g3275
sg64
(lp4658
g57
(g78
g59
NtRp4659
(dp4660
g62
(dp4661
g82
g83
ssg71
g4655
sg64
(lp4662
S'session_id_name'
p4663
asbag57
(g78
g59
NtRp4664
(dp4665
g62
(dp4666
g89
g90
ssg71
g4655
sg64
(lp4667
S':'
asbag57
(g78
g59
NtRp4668
(dp4669
g62
(dp4670
sg71
g4655
sg64
(lp4671
g57
(g58
g59
NtRp4672
(dp4673
g62
(dp4674
g70
I5
ssg71
g4668
sg64
(lp4675
g3332
asbasbasbag57
(g73
g59
NtRp4676
(dp4677
g62
(dp4678
sg71
g3275
sg64
(lp4679
g57
(g78
g59
NtRp4680
(dp4681
g62
(dp4682
g82
g83
ssg71
g4676
sg64
(lp4683
S'session_new'
p4684
asbag57
(g78
g59
NtRp4685
(dp4686
g62
(dp4687
g89
g90
ssg71
g4676
sg64
(lp4688
S':'
asbag57
(g78
g59
NtRp4689
(dp4690
g62
(dp4691
sg71
g4676
sg64
(lp4692
g57
(g58
g59
NtRp4693
(dp4694
g62
(dp4695
g70
I5
ssg71
g4689
sg64
(lp4696
g1696
asbasbasbag57
(g73
g59
NtRp4697
(dp4698
g62
(dp4699
sg71
g3275
sg64
(lp4700
g57
(g78
g59
NtRp4701
(dp4702
g62
(dp4703
g82
g83
ssg71
g4697
sg64
(lp4704
S'status'
p4705
asbag57
(g78
g59
NtRp4706
(dp4707
g62
(dp4708
g89
g90
ssg71
g4697
sg64
(lp4709
S':'
asbag57
(g78
g59
NtRp4710
(dp4711
g62
(dp4712
sg71
g4697
sg64
(lp4713
g57
(g58
g59
NtRp4714
(dp4715
g62
(dp4716
g70
I5
ssg71
g4710
sg64
(lp4717
S'200'
p4718
asbasbasbag57
(g73
g59
NtRp4719
(dp4720
g62
(dp4721
sg71
g3275
sg64
(lp4722
g57
(g78
g59
NtRp4723
(dp4724
g62
(dp4725
g82
g83
ssg71
g4719
sg64
(lp4726
S'subtitle'
p4727
asbag57
(g78
g59
NtRp4728
(dp4729
g62
(dp4730
g89
g90
ssg71
g4719
sg64
(lp4731
S':'
asbag57
(g78
g59
NtRp4732
(dp4733
g62
(dp4734
sg71
g4719
sg64
(lp4735
g57
(g58
g59
NtRp4736
(dp4737
g62
(dp4738
g70
I5
ssg71
g4732
sg64
(lp4739
g3831
(S's\r\x00\x00\x00customize me!'
tRp4740
asbasbasbag57
(g73
g59
NtRp4741
(dp4742
g62
(dp4743
sg71
g3275
sg64
(lp4744
g57
(g78
g59
NtRp4745
(dp4746
g62
(dp4747
g82
g83
ssg71
g4741
sg64
(lp4748
S'title'
p4749
asbag57
(g78
g59
NtRp4750
(dp4751
g62
(dp4752
g89
g90
ssg71
g4741
sg64
(lp4753
S':'
asbag57
(g78
g59
NtRp4754
(dp4755
g62
(dp4756
sg71
g4741
sg64
(lp4757
g57
(g58
g59
NtRp4758
(dp4759
g62
(dp4760
g70
I5
ssg71
g4754
sg64
(lp4761
S'Igor'
p4762
asbasbasbag57
(g73
g59
NtRp4763
(dp4764
g62
(dp4765
sg71
g3275
sg64
(lp4766
g57
(g78
g59
NtRp4767
(dp4768
g62
(dp4769
g82
g83
ssg71
g4763
sg64
(lp4770
g2415
asbag57
(g78
g59
NtRp4771
(dp4772
g62
(dp4773
g89
g90
ssg71
g4763
sg64
(lp4774
S':'
asbag57
(g78
g59
NtRp4775
(dp4776
g62
(dp4777
sg71
g4763
sg64
(lp4778
g57
(g58
g59
NtRp4779
(dp4780
g62
(dp4781
g70
I5
ssg71
g4775
sg64
(lp4782
g2428
asbasbasbag57
(g73
g59
NtRp4783
(dp4784
g62
(dp4785
sg71
g3275
sg64
(lp4786
g57
(g78
g59
NtRp4787
(dp4788
g62
(dp4789
g82
g83
ssg71
g4783
sg64
(lp4790
S'view'
p4791
asbag57
(g78
g59
NtRp4792
(dp4793
g62
(dp4794
g89
g90
ssg71
g4783
sg64
(lp4795
S':'
asbag57
(g78
g59
NtRp4796
(dp4797
g62
(dp4798
sg71
g4783
sg64
(lp4799
g57
(g58
g59
NtRp4800
(dp4801
g62
(dp4802
g70
I5
ssg71
g4796
sg64
(lp4803
S'class_subject/call.html'
p4804
asbasbasbasbasbsS'locals'
p4805
(dp4806
S's'
S"''"
p4807
sS'self'
p4808
S'<json.decoder.JSONDecoder object>'
p4809
sS'idx'
p4810
S'0'
sssS'traceback'
p4811
S'Traceback (most recent call last):\n  File "D:\\workspace\\ca\\IgoR\\C_Sources\\Server\\igor-assistant-ca-2012\\gluon\\restricted.py", line 205, in restricted\n    exec ccode in environment\n  File "D:\\workspace\\ca\\IgoR\\C_Sources\\Server\\igor-assistant-ca-2012\\applications\\igor\\controllers/class_subject.py", line 241, in <module>\n  File "D:\\workspace\\ca\\IgoR\\C_Sources\\Server\\igor-assistant-ca-2012\\gluon\\globals.py", line 173, in <lambda>\n    self._caller = lambda f: f()\n  File "D:\\workspace\\ca\\IgoR\\C_Sources\\Server\\igor-assistant-ca-2012\\applications\\igor\\controllers/class_subject.py", line 79, in call\n    return service()\n  File "D:\\workspace\\ca\\IgoR\\C_Sources\\Server\\igor-assistant-ca-2012\\gluon\\tools.py", line 4015, in __call__\n    return self.serve_jsonrpc()\n  File "D:\\workspace\\ca\\IgoR\\C_Sources\\Server\\igor-assistant-ca-2012\\gluon\\tools.py", line 3851, in serve_jsonrpc\n    data = json_parser.loads(request.body.read())\n  File "C:\\Python27\\lib\\json\\__init__.py", line 326, in loads\n    return _default_decoder.decode(s)\n  File "C:\\Python27\\lib\\json\\decoder.py", line 366, in decode\n    obj, end = self.raw_decode(s, idx=_w(s, 0).end())\n  File "C:\\Python27\\lib\\json\\decoder.py", line 384, in raw_decode\n    raise ValueError("No JSON object could be decoded")\nValueError: No JSON object could be decoded\n'
p4812
s.