(dp1
S'output'
p2
S"<type 'exceptions.SyntaxError'> invalid syntax (project.py, line 90)"
p3
sS'layer'
p4
S'/home/tuna/cyberagent/IgoR/C_Sources/Server/igor-assistant-ca-2012/applications/igor/controllers/project.py'
p5
sS'code'
p6
S'# -*- coding: utf-8 -*-\n# this file is released under public domain and you can use without limitations\n\n#########################################################################\n## This is subject controller\n## Author: phucnh, tuna\n#########################################################################\n\nfrom message_packager import *\nfrom gluon.dal import Rows\nfrom gluon.tools import Service\nimport gluon.contenttype\n \nservice = Service()\n\ndef call():\n\tsession.forget()\n\n\treturn service()\n\n@service.jsonp\n@service.json\ndef get_projects(user_id, term = 0):\n\t# Validate input \n\tif (not user_id.isdigit()):\n\t\treturn MessagePackager.get_packaged_message (\n\t\t\tMessageStatus.ERROR, \n\t\t\t"user id must be numberic")\n\n\tif (int (user_id) < 0):\n\t\treturn MessagePackager.get_packaged_message (\n\t\t\tMessageStatus.ERROR, \n\t\t\t"user id can not less than 0")\n\n\t###\n\tif (term == 0):\n\t\tterm = get_current_term()\n\n\tclasses = get_class_of_user(user_id, term, day_of_week)\n\n\tprojects = list()\n\n\tfor classs in classes:\n\t\tproject = db(db.test.class_subject == classs and\n\t\t\tdb.test.test_type == 2).select()\n\t\tprojects.append(project)\n\n\t#projects = format_client_data(projects)\n\n\treturn MessagePackager.get_packaged_message(MessageStatus.OK, projects)\n\n\n@service.jsonp\n@service.json\ndef get_project_detail(project_id):\n\t# Validate input \n\tif (not project_id.isdigit()):\n\t\treturn MessagePackager.get_packaged_message (\n\t\t\tMessageStatus.ERROR, \n\t\t\t"project id must be numberic")\n\n\tif (int (project_id) < 0):\n\t\treturn MessagePackager.get_packaged_message (\n\t\t\tMessageStatus.ERROR, \n\t\t\t"project id can not less than 0")\t\n\t###\n\tproject = db(db.test.id == project_id and\n\t\tdb.test.test_type == 2).select()\n\n\t#project = format_client_data(project)\n\n\treturn MessagePackager.get_packaged_message(MessageStatus.OK, project)\n\n@service.jsonp\n@service.json\ndef get_project_by_class(class_id):\n\t# Validate input \n\tif (not class_id.isdigit()):\n\t\treturn MessagePackager.get_packaged_message (\n\t\t\tMessageStatus.ERROR, \n\t\t\t"class id must be numberic")\n\n\tif (int (class_id) < 0):\n\t\treturn MessagePackager.get_packaged_message (\n\t\t\tMessageStatus.ERROR, \n\t\t\t"class id can not less than 0")\t\n\t###\n\t\n\t#project = db(db.test.class_subject == class_id and\n\t\tdb.test.test_type == 2).select()\n\n\tproject = format_client_data(project)\n\n\treturn MessagePackager.get_packaged_message(MessageStatus.OK, project)\n\n@service.jsonp\n@service.json\ndef get_project_by_user_class(user_id, class_id):\n\t# Validate input \n\tif (not class_id.isdigit()):\n\t\treturn MessagePackager.get_packaged_message (\n\t\t\tMessageStatus.ERROR, \n\t\t\t"class id must be numberic")\n\n\tif (int (class_id) < 0):\n\t\treturn MessagePackager.get_packaged_message (\n\t\t\tMessageStatus.ERROR, \n\t\t\t"class id can not less than 0")\n\n\tif (not user_id.isdigit()):\n\t\treturn MessagePackager.get_packaged_message (\n\t\t\tMessageStatus.ERROR, \n\t\t\t"user id must be numberic")\n\n\tif (int (user_id) < 0):\n\t\treturn MessagePackager.get_packaged_message (\n\t\t\tMessageStatus.ERROR, \n\t\t\t"user id can not less than 0")\n\n\t###\n\n\tclasses = get_class_of_user(user_id, 0, None)\n\n\n\tfor classs in classes:\n\t\tproject = db(db.test.class_subject == classs and\n\t\t\tdb.test.test_type == 2).select()\n\t\tif (project.class_subject == class_id):\n\t\t\t#project = format_client_data(project)\n\t\t\treturn MessagePackager.get_packaged_message (\n\t\t\t\tMessageStatus.OK, project)\n\n\treturn MessagePackager.get_packaged_message (\n\t\tMessageStatus.ERROR, "can not find project")\n\n\n# def format_client_data(projects):\n# \tif (projects == None):\n# \t\treturn\n\n# \tclient_data = list()\n\n# \tfor project in projects:\n\n# \t\tsubject = db(db.subject.id == class_subject.subject).select().first()\n# \t\tclass_schedulers = db(db.class_scheduler.class_subject == class_subject.id).select()\n\t\t\n# \t\tif (subject == None):\n# \t\t\tcontinue\n# \t\t# print class_schedulers\n# \t\tfor class_scheduler in class_schedulers:\n\t\t\t\n# \t\t\t# Get session list (integer)\n# \t\t\tsessions = get_class_sessions(class_scheduler.period)\n\n# \t\t\t# Morning session\n# \t\t\tmorning = [session for session in sessions if session <= 6]\n# \t\t\tafternoon = [session for session in sessions if session >= 7]\n\n\n# \t\t\tif (morning):\n# \t\t\t\tclient = class_data_format(\n# \t\t\t\t\tclass_subject, class_scheduler,\n# \t\t\t\t\tsubject, morning, "Morning")\n\t\t\t\t\n# \t\t\t\tclient_data.append(client)\n\n# \t\t\tif (afternoon):\n# \t\t\t\tafternoon = map(lambda s: s - 6, afternoon)\n# \t\t\t\tclient = class_data_format(\n# \t\t\t\t\tclass_subject, class_scheduler,\n# \t\t\t\t\tsubject, afternoon, "Afternoon")\n\n# \t\t\t\tclient_data.append (client)\n\n# \treturn client_data\nresponse._vars=response._caller(call)\n'
p7
sS'snapshot'
p8
(dp9
S'exception'
p10
(dp11
S'__getslice__'
p12
S"<method-wrapper '__getslice__' of exceptions.SyntaxError object>"
p13
sS'text'
p14
S"'\\t\\tdb.test.test_type == 2).select()\\n'"
p15
sS'__str__'
p16
S"<method-wrapper '__str__' of exceptions.SyntaxError object>"
p17
sS'__reduce__'
p18
S'<built-in method __reduce__ of exceptions.SyntaxError object>'
p19
sS'__dict__'
p20
S'{}'
p21
sS'__sizeof__'
p22
S'<built-in method __sizeof__ of exceptions.SyntaxError object>'
p23
sS'__init__'
p24
S"<method-wrapper '__init__' of exceptions.SyntaxError object>"
p25
sS'__setattr__'
p26
S"<method-wrapper '__setattr__' of exceptions.SyntaxError object>"
p27
sS'__reduce_ex__'
p28
S'<built-in method __reduce_ex__ of exceptions.SyntaxError object>'
p29
sS'__new__'
p30
S'<built-in method __new__ of type object>'
p31
sS'__format__'
p32
S'<built-in method __format__ of exceptions.SyntaxError object>'
p33
sS'__class__'
p34
S"<type 'exceptions.SyntaxError'>"
p35
sS'filename'
p36
S"'/home/tuna/cyberagent/IgoR/C_Sources/Server/igor...-ca-2012/applications/igor/controllers/project.py'"
p37
sS'lineno'
p38
S'90'
p39
sS'msg'
p40
S"'invalid syntax'"
p41
sS'__doc__'
p42
S"'Invalid syntax.'"
p43
sS'__getitem__'
p44
S"<method-wrapper '__getitem__' of exceptions.SyntaxError object>"
p45
sS'__setstate__'
p46
S'<built-in method __setstate__ of exceptions.SyntaxError object>'
p47
sS'__getattribute__'
p48
S"<method-wrapper '__getattribute__' of exceptions.SyntaxError object>"
p49
sS'print_file_and_line'
p50
S'None'
p51
sS'args'
p52
S"('invalid syntax', ('/home/tuna/cyberagent/IgoR/C_Sources/Server/igor...-ca-2012/applications/igor/controllers/project.py', 90, 25, '\\t\\tdb.test.test_type == 2).select()\\n'))"
p53
sS'__subclasshook__'
p54
S'<built-in method __subclasshook__ of type object>'
p55
sS'offset'
p56
S'25'
p57
sS'__unicode__'
p58
S'<built-in method __unicode__ of exceptions.SyntaxError object>'
p59
sS'__delattr__'
p60
S"<method-wrapper '__delattr__' of exceptions.SyntaxError object>"
p61
sS'__repr__'
p62
S"<method-wrapper '__repr__' of exceptions.SyntaxError object>"
p63
sS'__hash__'
p64
S"<method-wrapper '__hash__' of exceptions.SyntaxError object>"
p65
ssS'evalue'
p66
S'invalid syntax (project.py, line 90)'
p67
sS'request'
p68
ccopy_reg
_reconstructor
p69
(cgluon.html
BEAUTIFY
p70
c__builtin__
object
p71
NtRp72
(dp73
S'attributes'
p74
(dp75
sS'components'
p76
(lp77
g69
(cgluon.html
TABLE
p78
g71
NtRp79
(dp80
g74
(dp81
S'level'
p82
I5
ssS'parent'
p83
Nsg76
(lp84
g69
(cgluon.html
TR
p85
g71
NtRp86
(dp87
g74
(dp88
sg83
g79
sg76
(lp89
g69
(cgluon.html
TD
p90
g71
NtRp91
(dp92
g74
(dp93
S'_style'
p94
S'font-weight:bold;vertical-align:top'
p95
ssg83
g86
sg76
(lp96
S'ajax'
p97
asbag69
(g90
g71
NtRp98
(dp99
g74
(dp100
S'_valign'
p101
S'top'
p102
ssg83
g86
sg76
(lp103
S':'
asbag69
(g90
g71
NtRp104
(dp105
g74
(dp106
sg83
g86
sg76
(lp107
g69
(g70
g71
NtRp108
(dp109
g74
(dp110
g82
I5
ssg83
g104
sg76
(lp111
S'False'
p112
asbasbasbag69
(g85
g71
NtRp113
(dp114
g74
(dp115
sg83
g79
sg76
(lp116
g69
(g90
g71
NtRp117
(dp118
g74
(dp119
g94
g95
ssg83
g113
sg76
(lp120
S'application'
p121
asbag69
(g90
g71
NtRp122
(dp123
g74
(dp124
g101
g102
ssg83
g113
sg76
(lp125
S':'
asbag69
(g90
g71
NtRp126
(dp127
g74
(dp128
sg83
g113
sg76
(lp129
g69
(g70
g71
NtRp130
(dp131
g74
(dp132
g82
I5
ssg83
g126
sg76
(lp133
S'igor'
p134
asbasbasbag69
(g85
g71
NtRp135
(dp136
g74
(dp137
sg83
g79
sg76
(lp138
g69
(g90
g71
NtRp139
(dp140
g74
(dp141
g94
g95
ssg83
g135
sg76
(lp142
g52
asbag69
(g90
g71
NtRp143
(dp144
g74
(dp145
g101
g102
ssg83
g135
sg76
(lp146
S':'
asbag69
(g90
g71
NtRp147
(dp148
g74
(dp149
sg83
g135
sg76
(lp150
g69
(g70
g71
NtRp151
(dp152
g74
(dp153
g82
I5
ssg83
g147
sg76
(lp154
g69
(g78
g71
NtRp155
(dp156
g74
(dp157
g82
I4
ssg83
Nsg76
(lp158
g69
(g85
g71
NtRp159
(dp160
g74
(dp161
sg83
g155
sg76
(lp162
g69
(g90
g71
NtRp163
(dp164
g74
(dp165
sg83
g159
sg76
(lp166
g69
(g70
g71
NtRp167
(dp168
g74
(dp169
g82
I4
ssg83
g163
sg76
(lp170
S'json'
p171
asbasbasbag69
(g85
g71
NtRp172
(dp173
g74
(dp174
sg83
g155
sg76
(lp175
g69
(g90
g71
NtRp176
(dp177
g74
(dp178
sg83
g172
sg76
(lp179
g69
(g70
g71
NtRp180
(dp181
g74
(dp182
g82
I4
ssg83
g176
sg76
(lp183
S'get_project_detail'
p184
asbasbasbasbasbasbasbag69
(g85
g71
NtRp185
(dp186
g74
(dp187
sg83
g79
sg76
(lp188
g69
(g90
g71
NtRp189
(dp190
g74
(dp191
g94
g95
ssg83
g185
sg76
(lp192
S'body'
p193
asbag69
(g90
g71
NtRp194
(dp195
g74
(dp196
g101
g102
ssg83
g185
sg76
(lp197
S':'
asbag69
(g90
g71
NtRp198
(dp199
g74
(dp200
sg83
g185
sg76
(lp201
g69
(g70
g71
NtRp202
(dp203
g74
(dp204
g82
I5
ssg83
g198
sg76
(lp205
S'<cStringIO.StringO object at 0x7f46a050cae8>'
p206
asbasbasbag69
(g85
g71
NtRp207
(dp208
g74
(dp209
sg83
g79
sg76
(lp210
g69
(g90
g71
NtRp211
(dp212
g74
(dp213
g94
g95
ssg83
g207
sg76
(lp214
S'client'
p215
asbag69
(g90
g71
NtRp216
(dp217
g74
(dp218
g101
g102
ssg83
g207
sg76
(lp219
S':'
asbag69
(g90
g71
NtRp220
(dp221
g74
(dp222
sg83
g207
sg76
(lp223
g69
(g70
g71
NtRp224
(dp225
g74
(dp226
g82
I5
ssg83
g220
sg76
(lp227
S'127.0.0.1'
p228
asbasbasbag69
(g85
g71
NtRp229
(dp230
g74
(dp231
sg83
g79
sg76
(lp232
g69
(g90
g71
NtRp233
(dp234
g74
(dp235
g94
g95
ssg83
g229
sg76
(lp236
S'controller'
p237
asbag69
(g90
g71
NtRp238
(dp239
g74
(dp240
g101
g102
ssg83
g229
sg76
(lp241
S':'
asbag69
(g90
g71
NtRp242
(dp243
g74
(dp244
sg83
g229
sg76
(lp245
g69
(g70
g71
NtRp246
(dp247
g74
(dp248
g82
I5
ssg83
g242
sg76
(lp249
S'project'
p250
asbasbasbag69
(g85
g71
NtRp251
(dp252
g74
(dp253
sg83
g79
sg76
(lp254
g69
(g90
g71
NtRp255
(dp256
g74
(dp257
g94
g95
ssg83
g251
sg76
(lp258
S'cookies'
p259
asbag69
(g90
g71
NtRp260
(dp261
g74
(dp262
g101
g102
ssg83
g251
sg76
(lp263
S':'
asbag69
(g90
g71
NtRp264
(dp265
g74
(dp266
sg83
g251
sg76
(lp267
g69
(g70
g71
NtRp268
(dp269
g74
(dp270
g82
I5
ssg83
g264
sg76
(lp271
g69
(g78
g71
NtRp272
(dp273
g74
(dp274
g82
I4
ssg83
Nsg76
(lp275
g69
(g85
g71
NtRp276
(dp277
g74
(dp278
sg83
g272
sg76
(lp279
g69
(g90
g71
NtRp280
(dp281
g74
(dp282
g94
g95
ssg83
g276
sg76
(lp283
S'session_id_admin'
p284
asbag69
(g90
g71
NtRp285
(dp286
g74
(dp287
g101
g102
ssg83
g276
sg76
(lp288
S':'
asbag69
(g90
g71
NtRp289
(dp290
g74
(dp291
sg83
g276
sg76
(lp292
g69
(g70
g71
NtRp293
(dp294
g74
(dp295
g82
I4
ssg83
g289
sg76
(lp296
g69
(g78
g71
NtRp297
(dp298
g74
(dp299
g82
I3
ssg83
Nsg76
(lp300
g69
(g85
g71
NtRp301
(dp302
g74
(dp303
sg83
g297
sg76
(lp304
g69
(g90
g71
NtRp305
(dp306
g74
(dp307
g94
g95
ssg83
g301
sg76
(lp308
S'comment'
p309
asbag69
(g90
g71
NtRp310
(dp311
g74
(dp312
g101
g102
ssg83
g301
sg76
(lp313
S':'
asbag69
(g90
g71
NtRp314
(dp315
g74
(dp316
sg83
g301
sg76
(lp317
g69
(g70
g71
NtRp318
(dp319
g74
(dp320
g82
I3
ssg83
g314
sg76
(lp321
S''
asbasbasbag69
(g85
g71
NtRp322
(dp323
g74
(dp324
sg83
g297
sg76
(lp325
g69
(g90
g71
NtRp326
(dp327
g74
(dp328
g94
g95
ssg83
g322
sg76
(lp329
S'domain'
p330
asbag69
(g90
g71
NtRp331
(dp332
g74
(dp333
g101
g102
ssg83
g322
sg76
(lp334
S':'
asbag69
(g90
g71
NtRp335
(dp336
g74
(dp337
sg83
g322
sg76
(lp338
g69
(g70
g71
NtRp339
(dp340
g74
(dp341
g82
I3
ssg83
g335
sg76
(lp342
S''
asbasbasbag69
(g85
g71
NtRp343
(dp344
g74
(dp345
sg83
g297
sg76
(lp346
g69
(g90
g71
NtRp347
(dp348
g74
(dp349
g94
g95
ssg83
g343
sg76
(lp350
S'expires'
p351
asbag69
(g90
g71
NtRp352
(dp353
g74
(dp354
g101
g102
ssg83
g343
sg76
(lp355
S':'
asbag69
(g90
g71
NtRp356
(dp357
g74
(dp358
sg83
g343
sg76
(lp359
g69
(g70
g71
NtRp360
(dp361
g74
(dp362
g82
I3
ssg83
g356
sg76
(lp363
S''
asbasbasbag69
(g85
g71
NtRp364
(dp365
g74
(dp366
sg83
g297
sg76
(lp367
g69
(g90
g71
NtRp368
(dp369
g74
(dp370
g94
g95
ssg83
g364
sg76
(lp371
S'httponly'
p372
asbag69
(g90
g71
NtRp373
(dp374
g74
(dp375
g101
g102
ssg83
g364
sg76
(lp376
S':'
asbag69
(g90
g71
NtRp377
(dp378
g74
(dp379
sg83
g364
sg76
(lp380
g69
(g70
g71
NtRp381
(dp382
g74
(dp383
g82
I3
ssg83
g377
sg76
(lp384
S''
asbasbasbag69
(g85
g71
NtRp385
(dp386
g74
(dp387
sg83
g297
sg76
(lp388
g69
(g90
g71
NtRp389
(dp390
g74
(dp391
g94
g95
ssg83
g385
sg76
(lp392
S'max-age'
p393
asbag69
(g90
g71
NtRp394
(dp395
g74
(dp396
g101
g102
ssg83
g385
sg76
(lp397
S':'
asbag69
(g90
g71
NtRp398
(dp399
g74
(dp400
sg83
g385
sg76
(lp401
g69
(g70
g71
NtRp402
(dp403
g74
(dp404
g82
I3
ssg83
g398
sg76
(lp405
S''
asbasbasbag69
(g85
g71
NtRp406
(dp407
g74
(dp408
sg83
g297
sg76
(lp409
g69
(g90
g71
NtRp410
(dp411
g74
(dp412
g94
g95
ssg83
g406
sg76
(lp413
S'path'
p414
asbag69
(g90
g71
NtRp415
(dp416
g74
(dp417
g101
g102
ssg83
g406
sg76
(lp418
S':'
asbag69
(g90
g71
NtRp419
(dp420
g74
(dp421
sg83
g406
sg76
(lp422
g69
(g70
g71
NtRp423
(dp424
g74
(dp425
g82
I3
ssg83
g419
sg76
(lp426
S''
asbasbasbag69
(g85
g71
NtRp427
(dp428
g74
(dp429
sg83
g297
sg76
(lp430
g69
(g90
g71
NtRp431
(dp432
g74
(dp433
g94
g95
ssg83
g427
sg76
(lp434
S'secure'
p435
asbag69
(g90
g71
NtRp436
(dp437
g74
(dp438
g101
g102
ssg83
g427
sg76
(lp439
S':'
asbag69
(g90
g71
NtRp440
(dp441
g74
(dp442
sg83
g427
sg76
(lp443
g69
(g70
g71
NtRp444
(dp445
g74
(dp446
g82
I3
ssg83
g440
sg76
(lp447
S''
asbasbasbag69
(g85
g71
NtRp448
(dp449
g74
(dp450
sg83
g297
sg76
(lp451
g69
(g90
g71
NtRp452
(dp453
g74
(dp454
g94
g95
ssg83
g448
sg76
(lp455
S'version'
p456
asbag69
(g90
g71
NtRp457
(dp458
g74
(dp459
g101
g102
ssg83
g448
sg76
(lp460
S':'
asbag69
(g90
g71
NtRp461
(dp462
g74
(dp463
sg83
g448
sg76
(lp464
g69
(g70
g71
NtRp465
(dp466
g74
(dp467
g82
I3
ssg83
g461
sg76
(lp468
S''
asbasbasbasbasbasbasbasbasbasbasbag69
(g85
g71
NtRp469
(dp470
g74
(dp471
sg83
g79
sg76
(lp472
g69
(g90
g71
NtRp473
(dp474
g74
(dp475
g94
g95
ssg83
g469
sg76
(lp476
S'env'
p477
asbag69
(g90
g71
NtRp478
(dp479
g74
(dp480
g101
g102
ssg83
g469
sg76
(lp481
S':'
asbag69
(g90
g71
NtRp482
(dp483
g74
(dp484
sg83
g469
sg76
(lp485
g69
(g70
g71
NtRp486
(dp487
g74
(dp488
g82
I5
ssg83
g482
sg76
(lp489
g69
(g78
g71
NtRp490
(dp491
g74
(dp492
g82
I4
ssg83
Nsg76
(lp493
g69
(g85
g71
NtRp494
(dp495
g74
(dp496
sg83
g490
sg76
(lp497
g69
(g90
g71
NtRp498
(dp499
g74
(dp500
g94
g95
ssg83
g494
sg76
(lp501
S'app_folders'
p502
asbag69
(g90
g71
NtRp503
(dp504
g74
(dp505
g101
g102
ssg83
g494
sg76
(lp506
S':'
asbag69
(g90
g71
NtRp507
(dp508
g74
(dp509
sg83
g494
sg76
(lp510
g69
(g70
g71
NtRp511
(dp512
g74
(dp513
g82
I4
ssg83
g507
sg76
(lp514
S"set(['/home/tuna/cyberagent/IgoR/C_Sources/Server/igor-assistant-ca-2012/applications/admin/', '/home/tuna/cyberagent/IgoR/C_Sources/Server/igor-assistant-ca-2012/applications/igor/', '/home/tuna/cyberagent/IgoR/C_Sources/Server/igor-assistant-ca-2012/applications/welcome/'])"
p515
asbasbasbag69
(g85
g71
NtRp516
(dp517
g74
(dp518
sg83
g490
sg76
(lp519
g69
(g90
g71
NtRp520
(dp521
g74
(dp522
g94
g95
ssg83
g516
sg76
(lp523
S'applications_parent'
p524
asbag69
(g90
g71
NtRp525
(dp526
g74
(dp527
g101
g102
ssg83
g516
sg76
(lp528
S':'
asbag69
(g90
g71
NtRp529
(dp530
g74
(dp531
sg83
g516
sg76
(lp532
g69
(g70
g71
NtRp533
(dp534
g74
(dp535
g82
I4
ssg83
g529
sg76
(lp536
S'/home/tuna/cyberagent/IgoR/C_Sources/Server/igor-assistant-ca-2012'
p537
asbasbasbag69
(g85
g71
NtRp538
(dp539
g74
(dp540
sg83
g490
sg76
(lp541
g69
(g90
g71
NtRp542
(dp543
g74
(dp544
g94
g95
ssg83
g538
sg76
(lp545
S'cmd_args'
p546
asbag69
(g90
g71
NtRp547
(dp548
g74
(dp549
g101
g102
ssg83
g538
sg76
(lp550
S':'
asbag69
(g90
g71
NtRp551
(dp552
g74
(dp553
sg83
g538
sg76
(lp554
g69
(g70
g71
NtRp555
(dp556
g74
(dp557
g82
I4
ssg83
g551
sg76
(lp558
g69
(g78
g71
NtRp559
(dp560
g74
(dp561
g82
I3
ssg83
Nsg76
(lp562
sbasbasbasbag69
(g85
g71
NtRp563
(dp564
g74
(dp565
sg83
g490
sg76
(lp566
g69
(g90
g71
NtRp567
(dp568
g74
(dp569
g94
g95
ssg83
g563
sg76
(lp570
S'cmd_options'
p571
asbag69
(g90
g71
NtRp572
(dp573
g74
(dp574
g101
g102
ssg83
g563
sg76
(lp575
S':'
asbag69
(g90
g71
NtRp576
(dp577
g74
(dp578
sg83
g563
sg76
(lp579
g69
(g70
g71
NtRp580
(dp581
g74
(dp582
g82
I4
ssg83
g576
sg76
(lp583
S"<Values at 0x23f4998: {'verbose': False, 'ip': '127.0.0.1', 'shutdown_timeout': 5, 'taskbar': False, 'nocron': False, 'pid_filename': 'httpserver.pid', 'maxthreads': None, 'softcron': False, 'server_name': 'tuna.com', 'bpython': False, 'nogui': False, 'port': 8000, 'extcron': False, 'debuglevel': 30, 'test': None, 'folder': '/home/tuna/cyberagent/IgoR/C_Sources/Server/igor-assistant-ca-2012', 'config': '', 'import_models': False, 'winservice': '', 'shell': None, 'run': '', 'log_filename': 'httpserver.log', 'args': [''], 'socket_timeout': 5, 'ssl_ca_certificate': None, 'scheduler': None, 'profiler_filename': None, 'ssl_private_key': '', 'password': '<ask>', 'request_queue_size': 5, 'ssl_certificate': '', 'cronjob': False, 'numthreads': None, 'quiet': False, 'interfaces': None, 'minthreads': None, 'timeout': 10, 'plain': False, 'nobanner': False}>"
p584
asbasbasbag69
(g85
g71
NtRp585
(dp586
g74
(dp587
sg83
g490
sg76
(lp588
g69
(g90
g71
NtRp589
(dp590
g74
(dp591
g94
g95
ssg83
g585
sg76
(lp592
S'db_sessions'
p593
asbag69
(g90
g71
NtRp594
(dp595
g74
(dp596
g101
g102
ssg83
g585
sg76
(lp597
S':'
asbag69
(g90
g71
NtRp598
(dp599
g74
(dp600
sg83
g585
sg76
(lp601
g69
(g70
g71
NtRp602
(dp603
g74
(dp604
g82
I4
ssg83
g598
sg76
(lp605
S'set([])'
p606
asbasbasbag69
(g85
g71
NtRp607
(dp608
g74
(dp609
sg83
g490
sg76
(lp610
g69
(g90
g71
NtRp611
(dp612
g74
(dp613
g94
g95
ssg83
g607
sg76
(lp614
S'debugging'
p615
asbag69
(g90
g71
NtRp616
(dp617
g74
(dp618
g101
g102
ssg83
g607
sg76
(lp619
S':'
asbag69
(g90
g71
NtRp620
(dp621
g74
(dp622
sg83
g607
sg76
(lp623
g69
(g70
g71
NtRp624
(dp625
g74
(dp626
g82
I4
ssg83
g620
sg76
(lp627
g112
asbasbasbag69
(g85
g71
NtRp628
(dp629
g74
(dp630
sg83
g490
sg76
(lp631
g69
(g90
g71
NtRp632
(dp633
g74
(dp634
g94
g95
ssg83
g628
sg76
(lp635
S'gluon_parent'
p636
asbag69
(g90
g71
NtRp637
(dp638
g74
(dp639
g101
g102
ssg83
g628
sg76
(lp640
S':'
asbag69
(g90
g71
NtRp641
(dp642
g74
(dp643
sg83
g628
sg76
(lp644
g69
(g70
g71
NtRp645
(dp646
g74
(dp647
g82
I4
ssg83
g641
sg76
(lp648
S'/home/tuna/cyberagent/IgoR/C_Sources/Server/igor-assistant-ca-2012'
p649
asbasbasbag69
(g85
g71
NtRp650
(dp651
g74
(dp652
sg83
g490
sg76
(lp653
g69
(g90
g71
NtRp654
(dp655
g74
(dp656
g94
g95
ssg83
g650
sg76
(lp657
S'http_accept'
p658
asbag69
(g90
g71
NtRp659
(dp660
g74
(dp661
g101
g102
ssg83
g650
sg76
(lp662
S':'
asbag69
(g90
g71
NtRp663
(dp664
g74
(dp665
sg83
g650
sg76
(lp666
g69
(g70
g71
NtRp667
(dp668
g74
(dp669
g82
I4
ssg83
g663
sg76
(lp670
S'text/html,application/xhtml+xml,application/xml;q=0.9,*/*;q=0.8'
p671
asbasbasbag69
(g85
g71
NtRp672
(dp673
g74
(dp674
sg83
g490
sg76
(lp675
g69
(g90
g71
NtRp676
(dp677
g74
(dp678
g94
g95
ssg83
g672
sg76
(lp679
S'http_accept_encoding'
p680
asbag69
(g90
g71
NtRp681
(dp682
g74
(dp683
g101
g102
ssg83
g672
sg76
(lp684
S':'
asbag69
(g90
g71
NtRp685
(dp686
g74
(dp687
sg83
g672
sg76
(lp688
g69
(g70
g71
NtRp689
(dp690
g74
(dp691
g82
I4
ssg83
g685
sg76
(lp692
S'gzip, deflate'
p693
asbasbasbag69
(g85
g71
NtRp694
(dp695
g74
(dp696
sg83
g490
sg76
(lp697
g69
(g90
g71
NtRp698
(dp699
g74
(dp700
g94
g95
ssg83
g694
sg76
(lp701
S'http_accept_language'
p702
asbag69
(g90
g71
NtRp703
(dp704
g74
(dp705
g101
g102
ssg83
g694
sg76
(lp706
S':'
asbag69
(g90
g71
NtRp707
(dp708
g74
(dp709
sg83
g694
sg76
(lp710
g69
(g70
g71
NtRp711
(dp712
g74
(dp713
g82
I4
ssg83
g707
sg76
(lp714
S'en-us,en;q=0.5'
p715
asbasbasbag69
(g85
g71
NtRp716
(dp717
g74
(dp718
sg83
g490
sg76
(lp719
g69
(g90
g71
NtRp720
(dp721
g74
(dp722
g94
g95
ssg83
g716
sg76
(lp723
S'http_connection'
p724
asbag69
(g90
g71
NtRp725
(dp726
g74
(dp727
g101
g102
ssg83
g716
sg76
(lp728
S':'
asbag69
(g90
g71
NtRp729
(dp730
g74
(dp731
sg83
g716
sg76
(lp732
g69
(g70
g71
NtRp733
(dp734
g74
(dp735
g82
I4
ssg83
g729
sg76
(lp736
S'keep-alive'
p737
asbasbasbag69
(g85
g71
NtRp738
(dp739
g74
(dp740
sg83
g490
sg76
(lp741
g69
(g90
g71
NtRp742
(dp743
g74
(dp744
g94
g95
ssg83
g738
sg76
(lp745
S'http_cookie'
p746
asbag69
(g90
g71
NtRp747
(dp748
g74
(dp749
g101
g102
ssg83
g738
sg76
(lp750
S':'
asbag69
(g90
g71
NtRp751
(dp752
g74
(dp753
sg83
g738
sg76
(lp754
g69
(g70
g71
NtRp755
(dp756
g74
(dp757
g82
I4
ssg83
g751
sg76
(lp758
S'session_id_admin=127.0.0.1-f1e6ac74-2937-432d-9dc6-d39d210ef8c2'
p759
asbasbasbag69
(g85
g71
NtRp760
(dp761
g74
(dp762
sg83
g490
sg76
(lp763
g69
(g90
g71
NtRp764
(dp765
g74
(dp766
g94
g95
ssg83
g760
sg76
(lp767
S'http_host'
p768
asbag69
(g90
g71
NtRp769
(dp770
g74
(dp771
g101
g102
ssg83
g760
sg76
(lp772
S':'
asbag69
(g90
g71
NtRp773
(dp774
g74
(dp775
sg83
g760
sg76
(lp776
g69
(g70
g71
NtRp777
(dp778
g74
(dp779
g82
I4
ssg83
g773
sg76
(lp780
S'127.0.0.1:8000'
p781
asbasbasbag69
(g85
g71
NtRp782
(dp783
g74
(dp784
sg83
g490
sg76
(lp785
g69
(g90
g71
NtRp786
(dp787
g74
(dp788
g94
g95
ssg83
g782
sg76
(lp789
S'http_user_agent'
p790
asbag69
(g90
g71
NtRp791
(dp792
g74
(dp793
g101
g102
ssg83
g782
sg76
(lp794
S':'
asbag69
(g90
g71
NtRp795
(dp796
g74
(dp797
sg83
g782
sg76
(lp798
g69
(g70
g71
NtRp799
(dp800
g74
(dp801
g82
I4
ssg83
g795
sg76
(lp802
S'Mozilla/5.0 (X11; Linux x86_64; rv:14.0) Gecko/20100101 Firefox/14.0.1'
p803
asbasbasbag69
(g85
g71
NtRp804
(dp805
g74
(dp806
sg83
g490
sg76
(lp807
g69
(g90
g71
NtRp808
(dp809
g74
(dp810
g94
g95
ssg83
g804
sg76
(lp811
S'is_jython'
p812
asbag69
(g90
g71
NtRp813
(dp814
g74
(dp815
g101
g102
ssg83
g804
sg76
(lp816
S':'
asbag69
(g90
g71
NtRp817
(dp818
g74
(dp819
sg83
g804
sg76
(lp820
g69
(g70
g71
NtRp821
(dp822
g74
(dp823
g82
I4
ssg83
g817
sg76
(lp824
g112
asbasbasbag69
(g85
g71
NtRp825
(dp826
g74
(dp827
sg83
g490
sg76
(lp828
g69
(g90
g71
NtRp829
(dp830
g74
(dp831
g94
g95
ssg83
g825
sg76
(lp832
S'is_pypy'
p833
asbag69
(g90
g71
NtRp834
(dp835
g74
(dp836
g101
g102
ssg83
g825
sg76
(lp837
S':'
asbag69
(g90
g71
NtRp838
(dp839
g74
(dp840
sg83
g825
sg76
(lp841
g69
(g70
g71
NtRp842
(dp843
g74
(dp844
g82
I4
ssg83
g838
sg76
(lp845
g112
asbasbasbag69
(g85
g71
NtRp846
(dp847
g74
(dp848
sg83
g490
sg76
(lp849
g69
(g90
g71
NtRp850
(dp851
g74
(dp852
g94
g95
ssg83
g846
sg76
(lp853
S'path_info'
p854
asbag69
(g90
g71
NtRp855
(dp856
g74
(dp857
g101
g102
ssg83
g846
sg76
(lp858
S':'
asbag69
(g90
g71
NtRp859
(dp860
g74
(dp861
sg83
g846
sg76
(lp862
g69
(g70
g71
NtRp863
(dp864
g74
(dp865
g82
I4
ssg83
g859
sg76
(lp866
S'/igor/project/call/json/get_project_detail/'
p867
asbasbasbag69
(g85
g71
NtRp868
(dp869
g74
(dp870
sg83
g490
sg76
(lp871
g69
(g90
g71
NtRp872
(dp873
g74
(dp874
g94
g95
ssg83
g868
sg76
(lp875
S'query_string'
p876
asbag69
(g90
g71
NtRp877
(dp878
g74
(dp879
g101
g102
ssg83
g868
sg76
(lp880
S':'
asbag69
(g90
g71
NtRp881
(dp882
g74
(dp883
sg83
g868
sg76
(lp884
g69
(g70
g71
NtRp885
(dp886
g74
(dp887
g82
I4
ssg83
g881
sg76
(lp888
S'param1=2'
p889
asbasbasbag69
(g85
g71
NtRp890
(dp891
g74
(dp892
sg83
g490
sg76
(lp893
g69
(g90
g71
NtRp894
(dp895
g74
(dp896
g94
g95
ssg83
g890
sg76
(lp897
S'remote_addr'
p898
asbag69
(g90
g71
NtRp899
(dp900
g74
(dp901
g101
g102
ssg83
g890
sg76
(lp902
S':'
asbag69
(g90
g71
NtRp903
(dp904
g74
(dp905
sg83
g890
sg76
(lp906
g69
(g70
g71
NtRp907
(dp908
g74
(dp909
g82
I4
ssg83
g903
sg76
(lp910
g228
asbasbasbag69
(g85
g71
NtRp911
(dp912
g74
(dp913
sg83
g490
sg76
(lp914
g69
(g90
g71
NtRp915
(dp916
g74
(dp917
g94
g95
ssg83
g911
sg76
(lp918
S'remote_port'
p919
asbag69
(g90
g71
NtRp920
(dp921
g74
(dp922
g101
g102
ssg83
g911
sg76
(lp923
S':'
asbag69
(g90
g71
NtRp924
(dp925
g74
(dp926
sg83
g911
sg76
(lp927
g69
(g70
g71
NtRp928
(dp929
g74
(dp930
g82
I4
ssg83
g924
sg76
(lp931
S'53313'
p932
asbasbasbag69
(g85
g71
NtRp933
(dp934
g74
(dp935
sg83
g490
sg76
(lp936
g69
(g90
g71
NtRp937
(dp938
g74
(dp939
g94
g95
ssg83
g933
sg76
(lp940
S'request_method'
p941
asbag69
(g90
g71
NtRp942
(dp943
g74
(dp944
g101
g102
ssg83
g933
sg76
(lp945
S':'
asbag69
(g90
g71
NtRp946
(dp947
g74
(dp948
sg83
g933
sg76
(lp949
g69
(g70
g71
NtRp950
(dp951
g74
(dp952
g82
I4
ssg83
g946
sg76
(lp953
S'GET'
p954
asbasbasbag69
(g85
g71
NtRp955
(dp956
g74
(dp957
sg83
g490
sg76
(lp958
g69
(g90
g71
NtRp959
(dp960
g74
(dp961
g94
g95
ssg83
g955
sg76
(lp962
S'script_name'
p963
asbag69
(g90
g71
NtRp964
(dp965
g74
(dp966
g101
g102
ssg83
g955
sg76
(lp967
S':'
asbag69
(g90
g71
NtRp968
(dp969
g74
(dp970
sg83
g955
sg76
(lp971
g69
(g70
g71
NtRp972
(dp973
g74
(dp974
g82
I4
ssg83
g968
sg76
(lp975
S''
asbasbasbag69
(g85
g71
NtRp976
(dp977
g74
(dp978
sg83
g490
sg76
(lp979
g69
(g90
g71
NtRp980
(dp981
g74
(dp982
g94
g95
ssg83
g976
sg76
(lp983
S'server_name'
p984
asbag69
(g90
g71
NtRp985
(dp986
g74
(dp987
g101
g102
ssg83
g976
sg76
(lp988
S':'
asbag69
(g90
g71
NtRp989
(dp990
g74
(dp991
sg83
g976
sg76
(lp992
g69
(g70
g71
NtRp993
(dp994
g74
(dp995
g82
I4
ssg83
g989
sg76
(lp996
S'tuna.com'
p997
asbasbasbag69
(g85
g71
NtRp998
(dp999
g74
(dp1000
sg83
g490
sg76
(lp1001
g69
(g90
g71
NtRp1002
(dp1003
g74
(dp1004
g94
g95
ssg83
g998
sg76
(lp1005
S'server_port'
p1006
asbag69
(g90
g71
NtRp1007
(dp1008
g74
(dp1009
g101
g102
ssg83
g998
sg76
(lp1010
S':'
asbag69
(g90
g71
NtRp1011
(dp1012
g74
(dp1013
sg83
g998
sg76
(lp1014
g69
(g70
g71
NtRp1015
(dp1016
g74
(dp1017
g82
I4
ssg83
g1011
sg76
(lp1018
S'8000'
p1019
asbasbasbag69
(g85
g71
NtRp1020
(dp1021
g74
(dp1022
sg83
g490
sg76
(lp1023
g69
(g90
g71
NtRp1024
(dp1025
g74
(dp1026
g94
g95
ssg83
g1020
sg76
(lp1027
S'server_protocol'
p1028
asbag69
(g90
g71
NtRp1029
(dp1030
g74
(dp1031
g101
g102
ssg83
g1020
sg76
(lp1032
S':'
asbag69
(g90
g71
NtRp1033
(dp1034
g74
(dp1035
sg83
g1020
sg76
(lp1036
g69
(g70
g71
NtRp1037
(dp1038
g74
(dp1039
g82
I4
ssg83
g1033
sg76
(lp1040
S'HTTP/1.1'
p1041
asbasbasbag69
(g85
g71
NtRp1042
(dp1043
g74
(dp1044
sg83
g490
sg76
(lp1045
g69
(g90
g71
NtRp1046
(dp1047
g74
(dp1048
g94
g95
ssg83
g1042
sg76
(lp1049
S'server_software'
p1050
asbag69
(g90
g71
NtRp1051
(dp1052
g74
(dp1053
g101
g102
ssg83
g1042
sg76
(lp1054
S':'
asbag69
(g90
g71
NtRp1055
(dp1056
g74
(dp1057
sg83
g1042
sg76
(lp1058
g69
(g70
g71
NtRp1059
(dp1060
g74
(dp1061
g82
I4
ssg83
g1055
sg76
(lp1062
S'Rocket 1.2.4'
p1063
asbasbasbag69
(g85
g71
NtRp1064
(dp1065
g74
(dp1066
sg83
g490
sg76
(lp1067
g69
(g90
g71
NtRp1068
(dp1069
g74
(dp1070
g94
g95
ssg83
g1064
sg76
(lp1071
S'web2py_crontype'
p1072
asbag69
(g90
g71
NtRp1073
(dp1074
g74
(dp1075
g101
g102
ssg83
g1064
sg76
(lp1076
S':'
asbag69
(g90
g71
NtRp1077
(dp1078
g74
(dp1079
sg83
g1064
sg76
(lp1080
g69
(g70
g71
NtRp1081
(dp1082
g74
(dp1083
g82
I4
ssg83
g1077
sg76
(lp1084
S'hard'
p1085
asbasbasbag69
(g85
g71
NtRp1086
(dp1087
g74
(dp1088
sg83
g490
sg76
(lp1089
g69
(g90
g71
NtRp1090
(dp1091
g74
(dp1092
g94
g95
ssg83
g1086
sg76
(lp1093
S'web2py_path'
p1094
asbag69
(g90
g71
NtRp1095
(dp1096
g74
(dp1097
g101
g102
ssg83
g1086
sg76
(lp1098
S':'
asbag69
(g90
g71
NtRp1099
(dp1100
g74
(dp1101
sg83
g1086
sg76
(lp1102
g69
(g70
g71
NtRp1103
(dp1104
g74
(dp1105
g82
I4
ssg83
g1099
sg76
(lp1106
g537
asbasbasbag69
(g85
g71
NtRp1107
(dp1108
g74
(dp1109
sg83
g490
sg76
(lp1110
g69
(g90
g71
NtRp1111
(dp1112
g74
(dp1113
g94
g95
ssg83
g1107
sg76
(lp1114
S'web2py_version'
p1115
asbag69
(g90
g71
NtRp1116
(dp1117
g74
(dp1118
g101
g102
ssg83
g1107
sg76
(lp1119
S':'
asbag69
(g90
g71
NtRp1120
(dp1121
g74
(dp1122
sg83
g1107
sg76
(lp1123
g69
(g70
g71
NtRp1124
(dp1125
g74
(dp1126
g82
I4
ssg83
g1120
sg76
(lp1127
g69
(g78
g71
NtRp1128
(dp1129
g74
(dp1130
g82
I3
ssg83
Nsg76
(lp1131
g69
(g85
g71
NtRp1132
(dp1133
g74
(dp1134
sg83
g1128
sg76
(lp1135
g69
(g90
g71
NtRp1136
(dp1137
g74
(dp1138
sg83
g1132
sg76
(lp1139
g69
(g70
g71
NtRp1140
(dp1141
g74
(dp1142
g82
I3
ssg83
g1136
sg76
(lp1143
S'1'
asbasbasbag69
(g85
g71
NtRp1144
(dp1145
g74
(dp1146
sg83
g1128
sg76
(lp1147
g69
(g90
g71
NtRp1148
(dp1149
g74
(dp1150
sg83
g1144
sg76
(lp1151
g69
(g70
g71
NtRp1152
(dp1153
g74
(dp1154
g82
I3
ssg83
g1148
sg76
(lp1155
S'99'
p1156
asbasbasbag69
(g85
g71
NtRp1157
(dp1158
g74
(dp1159
sg83
g1128
sg76
(lp1160
g69
(g90
g71
NtRp1161
(dp1162
g74
(dp1163
sg83
g1157
sg76
(lp1164
g69
(g70
g71
NtRp1165
(dp1166
g74
(dp1167
g82
I3
ssg83
g1161
sg76
(lp1168
S'7'
asbasbasbag69
(g85
g71
NtRp1169
(dp1170
g74
(dp1171
sg83
g1128
sg76
(lp1172
g69
(g90
g71
NtRp1173
(dp1174
g74
(dp1175
sg83
g1169
sg76
(lp1176
g69
(g70
g71
NtRp1177
(dp1178
g74
(dp1179
g82
I3
ssg83
g1173
sg76
(lp1180
S'datetime.datetime(2012, 3, 4, 22, 12, 8)'
p1181
asbasbasbag69
(g85
g71
NtRp1182
(dp1183
g74
(dp1184
sg83
g1128
sg76
(lp1185
g69
(g90
g71
NtRp1186
(dp1187
g74
(dp1188
sg83
g1182
sg76
(lp1189
g69
(g70
g71
NtRp1190
(dp1191
g74
(dp1192
g82
I3
ssg83
g1186
sg76
(lp1193
S'stable'
p1194
asbasbasbasbasbasbasbag69
(g85
g71
NtRp1195
(dp1196
g74
(dp1197
sg83
g490
sg76
(lp1198
g69
(g90
g71
NtRp1199
(dp1200
g74
(dp1201
g94
g95
ssg83
g1195
sg76
(lp1202
S'wsgi_errors'
p1203
asbag69
(g90
g71
NtRp1204
(dp1205
g74
(dp1206
g101
g102
ssg83
g1195
sg76
(lp1207
S':'
asbag69
(g90
g71
NtRp1208
(dp1209
g74
(dp1210
sg83
g1195
sg76
(lp1211
g69
(g70
g71
NtRp1212
(dp1213
g74
(dp1214
g82
I4
ssg83
g1208
sg76
(lp1215
S"<open file '<stderr>', mode 'w' at 0x7f46c33da270>"
p1216
asbasbasbag69
(g85
g71
NtRp1217
(dp1218
g74
(dp1219
sg83
g490
sg76
(lp1220
g69
(g90
g71
NtRp1221
(dp1222
g74
(dp1223
g94
g95
ssg83
g1217
sg76
(lp1224
S'wsgi_file_wrapper'
p1225
asbag69
(g90
g71
NtRp1226
(dp1227
g74
(dp1228
g101
g102
ssg83
g1217
sg76
(lp1229
S':'
asbag69
(g90
g71
NtRp1230
(dp1231
g74
(dp1232
sg83
g1217
sg76
(lp1233
g69
(g70
g71
NtRp1234
(dp1235
g74
(dp1236
g82
I4
ssg83
g1230
sg76
(lp1237
S'<class wsgiref.util.FileWrapper at 0x22d1940>'
p1238
asbasbasbag69
(g85
g71
NtRp1239
(dp1240
g74
(dp1241
sg83
g490
sg76
(lp1242
g69
(g90
g71
NtRp1243
(dp1244
g74
(dp1245
g94
g95
ssg83
g1239
sg76
(lp1246
S'wsgi_input'
p1247
asbag69
(g90
g71
NtRp1248
(dp1249
g74
(dp1250
g101
g102
ssg83
g1239
sg76
(lp1251
S':'
asbag69
(g90
g71
NtRp1252
(dp1253
g74
(dp1254
sg83
g1239
sg76
(lp1255
g69
(g70
g71
NtRp1256
(dp1257
g74
(dp1258
g82
I4
ssg83
g1252
sg76
(lp1259
S'<socket._fileobject object at 0x7f46a40588d0>'
p1260
asbasbasbag69
(g85
g71
NtRp1261
(dp1262
g74
(dp1263
sg83
g490
sg76
(lp1264
g69
(g90
g71
NtRp1265
(dp1266
g74
(dp1267
g94
g95
ssg83
g1261
sg76
(lp1268
S'wsgi_multiprocess'
p1269
asbag69
(g90
g71
NtRp1270
(dp1271
g74
(dp1272
g101
g102
ssg83
g1261
sg76
(lp1273
S':'
asbag69
(g90
g71
NtRp1274
(dp1275
g74
(dp1276
sg83
g1261
sg76
(lp1277
g69
(g70
g71
NtRp1278
(dp1279
g74
(dp1280
g82
I4
ssg83
g1274
sg76
(lp1281
g112
asbasbasbag69
(g85
g71
NtRp1282
(dp1283
g74
(dp1284
sg83
g490
sg76
(lp1285
g69
(g90
g71
NtRp1286
(dp1287
g74
(dp1288
g94
g95
ssg83
g1282
sg76
(lp1289
S'wsgi_multithread'
p1290
asbag69
(g90
g71
NtRp1291
(dp1292
g74
(dp1293
g101
g102
ssg83
g1282
sg76
(lp1294
S':'
asbag69
(g90
g71
NtRp1295
(dp1296
g74
(dp1297
sg83
g1282
sg76
(lp1298
g69
(g70
g71
NtRp1299
(dp1300
g74
(dp1301
g82
I4
ssg83
g1295
sg76
(lp1302
S'True'
p1303
asbasbasbag69
(g85
g71
NtRp1304
(dp1305
g74
(dp1306
sg83
g490
sg76
(lp1307
g69
(g90
g71
NtRp1308
(dp1309
g74
(dp1310
g94
g95
ssg83
g1304
sg76
(lp1311
S'wsgi_run_once'
p1312
asbag69
(g90
g71
NtRp1313
(dp1314
g74
(dp1315
g101
g102
ssg83
g1304
sg76
(lp1316
S':'
asbag69
(g90
g71
NtRp1317
(dp1318
g74
(dp1319
sg83
g1304
sg76
(lp1320
g69
(g70
g71
NtRp1321
(dp1322
g74
(dp1323
g82
I4
ssg83
g1317
sg76
(lp1324
g112
asbasbasbag69
(g85
g71
NtRp1325
(dp1326
g74
(dp1327
sg83
g490
sg76
(lp1328
g69
(g90
g71
NtRp1329
(dp1330
g74
(dp1331
g94
g95
ssg83
g1325
sg76
(lp1332
S'wsgi_url_scheme'
p1333
asbag69
(g90
g71
NtRp1334
(dp1335
g74
(dp1336
g101
g102
ssg83
g1325
sg76
(lp1337
S':'
asbag69
(g90
g71
NtRp1338
(dp1339
g74
(dp1340
sg83
g1325
sg76
(lp1341
g69
(g70
g71
NtRp1342
(dp1343
g74
(dp1344
g82
I4
ssg83
g1338
sg76
(lp1345
S'http'
p1346
asbasbasbag69
(g85
g71
NtRp1347
(dp1348
g74
(dp1349
sg83
g490
sg76
(lp1350
g69
(g90
g71
NtRp1351
(dp1352
g74
(dp1353
g94
g95
ssg83
g1347
sg76
(lp1354
S'wsgi_version'
p1355
asbag69
(g90
g71
NtRp1356
(dp1357
g74
(dp1358
g101
g102
ssg83
g1347
sg76
(lp1359
S':'
asbag69
(g90
g71
NtRp1360
(dp1361
g74
(dp1362
sg83
g1347
sg76
(lp1363
g69
(g70
g71
NtRp1364
(dp1365
g74
(dp1366
g82
I4
ssg83
g1360
sg76
(lp1367
g69
(g78
g71
NtRp1368
(dp1369
g74
(dp1370
g82
I3
ssg83
Nsg76
(lp1371
g69
(g85
g71
NtRp1372
(dp1373
g74
(dp1374
sg83
g1368
sg76
(lp1375
g69
(g90
g71
NtRp1376
(dp1377
g74
(dp1378
sg83
g1372
sg76
(lp1379
g69
(g70
g71
NtRp1380
(dp1381
g74
(dp1382
g82
I3
ssg83
g1376
sg76
(lp1383
S'1'
asbasbasbag69
(g85
g71
NtRp1384
(dp1385
g74
(dp1386
sg83
g1368
sg76
(lp1387
g69
(g90
g71
NtRp1388
(dp1389
g74
(dp1390
sg83
g1384
sg76
(lp1391
g69
(g70
g71
NtRp1392
(dp1393
g74
(dp1394
g82
I3
ssg83
g1388
sg76
(lp1395
S'0'
asbasbasbasbasbasbasbasbasbasbasbag69
(g85
g71
NtRp1396
(dp1397
g74
(dp1398
sg83
g79
sg76
(lp1399
g69
(g90
g71
NtRp1400
(dp1401
g74
(dp1402
g94
g95
ssg83
g1396
sg76
(lp1403
S'extension'
p1404
asbag69
(g90
g71
NtRp1405
(dp1406
g74
(dp1407
g101
g102
ssg83
g1396
sg76
(lp1408
S':'
asbag69
(g90
g71
NtRp1409
(dp1410
g74
(dp1411
sg83
g1396
sg76
(lp1412
g69
(g70
g71
NtRp1413
(dp1414
g74
(dp1415
g82
I5
ssg83
g1409
sg76
(lp1416
S'html'
p1417
asbasbasbag69
(g85
g71
NtRp1418
(dp1419
g74
(dp1420
sg83
g79
sg76
(lp1421
g69
(g90
g71
NtRp1422
(dp1423
g74
(dp1424
g94
g95
ssg83
g1418
sg76
(lp1425
S'folder'
p1426
asbag69
(g90
g71
NtRp1427
(dp1428
g74
(dp1429
g101
g102
ssg83
g1418
sg76
(lp1430
S':'
asbag69
(g90
g71
NtRp1431
(dp1432
g74
(dp1433
sg83
g1418
sg76
(lp1434
g69
(g70
g71
NtRp1435
(dp1436
g74
(dp1437
g82
I5
ssg83
g1431
sg76
(lp1438
S'/home/tuna/cyberagent/IgoR/C_Sources/Server/igor-assistant-ca-2012/applications/igor/'
p1439
asbasbasbag69
(g85
g71
NtRp1440
(dp1441
g74
(dp1442
sg83
g79
sg76
(lp1443
g69
(g90
g71
NtRp1444
(dp1445
g74
(dp1446
g94
g95
ssg83
g1440
sg76
(lp1447
S'function'
p1448
asbag69
(g90
g71
NtRp1449
(dp1450
g74
(dp1451
g101
g102
ssg83
g1440
sg76
(lp1452
S':'
asbag69
(g90
g71
NtRp1453
(dp1454
g74
(dp1455
sg83
g1440
sg76
(lp1456
g69
(g70
g71
NtRp1457
(dp1458
g74
(dp1459
g82
I5
ssg83
g1453
sg76
(lp1460
S'call'
p1461
asbasbasbag69
(g85
g71
NtRp1462
(dp1463
g74
(dp1464
sg83
g79
sg76
(lp1465
g69
(g90
g71
NtRp1466
(dp1467
g74
(dp1468
g94
g95
ssg83
g1462
sg76
(lp1469
S'get_vars'
p1470
asbag69
(g90
g71
NtRp1471
(dp1472
g74
(dp1473
g101
g102
ssg83
g1462
sg76
(lp1474
S':'
asbag69
(g90
g71
NtRp1475
(dp1476
g74
(dp1477
sg83
g1462
sg76
(lp1478
g69
(g70
g71
NtRp1479
(dp1480
g74
(dp1481
g82
I5
ssg83
g1475
sg76
(lp1482
g69
(g78
g71
NtRp1483
(dp1484
g74
(dp1485
g82
I4
ssg83
Nsg76
(lp1486
g69
(g85
g71
NtRp1487
(dp1488
g74
(dp1489
sg83
g1483
sg76
(lp1490
g69
(g90
g71
NtRp1491
(dp1492
g74
(dp1493
g94
g95
ssg83
g1487
sg76
(lp1494
S'param1'
p1495
asbag69
(g90
g71
NtRp1496
(dp1497
g74
(dp1498
g101
g102
ssg83
g1487
sg76
(lp1499
S':'
asbag69
(g90
g71
NtRp1500
(dp1501
g74
(dp1502
sg83
g1487
sg76
(lp1503
g69
(g70
g71
NtRp1504
(dp1505
g74
(dp1506
g82
I4
ssg83
g1500
sg76
(lp1507
S'2'
asbasbasbasbasbasbasbag69
(g85
g71
NtRp1508
(dp1509
g74
(dp1510
sg83
g79
sg76
(lp1511
g69
(g90
g71
NtRp1512
(dp1513
g74
(dp1514
g94
g95
ssg83
g1508
sg76
(lp1515
S'global_settings'
p1516
asbag69
(g90
g71
NtRp1517
(dp1518
g74
(dp1519
g101
g102
ssg83
g1508
sg76
(lp1520
S':'
asbag69
(g90
g71
NtRp1521
(dp1522
g74
(dp1523
sg83
g1508
sg76
(lp1524
g69
(g70
g71
NtRp1525
(dp1526
g74
(dp1527
g82
I5
ssg83
g1521
sg76
(lp1528
g69
(g78
g71
NtRp1529
(dp1530
g74
(dp1531
g82
I4
ssg83
Nsg76
(lp1532
g69
(g85
g71
NtRp1533
(dp1534
g74
(dp1535
sg83
g1529
sg76
(lp1536
g69
(g90
g71
NtRp1537
(dp1538
g74
(dp1539
g94
g95
ssg83
g1533
sg76
(lp1540
g502
asbag69
(g90
g71
NtRp1541
(dp1542
g74
(dp1543
g101
g102
ssg83
g1533
sg76
(lp1544
S':'
asbag69
(g90
g71
NtRp1545
(dp1546
g74
(dp1547
sg83
g1533
sg76
(lp1548
g69
(g70
g71
NtRp1549
(dp1550
g74
(dp1551
g82
I4
ssg83
g1545
sg76
(lp1552
S"set(['/home/tuna/cyberagent/IgoR/C_Sources/Server/igor-assistant-ca-2012/applications/admin/', '/home/tuna/cyberagent/IgoR/C_Sources/Server/igor-assistant-ca-2012/applications/igor/', '/home/tuna/cyberagent/IgoR/C_Sources/Server/igor-assistant-ca-2012/applications/welcome/'])"
p1553
asbasbasbag69
(g85
g71
NtRp1554
(dp1555
g74
(dp1556
sg83
g1529
sg76
(lp1557
g69
(g90
g71
NtRp1558
(dp1559
g74
(dp1560
g94
g95
ssg83
g1554
sg76
(lp1561
g524
asbag69
(g90
g71
NtRp1562
(dp1563
g74
(dp1564
g101
g102
ssg83
g1554
sg76
(lp1565
S':'
asbag69
(g90
g71
NtRp1566
(dp1567
g74
(dp1568
sg83
g1554
sg76
(lp1569
g69
(g70
g71
NtRp1570
(dp1571
g74
(dp1572
g82
I4
ssg83
g1566
sg76
(lp1573
g537
asbasbasbag69
(g85
g71
NtRp1574
(dp1575
g74
(dp1576
sg83
g1529
sg76
(lp1577
g69
(g90
g71
NtRp1578
(dp1579
g74
(dp1580
g94
g95
ssg83
g1574
sg76
(lp1581
g546
asbag69
(g90
g71
NtRp1582
(dp1583
g74
(dp1584
g101
g102
ssg83
g1574
sg76
(lp1585
S':'
asbag69
(g90
g71
NtRp1586
(dp1587
g74
(dp1588
sg83
g1574
sg76
(lp1589
g69
(g70
g71
NtRp1590
(dp1591
g74
(dp1592
g82
I4
ssg83
g1586
sg76
(lp1593
g69
(g78
g71
NtRp1594
(dp1595
g74
(dp1596
g82
I3
ssg83
Nsg76
(lp1597
sbasbasbasbag69
(g85
g71
NtRp1598
(dp1599
g74
(dp1600
sg83
g1529
sg76
(lp1601
g69
(g90
g71
NtRp1602
(dp1603
g74
(dp1604
g94
g95
ssg83
g1598
sg76
(lp1605
g571
asbag69
(g90
g71
NtRp1606
(dp1607
g74
(dp1608
g101
g102
ssg83
g1598
sg76
(lp1609
S':'
asbag69
(g90
g71
NtRp1610
(dp1611
g74
(dp1612
sg83
g1598
sg76
(lp1613
g69
(g70
g71
NtRp1614
(dp1615
g74
(dp1616
g82
I4
ssg83
g1610
sg76
(lp1617
S"<Values at 0x23f4998: {'verbose': False, 'ip': '127.0.0.1', 'shutdown_timeout': 5, 'taskbar': False, 'nocron': False, 'pid_filename': 'httpserver.pid', 'maxthreads': None, 'softcron': False, 'server_name': 'tuna.com', 'bpython': False, 'nogui': False, 'port': 8000, 'extcron': False, 'debuglevel': 30, 'test': None, 'folder': '/home/tuna/cyberagent/IgoR/C_Sources/Server/igor-assistant-ca-2012', 'config': '', 'import_models': False, 'winservice': '', 'shell': None, 'run': '', 'log_filename': 'httpserver.log', 'args': [''], 'socket_timeout': 5, 'ssl_ca_certificate': None, 'scheduler': None, 'profiler_filename': None, 'ssl_private_key': '', 'password': '<ask>', 'request_queue_size': 5, 'ssl_certificate': '', 'cronjob': False, 'numthreads': None, 'quiet': False, 'interfaces': None, 'minthreads': None, 'timeout': 10, 'plain': False, 'nobanner': False}>"
p1618
asbasbasbag69
(g85
g71
NtRp1619
(dp1620
g74
(dp1621
sg83
g1529
sg76
(lp1622
g69
(g90
g71
NtRp1623
(dp1624
g74
(dp1625
g94
g95
ssg83
g1619
sg76
(lp1626
g593
asbag69
(g90
g71
NtRp1627
(dp1628
g74
(dp1629
g101
g102
ssg83
g1619
sg76
(lp1630
S':'
asbag69
(g90
g71
NtRp1631
(dp1632
g74
(dp1633
sg83
g1619
sg76
(lp1634
g69
(g70
g71
NtRp1635
(dp1636
g74
(dp1637
g82
I4
ssg83
g1631
sg76
(lp1638
S'set([])'
p1639
asbasbasbag69
(g85
g71
NtRp1640
(dp1641
g74
(dp1642
sg83
g1529
sg76
(lp1643
g69
(g90
g71
NtRp1644
(dp1645
g74
(dp1646
g94
g95
ssg83
g1640
sg76
(lp1647
g615
asbag69
(g90
g71
NtRp1648
(dp1649
g74
(dp1650
g101
g102
ssg83
g1640
sg76
(lp1651
S':'
asbag69
(g90
g71
NtRp1652
(dp1653
g74
(dp1654
sg83
g1640
sg76
(lp1655
g69
(g70
g71
NtRp1656
(dp1657
g74
(dp1658
g82
I4
ssg83
g1652
sg76
(lp1659
g112
asbasbasbag69
(g85
g71
NtRp1660
(dp1661
g74
(dp1662
sg83
g1529
sg76
(lp1663
g69
(g90
g71
NtRp1664
(dp1665
g74
(dp1666
g94
g95
ssg83
g1660
sg76
(lp1667
g636
asbag69
(g90
g71
NtRp1668
(dp1669
g74
(dp1670
g101
g102
ssg83
g1660
sg76
(lp1671
S':'
asbag69
(g90
g71
NtRp1672
(dp1673
g74
(dp1674
sg83
g1660
sg76
(lp1675
g69
(g70
g71
NtRp1676
(dp1677
g74
(dp1678
g82
I4
ssg83
g1672
sg76
(lp1679
g649
asbasbasbag69
(g85
g71
NtRp1680
(dp1681
g74
(dp1682
sg83
g1529
sg76
(lp1683
g69
(g90
g71
NtRp1684
(dp1685
g74
(dp1686
g94
g95
ssg83
g1680
sg76
(lp1687
g812
asbag69
(g90
g71
NtRp1688
(dp1689
g74
(dp1690
g101
g102
ssg83
g1680
sg76
(lp1691
S':'
asbag69
(g90
g71
NtRp1692
(dp1693
g74
(dp1694
sg83
g1680
sg76
(lp1695
g69
(g70
g71
NtRp1696
(dp1697
g74
(dp1698
g82
I4
ssg83
g1692
sg76
(lp1699
g112
asbasbasbag69
(g85
g71
NtRp1700
(dp1701
g74
(dp1702
sg83
g1529
sg76
(lp1703
g69
(g90
g71
NtRp1704
(dp1705
g74
(dp1706
g94
g95
ssg83
g1700
sg76
(lp1707
g833
asbag69
(g90
g71
NtRp1708
(dp1709
g74
(dp1710
g101
g102
ssg83
g1700
sg76
(lp1711
S':'
asbag69
(g90
g71
NtRp1712
(dp1713
g74
(dp1714
sg83
g1700
sg76
(lp1715
g69
(g70
g71
NtRp1716
(dp1717
g74
(dp1718
g82
I4
ssg83
g1712
sg76
(lp1719
g112
asbasbasbag69
(g85
g71
NtRp1720
(dp1721
g74
(dp1722
sg83
g1529
sg76
(lp1723
g69
(g90
g71
NtRp1724
(dp1725
g74
(dp1726
g94
g95
ssg83
g1720
sg76
(lp1727
g1072
asbag69
(g90
g71
NtRp1728
(dp1729
g74
(dp1730
g101
g102
ssg83
g1720
sg76
(lp1731
S':'
asbag69
(g90
g71
NtRp1732
(dp1733
g74
(dp1734
sg83
g1720
sg76
(lp1735
g69
(g70
g71
NtRp1736
(dp1737
g74
(dp1738
g82
I4
ssg83
g1732
sg76
(lp1739
g1085
asbasbasbag69
(g85
g71
NtRp1740
(dp1741
g74
(dp1742
sg83
g1529
sg76
(lp1743
g69
(g90
g71
NtRp1744
(dp1745
g74
(dp1746
g94
g95
ssg83
g1740
sg76
(lp1747
g1115
asbag69
(g90
g71
NtRp1748
(dp1749
g74
(dp1750
g101
g102
ssg83
g1740
sg76
(lp1751
S':'
asbag69
(g90
g71
NtRp1752
(dp1753
g74
(dp1754
sg83
g1740
sg76
(lp1755
g69
(g70
g71
NtRp1756
(dp1757
g74
(dp1758
g82
I4
ssg83
g1752
sg76
(lp1759
g69
(g78
g71
NtRp1760
(dp1761
g74
(dp1762
g82
I3
ssg83
Nsg76
(lp1763
g69
(g85
g71
NtRp1764
(dp1765
g74
(dp1766
sg83
g1760
sg76
(lp1767
g69
(g90
g71
NtRp1768
(dp1769
g74
(dp1770
sg83
g1764
sg76
(lp1771
g69
(g70
g71
NtRp1772
(dp1773
g74
(dp1774
g82
I3
ssg83
g1768
sg76
(lp1775
S'1'
asbasbasbag69
(g85
g71
NtRp1776
(dp1777
g74
(dp1778
sg83
g1760
sg76
(lp1779
g69
(g90
g71
NtRp1780
(dp1781
g74
(dp1782
sg83
g1776
sg76
(lp1783
g69
(g70
g71
NtRp1784
(dp1785
g74
(dp1786
g82
I3
ssg83
g1780
sg76
(lp1787
S'99'
p1788
asbasbasbag69
(g85
g71
NtRp1789
(dp1790
g74
(dp1791
sg83
g1760
sg76
(lp1792
g69
(g90
g71
NtRp1793
(dp1794
g74
(dp1795
sg83
g1789
sg76
(lp1796
g69
(g70
g71
NtRp1797
(dp1798
g74
(dp1799
g82
I3
ssg83
g1793
sg76
(lp1800
S'7'
asbasbasbag69
(g85
g71
NtRp1801
(dp1802
g74
(dp1803
sg83
g1760
sg76
(lp1804
g69
(g90
g71
NtRp1805
(dp1806
g74
(dp1807
sg83
g1801
sg76
(lp1808
g69
(g70
g71
NtRp1809
(dp1810
g74
(dp1811
g82
I3
ssg83
g1805
sg76
(lp1812
S'datetime.datetime(2012, 3, 4, 22, 12, 8)'
p1813
asbasbasbag69
(g85
g71
NtRp1814
(dp1815
g74
(dp1816
sg83
g1760
sg76
(lp1817
g69
(g90
g71
NtRp1818
(dp1819
g74
(dp1820
sg83
g1814
sg76
(lp1821
g69
(g70
g71
NtRp1822
(dp1823
g74
(dp1824
g82
I3
ssg83
g1818
sg76
(lp1825
g1194
asbasbasbasbasbasbasbasbasbasbasbag69
(g85
g71
NtRp1826
(dp1827
g74
(dp1828
sg83
g79
sg76
(lp1829
g69
(g90
g71
NtRp1830
(dp1831
g74
(dp1832
g94
g95
ssg83
g1826
sg76
(lp1833
S'is_https'
p1834
asbag69
(g90
g71
NtRp1835
(dp1836
g74
(dp1837
g101
g102
ssg83
g1826
sg76
(lp1838
S':'
asbag69
(g90
g71
NtRp1839
(dp1840
g74
(dp1841
sg83
g1826
sg76
(lp1842
g69
(g70
g71
NtRp1843
(dp1844
g74
(dp1845
g82
I5
ssg83
g1839
sg76
(lp1846
g112
asbasbasbag69
(g85
g71
NtRp1847
(dp1848
g74
(dp1849
sg83
g79
sg76
(lp1850
g69
(g90
g71
NtRp1851
(dp1852
g74
(dp1853
g94
g95
ssg83
g1847
sg76
(lp1854
S'is_local'
p1855
asbag69
(g90
g71
NtRp1856
(dp1857
g74
(dp1858
g101
g102
ssg83
g1847
sg76
(lp1859
S':'
asbag69
(g90
g71
NtRp1860
(dp1861
g74
(dp1862
sg83
g1847
sg76
(lp1863
g69
(g70
g71
NtRp1864
(dp1865
g74
(dp1866
g82
I5
ssg83
g1860
sg76
(lp1867
g1303
asbasbasbag69
(g85
g71
NtRp1868
(dp1869
g74
(dp1870
sg83
g79
sg76
(lp1871
g69
(g90
g71
NtRp1872
(dp1873
g74
(dp1874
g94
g95
ssg83
g1868
sg76
(lp1875
S'is_restful'
p1876
asbag69
(g90
g71
NtRp1877
(dp1878
g74
(dp1879
g101
g102
ssg83
g1868
sg76
(lp1880
S':'
asbag69
(g90
g71
NtRp1881
(dp1882
g74
(dp1883
sg83
g1868
sg76
(lp1884
g69
(g70
g71
NtRp1885
(dp1886
g74
(dp1887
g82
I5
ssg83
g1881
sg76
(lp1888
g112
asbasbasbag69
(g85
g71
NtRp1889
(dp1890
g74
(dp1891
sg83
g79
sg76
(lp1892
g69
(g90
g71
NtRp1893
(dp1894
g74
(dp1895
g94
g95
ssg83
g1889
sg76
(lp1896
S'now'
p1897
asbag69
(g90
g71
NtRp1898
(dp1899
g74
(dp1900
g101
g102
ssg83
g1889
sg76
(lp1901
S':'
asbag69
(g90
g71
NtRp1902
(dp1903
g74
(dp1904
sg83
g1889
sg76
(lp1905
g69
(g70
g71
NtRp1906
(dp1907
g74
(dp1908
g82
I5
ssg83
g1902
sg76
(lp1909
S'datetime.datetime(2012, 8, 3, 0, 51, 48, 53940)'
p1910
asbasbasbag69
(g85
g71
NtRp1911
(dp1912
g74
(dp1913
sg83
g79
sg76
(lp1914
g69
(g90
g71
NtRp1915
(dp1916
g74
(dp1917
g94
g95
ssg83
g1911
sg76
(lp1918
S'post_vars'
p1919
asbag69
(g90
g71
NtRp1920
(dp1921
g74
(dp1922
g101
g102
ssg83
g1911
sg76
(lp1923
S':'
asbag69
(g90
g71
NtRp1924
(dp1925
g74
(dp1926
sg83
g1911
sg76
(lp1927
g69
(g70
g71
NtRp1928
(dp1929
g74
(dp1930
g82
I5
ssg83
g1924
sg76
(lp1931
g69
(g78
g71
NtRp1932
(dp1933
g74
(dp1934
g82
I4
ssg83
Nsg76
(lp1935
sbasbasbasbag69
(g85
g71
NtRp1936
(dp1937
g74
(dp1938
sg83
g79
sg76
(lp1939
g69
(g90
g71
NtRp1940
(dp1941
g74
(dp1942
g94
g95
ssg83
g1936
sg76
(lp1943
S'raw_args'
p1944
asbag69
(g90
g71
NtRp1945
(dp1946
g74
(dp1947
g101
g102
ssg83
g1936
sg76
(lp1948
S':'
asbag69
(g90
g71
NtRp1949
(dp1950
g74
(dp1951
sg83
g1936
sg76
(lp1952
g69
(g70
g71
NtRp1953
(dp1954
g74
(dp1955
g82
I5
ssg83
g1949
sg76
(lp1956
S'json/get_project_detail/'
p1957
asbasbasbag69
(g85
g71
NtRp1958
(dp1959
g74
(dp1960
sg83
g79
sg76
(lp1961
g69
(g90
g71
NtRp1962
(dp1963
g74
(dp1964
g94
g95
ssg83
g1958
sg76
(lp1965
S'url'
p1966
asbag69
(g90
g71
NtRp1967
(dp1968
g74
(dp1969
g101
g102
ssg83
g1958
sg76
(lp1970
S':'
asbag69
(g90
g71
NtRp1971
(dp1972
g74
(dp1973
sg83
g1958
sg76
(lp1974
g69
(g70
g71
NtRp1975
(dp1976
g74
(dp1977
g82
I5
ssg83
g1971
sg76
(lp1978
S'/igor/project/call/json/get_project_detail'
p1979
asbasbasbag69
(g85
g71
NtRp1980
(dp1981
g74
(dp1982
sg83
g79
sg76
(lp1983
g69
(g90
g71
NtRp1984
(dp1985
g74
(dp1986
g94
g95
ssg83
g1980
sg76
(lp1987
S'utcnow'
p1988
asbag69
(g90
g71
NtRp1989
(dp1990
g74
(dp1991
g101
g102
ssg83
g1980
sg76
(lp1992
S':'
asbag69
(g90
g71
NtRp1993
(dp1994
g74
(dp1995
sg83
g1980
sg76
(lp1996
g69
(g70
g71
NtRp1997
(dp1998
g74
(dp1999
g82
I5
ssg83
g1993
sg76
(lp2000
S'datetime.datetime(2012, 8, 2, 17, 51, 48, 53995)'
p2001
asbasbasbag69
(g85
g71
NtRp2002
(dp2003
g74
(dp2004
sg83
g79
sg76
(lp2005
g69
(g90
g71
NtRp2006
(dp2007
g74
(dp2008
g94
g95
ssg83
g2002
sg76
(lp2009
S'uuid'
p2010
asbag69
(g90
g71
NtRp2011
(dp2012
g74
(dp2013
g101
g102
ssg83
g2002
sg76
(lp2014
S':'
asbag69
(g90
g71
NtRp2015
(dp2016
g74
(dp2017
sg83
g2002
sg76
(lp2018
g69
(g70
g71
NtRp2019
(dp2020
g74
(dp2021
g82
I5
ssg83
g2015
sg76
(lp2022
S'igor/127.0.0.1.2012-08-03.00-51-48.55a3fc77-5f6e-442b-9f59-f3c7deb07281'
p2023
asbasbasbag69
(g85
g71
NtRp2024
(dp2025
g74
(dp2026
sg83
g79
sg76
(lp2027
g69
(g90
g71
NtRp2028
(dp2029
g74
(dp2030
g94
g95
ssg83
g2024
sg76
(lp2031
S'vars'
p2032
asbag69
(g90
g71
NtRp2033
(dp2034
g74
(dp2035
g101
g102
ssg83
g2024
sg76
(lp2036
S':'
asbag69
(g90
g71
NtRp2037
(dp2038
g74
(dp2039
sg83
g2024
sg76
(lp2040
g69
(g70
g71
NtRp2041
(dp2042
g74
(dp2043
g82
I5
ssg83
g2037
sg76
(lp2044
g69
(g78
g71
NtRp2045
(dp2046
g74
(dp2047
g82
I4
ssg83
Nsg76
(lp2048
g69
(g85
g71
NtRp2049
(dp2050
g74
(dp2051
sg83
g2045
sg76
(lp2052
g69
(g90
g71
NtRp2053
(dp2054
g74
(dp2055
g94
g95
ssg83
g2049
sg76
(lp2056
g1495
asbag69
(g90
g71
NtRp2057
(dp2058
g74
(dp2059
g101
g102
ssg83
g2049
sg76
(lp2060
S':'
asbag69
(g90
g71
NtRp2061
(dp2062
g74
(dp2063
sg83
g2049
sg76
(lp2064
g69
(g70
g71
NtRp2065
(dp2066
g74
(dp2067
g82
I4
ssg83
g2061
sg76
(lp2068
S'2'
asbasbasbasbasbasbasbag69
(g85
g71
NtRp2069
(dp2070
g74
(dp2071
sg83
g79
sg76
(lp2072
g69
(g90
g71
NtRp2073
(dp2074
g74
(dp2075
g94
g95
ssg83
g2069
sg76
(lp2076
S'wsgi'
p2077
asbag69
(g90
g71
NtRp2078
(dp2079
g74
(dp2080
g101
g102
ssg83
g2069
sg76
(lp2081
S':'
asbag69
(g90
g71
NtRp2082
(dp2083
g74
(dp2084
sg83
g2069
sg76
(lp2085
g69
(g70
g71
NtRp2086
(dp2087
g74
(dp2088
g82
I5
ssg83
g2082
sg76
(lp2089
g69
(g78
g71
NtRp2090
(dp2091
g74
(dp2092
g82
I4
ssg83
Nsg76
(lp2093
g69
(g85
g71
NtRp2094
(dp2095
g74
(dp2096
sg83
g2090
sg76
(lp2097
g69
(g90
g71
NtRp2098
(dp2099
g74
(dp2100
g94
g95
ssg83
g2094
sg76
(lp2101
S'environ'
p2102
asbag69
(g90
g71
NtRp2103
(dp2104
g74
(dp2105
g101
g102
ssg83
g2094
sg76
(lp2106
S':'
asbag69
(g90
g71
NtRp2107
(dp2108
g74
(dp2109
sg83
g2094
sg76
(lp2110
g69
(g70
g71
NtRp2111
(dp2112
g74
(dp2113
g82
I4
ssg83
g2107
sg76
(lp2114
g69
(g78
g71
NtRp2115
(dp2116
g74
(dp2117
g82
I3
ssg83
Nsg76
(lp2118
g69
(g85
g71
NtRp2119
(dp2120
g74
(dp2121
sg83
g2115
sg76
(lp2122
g69
(g90
g71
NtRp2123
(dp2124
g74
(dp2125
g94
g95
ssg83
g2119
sg76
(lp2126
S'HTTP_ACCEPT'
p2127
asbag69
(g90
g71
NtRp2128
(dp2129
g74
(dp2130
g101
g102
ssg83
g2119
sg76
(lp2131
S':'
asbag69
(g90
g71
NtRp2132
(dp2133
g74
(dp2134
sg83
g2119
sg76
(lp2135
g69
(g70
g71
NtRp2136
(dp2137
g74
(dp2138
g82
I3
ssg83
g2132
sg76
(lp2139
g671
asbasbasbag69
(g85
g71
NtRp2140
(dp2141
g74
(dp2142
sg83
g2115
sg76
(lp2143
g69
(g90
g71
NtRp2144
(dp2145
g74
(dp2146
g94
g95
ssg83
g2140
sg76
(lp2147
S'HTTP_ACCEPT_ENCODING'
p2148
asbag69
(g90
g71
NtRp2149
(dp2150
g74
(dp2151
g101
g102
ssg83
g2140
sg76
(lp2152
S':'
asbag69
(g90
g71
NtRp2153
(dp2154
g74
(dp2155
sg83
g2140
sg76
(lp2156
g69
(g70
g71
NtRp2157
(dp2158
g74
(dp2159
g82
I3
ssg83
g2153
sg76
(lp2160
g693
asbasbasbag69
(g85
g71
NtRp2161
(dp2162
g74
(dp2163
sg83
g2115
sg76
(lp2164
g69
(g90
g71
NtRp2165
(dp2166
g74
(dp2167
g94
g95
ssg83
g2161
sg76
(lp2168
S'HTTP_ACCEPT_LANGUAGE'
p2169
asbag69
(g90
g71
NtRp2170
(dp2171
g74
(dp2172
g101
g102
ssg83
g2161
sg76
(lp2173
S':'
asbag69
(g90
g71
NtRp2174
(dp2175
g74
(dp2176
sg83
g2161
sg76
(lp2177
g69
(g70
g71
NtRp2178
(dp2179
g74
(dp2180
g82
I3
ssg83
g2174
sg76
(lp2181
g715
asbasbasbag69
(g85
g71
NtRp2182
(dp2183
g74
(dp2184
sg83
g2115
sg76
(lp2185
g69
(g90
g71
NtRp2186
(dp2187
g74
(dp2188
g94
g95
ssg83
g2182
sg76
(lp2189
S'HTTP_CONNECTION'
p2190
asbag69
(g90
g71
NtRp2191
(dp2192
g74
(dp2193
g101
g102
ssg83
g2182
sg76
(lp2194
S':'
asbag69
(g90
g71
NtRp2195
(dp2196
g74
(dp2197
sg83
g2182
sg76
(lp2198
g69
(g70
g71
NtRp2199
(dp2200
g74
(dp2201
g82
I3
ssg83
g2195
sg76
(lp2202
g737
asbasbasbag69
(g85
g71
NtRp2203
(dp2204
g74
(dp2205
sg83
g2115
sg76
(lp2206
g69
(g90
g71
NtRp2207
(dp2208
g74
(dp2209
g94
g95
ssg83
g2203
sg76
(lp2210
S'HTTP_COOKIE'
p2211
asbag69
(g90
g71
NtRp2212
(dp2213
g74
(dp2214
g101
g102
ssg83
g2203
sg76
(lp2215
S':'
asbag69
(g90
g71
NtRp2216
(dp2217
g74
(dp2218
sg83
g2203
sg76
(lp2219
g69
(g70
g71
NtRp2220
(dp2221
g74
(dp2222
g82
I3
ssg83
g2216
sg76
(lp2223
g759
asbasbasbag69
(g85
g71
NtRp2224
(dp2225
g74
(dp2226
sg83
g2115
sg76
(lp2227
g69
(g90
g71
NtRp2228
(dp2229
g74
(dp2230
g94
g95
ssg83
g2224
sg76
(lp2231
S'HTTP_HOST'
p2232
asbag69
(g90
g71
NtRp2233
(dp2234
g74
(dp2235
g101
g102
ssg83
g2224
sg76
(lp2236
S':'
asbag69
(g90
g71
NtRp2237
(dp2238
g74
(dp2239
sg83
g2224
sg76
(lp2240
g69
(g70
g71
NtRp2241
(dp2242
g74
(dp2243
g82
I3
ssg83
g2237
sg76
(lp2244
g781
asbasbasbag69
(g85
g71
NtRp2245
(dp2246
g74
(dp2247
sg83
g2115
sg76
(lp2248
g69
(g90
g71
NtRp2249
(dp2250
g74
(dp2251
g94
g95
ssg83
g2245
sg76
(lp2252
S'HTTP_USER_AGENT'
p2253
asbag69
(g90
g71
NtRp2254
(dp2255
g74
(dp2256
g101
g102
ssg83
g2245
sg76
(lp2257
S':'
asbag69
(g90
g71
NtRp2258
(dp2259
g74
(dp2260
sg83
g2245
sg76
(lp2261
g69
(g70
g71
NtRp2262
(dp2263
g74
(dp2264
g82
I3
ssg83
g2258
sg76
(lp2265
g803
asbasbasbag69
(g85
g71
NtRp2266
(dp2267
g74
(dp2268
sg83
g2115
sg76
(lp2269
g69
(g90
g71
NtRp2270
(dp2271
g74
(dp2272
g94
g95
ssg83
g2266
sg76
(lp2273
S'PATH_INFO'
p2274
asbag69
(g90
g71
NtRp2275
(dp2276
g74
(dp2277
g101
g102
ssg83
g2266
sg76
(lp2278
S':'
asbag69
(g90
g71
NtRp2279
(dp2280
g74
(dp2281
sg83
g2266
sg76
(lp2282
g69
(g70
g71
NtRp2283
(dp2284
g74
(dp2285
g82
I3
ssg83
g2279
sg76
(lp2286
g867
asbasbasbag69
(g85
g71
NtRp2287
(dp2288
g74
(dp2289
sg83
g2115
sg76
(lp2290
g69
(g90
g71
NtRp2291
(dp2292
g74
(dp2293
g94
g95
ssg83
g2287
sg76
(lp2294
S'QUERY_STRING'
p2295
asbag69
(g90
g71
NtRp2296
(dp2297
g74
(dp2298
g101
g102
ssg83
g2287
sg76
(lp2299
S':'
asbag69
(g90
g71
NtRp2300
(dp2301
g74
(dp2302
sg83
g2287
sg76
(lp2303
g69
(g70
g71
NtRp2304
(dp2305
g74
(dp2306
g82
I3
ssg83
g2300
sg76
(lp2307
g889
asbasbasbag69
(g85
g71
NtRp2308
(dp2309
g74
(dp2310
sg83
g2115
sg76
(lp2311
g69
(g90
g71
NtRp2312
(dp2313
g74
(dp2314
g94
g95
ssg83
g2308
sg76
(lp2315
S'REMOTE_ADDR'
p2316
asbag69
(g90
g71
NtRp2317
(dp2318
g74
(dp2319
g101
g102
ssg83
g2308
sg76
(lp2320
S':'
asbag69
(g90
g71
NtRp2321
(dp2322
g74
(dp2323
sg83
g2308
sg76
(lp2324
g69
(g70
g71
NtRp2325
(dp2326
g74
(dp2327
g82
I3
ssg83
g2321
sg76
(lp2328
g228
asbasbasbag69
(g85
g71
NtRp2329
(dp2330
g74
(dp2331
sg83
g2115
sg76
(lp2332
g69
(g90
g71
NtRp2333
(dp2334
g74
(dp2335
g94
g95
ssg83
g2329
sg76
(lp2336
S'REMOTE_PORT'
p2337
asbag69
(g90
g71
NtRp2338
(dp2339
g74
(dp2340
g101
g102
ssg83
g2329
sg76
(lp2341
S':'
asbag69
(g90
g71
NtRp2342
(dp2343
g74
(dp2344
sg83
g2329
sg76
(lp2345
g69
(g70
g71
NtRp2346
(dp2347
g74
(dp2348
g82
I3
ssg83
g2342
sg76
(lp2349
g932
asbasbasbag69
(g85
g71
NtRp2350
(dp2351
g74
(dp2352
sg83
g2115
sg76
(lp2353
g69
(g90
g71
NtRp2354
(dp2355
g74
(dp2356
g94
g95
ssg83
g2350
sg76
(lp2357
S'REQUEST_METHOD'
p2358
asbag69
(g90
g71
NtRp2359
(dp2360
g74
(dp2361
g101
g102
ssg83
g2350
sg76
(lp2362
S':'
asbag69
(g90
g71
NtRp2363
(dp2364
g74
(dp2365
sg83
g2350
sg76
(lp2366
g69
(g70
g71
NtRp2367
(dp2368
g74
(dp2369
g82
I3
ssg83
g2363
sg76
(lp2370
g954
asbasbasbag69
(g85
g71
NtRp2371
(dp2372
g74
(dp2373
sg83
g2115
sg76
(lp2374
g69
(g90
g71
NtRp2375
(dp2376
g74
(dp2377
g94
g95
ssg83
g2371
sg76
(lp2378
S'SCRIPT_NAME'
p2379
asbag69
(g90
g71
NtRp2380
(dp2381
g74
(dp2382
g101
g102
ssg83
g2371
sg76
(lp2383
S':'
asbag69
(g90
g71
NtRp2384
(dp2385
g74
(dp2386
sg83
g2371
sg76
(lp2387
g69
(g70
g71
NtRp2388
(dp2389
g74
(dp2390
g82
I3
ssg83
g2384
sg76
(lp2391
S''
asbasbasbag69
(g85
g71
NtRp2392
(dp2393
g74
(dp2394
sg83
g2115
sg76
(lp2395
g69
(g90
g71
NtRp2396
(dp2397
g74
(dp2398
g94
g95
ssg83
g2392
sg76
(lp2399
S'SERVER_NAME'
p2400
asbag69
(g90
g71
NtRp2401
(dp2402
g74
(dp2403
g101
g102
ssg83
g2392
sg76
(lp2404
S':'
asbag69
(g90
g71
NtRp2405
(dp2406
g74
(dp2407
sg83
g2392
sg76
(lp2408
g69
(g70
g71
NtRp2409
(dp2410
g74
(dp2411
g82
I3
ssg83
g2405
sg76
(lp2412
g997
asbasbasbag69
(g85
g71
NtRp2413
(dp2414
g74
(dp2415
sg83
g2115
sg76
(lp2416
g69
(g90
g71
NtRp2417
(dp2418
g74
(dp2419
g94
g95
ssg83
g2413
sg76
(lp2420
S'SERVER_PORT'
p2421
asbag69
(g90
g71
NtRp2422
(dp2423
g74
(dp2424
g101
g102
ssg83
g2413
sg76
(lp2425
S':'
asbag69
(g90
g71
NtRp2426
(dp2427
g74
(dp2428
sg83
g2413
sg76
(lp2429
g69
(g70
g71
NtRp2430
(dp2431
g74
(dp2432
g82
I3
ssg83
g2426
sg76
(lp2433
g1019
asbasbasbag69
(g85
g71
NtRp2434
(dp2435
g74
(dp2436
sg83
g2115
sg76
(lp2437
g69
(g90
g71
NtRp2438
(dp2439
g74
(dp2440
g94
g95
ssg83
g2434
sg76
(lp2441
S'SERVER_PROTOCOL'
p2442
asbag69
(g90
g71
NtRp2443
(dp2444
g74
(dp2445
g101
g102
ssg83
g2434
sg76
(lp2446
S':'
asbag69
(g90
g71
NtRp2447
(dp2448
g74
(dp2449
sg83
g2434
sg76
(lp2450
g69
(g70
g71
NtRp2451
(dp2452
g74
(dp2453
g82
I3
ssg83
g2447
sg76
(lp2454
g1041
asbasbasbag69
(g85
g71
NtRp2455
(dp2456
g74
(dp2457
sg83
g2115
sg76
(lp2458
g69
(g90
g71
NtRp2459
(dp2460
g74
(dp2461
g94
g95
ssg83
g2455
sg76
(lp2462
S'SERVER_SOFTWARE'
p2463
asbag69
(g90
g71
NtRp2464
(dp2465
g74
(dp2466
g101
g102
ssg83
g2455
sg76
(lp2467
S':'
asbag69
(g90
g71
NtRp2468
(dp2469
g74
(dp2470
sg83
g2455
sg76
(lp2471
g69
(g70
g71
NtRp2472
(dp2473
g74
(dp2474
g82
I3
ssg83
g2468
sg76
(lp2475
g1063
asbasbasbag69
(g85
g71
NtRp2476
(dp2477
g74
(dp2478
sg83
g2115
sg76
(lp2479
g69
(g90
g71
NtRp2480
(dp2481
g74
(dp2482
g94
g95
ssg83
g2476
sg76
(lp2483
S'wsgi.errors'
p2484
asbag69
(g90
g71
NtRp2485
(dp2486
g74
(dp2487
g101
g102
ssg83
g2476
sg76
(lp2488
S':'
asbag69
(g90
g71
NtRp2489
(dp2490
g74
(dp2491
sg83
g2476
sg76
(lp2492
g69
(g70
g71
NtRp2493
(dp2494
g74
(dp2495
g82
I3
ssg83
g2489
sg76
(lp2496
S"<open file '<stderr>', mode 'w' at 0x7f46c33da270>"
p2497
asbasbasbag69
(g85
g71
NtRp2498
(dp2499
g74
(dp2500
sg83
g2115
sg76
(lp2501
g69
(g90
g71
NtRp2502
(dp2503
g74
(dp2504
g94
g95
ssg83
g2498
sg76
(lp2505
S'wsgi.file_wrapper'
p2506
asbag69
(g90
g71
NtRp2507
(dp2508
g74
(dp2509
g101
g102
ssg83
g2498
sg76
(lp2510
S':'
asbag69
(g90
g71
NtRp2511
(dp2512
g74
(dp2513
sg83
g2498
sg76
(lp2514
g69
(g70
g71
NtRp2515
(dp2516
g74
(dp2517
g82
I3
ssg83
g2511
sg76
(lp2518
S'<class wsgiref.util.FileWrapper at 0x22d1940>'
p2519
asbasbasbag69
(g85
g71
NtRp2520
(dp2521
g74
(dp2522
sg83
g2115
sg76
(lp2523
g69
(g90
g71
NtRp2524
(dp2525
g74
(dp2526
g94
g95
ssg83
g2520
sg76
(lp2527
S'wsgi.input'
p2528
asbag69
(g90
g71
NtRp2529
(dp2530
g74
(dp2531
g101
g102
ssg83
g2520
sg76
(lp2532
S':'
asbag69
(g90
g71
NtRp2533
(dp2534
g74
(dp2535
sg83
g2520
sg76
(lp2536
g69
(g70
g71
NtRp2537
(dp2538
g74
(dp2539
g82
I3
ssg83
g2533
sg76
(lp2540
S'<cStringIO.StringO object at 0x7f46a050cae8>'
p2541
asbasbasbag69
(g85
g71
NtRp2542
(dp2543
g74
(dp2544
sg83
g2115
sg76
(lp2545
g69
(g90
g71
NtRp2546
(dp2547
g74
(dp2548
g94
g95
ssg83
g2542
sg76
(lp2549
S'wsgi.multiprocess'
p2550
asbag69
(g90
g71
NtRp2551
(dp2552
g74
(dp2553
g101
g102
ssg83
g2542
sg76
(lp2554
S':'
asbag69
(g90
g71
NtRp2555
(dp2556
g74
(dp2557
sg83
g2542
sg76
(lp2558
g69
(g70
g71
NtRp2559
(dp2560
g74
(dp2561
g82
I3
ssg83
g2555
sg76
(lp2562
g112
asbasbasbag69
(g85
g71
NtRp2563
(dp2564
g74
(dp2565
sg83
g2115
sg76
(lp2566
g69
(g90
g71
NtRp2567
(dp2568
g74
(dp2569
g94
g95
ssg83
g2563
sg76
(lp2570
S'wsgi.multithread'
p2571
asbag69
(g90
g71
NtRp2572
(dp2573
g74
(dp2574
g101
g102
ssg83
g2563
sg76
(lp2575
S':'
asbag69
(g90
g71
NtRp2576
(dp2577
g74
(dp2578
sg83
g2563
sg76
(lp2579
g69
(g70
g71
NtRp2580
(dp2581
g74
(dp2582
g82
I3
ssg83
g2576
sg76
(lp2583
g1303
asbasbasbag69
(g85
g71
NtRp2584
(dp2585
g74
(dp2586
sg83
g2115
sg76
(lp2587
g69
(g90
g71
NtRp2588
(dp2589
g74
(dp2590
g94
g95
ssg83
g2584
sg76
(lp2591
S'wsgi.run_once'
p2592
asbag69
(g90
g71
NtRp2593
(dp2594
g74
(dp2595
g101
g102
ssg83
g2584
sg76
(lp2596
S':'
asbag69
(g90
g71
NtRp2597
(dp2598
g74
(dp2599
sg83
g2584
sg76
(lp2600
g69
(g70
g71
NtRp2601
(dp2602
g74
(dp2603
g82
I3
ssg83
g2597
sg76
(lp2604
g112
asbasbasbag69
(g85
g71
NtRp2605
(dp2606
g74
(dp2607
sg83
g2115
sg76
(lp2608
g69
(g90
g71
NtRp2609
(dp2610
g74
(dp2611
g94
g95
ssg83
g2605
sg76
(lp2612
S'wsgi.url_scheme'
p2613
asbag69
(g90
g71
NtRp2614
(dp2615
g74
(dp2616
g101
g102
ssg83
g2605
sg76
(lp2617
S':'
asbag69
(g90
g71
NtRp2618
(dp2619
g74
(dp2620
sg83
g2605
sg76
(lp2621
g69
(g70
g71
NtRp2622
(dp2623
g74
(dp2624
g82
I3
ssg83
g2618
sg76
(lp2625
g1346
asbasbasbag69
(g85
g71
NtRp2626
(dp2627
g74
(dp2628
sg83
g2115
sg76
(lp2629
g69
(g90
g71
NtRp2630
(dp2631
g74
(dp2632
g94
g95
ssg83
g2626
sg76
(lp2633
S'wsgi.version'
p2634
asbag69
(g90
g71
NtRp2635
(dp2636
g74
(dp2637
g101
g102
ssg83
g2626
sg76
(lp2638
S':'
asbag69
(g90
g71
NtRp2639
(dp2640
g74
(dp2641
sg83
g2626
sg76
(lp2642
g69
(g70
g71
NtRp2643
(dp2644
g74
(dp2645
g82
I3
ssg83
g2639
sg76
(lp2646
S'1'
asbasbasbasbasbasbasbasbasbasbasbasbasbsS'frames'
p2647
(lp2648
(dp2649
S'file'
p2650
S'/home/tuna/cyberagent/IgoR/C_Sources/Server/igor-assistant-ca-2012/gluon/restricted.py'
p2651
sS'dump'
p2652
(dp2653
S'code'
p2654
S"'# -*- coding: utf-8 -*-\\n# this file is released ...lient_data\\nresponse._vars=response._caller(call)\\n'"
p2655
sS'layer'
p2656
S"'/home/tuna/cyberagent/IgoR/C_Sources/Server/igor...-ca-2012/applications/igor/controllers/project.py'"
p2657
sS'global compile2'
p2658
S'<function compile2>'
p2659
sS'ccode'
p2660
S'undefined'
p2661
ssS'lnum'
p2662
I204
sS'lines'
p2663
(dp2664
I199
S"    environment['__name__'] = '__restricted__'"
p2665
sI200
S'    try:'
p2666
sI201
S'        if type(code) == types.CodeType:'
p2667
sI202
S'            ccode = code'
p2668
sI203
S'        else:'
p2669
sI204
S'            ccode = compile2(code,layer)'
p2670
sI205
S'        exec ccode in environment'
p2671
sI206
S'    except HTTP:'
p2672
sI207
S'        raise'
p2673
sI208
S'    except RestrictedError:'
p2674
ssS'call'
p2675
S"(code='# -*- coding: utf-8 -*-\\n# this file is released ...lient_data\\nresponse._vars=response._caller(call)\\n', environment={'A': <class 'gluon.html.A'>, 'Auth': <class 'gluon.tools.Auth'>, 'B': <class 'gluon.html.B'>, 'BEAUTIFY': <class 'gluon.html.BEAUTIFY'>, 'BODY': <class 'gluon.html.BODY'>, 'BR': <class 'gluon.html.BR'>, 'BUTTON': <class 'gluon.html.BUTTON'>, 'CAT': <class 'gluon.html.CAT'>, 'CENTER': <class 'gluon.html.CENTER'>, 'CLEANUP': <class 'gluon.validators.CLEANUP'>, ...}, layer='/home/tuna/cyberagent/IgoR/C_Sources/Server/igor...-ca-2012/applications/igor/controllers/project.py')"
p2676
sS'func'
p2677
S'restricted'
p2678
sa(dp2679
g2650
S'/home/tuna/cyberagent/IgoR/C_Sources/Server/igor-assistant-ca-2012/gluon/restricted.py'
p2680
sg2652
(dp2681
S'builtincompile'
p2682
S'<built-in function compile>'
p2683
sS'code'
p2684
S"'# -*- coding: utf-8 -*-\\n# this file is released ...lient_data\\nresponse._vars=response._caller(call)\\n'"
p2685
sS'code.rstrip'
p2686
S'<built-in method rstrip of str object>'
p2687
sS').replace'
p2688
g2661
sS'layer'
p2689
S"'/home/tuna/cyberagent/IgoR/C_Sources/Server/igor...-ca-2012/applications/igor/controllers/project.py'"
p2690
ssg2662
I189
sg2663
(dp2691
I192
S'    """'
p2692
sI193
S'    runs code in environment and returns the output. if an exception occurs'
p2693
sI184
S''
sI185
S'def compile2(code,layer):'
p2694
sI186
S'    """'
p2695
sI187
S"    The +'\\n' is necessary else compile fails when code ends in a comment."
p2696
sI188
S'    """'
p2697
sI189
S"    return compile(code.rstrip().replace('\\r\\n','\\n')+'\\n', layer, 'exec')"
p2698
sI190
S''
sI191
S"def restricted(code, environment=None, layer='Unknown'):"
p2699
ssg2675
S"(code='# -*- coding: utf-8 -*-\\n# this file is released ...lient_data\\nresponse._vars=response._caller(call)\\n', layer='/home/tuna/cyberagent/IgoR/C_Sources/Server/igor...-ca-2012/applications/igor/controllers/project.py')"
p2700
sg2677
S'compile2'
p2701
sasS'pyver'
p2702
S'Python 2.7.3: /usr/bin/python'
p2703
sS'session'
p2704
g69
(g70
g71
NtRp2705
(dp2706
g74
(dp2707
sg76
(lp2708
g69
(g78
g71
NtRp2709
(dp2710
g74
(dp2711
g82
I5
ssg83
Nsg76
(lp2712
sbasbsS'etype'
p2713
S"<type 'exceptions.SyntaxError'>"
p2714
sS'date'
p2715
S'Fri Aug  3 00:51:48 2012'
p2716
sS'response'
p2717
g69
(g70
g71
NtRp2718
(dp2719
g74
(dp2720
sg76
(lp2721
g69
(g78
g71
NtRp2722
(dp2723
g74
(dp2724
g82
I5
ssg83
Nsg76
(lp2725
g69
(g85
g71
NtRp2726
(dp2727
g74
(dp2728
sg83
g2722
sg76
(lp2729
g69
(g90
g71
NtRp2730
(dp2731
g74
(dp2732
g94
g95
ssg83
g2726
sg76
(lp2733
g193
asbag69
(g90
g71
NtRp2734
(dp2735
g74
(dp2736
g101
g102
ssg83
g2726
sg76
(lp2737
S':'
asbag69
(g90
g71
NtRp2738
(dp2739
g74
(dp2740
sg83
g2726
sg76
(lp2741
g69
(g70
g71
NtRp2742
(dp2743
g74
(dp2744
g82
I5
ssg83
g2738
sg76
(lp2745
S'<cStringIO.StringO object at 0x7f4680145378>'
p2746
asbasbasbag69
(g85
g71
NtRp2747
(dp2748
g74
(dp2749
sg83
g2722
sg76
(lp2750
g69
(g90
g71
NtRp2751
(dp2752
g74
(dp2753
g94
g95
ssg83
g2747
sg76
(lp2754
g259
asbag69
(g90
g71
NtRp2755
(dp2756
g74
(dp2757
g101
g102
ssg83
g2747
sg76
(lp2758
S':'
asbag69
(g90
g71
NtRp2759
(dp2760
g74
(dp2761
sg83
g2747
sg76
(lp2762
g69
(g70
g71
NtRp2763
(dp2764
g74
(dp2765
g82
I5
ssg83
g2759
sg76
(lp2766
g69
(g78
g71
NtRp2767
(dp2768
g74
(dp2769
g82
I4
ssg83
Nsg76
(lp2770
g69
(g85
g71
NtRp2771
(dp2772
g74
(dp2773
sg83
g2767
sg76
(lp2774
g69
(g90
g71
NtRp2775
(dp2776
g74
(dp2777
g94
g95
ssg83
g2771
sg76
(lp2778
S'session_id_igor'
p2779
asbag69
(g90
g71
NtRp2780
(dp2781
g74
(dp2782
g101
g102
ssg83
g2771
sg76
(lp2783
S':'
asbag69
(g90
g71
NtRp2784
(dp2785
g74
(dp2786
sg83
g2771
sg76
(lp2787
g69
(g70
g71
NtRp2788
(dp2789
g74
(dp2790
g82
I4
ssg83
g2784
sg76
(lp2791
g69
(g78
g71
NtRp2792
(dp2793
g74
(dp2794
g82
I3
ssg83
Nsg76
(lp2795
g69
(g85
g71
NtRp2796
(dp2797
g74
(dp2798
sg83
g2792
sg76
(lp2799
g69
(g90
g71
NtRp2800
(dp2801
g74
(dp2802
g94
g95
ssg83
g2796
sg76
(lp2803
g309
asbag69
(g90
g71
NtRp2804
(dp2805
g74
(dp2806
g101
g102
ssg83
g2796
sg76
(lp2807
S':'
asbag69
(g90
g71
NtRp2808
(dp2809
g74
(dp2810
sg83
g2796
sg76
(lp2811
g69
(g70
g71
NtRp2812
(dp2813
g74
(dp2814
g82
I3
ssg83
g2808
sg76
(lp2815
S''
asbasbasbag69
(g85
g71
NtRp2816
(dp2817
g74
(dp2818
sg83
g2792
sg76
(lp2819
g69
(g90
g71
NtRp2820
(dp2821
g74
(dp2822
g94
g95
ssg83
g2816
sg76
(lp2823
g330
asbag69
(g90
g71
NtRp2824
(dp2825
g74
(dp2826
g101
g102
ssg83
g2816
sg76
(lp2827
S':'
asbag69
(g90
g71
NtRp2828
(dp2829
g74
(dp2830
sg83
g2816
sg76
(lp2831
g69
(g70
g71
NtRp2832
(dp2833
g74
(dp2834
g82
I3
ssg83
g2828
sg76
(lp2835
S''
asbasbasbag69
(g85
g71
NtRp2836
(dp2837
g74
(dp2838
sg83
g2792
sg76
(lp2839
g69
(g90
g71
NtRp2840
(dp2841
g74
(dp2842
g94
g95
ssg83
g2836
sg76
(lp2843
g351
asbag69
(g90
g71
NtRp2844
(dp2845
g74
(dp2846
g101
g102
ssg83
g2836
sg76
(lp2847
S':'
asbag69
(g90
g71
NtRp2848
(dp2849
g74
(dp2850
sg83
g2836
sg76
(lp2851
g69
(g70
g71
NtRp2852
(dp2853
g74
(dp2854
g82
I3
ssg83
g2848
sg76
(lp2855
S''
asbasbasbag69
(g85
g71
NtRp2856
(dp2857
g74
(dp2858
sg83
g2792
sg76
(lp2859
g69
(g90
g71
NtRp2860
(dp2861
g74
(dp2862
g94
g95
ssg83
g2856
sg76
(lp2863
g372
asbag69
(g90
g71
NtRp2864
(dp2865
g74
(dp2866
g101
g102
ssg83
g2856
sg76
(lp2867
S':'
asbag69
(g90
g71
NtRp2868
(dp2869
g74
(dp2870
sg83
g2856
sg76
(lp2871
g69
(g70
g71
NtRp2872
(dp2873
g74
(dp2874
g82
I3
ssg83
g2868
sg76
(lp2875
S''
asbasbasbag69
(g85
g71
NtRp2876
(dp2877
g74
(dp2878
sg83
g2792
sg76
(lp2879
g69
(g90
g71
NtRp2880
(dp2881
g74
(dp2882
g94
g95
ssg83
g2876
sg76
(lp2883
g393
asbag69
(g90
g71
NtRp2884
(dp2885
g74
(dp2886
g101
g102
ssg83
g2876
sg76
(lp2887
S':'
asbag69
(g90
g71
NtRp2888
(dp2889
g74
(dp2890
sg83
g2876
sg76
(lp2891
g69
(g70
g71
NtRp2892
(dp2893
g74
(dp2894
g82
I3
ssg83
g2888
sg76
(lp2895
S''
asbasbasbag69
(g85
g71
NtRp2896
(dp2897
g74
(dp2898
sg83
g2792
sg76
(lp2899
g69
(g90
g71
NtRp2900
(dp2901
g74
(dp2902
g94
g95
ssg83
g2896
sg76
(lp2903
g414
asbag69
(g90
g71
NtRp2904
(dp2905
g74
(dp2906
g101
g102
ssg83
g2896
sg76
(lp2907
S':'
asbag69
(g90
g71
NtRp2908
(dp2909
g74
(dp2910
sg83
g2896
sg76
(lp2911
g69
(g70
g71
NtRp2912
(dp2913
g74
(dp2914
g82
I3
ssg83
g2908
sg76
(lp2915
S'/'
asbasbasbag69
(g85
g71
NtRp2916
(dp2917
g74
(dp2918
sg83
g2792
sg76
(lp2919
g69
(g90
g71
NtRp2920
(dp2921
g74
(dp2922
g94
g95
ssg83
g2916
sg76
(lp2923
g435
asbag69
(g90
g71
NtRp2924
(dp2925
g74
(dp2926
g101
g102
ssg83
g2916
sg76
(lp2927
S':'
asbag69
(g90
g71
NtRp2928
(dp2929
g74
(dp2930
sg83
g2916
sg76
(lp2931
g69
(g70
g71
NtRp2932
(dp2933
g74
(dp2934
g82
I3
ssg83
g2928
sg76
(lp2935
S''
asbasbasbag69
(g85
g71
NtRp2936
(dp2937
g74
(dp2938
sg83
g2792
sg76
(lp2939
g69
(g90
g71
NtRp2940
(dp2941
g74
(dp2942
g94
g95
ssg83
g2936
sg76
(lp2943
g456
asbag69
(g90
g71
NtRp2944
(dp2945
g74
(dp2946
g101
g102
ssg83
g2936
sg76
(lp2947
S':'
asbag69
(g90
g71
NtRp2948
(dp2949
g74
(dp2950
sg83
g2936
sg76
(lp2951
g69
(g70
g71
NtRp2952
(dp2953
g74
(dp2954
g82
I3
ssg83
g2948
sg76
(lp2955
S''
asbasbasbasbasbasbasbasbasbasbasbag69
(g85
g71
NtRp2956
(dp2957
g74
(dp2958
sg83
g2722
sg76
(lp2959
g69
(g90
g71
NtRp2960
(dp2961
g74
(dp2962
g94
g95
ssg83
g2956
sg76
(lp2963
S'delimiters'
p2964
asbag69
(g90
g71
NtRp2965
(dp2966
g74
(dp2967
g101
g102
ssg83
g2956
sg76
(lp2968
S':'
asbag69
(g90
g71
NtRp2969
(dp2970
g74
(dp2971
sg83
g2956
sg76
(lp2972
g69
(g70
g71
NtRp2973
(dp2974
g74
(dp2975
g82
I5
ssg83
g2969
sg76
(lp2976
g69
(g78
g71
NtRp2977
(dp2978
g74
(dp2979
g82
I4
ssg83
Nsg76
(lp2980
g69
(g85
g71
NtRp2981
(dp2982
g74
(dp2983
sg83
g2977
sg76
(lp2984
g69
(g90
g71
NtRp2985
(dp2986
g74
(dp2987
sg83
g2981
sg76
(lp2988
g69
(g70
g71
NtRp2989
(dp2990
g74
(dp2991
g82
I4
ssg83
g2985
sg76
(lp2992
S'{{'
p2993
asbasbasbag69
(g85
g71
NtRp2994
(dp2995
g74
(dp2996
sg83
g2977
sg76
(lp2997
g69
(g90
g71
NtRp2998
(dp2999
g74
(dp3000
sg83
g2994
sg76
(lp3001
g69
(g70
g71
NtRp3002
(dp3003
g74
(dp3004
g82
I4
ssg83
g2998
sg76
(lp3005
S'}}'
p3006
asbasbasbasbasbasbasbag69
(g85
g71
NtRp3007
(dp3008
g74
(dp3009
sg83
g2722
sg76
(lp3010
g69
(g90
g71
NtRp3011
(dp3012
g74
(dp3013
g94
g95
ssg83
g3007
sg76
(lp3014
S'files'
p3015
asbag69
(g90
g71
NtRp3016
(dp3017
g74
(dp3018
g101
g102
ssg83
g3007
sg76
(lp3019
S':'
asbag69
(g90
g71
NtRp3020
(dp3021
g74
(dp3022
sg83
g3007
sg76
(lp3023
g69
(g70
g71
NtRp3024
(dp3025
g74
(dp3026
g82
I5
ssg83
g3020
sg76
(lp3027
g69
(g78
g71
NtRp3028
(dp3029
g74
(dp3030
g82
I4
ssg83
Nsg76
(lp3031
sbasbasbasbag69
(g85
g71
NtRp3032
(dp3033
g74
(dp3034
sg83
g2722
sg76
(lp3035
g69
(g90
g71
NtRp3036
(dp3037
g74
(dp3038
g94
g95
ssg83
g3032
sg76
(lp3039
S'flash'
p3040
asbag69
(g90
g71
NtRp3041
(dp3042
g74
(dp3043
g101
g102
ssg83
g3032
sg76
(lp3044
S':'
asbag69
(g90
g71
NtRp3045
(dp3046
g74
(dp3047
sg83
g3032
sg76
(lp3048
g69
(g70
g71
NtRp3049
(dp3050
g74
(dp3051
g82
I5
ssg83
g3045
sg76
(lp3052
S''
asbasbasbag69
(g85
g71
NtRp3053
(dp3054
g74
(dp3055
sg83
g2722
sg76
(lp3056
g69
(g90
g71
NtRp3057
(dp3058
g74
(dp3059
g94
g95
ssg83
g3053
sg76
(lp3060
S'generic_patterns'
p3061
asbag69
(g90
g71
NtRp3062
(dp3063
g74
(dp3064
g101
g102
ssg83
g3053
sg76
(lp3065
S':'
asbag69
(g90
g71
NtRp3066
(dp3067
g74
(dp3068
sg83
g3053
sg76
(lp3069
g69
(g70
g71
NtRp3070
(dp3071
g74
(dp3072
g82
I5
ssg83
g3066
sg76
(lp3073
g69
(g78
g71
NtRp3074
(dp3075
g74
(dp3076
g82
I4
ssg83
Nsg76
(lp3077
g69
(g85
g71
NtRp3078
(dp3079
g74
(dp3080
sg83
g3074
sg76
(lp3081
g69
(g90
g71
NtRp3082
(dp3083
g74
(dp3084
sg83
g3078
sg76
(lp3085
g69
(g70
g71
NtRp3086
(dp3087
g74
(dp3088
g82
I4
ssg83
g3082
sg76
(lp3089
S'*'
asbasbasbasbasbasbasbag69
(g85
g71
NtRp3090
(dp3091
g74
(dp3092
sg83
g2722
sg76
(lp3093
g69
(g90
g71
NtRp3094
(dp3095
g74
(dp3096
g94
g95
ssg83
g3090
sg76
(lp3097
S'headers'
p3098
asbag69
(g90
g71
NtRp3099
(dp3100
g74
(dp3101
g101
g102
ssg83
g3090
sg76
(lp3102
S':'
asbag69
(g90
g71
NtRp3103
(dp3104
g74
(dp3105
sg83
g3090
sg76
(lp3106
g69
(g70
g71
NtRp3107
(dp3108
g74
(dp3109
g82
I5
ssg83
g3103
sg76
(lp3110
g69
(g78
g71
NtRp3111
(dp3112
g74
(dp3113
g82
I4
ssg83
Nsg76
(lp3114
g69
(g85
g71
NtRp3115
(dp3116
g74
(dp3117
sg83
g3111
sg76
(lp3118
g69
(g90
g71
NtRp3119
(dp3120
g74
(dp3121
g94
g95
ssg83
g3115
sg76
(lp3122
S'Cache-Control'
p3123
asbag69
(g90
g71
NtRp3124
(dp3125
g74
(dp3126
g101
g102
ssg83
g3115
sg76
(lp3127
S':'
asbag69
(g90
g71
NtRp3128
(dp3129
g74
(dp3130
sg83
g3115
sg76
(lp3131
g69
(g70
g71
NtRp3132
(dp3133
g74
(dp3134
g82
I4
ssg83
g3128
sg76
(lp3135
S'no-store, no-cache, must-revalidate, post-check=0, pre-check=0'
p3136
asbasbasbag69
(g85
g71
NtRp3137
(dp3138
g74
(dp3139
sg83
g3111
sg76
(lp3140
g69
(g90
g71
NtRp3141
(dp3142
g74
(dp3143
g94
g95
ssg83
g3137
sg76
(lp3144
S'Content-Type'
p3145
asbag69
(g90
g71
NtRp3146
(dp3147
g74
(dp3148
g101
g102
ssg83
g3137
sg76
(lp3149
S':'
asbag69
(g90
g71
NtRp3150
(dp3151
g74
(dp3152
sg83
g3137
sg76
(lp3153
g69
(g70
g71
NtRp3154
(dp3155
g74
(dp3156
g82
I4
ssg83
g3150
sg76
(lp3157
S'text/html; charset=utf-8'
p3158
asbasbasbag69
(g85
g71
NtRp3159
(dp3160
g74
(dp3161
sg83
g3111
sg76
(lp3162
g69
(g90
g71
NtRp3163
(dp3164
g74
(dp3165
g94
g95
ssg83
g3159
sg76
(lp3166
S'Expires'
p3167
asbag69
(g90
g71
NtRp3168
(dp3169
g74
(dp3170
g101
g102
ssg83
g3159
sg76
(lp3171
S':'
asbag69
(g90
g71
NtRp3172
(dp3173
g74
(dp3174
sg83
g3159
sg76
(lp3175
g69
(g70
g71
NtRp3176
(dp3177
g74
(dp3178
g82
I4
ssg83
g3172
sg76
(lp3179
S'Thu, 02 Aug 2012 17:51:48 GMT'
p3180
asbasbasbag69
(g85
g71
NtRp3181
(dp3182
g74
(dp3183
sg83
g3111
sg76
(lp3184
g69
(g90
g71
NtRp3185
(dp3186
g74
(dp3187
g94
g95
ssg83
g3181
sg76
(lp3188
S'Pragma'
p3189
asbag69
(g90
g71
NtRp3190
(dp3191
g74
(dp3192
g101
g102
ssg83
g3181
sg76
(lp3193
S':'
asbag69
(g90
g71
NtRp3194
(dp3195
g74
(dp3196
sg83
g3181
sg76
(lp3197
g69
(g70
g71
NtRp3198
(dp3199
g74
(dp3200
g82
I4
ssg83
g3194
sg76
(lp3201
S'no-cache'
p3202
asbasbasbag69
(g85
g71
NtRp3203
(dp3204
g74
(dp3205
sg83
g3111
sg76
(lp3206
g69
(g90
g71
NtRp3207
(dp3208
g74
(dp3209
g94
g95
ssg83
g3203
sg76
(lp3210
S'X-Powered-By'
p3211
asbag69
(g90
g71
NtRp3212
(dp3213
g74
(dp3214
g101
g102
ssg83
g3203
sg76
(lp3215
S':'
asbag69
(g90
g71
NtRp3216
(dp3217
g74
(dp3218
sg83
g3203
sg76
(lp3219
g69
(g70
g71
NtRp3220
(dp3221
g74
(dp3222
g82
I4
ssg83
g3216
sg76
(lp3223
S'web2py'
p3224
asbasbasbasbasbasbasbag69
(g85
g71
NtRp3225
(dp3226
g74
(dp3227
sg83
g2722
sg76
(lp3228
g69
(g90
g71
NtRp3229
(dp3230
g74
(dp3231
g94
g95
ssg83
g3225
sg76
(lp3232
S'menu'
p3233
asbag69
(g90
g71
NtRp3234
(dp3235
g74
(dp3236
g101
g102
ssg83
g3225
sg76
(lp3237
S':'
asbag69
(g90
g71
NtRp3238
(dp3239
g74
(dp3240
sg83
g3225
sg76
(lp3241
g69
(g70
g71
NtRp3242
(dp3243
g74
(dp3244
g82
I5
ssg83
g3238
sg76
(lp3245
g69
(g78
g71
NtRp3246
(dp3247
g74
(dp3248
g82
I4
ssg83
Nsg76
(lp3249
g69
(g85
g71
NtRp3250
(dp3251
g74
(dp3252
sg83
g3246
sg76
(lp3253
g69
(g90
g71
NtRp3254
(dp3255
g74
(dp3256
sg83
g3250
sg76
(lp3257
g69
(g70
g71
NtRp3258
(dp3259
g74
(dp3260
g82
I4
ssg83
g3254
sg76
(lp3261
g69
(g78
g71
NtRp3262
(dp3263
g74
(dp3264
g82
I3
ssg83
Nsg76
(lp3265
g69
(g85
g71
NtRp3266
(dp3267
g74
(dp3268
sg83
g3262
sg76
(lp3269
g69
(g90
g71
NtRp3270
(dp3271
g74
(dp3272
sg83
g3266
sg76
(lp3273
g69
(g70
g71
NtRp3274
(dp3275
g74
(dp3276
g82
I3
ssg83
g3270
sg76
(lp3277
cgluon.languages
lazyT_unpickle
p3278
(S't\x04\x00\x00\x00Home'
tRp3279
asbasbasbag69
(g85
g71
NtRp3280
(dp3281
g74
(dp3282
sg83
g3262
sg76
(lp3283
g69
(g90
g71
NtRp3284
(dp3285
g74
(dp3286
sg83
g3280
sg76
(lp3287
g69
(g70
g71
NtRp3288
(dp3289
g74
(dp3290
g82
I3
ssg83
g3284
sg76
(lp3291
g112
asbasbasbag69
(g85
g71
NtRp3292
(dp3293
g74
(dp3294
sg83
g3262
sg76
(lp3295
g69
(g90
g71
NtRp3296
(dp3297
g74
(dp3298
sg83
g3292
sg76
(lp3299
g69
(g70
g71
NtRp3300
(dp3301
g74
(dp3302
g82
I3
ssg83
g3296
sg76
(lp3303
S'/igor/default/index'
p3304
asbasbasbag69
(g85
g71
NtRp3305
(dp3306
g74
(dp3307
sg83
g3262
sg76
(lp3308
g69
(g90
g71
NtRp3309
(dp3310
g74
(dp3311
sg83
g3305
sg76
(lp3312
g69
(g70
g71
NtRp3313
(dp3314
g74
(dp3315
g82
I3
ssg83
g3309
sg76
(lp3316
g69
(g78
g71
NtRp3317
(dp3318
g74
(dp3319
g82
I2
ssg83
Nsg76
(lp3320
sbasbasbasbasbasbasbasbag69
(g85
g71
NtRp3321
(dp3322
g74
(dp3323
sg83
g3246
sg76
(lp3324
g69
(g90
g71
NtRp3325
(dp3326
g74
(dp3327
sg83
g3321
sg76
(lp3328
g69
(g70
g71
NtRp3329
(dp3330
g74
(dp3331
g82
I4
ssg83
g3325
sg76
(lp3332
g69
(g78
g71
NtRp3333
(dp3334
g74
(dp3335
g82
I3
ssg83
Nsg76
(lp3336
g69
(g85
g71
NtRp3337
(dp3338
g74
(dp3339
sg83
g3333
sg76
(lp3340
g69
(g90
g71
NtRp3341
(dp3342
g74
(dp3343
sg83
g3337
sg76
(lp3344
g69
(g70
g71
NtRp3345
(dp3346
g74
(dp3347
g82
I3
ssg83
g3341
sg76
(lp3348
g69
(cgluon.html
SPAN
p3349
g71
NtRp3350
(dp3351
g74
(dp3352
g94
S'color:yellow'
p3353
ssg83
Nsg76
(lp3354
g3224
asbasbasbasbag69
(g85
g71
NtRp3355
(dp3356
g74
(dp3357
sg83
g3333
sg76
(lp3358
g69
(g90
g71
NtRp3359
(dp3360
g74
(dp3361
sg83
g3355
sg76
(lp3362
g69
(g70
g71
NtRp3363
(dp3364
g74
(dp3365
g82
I3
ssg83
g3359
sg76
(lp3366
g112
asbasbasbag69
(g85
g71
NtRp3367
(dp3368
g74
(dp3369
sg83
g3333
sg76
(lp3370
g69
(g90
g71
NtRp3371
(dp3372
g74
(dp3373
sg83
g3367
sg76
(lp3374
g69
(g70
g71
NtRp3375
(dp3376
g74
(dp3377
g82
I3
ssg83
g3371
sg76
(lp3378
S'None'
p3379
asbasbasbag69
(g85
g71
NtRp3380
(dp3381
g74
(dp3382
sg83
g3333
sg76
(lp3383
g69
(g90
g71
NtRp3384
(dp3385
g74
(dp3386
sg83
g3380
sg76
(lp3387
g69
(g70
g71
NtRp3388
(dp3389
g74
(dp3390
g82
I3
ssg83
g3384
sg76
(lp3391
g69
(g78
g71
NtRp3392
(dp3393
g74
(dp3394
g82
I2
ssg83
Nsg76
(lp3395
g69
(g85
g71
NtRp3396
(dp3397
g74
(dp3398
sg83
g3392
sg76
(lp3399
g69
(g90
g71
NtRp3400
(dp3401
g74
(dp3402
sg83
g3396
sg76
(lp3403
g69
(g70
g71
NtRp3404
(dp3405
g74
(dp3406
g82
I2
ssg83
g3400
sg76
(lp3407
g69
(g78
g71
NtRp3408
(dp3409
g74
(dp3410
g82
I1
ssg83
Nsg76
(lp3411
g69
(g85
g71
NtRp3412
(dp3413
g74
(dp3414
sg83
g3408
sg76
(lp3415
g69
(g90
g71
NtRp3416
(dp3417
g74
(dp3418
sg83
g3412
sg76
(lp3419
g69
(g70
g71
NtRp3420
(dp3421
g74
(dp3422
g82
I1
ssg83
g3416
sg76
(lp3423
g3278
(S's\x08\x00\x00\x00My Sites'
tRp3424
asbasbasbag69
(g85
g71
NtRp3425
(dp3426
g74
(dp3427
sg83
g3408
sg76
(lp3428
g69
(g90
g71
NtRp3429
(dp3430
g74
(dp3431
sg83
g3425
sg76
(lp3432
g69
(g70
g71
NtRp3433
(dp3434
g74
(dp3435
g82
I1
ssg83
g3429
sg76
(lp3436
I00
asbasbasbag69
(g85
g71
NtRp3437
(dp3438
g74
(dp3439
sg83
g3408
sg76
(lp3440
g69
(g90
g71
NtRp3441
(dp3442
g74
(dp3443
sg83
g3437
sg76
(lp3444
g69
(g70
g71
NtRp3445
(dp3446
g74
(dp3447
g82
I1
ssg83
g3441
sg76
(lp3448
S'/admin/default/site'
p3449
asbasbasbasbasbasbasbag69
(g85
g71
NtRp3450
(dp3451
g74
(dp3452
sg83
g3392
sg76
(lp3453
g69
(g90
g71
NtRp3454
(dp3455
g74
(dp3456
sg83
g3450
sg76
(lp3457
g69
(g70
g71
NtRp3458
(dp3459
g74
(dp3460
g82
I2
ssg83
g3454
sg76
(lp3461
g69
(g78
g71
NtRp3462
(dp3463
g74
(dp3464
g82
I1
ssg83
Nsg76
(lp3465
g69
(g85
g71
NtRp3466
(dp3467
g74
(dp3468
sg83
g3462
sg76
(lp3469
g69
(g90
g71
NtRp3470
(dp3471
g74
(dp3472
sg83
g3466
sg76
(lp3473
g69
(g70
g71
NtRp3474
(dp3475
g74
(dp3476
g82
I1
ssg83
g3470
sg76
(lp3477
g3278
(S's\x08\x00\x00\x00This App'
tRp3478
asbasbasbag69
(g85
g71
NtRp3479
(dp3480
g74
(dp3481
sg83
g3462
sg76
(lp3482
g69
(g90
g71
NtRp3483
(dp3484
g74
(dp3485
sg83
g3479
sg76
(lp3486
g69
(g70
g71
NtRp3487
(dp3488
g74
(dp3489
g82
I1
ssg83
g3483
sg76
(lp3490
I00
asbasbasbag69
(g85
g71
NtRp3491
(dp3492
g74
(dp3493
sg83
g3462
sg76
(lp3494
g69
(g90
g71
NtRp3495
(dp3496
g74
(dp3497
sg83
g3491
sg76
(lp3498
g69
(g70
g71
NtRp3499
(dp3500
g74
(dp3501
g82
I1
ssg83
g3495
sg76
(lp3502
S'/admin/default/design/igor'
p3503
asbasbasbag69
(g85
g71
NtRp3504
(dp3505
g74
(dp3506
sg83
g3462
sg76
(lp3507
g69
(g90
g71
NtRp3508
(dp3509
g74
(dp3510
sg83
g3504
sg76
(lp3511
g69
(g70
g71
NtRp3512
(dp3513
g74
(dp3514
g82
I1
ssg83
g3508
sg76
(lp3515
(lp3516
(g3278
(S't\n\x00\x00\x00Controller'
tRp3517
I00
S'/admin/default/edit/igor/controllers/project.py'
tp3518
a(g3278
(S't\x04\x00\x00\x00View'
tRp3519
I00
S'/admin/default/edit/igor/views/project/call.html'
tp3520
a(g3278
(S't\x06\x00\x00\x00Layout'
tRp3521
I00
S'/admin/default/edit/igor/views/layout.html'
tp3522
a(g3278
(S't\n\x00\x00\x00Stylesheet'
tRp3523
I00
S'/admin/default/edit/igor/static/css/web2py.css'
tp3524
a(g3278
(S's\x08\x00\x00\x00DB Model'
tRp3525
I00
S'/admin/default/edit/igor/models/db.py'
tp3526
a(g3278
(S's\n\x00\x00\x00Menu Model'
tRp3527
I00
S'/admin/default/edit/igor/models/menu.py'
tp3528
a(g3278
(S't\x08\x00\x00\x00Database'
tRp3529
I00
S'/igor/appadmin/index'
tp3530
a(g3278
(S't\x06\x00\x00\x00Errors'
tRp3531
I00
S'/admin/default/errors/igor'
tp3532
a(g3278
(S't\x05\x00\x00\x00About'
tRp3533
I00
S'/admin/default/about/igor'
tp3534
aasbasbasbasbasbasbasbag69
(g85
g71
NtRp3535
(dp3536
g74
(dp3537
sg83
g3392
sg76
(lp3538
g69
(g90
g71
NtRp3539
(dp3540
g74
(dp3541
sg83
g3535
sg76
(lp3542
g69
(g70
g71
NtRp3543
(dp3544
g74
(dp3545
g82
I2
ssg83
g3539
sg76
(lp3546
g69
(g78
g71
NtRp3547
(dp3548
g74
(dp3549
g82
I1
ssg83
Nsg76
(lp3550
g69
(g85
g71
NtRp3551
(dp3552
g74
(dp3553
sg83
g3547
sg76
(lp3554
g69
(g90
g71
NtRp3555
(dp3556
g74
(dp3557
sg83
g3551
sg76
(lp3558
g69
(g70
g71
NtRp3559
(dp3560
g74
(dp3561
g82
I1
ssg83
g3555
sg76
(lp3562
S'web2py.com'
p3563
asbasbasbag69
(g85
g71
NtRp3564
(dp3565
g74
(dp3566
sg83
g3547
sg76
(lp3567
g69
(g90
g71
NtRp3568
(dp3569
g74
(dp3570
sg83
g3564
sg76
(lp3571
g69
(g70
g71
NtRp3572
(dp3573
g74
(dp3574
g82
I1
ssg83
g3568
sg76
(lp3575
I00
asbasbasbag69
(g85
g71
NtRp3576
(dp3577
g74
(dp3578
sg83
g3547
sg76
(lp3579
g69
(g90
g71
NtRp3580
(dp3581
g74
(dp3582
sg83
g3576
sg76
(lp3583
g69
(g70
g71
NtRp3584
(dp3585
g74
(dp3586
g82
I1
ssg83
g3580
sg76
(lp3587
S'http://www.web2py.com'
p3588
asbasbasbag69
(g85
g71
NtRp3589
(dp3590
g74
(dp3591
sg83
g3547
sg76
(lp3592
g69
(g90
g71
NtRp3593
(dp3594
g74
(dp3595
sg83
g3589
sg76
(lp3596
g69
(g70
g71
NtRp3597
(dp3598
g74
(dp3599
g82
I1
ssg83
g3593
sg76
(lp3600
(lp3601
(g3278
(S't\x08\x00\x00\x00Download'
tRp3602
I00
S'http://www.web2py.com/examples/default/download'
p3603
tp3604
a(g3278
(S't\x07\x00\x00\x00Support'
tRp3605
I00
S'http://www.web2py.com/examples/default/support'
p3606
tp3607
a(g3278
(S't\x04\x00\x00\x00Demo'
tRp3608
I00
S'http://web2py.com/demo_admin'
p3609
tp3610
a(g3278
(S's\x0e\x00\x00\x00Quick Examples'
tRp3611
I00
S'http://web2py.com/examples/default/examples'
p3612
tp3613
a(g3278
(S't\x03\x00\x00\x00FAQ'
tRp3614
I00
S'http://web2py.com/AlterEgo'
p3615
tp3616
a(g3278
(S't\x06\x00\x00\x00Videos'
tRp3617
I00
S'http://www.web2py.com/examples/default/videos/'
p3618
tp3619
a(g3278
(S's\x11\x00\x00\x00Free Applications'
tRp3620
I00
S'http://web2py.com/appliances'
p3621
tp3622
a(g3278
(S't\x07\x00\x00\x00Plugins'
tRp3623
I00
S'http://web2py.com/plugins'
p3624
tp3625
a(g3278
(S't\x07\x00\x00\x00Layouts'
tRp3626
I00
S'http://web2py.com/layouts'
p3627
tp3628
a(g3278
(S't\x07\x00\x00\x00Recipes'
tRp3629
I00
S'http://web2pyslices.com/'
p3630
tp3631
a(g3278
(S't\x08\x00\x00\x00Semantic'
tRp3632
I00
S'http://web2py.com/semantic'
p3633
tp3634
aasbasbasbasbasbasbasbag69
(g85
g71
NtRp3635
(dp3636
g74
(dp3637
sg83
g3392
sg76
(lp3638
g69
(g90
g71
NtRp3639
(dp3640
g74
(dp3641
sg83
g3635
sg76
(lp3642
g69
(g70
g71
NtRp3643
(dp3644
g74
(dp3645
g82
I2
ssg83
g3639
sg76
(lp3646
g69
(g78
g71
NtRp3647
(dp3648
g74
(dp3649
g82
I1
ssg83
Nsg76
(lp3650
g69
(g85
g71
NtRp3651
(dp3652
g74
(dp3653
sg83
g3647
sg76
(lp3654
g69
(g90
g71
NtRp3655
(dp3656
g74
(dp3657
sg83
g3651
sg76
(lp3658
g69
(g70
g71
NtRp3659
(dp3660
g74
(dp3661
g82
I1
ssg83
g3655
sg76
(lp3662
g3278
(S't\r\x00\x00\x00Documentation'
tRp3663
asbasbasbag69
(g85
g71
NtRp3664
(dp3665
g74
(dp3666
sg83
g3647
sg76
(lp3667
g69
(g90
g71
NtRp3668
(dp3669
g74
(dp3670
sg83
g3664
sg76
(lp3671
g69
(g70
g71
NtRp3672
(dp3673
g74
(dp3674
g82
I1
ssg83
g3668
sg76
(lp3675
I00
asbasbasbag69
(g85
g71
NtRp3676
(dp3677
g74
(dp3678
sg83
g3647
sg76
(lp3679
g69
(g90
g71
NtRp3680
(dp3681
g74
(dp3682
sg83
g3676
sg76
(lp3683
g69
(g70
g71
NtRp3684
(dp3685
g74
(dp3686
g82
I1
ssg83
g3680
sg76
(lp3687
S'http://www.web2py.com/book'
p3688
asbasbasbag69
(g85
g71
NtRp3689
(dp3690
g74
(dp3691
sg83
g3647
sg76
(lp3692
g69
(g90
g71
NtRp3693
(dp3694
g74
(dp3695
sg83
g3689
sg76
(lp3696
g69
(g70
g71
NtRp3697
(dp3698
g74
(dp3699
g82
I1
ssg83
g3693
sg76
(lp3700
(lp3701
(g3278
(S't\x07\x00\x00\x00Preface'
tRp3702
I00
S'http://www.web2py.com/book/default/chapter/00'
p3703
tp3704
a(g3278
(S't\x0c\x00\x00\x00Introduction'
tRp3705
I00
S'http://www.web2py.com/book/default/chapter/01'
p3706
tp3707
a(g3278
(S't\x06\x00\x00\x00Python'
tRp3708
I00
S'http://www.web2py.com/book/default/chapter/02'
p3709
tp3710
a(g3278
(S't\x08\x00\x00\x00Overview'
tRp3711
I00
S'http://www.web2py.com/book/default/chapter/03'
p3712
tp3713
a(g3278
(S's\x08\x00\x00\x00The Core'
tRp3714
I00
S'http://www.web2py.com/book/default/chapter/04'
p3715
tp3716
a(g3278
(S's\t\x00\x00\x00The Views'
tRp3717
I00
S'http://www.web2py.com/book/default/chapter/05'
p3718
tp3719
a(g3278
(S't\x08\x00\x00\x00Database'
tRp3720
I00
S'http://www.web2py.com/book/default/chapter/06'
p3721
tp3722
a(g3278
(S's\x14\x00\x00\x00Forms and Validators'
tRp3723
I00
S'http://www.web2py.com/book/default/chapter/07'
p3724
tp3725
a(g3278
(S's\r\x00\x00\x00Email and SMS'
tRp3726
I00
S'http://www.web2py.com/book/default/chapter/08'
p3727
tp3728
a(g3278
(S's\x0e\x00\x00\x00Access Control'
tRp3729
I00
S'http://www.web2py.com/book/default/chapter/09'
p3730
tp3731
a(g3278
(S't\x08\x00\x00\x00Services'
tRp3732
I00
S'http://www.web2py.com/book/default/chapter/10'
p3733
tp3734
a(g3278
(S's\x0c\x00\x00\x00Ajax Recipes'
tRp3735
I00
S'http://www.web2py.com/book/default/chapter/11'
p3736
tp3737
a(g3278
(S's\x16\x00\x00\x00Components and Plugins'
tRp3738
I00
S'http://www.web2py.com/book/default/chapter/12'
p3739
tp3740
a(g3278
(S's\x12\x00\x00\x00Deployment Recipes'
tRp3741
I00
S'http://www.web2py.com/book/default/chapter/13'
p3742
tp3743
a(g3278
(S's\r\x00\x00\x00Other Recipes'
tRp3744
I00
S'http://www.web2py.com/book/default/chapter/14'
p3745
tp3746
a(g3278
(S's\r\x00\x00\x00Buy this book'
tRp3747
I00
S'http://stores.lulu.com/web2py'
p3748
tp3749
aasbasbasbasbasbasbasbag69
(g85
g71
NtRp3750
(dp3751
g74
(dp3752
sg83
g3392
sg76
(lp3753
g69
(g90
g71
NtRp3754
(dp3755
g74
(dp3756
sg83
g3750
sg76
(lp3757
g69
(g70
g71
NtRp3758
(dp3759
g74
(dp3760
g82
I2
ssg83
g3754
sg76
(lp3761
g69
(g78
g71
NtRp3762
(dp3763
g74
(dp3764
g82
I1
ssg83
Nsg76
(lp3765
g69
(g85
g71
NtRp3766
(dp3767
g74
(dp3768
sg83
g3762
sg76
(lp3769
g69
(g90
g71
NtRp3770
(dp3771
g74
(dp3772
sg83
g3766
sg76
(lp3773
g69
(g70
g71
NtRp3774
(dp3775
g74
(dp3776
g82
I1
ssg83
g3770
sg76
(lp3777
g3278
(S't\t\x00\x00\x00Community'
tRp3778
asbasbasbag69
(g85
g71
NtRp3779
(dp3780
g74
(dp3781
sg83
g3762
sg76
(lp3782
g69
(g90
g71
NtRp3783
(dp3784
g74
(dp3785
sg83
g3779
sg76
(lp3786
g69
(g70
g71
NtRp3787
(dp3788
g74
(dp3789
g82
I1
ssg83
g3783
sg76
(lp3790
I00
asbasbasbag69
(g85
g71
NtRp3791
(dp3792
g74
(dp3793
sg83
g3762
sg76
(lp3794
g69
(g90
g71
NtRp3795
(dp3796
g74
(dp3797
sg83
g3791
sg76
(lp3798
g69
(g70
g71
NtRp3799
(dp3800
g74
(dp3801
g82
I1
ssg83
g3795
sg76
(lp3802
Nasbasbasbag69
(g85
g71
NtRp3803
(dp3804
g74
(dp3805
sg83
g3762
sg76
(lp3806
g69
(g90
g71
NtRp3807
(dp3808
g74
(dp3809
sg83
g3803
sg76
(lp3810
g69
(g70
g71
NtRp3811
(dp3812
g74
(dp3813
g82
I1
ssg83
g3807
sg76
(lp3814
(lp3815
(g3278
(S't\x06\x00\x00\x00Groups'
tRp3816
I00
S'http://www.web2py.com/examples/default/usergroups'
p3817
tp3818
a(g3278
(S't\x07\x00\x00\x00Twitter'
tRp3819
I00
S'http://twitter.com/web2py'
p3820
tp3821
a(g3278
(S's\t\x00\x00\x00Live Chat'
tRp3822
I00
S'http://webchat.freenode.net/?channels=web2py'
p3823
tp3824
aasbasbasbasbasbasbasbag69
(g85
g71
NtRp3825
(dp3826
g74
(dp3827
sg83
g3392
sg76
(lp3828
g69
(g90
g71
NtRp3829
(dp3830
g74
(dp3831
sg83
g3825
sg76
(lp3832
g69
(g70
g71
NtRp3833
(dp3834
g74
(dp3835
g82
I2
ssg83
g3829
sg76
(lp3836
g69
(g78
g71
NtRp3837
(dp3838
g74
(dp3839
g82
I1
ssg83
Nsg76
(lp3840
g69
(g85
g71
NtRp3841
(dp3842
g74
(dp3843
sg83
g3837
sg76
(lp3844
g69
(g90
g71
NtRp3845
(dp3846
g74
(dp3847
sg83
g3841
sg76
(lp3848
g69
(g70
g71
NtRp3849
(dp3850
g74
(dp3851
g82
I1
ssg83
g3845
sg76
(lp3852
g3278
(S't\x07\x00\x00\x00Plugins'
tRp3853
asbasbasbag69
(g85
g71
NtRp3854
(dp3855
g74
(dp3856
sg83
g3837
sg76
(lp3857
g69
(g90
g71
NtRp3858
(dp3859
g74
(dp3860
sg83
g3854
sg76
(lp3861
g69
(g70
g71
NtRp3862
(dp3863
g74
(dp3864
g82
I1
ssg83
g3858
sg76
(lp3865
I00
asbasbasbag69
(g85
g71
NtRp3866
(dp3867
g74
(dp3868
sg83
g3837
sg76
(lp3869
g69
(g90
g71
NtRp3870
(dp3871
g74
(dp3872
sg83
g3866
sg76
(lp3873
g69
(g70
g71
NtRp3874
(dp3875
g74
(dp3876
g82
I1
ssg83
g3870
sg76
(lp3877
Nasbasbasbag69
(g85
g71
NtRp3878
(dp3879
g74
(dp3880
sg83
g3837
sg76
(lp3881
g69
(g90
g71
NtRp3882
(dp3883
g74
(dp3884
sg83
g3878
sg76
(lp3885
g69
(g70
g71
NtRp3886
(dp3887
g74
(dp3888
g82
I1
ssg83
g3882
sg76
(lp3889
(lp3890
(S'plugin_wiki'
p3891
I00
S'http://web2py.com/examples/default/download'
p3892
tp3893
a(g3278
(S's\r\x00\x00\x00Other Plugins'
tRp3894
I00
g3624
tp3895
a(g3278
(S's\x0e\x00\x00\x00Layout Plugins'
tRp3896
I00
g3627
tp3897
aasbasbasbasbasbasbasbasbasbasbasbasbasbasbasbasbasbasbasbag69
(g85
g71
NtRp3898
(dp3899
g74
(dp3900
sg83
g2722
sg76
(lp3901
g69
(g90
g71
NtRp3902
(dp3903
g74
(dp3904
g94
g95
ssg83
g3898
sg76
(lp3905
S'meta'
p3906
asbag69
(g90
g71
NtRp3907
(dp3908
g74
(dp3909
g101
g102
ssg83
g3898
sg76
(lp3910
S':'
asbag69
(g90
g71
NtRp3911
(dp3912
g74
(dp3913
sg83
g3898
sg76
(lp3914
g69
(g70
g71
NtRp3915
(dp3916
g74
(dp3917
g82
I5
ssg83
g3911
sg76
(lp3918
g69
(g78
g71
NtRp3919
(dp3920
g74
(dp3921
g82
I4
ssg83
Nsg76
(lp3922
g69
(g85
g71
NtRp3923
(dp3924
g74
(dp3925
sg83
g3919
sg76
(lp3926
g69
(g90
g71
NtRp3927
(dp3928
g74
(dp3929
g94
g95
ssg83
g3923
sg76
(lp3930
S'author'
p3931
asbag69
(g90
g71
NtRp3932
(dp3933
g74
(dp3934
g101
g102
ssg83
g3923
sg76
(lp3935
S':'
asbag69
(g90
g71
NtRp3936
(dp3937
g74
(dp3938
sg83
g3923
sg76
(lp3939
g69
(g70
g71
NtRp3940
(dp3941
g74
(dp3942
g82
I4
ssg83
g3936
sg76
(lp3943
S'Your Name <you@example.com>'
p3944
asbasbasbag69
(g85
g71
NtRp3945
(dp3946
g74
(dp3947
sg83
g3919
sg76
(lp3948
g69
(g90
g71
NtRp3949
(dp3950
g74
(dp3951
g94
g95
ssg83
g3945
sg76
(lp3952
S'copyright'
p3953
asbag69
(g90
g71
NtRp3954
(dp3955
g74
(dp3956
g101
g102
ssg83
g3945
sg76
(lp3957
S':'
asbag69
(g90
g71
NtRp3958
(dp3959
g74
(dp3960
sg83
g3945
sg76
(lp3961
g69
(g70
g71
NtRp3962
(dp3963
g74
(dp3964
g82
I4
ssg83
g3958
sg76
(lp3965
S'Copyright 2011'
p3966
asbasbasbag69
(g85
g71
NtRp3967
(dp3968
g74
(dp3969
sg83
g3919
sg76
(lp3970
g69
(g90
g71
NtRp3971
(dp3972
g74
(dp3973
g94
g95
ssg83
g3967
sg76
(lp3974
S'description'
p3975
asbag69
(g90
g71
NtRp3976
(dp3977
g74
(dp3978
g101
g102
ssg83
g3967
sg76
(lp3979
S':'
asbag69
(g90
g71
NtRp3980
(dp3981
g74
(dp3982
sg83
g3967
sg76
(lp3983
g69
(g70
g71
NtRp3984
(dp3985
g74
(dp3986
g82
I4
ssg83
g3980
sg76
(lp3987
S'a cool new app'
p3988
asbasbasbag69
(g85
g71
NtRp3989
(dp3990
g74
(dp3991
sg83
g3919
sg76
(lp3992
g69
(g90
g71
NtRp3993
(dp3994
g74
(dp3995
g94
g95
ssg83
g3989
sg76
(lp3996
S'generator'
p3997
asbag69
(g90
g71
NtRp3998
(dp3999
g74
(dp4000
g101
g102
ssg83
g3989
sg76
(lp4001
S':'
asbag69
(g90
g71
NtRp4002
(dp4003
g74
(dp4004
sg83
g3989
sg76
(lp4005
g69
(g70
g71
NtRp4006
(dp4007
g74
(dp4008
g82
I4
ssg83
g4002
sg76
(lp4009
S'Web2py Web Framework'
p4010
asbasbasbag69
(g85
g71
NtRp4011
(dp4012
g74
(dp4013
sg83
g3919
sg76
(lp4014
g69
(g90
g71
NtRp4015
(dp4016
g74
(dp4017
g94
g95
ssg83
g4011
sg76
(lp4018
S'keywords'
p4019
asbag69
(g90
g71
NtRp4020
(dp4021
g74
(dp4022
g101
g102
ssg83
g4011
sg76
(lp4023
S':'
asbag69
(g90
g71
NtRp4024
(dp4025
g74
(dp4026
sg83
g4011
sg76
(lp4027
g69
(g70
g71
NtRp4028
(dp4029
g74
(dp4030
g82
I4
ssg83
g4024
sg76
(lp4031
S'web2py, python, framework'
p4032
asbasbasbasbasbasbasbag69
(g85
g71
NtRp4033
(dp4034
g74
(dp4035
sg83
g2722
sg76
(lp4036
g69
(g90
g71
NtRp4037
(dp4038
g74
(dp4039
g94
g95
ssg83
g4033
sg76
(lp4040
S'postprocessing'
p4041
asbag69
(g90
g71
NtRp4042
(dp4043
g74
(dp4044
g101
g102
ssg83
g4033
sg76
(lp4045
S':'
asbag69
(g90
g71
NtRp4046
(dp4047
g74
(dp4048
sg83
g4033
sg76
(lp4049
g69
(g70
g71
NtRp4050
(dp4051
g74
(dp4052
g82
I5
ssg83
g4046
sg76
(lp4053
g69
(g78
g71
NtRp4054
(dp4055
g74
(dp4056
g82
I4
ssg83
Nsg76
(lp4057
sbasbasbasbag69
(g85
g71
NtRp4058
(dp4059
g74
(dp4060
sg83
g2722
sg76
(lp4061
g69
(g90
g71
NtRp4062
(dp4063
g74
(dp4064
g94
g95
ssg83
g4058
sg76
(lp4065
S'session_filename'
p4066
asbag69
(g90
g71
NtRp4067
(dp4068
g74
(dp4069
g101
g102
ssg83
g4058
sg76
(lp4070
S':'
asbag69
(g90
g71
NtRp4071
(dp4072
g74
(dp4073
sg83
g4058
sg76
(lp4074
g69
(g70
g71
NtRp4075
(dp4076
g74
(dp4077
g82
I5
ssg83
g4071
sg76
(lp4078
S'/home/tuna/cyberagent/IgoR/C_Sources/Server/igor-assistant-ca-2012/applications/igor/sessions/127.0.0.1-1fff3a12-bff7-4606-84d0-2f93713c679d'
p4079
asbasbasbag69
(g85
g71
NtRp4080
(dp4081
g74
(dp4082
sg83
g2722
sg76
(lp4083
g69
(g90
g71
NtRp4084
(dp4085
g74
(dp4086
g94
g95
ssg83
g4080
sg76
(lp4087
S'session_id'
p4088
asbag69
(g90
g71
NtRp4089
(dp4090
g74
(dp4091
g101
g102
ssg83
g4080
sg76
(lp4092
S':'
asbag69
(g90
g71
NtRp4093
(dp4094
g74
(dp4095
sg83
g4080
sg76
(lp4096
g69
(g70
g71
NtRp4097
(dp4098
g74
(dp4099
g82
I5
ssg83
g4093
sg76
(lp4100
S'127.0.0.1-1fff3a12-bff7-4606-84d0-2f93713c679d'
p4101
asbasbasbag69
(g85
g71
NtRp4102
(dp4103
g74
(dp4104
sg83
g2722
sg76
(lp4105
g69
(g90
g71
NtRp4106
(dp4107
g74
(dp4108
g94
g95
ssg83
g4102
sg76
(lp4109
S'session_id_name'
p4110
asbag69
(g90
g71
NtRp4111
(dp4112
g74
(dp4113
g101
g102
ssg83
g4102
sg76
(lp4114
S':'
asbag69
(g90
g71
NtRp4115
(dp4116
g74
(dp4117
sg83
g4102
sg76
(lp4118
g69
(g70
g71
NtRp4119
(dp4120
g74
(dp4121
g82
I5
ssg83
g4115
sg76
(lp4122
g2779
asbasbasbag69
(g85
g71
NtRp4123
(dp4124
g74
(dp4125
sg83
g2722
sg76
(lp4126
g69
(g90
g71
NtRp4127
(dp4128
g74
(dp4129
g94
g95
ssg83
g4123
sg76
(lp4130
S'session_new'
p4131
asbag69
(g90
g71
NtRp4132
(dp4133
g74
(dp4134
g101
g102
ssg83
g4123
sg76
(lp4135
S':'
asbag69
(g90
g71
NtRp4136
(dp4137
g74
(dp4138
sg83
g4123
sg76
(lp4139
g69
(g70
g71
NtRp4140
(dp4141
g74
(dp4142
g82
I5
ssg83
g4136
sg76
(lp4143
g1303
asbasbasbag69
(g85
g71
NtRp4144
(dp4145
g74
(dp4146
sg83
g2722
sg76
(lp4147
g69
(g90
g71
NtRp4148
(dp4149
g74
(dp4150
g94
g95
ssg83
g4144
sg76
(lp4151
S'status'
p4152
asbag69
(g90
g71
NtRp4153
(dp4154
g74
(dp4155
g101
g102
ssg83
g4144
sg76
(lp4156
S':'
asbag69
(g90
g71
NtRp4157
(dp4158
g74
(dp4159
sg83
g4144
sg76
(lp4160
g69
(g70
g71
NtRp4161
(dp4162
g74
(dp4163
g82
I5
ssg83
g4157
sg76
(lp4164
S'200'
p4165
asbasbasbag69
(g85
g71
NtRp4166
(dp4167
g74
(dp4168
sg83
g2722
sg76
(lp4169
g69
(g90
g71
NtRp4170
(dp4171
g74
(dp4172
g94
g95
ssg83
g4166
sg76
(lp4173
S'subtitle'
p4174
asbag69
(g90
g71
NtRp4175
(dp4176
g74
(dp4177
g101
g102
ssg83
g4166
sg76
(lp4178
S':'
asbag69
(g90
g71
NtRp4179
(dp4180
g74
(dp4181
sg83
g4166
sg76
(lp4182
g69
(g70
g71
NtRp4183
(dp4184
g74
(dp4185
g82
I5
ssg83
g4179
sg76
(lp4186
g3278
(S's\r\x00\x00\x00customize me!'
tRp4187
asbasbasbag69
(g85
g71
NtRp4188
(dp4189
g74
(dp4190
sg83
g2722
sg76
(lp4191
g69
(g90
g71
NtRp4192
(dp4193
g74
(dp4194
g94
g95
ssg83
g4188
sg76
(lp4195
S'title'
p4196
asbag69
(g90
g71
NtRp4197
(dp4198
g74
(dp4199
g101
g102
ssg83
g4188
sg76
(lp4200
S':'
asbag69
(g90
g71
NtRp4201
(dp4202
g74
(dp4203
sg83
g4188
sg76
(lp4204
g69
(g70
g71
NtRp4205
(dp4206
g74
(dp4207
g82
I5
ssg83
g4201
sg76
(lp4208
S'Igor'
p4209
asbasbasbag69
(g85
g71
NtRp4210
(dp4211
g74
(dp4212
sg83
g2722
sg76
(lp4213
g69
(g90
g71
NtRp4214
(dp4215
g74
(dp4216
g94
g95
ssg83
g4210
sg76
(lp4217
g2010
asbag69
(g90
g71
NtRp4218
(dp4219
g74
(dp4220
g101
g102
ssg83
g4210
sg76
(lp4221
S':'
asbag69
(g90
g71
NtRp4222
(dp4223
g74
(dp4224
sg83
g4210
sg76
(lp4225
g69
(g70
g71
NtRp4226
(dp4227
g74
(dp4228
g82
I5
ssg83
g4222
sg76
(lp4229
g2023
asbasbasbag69
(g85
g71
NtRp4230
(dp4231
g74
(dp4232
sg83
g2722
sg76
(lp4233
g69
(g90
g71
NtRp4234
(dp4235
g74
(dp4236
g94
g95
ssg83
g4230
sg76
(lp4237
S'view'
p4238
asbag69
(g90
g71
NtRp4239
(dp4240
g74
(dp4241
g101
g102
ssg83
g4230
sg76
(lp4242
S':'
asbag69
(g90
g71
NtRp4243
(dp4244
g74
(dp4245
sg83
g4230
sg76
(lp4246
g69
(g70
g71
NtRp4247
(dp4248
g74
(dp4249
g82
I5
ssg83
g4243
sg76
(lp4250
S'project/call.html'
p4251
asbasbasbasbasbsS'locals'
p4252
(dp4253
g4
S"'/home/tuna/cyberagent/IgoR/C_Sources/Server/igor...-ca-2012/applications/igor/controllers/project.py'"
p4254
sg6
S"'# -*- coding: utf-8 -*-\\n# this file is released ...lient_data\\nresponse._vars=response._caller(call)\\n'"
p4255
sssS'traceback'
p4256
S'Traceback (most recent call last):\n  File "/home/tuna/cyberagent/IgoR/C_Sources/Server/igor-assistant-ca-2012/gluon/restricted.py", line 204, in restricted\n    ccode = compile2(code,layer)\n  File "/home/tuna/cyberagent/IgoR/C_Sources/Server/igor-assistant-ca-2012/gluon/restricted.py", line 189, in compile2\n    return compile(code.rstrip().replace(\'\\r\\n\',\'\\n\')+\'\\n\', layer, \'exec\')\n  File "/home/tuna/cyberagent/IgoR/C_Sources/Server/igor-assistant-ca-2012/applications/igor/controllers/project.py", line 90\n    db.test.test_type == 2).select()\n                          ^\nSyntaxError: invalid syntax\n'
p4257
s.