(dp1
S'output'
p2
S"<type 'exceptions.NameError'> global name 'class_subject' is not defined"
p3
sS'layer'
p4
S'/home/tuna/cyberagent/IgoR/C_Sources/Server/igor-assistant-ca-2012/applications/igor/controllers/project.py'
p5
sS'code'
p6
S'# -*- coding: utf-8 -*-\n# this file is released under public domain and you can use without limitations\n\n#########################################################################\n## This is subject controller\n## Author: phucnh, tuna\n#########################################################################\n\nfrom message_packager import *\nfrom gluon.dal import Rows\nfrom gluon.tools import Service\nimport gluon.contenttype\n \nservice = Service()\n\ndef call():\n\tsession.forget()\n\n\treturn service()\n\n@service.jsonp\n@service.json\ndef get_projects(user_id, term = 0):\n\t# Validate input \n\tif (not user_id.isdigit()):\n\t\treturn MessagePackager.get_packaged_message (\n\t\t\tMessageStatus.ERROR, \n\t\t\t"user id must be numberic")\n\n\tif (int (user_id) < 0):\n\t\treturn MessagePackager.get_packaged_message (\n\t\t\tMessageStatus.ERROR, \n\t\t\t"user id can not less than 0")\n\n\t###\n\tif (term == 0):\n\t\tterm = get_current_term()\n\n\tclasses = get_class_of_user(user_id, term, day_of_week)\n\n\tprojects = list()\n\n\tfor classs in classes:\n\t\tproject = db(db.test.class_subject == classs and\n\t\t\tdb.test.test_type == 2).select()\n\t\tprojects.append(project)\n\n\tprojects = format_client_data(projects)\n\n\treturn MessagePackager.get_packaged_message(MessageStatus.OK, projects)\n\n\n@service.jsonp\n@service.json\ndef get_project_detail(project_id):\n\t# Validate input \n\tif (not project_id.isdigit()):\n\t\treturn MessagePackager.get_packaged_message (\n\t\t\tMessageStatus.ERROR, \n\t\t\t"project id must be numberic")\n\n\tif (int (project_id) < 0):\n\t\treturn MessagePackager.get_packaged_message (\n\t\t\tMessageStatus.ERROR, \n\t\t\t"project id can not less than 0")\t\n\t###\n\tproject = db(db.test.id == project_id and\n\t\tdb.test.test_type == 2).select()\n\n\tproject = format_client_data(project)\n\n\treturn MessagePackager.get_packaged_message(MessageStatus.OK, project)\n\n@service.jsonp\n@service.json\ndef get_project_by_class(class_id):\n\t# Validate input \n\tif (not class_id.isdigit()):\n\t\treturn MessagePackager.get_packaged_message (\n\t\t\tMessageStatus.ERROR, \n\t\t\t"class id must be numberic")\n\n\tif (int (class_id) < 0):\n\t\treturn MessagePackager.get_packaged_message (\n\t\t\tMessageStatus.ERROR, \n\t\t\t"class id can not less than 0")\t\n\t###\n\t\n\tproject = db(db.test.class_subject == class_id and\n\t\tdb.test.test_type == 2).select()\n\n\tproject = format_client_data(project)\n\n\treturn MessagePackager.get_packaged_message(MessageStatus.OK, project)\n\n@service.jsonp\n@service.json\ndef get_project_by_user_class(user_id, class_id):\n\t# Validate input \n\tif (not class_id.isdigit()):\n\t\treturn MessagePackager.get_packaged_message (\n\t\t\tMessageStatus.ERROR, \n\t\t\t"class id must be numberic")\n\n\tif (int (class_id) < 0):\n\t\treturn MessagePackager.get_packaged_message (\n\t\t\tMessageStatus.ERROR, \n\t\t\t"class id can not less than 0")\n\n\tif (not user_id.isdigit()):\n\t\treturn MessagePackager.get_packaged_message (\n\t\t\tMessageStatus.ERROR, \n\t\t\t"user id must be numberic")\n\n\tif (int (user_id) < 0):\n\t\treturn MessagePackager.get_packaged_message (\n\t\t\tMessageStatus.ERROR, \n\t\t\t"user id can not less than 0")\n\n\t###\n\n\tclasses = get_class_of_user(user_id, 0, None)\n\n\n\tfor classs in classes:\n\t\tproject = db(db.test.class_subject == classs and\n\t\t\tdb.test.test_type == 2).select()\n\t\tif (project.class_subject == class_id):\n\t\t\tproject = format_client_data(project)\n\t\t\treturn MessagePackager.get_packaged_message (\n\t\t\t\tMessageStatus.OK, project)\n\n\treturn MessagePackager.get_packaged_message (\n\t\tMessageStatus.ERROR, "can not find project")\n\n\ndef format_client_data(projects):\n\tif (projects == None):\n\t\treturn\n\n\tclient_data = list()\n\n\tfor project in projects:\n\n\t\tsubject = db(db.subject.id == class_subject.subject).select().first()\n\t\tclass_schedulers = db(db.class_scheduler.class_subject == class_subject.id).select()\n\t\t\n\t\tif (subject == None):\n\t\t\tcontinue\n\t\t# print class_schedulers\n\t\tfor class_scheduler in class_schedulers:\n\t\t\t\n\t\t\t# Get session list (integer)\n\t\t\tsessions = get_class_sessions(class_scheduler.period)\n\n\t\t\t# Morning session\n\t\t\tmorning = [session for session in sessions if session <= 6]\n\t\t\tafternoon = [session for session in sessions if session >= 7]\n\n\n\t\t\tif (morning):\n\t\t\t\tclient = class_data_format(\n\t\t\t\t\tclass_subject, class_scheduler,\n\t\t\t\t\tsubject, morning, "Morning")\n\t\t\t\t\n\t\t\t\tclient_data.append(client)\n\n\t\t\tif (afternoon):\n\t\t\t\tafternoon = map(lambda s: s - 6, afternoon)\n\t\t\t\tclient = class_data_format(\n\t\t\t\t\tclass_subject, class_scheduler,\n\t\t\t\t\tsubject, afternoon, "Afternoon")\n\n\t\t\t\tclient_data.append (client)\n\n\treturn client_data\nresponse._vars=response._caller(call)\n'
p7
sS'snapshot'
p8
(dp9
S'exception'
p10
(dp11
S'__hash__'
p12
S"<method-wrapper '__hash__' of exceptions.NameError object>"
p13
sS'__setattr__'
p14
S"<method-wrapper '__setattr__' of exceptions.NameError object>"
p15
sS'__reduce_ex__'
p16
S'<built-in method __reduce_ex__ of exceptions.NameError object>'
p17
sS'__getslice__'
p18
S"<method-wrapper '__getslice__' of exceptions.NameError object>"
p19
sS'__getitem__'
p20
S"<method-wrapper '__getitem__' of exceptions.NameError object>"
p21
sS'__setstate__'
p22
S'<built-in method __setstate__ of exceptions.NameError object>'
p23
sS'args'
p24
S'("global name \'class_subject\' is not defined",)'
p25
sS'__reduce__'
p26
S'<built-in method __reduce__ of exceptions.NameError object>'
p27
sS'__str__'
p28
S"<method-wrapper '__str__' of exceptions.NameError object>"
p29
sS'__format__'
p30
S'<built-in method __format__ of exceptions.NameError object>'
p31
sS'__getattribute__'
p32
S"<method-wrapper '__getattribute__' of exceptions.NameError object>"
p33
sS'__class__'
p34
S"<type 'exceptions.NameError'>"
p35
sS'__unicode__'
p36
S'<built-in method __unicode__ of exceptions.NameError object>'
p37
sS'__delattr__'
p38
S"<method-wrapper '__delattr__' of exceptions.NameError object>"
p39
sS'__subclasshook__'
p40
S'<built-in method __subclasshook__ of type object>'
p41
sS'__repr__'
p42
S"<method-wrapper '__repr__' of exceptions.NameError object>"
p43
sS'__dict__'
p44
S'{}'
p45
sS'__sizeof__'
p46
S'<built-in method __sizeof__ of exceptions.NameError object>'
p47
sS'__doc__'
p48
S"'Name not found globally.'"
p49
sS'__init__'
p50
S"<method-wrapper '__init__' of exceptions.NameError object>"
p51
sS'__new__'
p52
S'<built-in method __new__ of type object>'
p53
ssS'evalue'
p54
S"global name 'class_subject' is not defined"
p55
sS'request'
p56
ccopy_reg
_reconstructor
p57
(cgluon.html
BEAUTIFY
p58
c__builtin__
object
p59
NtRp60
(dp61
S'attributes'
p62
(dp63
sS'components'
p64
(lp65
g57
(cgluon.html
TABLE
p66
g59
NtRp67
(dp68
g62
(dp69
S'level'
p70
I5
ssS'parent'
p71
Nsg64
(lp72
g57
(cgluon.html
TR
p73
g59
NtRp74
(dp75
g62
(dp76
sg71
g67
sg64
(lp77
g57
(cgluon.html
TD
p78
g59
NtRp79
(dp80
g62
(dp81
S'_style'
p82
S'font-weight:bold;vertical-align:top'
p83
ssg71
g74
sg64
(lp84
S'ajax'
p85
asbag57
(g78
g59
NtRp86
(dp87
g62
(dp88
S'_valign'
p89
S'top'
p90
ssg71
g74
sg64
(lp91
S':'
asbag57
(g78
g59
NtRp92
(dp93
g62
(dp94
sg71
g74
sg64
(lp95
g57
(g58
g59
NtRp96
(dp97
g62
(dp98
g70
I5
ssg71
g92
sg64
(lp99
S'False'
p100
asbasbasbag57
(g73
g59
NtRp101
(dp102
g62
(dp103
sg71
g67
sg64
(lp104
g57
(g78
g59
NtRp105
(dp106
g62
(dp107
g82
g83
ssg71
g101
sg64
(lp108
S'application'
p109
asbag57
(g78
g59
NtRp110
(dp111
g62
(dp112
g89
g90
ssg71
g101
sg64
(lp113
S':'
asbag57
(g78
g59
NtRp114
(dp115
g62
(dp116
sg71
g101
sg64
(lp117
g57
(g58
g59
NtRp118
(dp119
g62
(dp120
g70
I5
ssg71
g114
sg64
(lp121
S'igor'
p122
asbasbasbag57
(g73
g59
NtRp123
(dp124
g62
(dp125
sg71
g67
sg64
(lp126
g57
(g78
g59
NtRp127
(dp128
g62
(dp129
g82
g83
ssg71
g123
sg64
(lp130
g24
asbag57
(g78
g59
NtRp131
(dp132
g62
(dp133
g89
g90
ssg71
g123
sg64
(lp134
S':'
asbag57
(g78
g59
NtRp135
(dp136
g62
(dp137
sg71
g123
sg64
(lp138
g57
(g58
g59
NtRp139
(dp140
g62
(dp141
g70
I5
ssg71
g135
sg64
(lp142
g57
(g66
g59
NtRp143
(dp144
g62
(dp145
g70
I4
ssg71
Nsg64
(lp146
g57
(g73
g59
NtRp147
(dp148
g62
(dp149
sg71
g143
sg64
(lp150
g57
(g78
g59
NtRp151
(dp152
g62
(dp153
sg71
g147
sg64
(lp154
g57
(g58
g59
NtRp155
(dp156
g62
(dp157
g70
I4
ssg71
g151
sg64
(lp158
S'json'
p159
asbasbasbag57
(g73
g59
NtRp160
(dp161
g62
(dp162
sg71
g143
sg64
(lp163
g57
(g78
g59
NtRp164
(dp165
g62
(dp166
sg71
g160
sg64
(lp167
g57
(g58
g59
NtRp168
(dp169
g62
(dp170
g70
I4
ssg71
g164
sg64
(lp171
S'get_project_detail'
p172
asbasbasbag57
(g73
g59
NtRp173
(dp174
g62
(dp175
sg71
g143
sg64
(lp176
g57
(g78
g59
NtRp177
(dp178
g62
(dp179
sg71
g173
sg64
(lp180
g57
(g58
g59
NtRp181
(dp182
g62
(dp183
g70
I4
ssg71
g177
sg64
(lp184
S'2'
asbasbasbasbasbasbasbag57
(g73
g59
NtRp185
(dp186
g62
(dp187
sg71
g67
sg64
(lp188
g57
(g78
g59
NtRp189
(dp190
g62
(dp191
g82
g83
ssg71
g185
sg64
(lp192
S'body'
p193
asbag57
(g78
g59
NtRp194
(dp195
g62
(dp196
g89
g90
ssg71
g185
sg64
(lp197
S':'
asbag57
(g78
g59
NtRp198
(dp199
g62
(dp200
sg71
g185
sg64
(lp201
g57
(g58
g59
NtRp202
(dp203
g62
(dp204
g70
I5
ssg71
g198
sg64
(lp205
S'<cStringIO.StringO object at 0x7f468832adf8>'
p206
asbasbasbag57
(g73
g59
NtRp207
(dp208
g62
(dp209
sg71
g67
sg64
(lp210
g57
(g78
g59
NtRp211
(dp212
g62
(dp213
g82
g83
ssg71
g207
sg64
(lp214
S'client'
p215
asbag57
(g78
g59
NtRp216
(dp217
g62
(dp218
g89
g90
ssg71
g207
sg64
(lp219
S':'
asbag57
(g78
g59
NtRp220
(dp221
g62
(dp222
sg71
g207
sg64
(lp223
g57
(g58
g59
NtRp224
(dp225
g62
(dp226
g70
I5
ssg71
g220
sg64
(lp227
S'127.0.0.1'
p228
asbasbasbag57
(g73
g59
NtRp229
(dp230
g62
(dp231
sg71
g67
sg64
(lp232
g57
(g78
g59
NtRp233
(dp234
g62
(dp235
g82
g83
ssg71
g229
sg64
(lp236
S'controller'
p237
asbag57
(g78
g59
NtRp238
(dp239
g62
(dp240
g89
g90
ssg71
g229
sg64
(lp241
S':'
asbag57
(g78
g59
NtRp242
(dp243
g62
(dp244
sg71
g229
sg64
(lp245
g57
(g58
g59
NtRp246
(dp247
g62
(dp248
g70
I5
ssg71
g242
sg64
(lp249
S'project'
p250
asbasbasbag57
(g73
g59
NtRp251
(dp252
g62
(dp253
sg71
g67
sg64
(lp254
g57
(g78
g59
NtRp255
(dp256
g62
(dp257
g82
g83
ssg71
g251
sg64
(lp258
S'cookies'
p259
asbag57
(g78
g59
NtRp260
(dp261
g62
(dp262
g89
g90
ssg71
g251
sg64
(lp263
S':'
asbag57
(g78
g59
NtRp264
(dp265
g62
(dp266
sg71
g251
sg64
(lp267
g57
(g58
g59
NtRp268
(dp269
g62
(dp270
g70
I5
ssg71
g264
sg64
(lp271
g57
(g66
g59
NtRp272
(dp273
g62
(dp274
g70
I4
ssg71
Nsg64
(lp275
g57
(g73
g59
NtRp276
(dp277
g62
(dp278
sg71
g272
sg64
(lp279
g57
(g78
g59
NtRp280
(dp281
g62
(dp282
g82
g83
ssg71
g276
sg64
(lp283
S'session_id_admin'
p284
asbag57
(g78
g59
NtRp285
(dp286
g62
(dp287
g89
g90
ssg71
g276
sg64
(lp288
S':'
asbag57
(g78
g59
NtRp289
(dp290
g62
(dp291
sg71
g276
sg64
(lp292
g57
(g58
g59
NtRp293
(dp294
g62
(dp295
g70
I4
ssg71
g289
sg64
(lp296
g57
(g66
g59
NtRp297
(dp298
g62
(dp299
g70
I3
ssg71
Nsg64
(lp300
g57
(g73
g59
NtRp301
(dp302
g62
(dp303
sg71
g297
sg64
(lp304
g57
(g78
g59
NtRp305
(dp306
g62
(dp307
g82
g83
ssg71
g301
sg64
(lp308
S'comment'
p309
asbag57
(g78
g59
NtRp310
(dp311
g62
(dp312
g89
g90
ssg71
g301
sg64
(lp313
S':'
asbag57
(g78
g59
NtRp314
(dp315
g62
(dp316
sg71
g301
sg64
(lp317
g57
(g58
g59
NtRp318
(dp319
g62
(dp320
g70
I3
ssg71
g314
sg64
(lp321
S''
asbasbasbag57
(g73
g59
NtRp322
(dp323
g62
(dp324
sg71
g297
sg64
(lp325
g57
(g78
g59
NtRp326
(dp327
g62
(dp328
g82
g83
ssg71
g322
sg64
(lp329
S'domain'
p330
asbag57
(g78
g59
NtRp331
(dp332
g62
(dp333
g89
g90
ssg71
g322
sg64
(lp334
S':'
asbag57
(g78
g59
NtRp335
(dp336
g62
(dp337
sg71
g322
sg64
(lp338
g57
(g58
g59
NtRp339
(dp340
g62
(dp341
g70
I3
ssg71
g335
sg64
(lp342
S''
asbasbasbag57
(g73
g59
NtRp343
(dp344
g62
(dp345
sg71
g297
sg64
(lp346
g57
(g78
g59
NtRp347
(dp348
g62
(dp349
g82
g83
ssg71
g343
sg64
(lp350
S'expires'
p351
asbag57
(g78
g59
NtRp352
(dp353
g62
(dp354
g89
g90
ssg71
g343
sg64
(lp355
S':'
asbag57
(g78
g59
NtRp356
(dp357
g62
(dp358
sg71
g343
sg64
(lp359
g57
(g58
g59
NtRp360
(dp361
g62
(dp362
g70
I3
ssg71
g356
sg64
(lp363
S''
asbasbasbag57
(g73
g59
NtRp364
(dp365
g62
(dp366
sg71
g297
sg64
(lp367
g57
(g78
g59
NtRp368
(dp369
g62
(dp370
g82
g83
ssg71
g364
sg64
(lp371
S'httponly'
p372
asbag57
(g78
g59
NtRp373
(dp374
g62
(dp375
g89
g90
ssg71
g364
sg64
(lp376
S':'
asbag57
(g78
g59
NtRp377
(dp378
g62
(dp379
sg71
g364
sg64
(lp380
g57
(g58
g59
NtRp381
(dp382
g62
(dp383
g70
I3
ssg71
g377
sg64
(lp384
S''
asbasbasbag57
(g73
g59
NtRp385
(dp386
g62
(dp387
sg71
g297
sg64
(lp388
g57
(g78
g59
NtRp389
(dp390
g62
(dp391
g82
g83
ssg71
g385
sg64
(lp392
S'max-age'
p393
asbag57
(g78
g59
NtRp394
(dp395
g62
(dp396
g89
g90
ssg71
g385
sg64
(lp397
S':'
asbag57
(g78
g59
NtRp398
(dp399
g62
(dp400
sg71
g385
sg64
(lp401
g57
(g58
g59
NtRp402
(dp403
g62
(dp404
g70
I3
ssg71
g398
sg64
(lp405
S''
asbasbasbag57
(g73
g59
NtRp406
(dp407
g62
(dp408
sg71
g297
sg64
(lp409
g57
(g78
g59
NtRp410
(dp411
g62
(dp412
g82
g83
ssg71
g406
sg64
(lp413
S'path'
p414
asbag57
(g78
g59
NtRp415
(dp416
g62
(dp417
g89
g90
ssg71
g406
sg64
(lp418
S':'
asbag57
(g78
g59
NtRp419
(dp420
g62
(dp421
sg71
g406
sg64
(lp422
g57
(g58
g59
NtRp423
(dp424
g62
(dp425
g70
I3
ssg71
g419
sg64
(lp426
S''
asbasbasbag57
(g73
g59
NtRp427
(dp428
g62
(dp429
sg71
g297
sg64
(lp430
g57
(g78
g59
NtRp431
(dp432
g62
(dp433
g82
g83
ssg71
g427
sg64
(lp434
S'secure'
p435
asbag57
(g78
g59
NtRp436
(dp437
g62
(dp438
g89
g90
ssg71
g427
sg64
(lp439
S':'
asbag57
(g78
g59
NtRp440
(dp441
g62
(dp442
sg71
g427
sg64
(lp443
g57
(g58
g59
NtRp444
(dp445
g62
(dp446
g70
I3
ssg71
g440
sg64
(lp447
S''
asbasbasbag57
(g73
g59
NtRp448
(dp449
g62
(dp450
sg71
g297
sg64
(lp451
g57
(g78
g59
NtRp452
(dp453
g62
(dp454
g82
g83
ssg71
g448
sg64
(lp455
S'version'
p456
asbag57
(g78
g59
NtRp457
(dp458
g62
(dp459
g89
g90
ssg71
g448
sg64
(lp460
S':'
asbag57
(g78
g59
NtRp461
(dp462
g62
(dp463
sg71
g448
sg64
(lp464
g57
(g58
g59
NtRp465
(dp466
g62
(dp467
g70
I3
ssg71
g461
sg64
(lp468
S''
asbasbasbasbasbasbasbasbasbasbasbag57
(g73
g59
NtRp469
(dp470
g62
(dp471
sg71
g67
sg64
(lp472
g57
(g78
g59
NtRp473
(dp474
g62
(dp475
g82
g83
ssg71
g469
sg64
(lp476
S'env'
p477
asbag57
(g78
g59
NtRp478
(dp479
g62
(dp480
g89
g90
ssg71
g469
sg64
(lp481
S':'
asbag57
(g78
g59
NtRp482
(dp483
g62
(dp484
sg71
g469
sg64
(lp485
g57
(g58
g59
NtRp486
(dp487
g62
(dp488
g70
I5
ssg71
g482
sg64
(lp489
g57
(g66
g59
NtRp490
(dp491
g62
(dp492
g70
I4
ssg71
Nsg64
(lp493
g57
(g73
g59
NtRp494
(dp495
g62
(dp496
sg71
g490
sg64
(lp497
g57
(g78
g59
NtRp498
(dp499
g62
(dp500
g82
g83
ssg71
g494
sg64
(lp501
S'app_folders'
p502
asbag57
(g78
g59
NtRp503
(dp504
g62
(dp505
g89
g90
ssg71
g494
sg64
(lp506
S':'
asbag57
(g78
g59
NtRp507
(dp508
g62
(dp509
sg71
g494
sg64
(lp510
g57
(g58
g59
NtRp511
(dp512
g62
(dp513
g70
I4
ssg71
g507
sg64
(lp514
S"set(['/home/tuna/cyberagent/IgoR/C_Sources/Server/igor-assistant-ca-2012/applications/admin/', '/home/tuna/cyberagent/IgoR/C_Sources/Server/igor-assistant-ca-2012/applications/igor/', '/home/tuna/cyberagent/IgoR/C_Sources/Server/igor-assistant-ca-2012/applications/welcome/'])"
p515
asbasbasbag57
(g73
g59
NtRp516
(dp517
g62
(dp518
sg71
g490
sg64
(lp519
g57
(g78
g59
NtRp520
(dp521
g62
(dp522
g82
g83
ssg71
g516
sg64
(lp523
S'applications_parent'
p524
asbag57
(g78
g59
NtRp525
(dp526
g62
(dp527
g89
g90
ssg71
g516
sg64
(lp528
S':'
asbag57
(g78
g59
NtRp529
(dp530
g62
(dp531
sg71
g516
sg64
(lp532
g57
(g58
g59
NtRp533
(dp534
g62
(dp535
g70
I4
ssg71
g529
sg64
(lp536
S'/home/tuna/cyberagent/IgoR/C_Sources/Server/igor-assistant-ca-2012'
p537
asbasbasbag57
(g73
g59
NtRp538
(dp539
g62
(dp540
sg71
g490
sg64
(lp541
g57
(g78
g59
NtRp542
(dp543
g62
(dp544
g82
g83
ssg71
g538
sg64
(lp545
S'cmd_args'
p546
asbag57
(g78
g59
NtRp547
(dp548
g62
(dp549
g89
g90
ssg71
g538
sg64
(lp550
S':'
asbag57
(g78
g59
NtRp551
(dp552
g62
(dp553
sg71
g538
sg64
(lp554
g57
(g58
g59
NtRp555
(dp556
g62
(dp557
g70
I4
ssg71
g551
sg64
(lp558
g57
(g66
g59
NtRp559
(dp560
g62
(dp561
g70
I3
ssg71
Nsg64
(lp562
sbasbasbasbag57
(g73
g59
NtRp563
(dp564
g62
(dp565
sg71
g490
sg64
(lp566
g57
(g78
g59
NtRp567
(dp568
g62
(dp569
g82
g83
ssg71
g563
sg64
(lp570
S'cmd_options'
p571
asbag57
(g78
g59
NtRp572
(dp573
g62
(dp574
g89
g90
ssg71
g563
sg64
(lp575
S':'
asbag57
(g78
g59
NtRp576
(dp577
g62
(dp578
sg71
g563
sg64
(lp579
g57
(g58
g59
NtRp580
(dp581
g62
(dp582
g70
I4
ssg71
g576
sg64
(lp583
S"<Values at 0x23f4998: {'verbose': False, 'ip': '127.0.0.1', 'shutdown_timeout': 5, 'taskbar': False, 'nocron': False, 'pid_filename': 'httpserver.pid', 'maxthreads': None, 'softcron': False, 'server_name': 'tuna.com', 'bpython': False, 'nogui': False, 'port': 8000, 'extcron': False, 'debuglevel': 30, 'test': None, 'folder': '/home/tuna/cyberagent/IgoR/C_Sources/Server/igor-assistant-ca-2012', 'config': '', 'import_models': False, 'winservice': '', 'shell': None, 'run': '', 'log_filename': 'httpserver.log', 'args': [''], 'socket_timeout': 5, 'ssl_ca_certificate': None, 'scheduler': None, 'profiler_filename': None, 'ssl_private_key': '', 'password': '<ask>', 'request_queue_size': 5, 'ssl_certificate': '', 'cronjob': False, 'numthreads': None, 'quiet': False, 'interfaces': None, 'minthreads': None, 'timeout': 10, 'plain': False, 'nobanner': False}>"
p584
asbasbasbag57
(g73
g59
NtRp585
(dp586
g62
(dp587
sg71
g490
sg64
(lp588
g57
(g78
g59
NtRp589
(dp590
g62
(dp591
g82
g83
ssg71
g585
sg64
(lp592
S'db_sessions'
p593
asbag57
(g78
g59
NtRp594
(dp595
g62
(dp596
g89
g90
ssg71
g585
sg64
(lp597
S':'
asbag57
(g78
g59
NtRp598
(dp599
g62
(dp600
sg71
g585
sg64
(lp601
g57
(g58
g59
NtRp602
(dp603
g62
(dp604
g70
I4
ssg71
g598
sg64
(lp605
S'set([])'
p606
asbasbasbag57
(g73
g59
NtRp607
(dp608
g62
(dp609
sg71
g490
sg64
(lp610
g57
(g78
g59
NtRp611
(dp612
g62
(dp613
g82
g83
ssg71
g607
sg64
(lp614
S'debugging'
p615
asbag57
(g78
g59
NtRp616
(dp617
g62
(dp618
g89
g90
ssg71
g607
sg64
(lp619
S':'
asbag57
(g78
g59
NtRp620
(dp621
g62
(dp622
sg71
g607
sg64
(lp623
g57
(g58
g59
NtRp624
(dp625
g62
(dp626
g70
I4
ssg71
g620
sg64
(lp627
g100
asbasbasbag57
(g73
g59
NtRp628
(dp629
g62
(dp630
sg71
g490
sg64
(lp631
g57
(g78
g59
NtRp632
(dp633
g62
(dp634
g82
g83
ssg71
g628
sg64
(lp635
S'gluon_parent'
p636
asbag57
(g78
g59
NtRp637
(dp638
g62
(dp639
g89
g90
ssg71
g628
sg64
(lp640
S':'
asbag57
(g78
g59
NtRp641
(dp642
g62
(dp643
sg71
g628
sg64
(lp644
g57
(g58
g59
NtRp645
(dp646
g62
(dp647
g70
I4
ssg71
g641
sg64
(lp648
S'/home/tuna/cyberagent/IgoR/C_Sources/Server/igor-assistant-ca-2012'
p649
asbasbasbag57
(g73
g59
NtRp650
(dp651
g62
(dp652
sg71
g490
sg64
(lp653
g57
(g78
g59
NtRp654
(dp655
g62
(dp656
g82
g83
ssg71
g650
sg64
(lp657
S'http_accept'
p658
asbag57
(g78
g59
NtRp659
(dp660
g62
(dp661
g89
g90
ssg71
g650
sg64
(lp662
S':'
asbag57
(g78
g59
NtRp663
(dp664
g62
(dp665
sg71
g650
sg64
(lp666
g57
(g58
g59
NtRp667
(dp668
g62
(dp669
g70
I4
ssg71
g663
sg64
(lp670
S'text/html,application/xhtml+xml,application/xml;q=0.9,*/*;q=0.8'
p671
asbasbasbag57
(g73
g59
NtRp672
(dp673
g62
(dp674
sg71
g490
sg64
(lp675
g57
(g78
g59
NtRp676
(dp677
g62
(dp678
g82
g83
ssg71
g672
sg64
(lp679
S'http_accept_encoding'
p680
asbag57
(g78
g59
NtRp681
(dp682
g62
(dp683
g89
g90
ssg71
g672
sg64
(lp684
S':'
asbag57
(g78
g59
NtRp685
(dp686
g62
(dp687
sg71
g672
sg64
(lp688
g57
(g58
g59
NtRp689
(dp690
g62
(dp691
g70
I4
ssg71
g685
sg64
(lp692
S'gzip, deflate'
p693
asbasbasbag57
(g73
g59
NtRp694
(dp695
g62
(dp696
sg71
g490
sg64
(lp697
g57
(g78
g59
NtRp698
(dp699
g62
(dp700
g82
g83
ssg71
g694
sg64
(lp701
S'http_accept_language'
p702
asbag57
(g78
g59
NtRp703
(dp704
g62
(dp705
g89
g90
ssg71
g694
sg64
(lp706
S':'
asbag57
(g78
g59
NtRp707
(dp708
g62
(dp709
sg71
g694
sg64
(lp710
g57
(g58
g59
NtRp711
(dp712
g62
(dp713
g70
I4
ssg71
g707
sg64
(lp714
S'en-us,en;q=0.5'
p715
asbasbasbag57
(g73
g59
NtRp716
(dp717
g62
(dp718
sg71
g490
sg64
(lp719
g57
(g78
g59
NtRp720
(dp721
g62
(dp722
g82
g83
ssg71
g716
sg64
(lp723
S'http_connection'
p724
asbag57
(g78
g59
NtRp725
(dp726
g62
(dp727
g89
g90
ssg71
g716
sg64
(lp728
S':'
asbag57
(g78
g59
NtRp729
(dp730
g62
(dp731
sg71
g716
sg64
(lp732
g57
(g58
g59
NtRp733
(dp734
g62
(dp735
g70
I4
ssg71
g729
sg64
(lp736
S'keep-alive'
p737
asbasbasbag57
(g73
g59
NtRp738
(dp739
g62
(dp740
sg71
g490
sg64
(lp741
g57
(g78
g59
NtRp742
(dp743
g62
(dp744
g82
g83
ssg71
g738
sg64
(lp745
S'http_cookie'
p746
asbag57
(g78
g59
NtRp747
(dp748
g62
(dp749
g89
g90
ssg71
g738
sg64
(lp750
S':'
asbag57
(g78
g59
NtRp751
(dp752
g62
(dp753
sg71
g738
sg64
(lp754
g57
(g58
g59
NtRp755
(dp756
g62
(dp757
g70
I4
ssg71
g751
sg64
(lp758
S'session_id_admin=127.0.0.1-f1e6ac74-2937-432d-9dc6-d39d210ef8c2'
p759
asbasbasbag57
(g73
g59
NtRp760
(dp761
g62
(dp762
sg71
g490
sg64
(lp763
g57
(g78
g59
NtRp764
(dp765
g62
(dp766
g82
g83
ssg71
g760
sg64
(lp767
S'http_host'
p768
asbag57
(g78
g59
NtRp769
(dp770
g62
(dp771
g89
g90
ssg71
g760
sg64
(lp772
S':'
asbag57
(g78
g59
NtRp773
(dp774
g62
(dp775
sg71
g760
sg64
(lp776
g57
(g58
g59
NtRp777
(dp778
g62
(dp779
g70
I4
ssg71
g773
sg64
(lp780
S'127.0.0.1:8000'
p781
asbasbasbag57
(g73
g59
NtRp782
(dp783
g62
(dp784
sg71
g490
sg64
(lp785
g57
(g78
g59
NtRp786
(dp787
g62
(dp788
g82
g83
ssg71
g782
sg64
(lp789
S'http_user_agent'
p790
asbag57
(g78
g59
NtRp791
(dp792
g62
(dp793
g89
g90
ssg71
g782
sg64
(lp794
S':'
asbag57
(g78
g59
NtRp795
(dp796
g62
(dp797
sg71
g782
sg64
(lp798
g57
(g58
g59
NtRp799
(dp800
g62
(dp801
g70
I4
ssg71
g795
sg64
(lp802
S'Mozilla/5.0 (X11; Linux x86_64; rv:14.0) Gecko/20100101 Firefox/14.0.1'
p803
asbasbasbag57
(g73
g59
NtRp804
(dp805
g62
(dp806
sg71
g490
sg64
(lp807
g57
(g78
g59
NtRp808
(dp809
g62
(dp810
g82
g83
ssg71
g804
sg64
(lp811
S'is_jython'
p812
asbag57
(g78
g59
NtRp813
(dp814
g62
(dp815
g89
g90
ssg71
g804
sg64
(lp816
S':'
asbag57
(g78
g59
NtRp817
(dp818
g62
(dp819
sg71
g804
sg64
(lp820
g57
(g58
g59
NtRp821
(dp822
g62
(dp823
g70
I4
ssg71
g817
sg64
(lp824
g100
asbasbasbag57
(g73
g59
NtRp825
(dp826
g62
(dp827
sg71
g490
sg64
(lp828
g57
(g78
g59
NtRp829
(dp830
g62
(dp831
g82
g83
ssg71
g825
sg64
(lp832
S'is_pypy'
p833
asbag57
(g78
g59
NtRp834
(dp835
g62
(dp836
g89
g90
ssg71
g825
sg64
(lp837
S':'
asbag57
(g78
g59
NtRp838
(dp839
g62
(dp840
sg71
g825
sg64
(lp841
g57
(g58
g59
NtRp842
(dp843
g62
(dp844
g70
I4
ssg71
g838
sg64
(lp845
g100
asbasbasbag57
(g73
g59
NtRp846
(dp847
g62
(dp848
sg71
g490
sg64
(lp849
g57
(g78
g59
NtRp850
(dp851
g62
(dp852
g82
g83
ssg71
g846
sg64
(lp853
S'path_info'
p854
asbag57
(g78
g59
NtRp855
(dp856
g62
(dp857
g89
g90
ssg71
g846
sg64
(lp858
S':'
asbag57
(g78
g59
NtRp859
(dp860
g62
(dp861
sg71
g846
sg64
(lp862
g57
(g58
g59
NtRp863
(dp864
g62
(dp865
g70
I4
ssg71
g859
sg64
(lp866
S'/igor/project/call/json/get_project_detail/2'
p867
asbasbasbag57
(g73
g59
NtRp868
(dp869
g62
(dp870
sg71
g490
sg64
(lp871
g57
(g78
g59
NtRp872
(dp873
g62
(dp874
g82
g83
ssg71
g868
sg64
(lp875
S'query_string'
p876
asbag57
(g78
g59
NtRp877
(dp878
g62
(dp879
g89
g90
ssg71
g868
sg64
(lp880
S':'
asbag57
(g78
g59
NtRp881
(dp882
g62
(dp883
sg71
g868
sg64
(lp884
g57
(g58
g59
NtRp885
(dp886
g62
(dp887
g70
I4
ssg71
g881
sg64
(lp888
S''
asbasbasbag57
(g73
g59
NtRp889
(dp890
g62
(dp891
sg71
g490
sg64
(lp892
g57
(g78
g59
NtRp893
(dp894
g62
(dp895
g82
g83
ssg71
g889
sg64
(lp896
S'remote_addr'
p897
asbag57
(g78
g59
NtRp898
(dp899
g62
(dp900
g89
g90
ssg71
g889
sg64
(lp901
S':'
asbag57
(g78
g59
NtRp902
(dp903
g62
(dp904
sg71
g889
sg64
(lp905
g57
(g58
g59
NtRp906
(dp907
g62
(dp908
g70
I4
ssg71
g902
sg64
(lp909
g228
asbasbasbag57
(g73
g59
NtRp910
(dp911
g62
(dp912
sg71
g490
sg64
(lp913
g57
(g78
g59
NtRp914
(dp915
g62
(dp916
g82
g83
ssg71
g910
sg64
(lp917
S'remote_port'
p918
asbag57
(g78
g59
NtRp919
(dp920
g62
(dp921
g89
g90
ssg71
g910
sg64
(lp922
S':'
asbag57
(g78
g59
NtRp923
(dp924
g62
(dp925
sg71
g910
sg64
(lp926
g57
(g58
g59
NtRp927
(dp928
g62
(dp929
g70
I4
ssg71
g923
sg64
(lp930
S'53311'
p931
asbasbasbag57
(g73
g59
NtRp932
(dp933
g62
(dp934
sg71
g490
sg64
(lp935
g57
(g78
g59
NtRp936
(dp937
g62
(dp938
g82
g83
ssg71
g932
sg64
(lp939
S'request_method'
p940
asbag57
(g78
g59
NtRp941
(dp942
g62
(dp943
g89
g90
ssg71
g932
sg64
(lp944
S':'
asbag57
(g78
g59
NtRp945
(dp946
g62
(dp947
sg71
g932
sg64
(lp948
g57
(g58
g59
NtRp949
(dp950
g62
(dp951
g70
I4
ssg71
g945
sg64
(lp952
S'GET'
p953
asbasbasbag57
(g73
g59
NtRp954
(dp955
g62
(dp956
sg71
g490
sg64
(lp957
g57
(g78
g59
NtRp958
(dp959
g62
(dp960
g82
g83
ssg71
g954
sg64
(lp961
S'script_name'
p962
asbag57
(g78
g59
NtRp963
(dp964
g62
(dp965
g89
g90
ssg71
g954
sg64
(lp966
S':'
asbag57
(g78
g59
NtRp967
(dp968
g62
(dp969
sg71
g954
sg64
(lp970
g57
(g58
g59
NtRp971
(dp972
g62
(dp973
g70
I4
ssg71
g967
sg64
(lp974
S''
asbasbasbag57
(g73
g59
NtRp975
(dp976
g62
(dp977
sg71
g490
sg64
(lp978
g57
(g78
g59
NtRp979
(dp980
g62
(dp981
g82
g83
ssg71
g975
sg64
(lp982
S'server_name'
p983
asbag57
(g78
g59
NtRp984
(dp985
g62
(dp986
g89
g90
ssg71
g975
sg64
(lp987
S':'
asbag57
(g78
g59
NtRp988
(dp989
g62
(dp990
sg71
g975
sg64
(lp991
g57
(g58
g59
NtRp992
(dp993
g62
(dp994
g70
I4
ssg71
g988
sg64
(lp995
S'tuna.com'
p996
asbasbasbag57
(g73
g59
NtRp997
(dp998
g62
(dp999
sg71
g490
sg64
(lp1000
g57
(g78
g59
NtRp1001
(dp1002
g62
(dp1003
g82
g83
ssg71
g997
sg64
(lp1004
S'server_port'
p1005
asbag57
(g78
g59
NtRp1006
(dp1007
g62
(dp1008
g89
g90
ssg71
g997
sg64
(lp1009
S':'
asbag57
(g78
g59
NtRp1010
(dp1011
g62
(dp1012
sg71
g997
sg64
(lp1013
g57
(g58
g59
NtRp1014
(dp1015
g62
(dp1016
g70
I4
ssg71
g1010
sg64
(lp1017
S'8000'
p1018
asbasbasbag57
(g73
g59
NtRp1019
(dp1020
g62
(dp1021
sg71
g490
sg64
(lp1022
g57
(g78
g59
NtRp1023
(dp1024
g62
(dp1025
g82
g83
ssg71
g1019
sg64
(lp1026
S'server_protocol'
p1027
asbag57
(g78
g59
NtRp1028
(dp1029
g62
(dp1030
g89
g90
ssg71
g1019
sg64
(lp1031
S':'
asbag57
(g78
g59
NtRp1032
(dp1033
g62
(dp1034
sg71
g1019
sg64
(lp1035
g57
(g58
g59
NtRp1036
(dp1037
g62
(dp1038
g70
I4
ssg71
g1032
sg64
(lp1039
S'HTTP/1.1'
p1040
asbasbasbag57
(g73
g59
NtRp1041
(dp1042
g62
(dp1043
sg71
g490
sg64
(lp1044
g57
(g78
g59
NtRp1045
(dp1046
g62
(dp1047
g82
g83
ssg71
g1041
sg64
(lp1048
S'server_software'
p1049
asbag57
(g78
g59
NtRp1050
(dp1051
g62
(dp1052
g89
g90
ssg71
g1041
sg64
(lp1053
S':'
asbag57
(g78
g59
NtRp1054
(dp1055
g62
(dp1056
sg71
g1041
sg64
(lp1057
g57
(g58
g59
NtRp1058
(dp1059
g62
(dp1060
g70
I4
ssg71
g1054
sg64
(lp1061
S'Rocket 1.2.4'
p1062
asbasbasbag57
(g73
g59
NtRp1063
(dp1064
g62
(dp1065
sg71
g490
sg64
(lp1066
g57
(g78
g59
NtRp1067
(dp1068
g62
(dp1069
g82
g83
ssg71
g1063
sg64
(lp1070
S'web2py_crontype'
p1071
asbag57
(g78
g59
NtRp1072
(dp1073
g62
(dp1074
g89
g90
ssg71
g1063
sg64
(lp1075
S':'
asbag57
(g78
g59
NtRp1076
(dp1077
g62
(dp1078
sg71
g1063
sg64
(lp1079
g57
(g58
g59
NtRp1080
(dp1081
g62
(dp1082
g70
I4
ssg71
g1076
sg64
(lp1083
S'hard'
p1084
asbasbasbag57
(g73
g59
NtRp1085
(dp1086
g62
(dp1087
sg71
g490
sg64
(lp1088
g57
(g78
g59
NtRp1089
(dp1090
g62
(dp1091
g82
g83
ssg71
g1085
sg64
(lp1092
S'web2py_path'
p1093
asbag57
(g78
g59
NtRp1094
(dp1095
g62
(dp1096
g89
g90
ssg71
g1085
sg64
(lp1097
S':'
asbag57
(g78
g59
NtRp1098
(dp1099
g62
(dp1100
sg71
g1085
sg64
(lp1101
g57
(g58
g59
NtRp1102
(dp1103
g62
(dp1104
g70
I4
ssg71
g1098
sg64
(lp1105
g537
asbasbasbag57
(g73
g59
NtRp1106
(dp1107
g62
(dp1108
sg71
g490
sg64
(lp1109
g57
(g78
g59
NtRp1110
(dp1111
g62
(dp1112
g82
g83
ssg71
g1106
sg64
(lp1113
S'web2py_version'
p1114
asbag57
(g78
g59
NtRp1115
(dp1116
g62
(dp1117
g89
g90
ssg71
g1106
sg64
(lp1118
S':'
asbag57
(g78
g59
NtRp1119
(dp1120
g62
(dp1121
sg71
g1106
sg64
(lp1122
g57
(g58
g59
NtRp1123
(dp1124
g62
(dp1125
g70
I4
ssg71
g1119
sg64
(lp1126
g57
(g66
g59
NtRp1127
(dp1128
g62
(dp1129
g70
I3
ssg71
Nsg64
(lp1130
g57
(g73
g59
NtRp1131
(dp1132
g62
(dp1133
sg71
g1127
sg64
(lp1134
g57
(g78
g59
NtRp1135
(dp1136
g62
(dp1137
sg71
g1131
sg64
(lp1138
g57
(g58
g59
NtRp1139
(dp1140
g62
(dp1141
g70
I3
ssg71
g1135
sg64
(lp1142
S'1'
asbasbasbag57
(g73
g59
NtRp1143
(dp1144
g62
(dp1145
sg71
g1127
sg64
(lp1146
g57
(g78
g59
NtRp1147
(dp1148
g62
(dp1149
sg71
g1143
sg64
(lp1150
g57
(g58
g59
NtRp1151
(dp1152
g62
(dp1153
g70
I3
ssg71
g1147
sg64
(lp1154
S'99'
p1155
asbasbasbag57
(g73
g59
NtRp1156
(dp1157
g62
(dp1158
sg71
g1127
sg64
(lp1159
g57
(g78
g59
NtRp1160
(dp1161
g62
(dp1162
sg71
g1156
sg64
(lp1163
g57
(g58
g59
NtRp1164
(dp1165
g62
(dp1166
g70
I3
ssg71
g1160
sg64
(lp1167
S'7'
asbasbasbag57
(g73
g59
NtRp1168
(dp1169
g62
(dp1170
sg71
g1127
sg64
(lp1171
g57
(g78
g59
NtRp1172
(dp1173
g62
(dp1174
sg71
g1168
sg64
(lp1175
g57
(g58
g59
NtRp1176
(dp1177
g62
(dp1178
g70
I3
ssg71
g1172
sg64
(lp1179
S'datetime.datetime(2012, 3, 4, 22, 12, 8)'
p1180
asbasbasbag57
(g73
g59
NtRp1181
(dp1182
g62
(dp1183
sg71
g1127
sg64
(lp1184
g57
(g78
g59
NtRp1185
(dp1186
g62
(dp1187
sg71
g1181
sg64
(lp1188
g57
(g58
g59
NtRp1189
(dp1190
g62
(dp1191
g70
I3
ssg71
g1185
sg64
(lp1192
S'stable'
p1193
asbasbasbasbasbasbasbag57
(g73
g59
NtRp1194
(dp1195
g62
(dp1196
sg71
g490
sg64
(lp1197
g57
(g78
g59
NtRp1198
(dp1199
g62
(dp1200
g82
g83
ssg71
g1194
sg64
(lp1201
S'wsgi_errors'
p1202
asbag57
(g78
g59
NtRp1203
(dp1204
g62
(dp1205
g89
g90
ssg71
g1194
sg64
(lp1206
S':'
asbag57
(g78
g59
NtRp1207
(dp1208
g62
(dp1209
sg71
g1194
sg64
(lp1210
g57
(g58
g59
NtRp1211
(dp1212
g62
(dp1213
g70
I4
ssg71
g1207
sg64
(lp1214
S"<open file '<stderr>', mode 'w' at 0x7f46c33da270>"
p1215
asbasbasbag57
(g73
g59
NtRp1216
(dp1217
g62
(dp1218
sg71
g490
sg64
(lp1219
g57
(g78
g59
NtRp1220
(dp1221
g62
(dp1222
g82
g83
ssg71
g1216
sg64
(lp1223
S'wsgi_file_wrapper'
p1224
asbag57
(g78
g59
NtRp1225
(dp1226
g62
(dp1227
g89
g90
ssg71
g1216
sg64
(lp1228
S':'
asbag57
(g78
g59
NtRp1229
(dp1230
g62
(dp1231
sg71
g1216
sg64
(lp1232
g57
(g58
g59
NtRp1233
(dp1234
g62
(dp1235
g70
I4
ssg71
g1229
sg64
(lp1236
S'<class wsgiref.util.FileWrapper at 0x22d1940>'
p1237
asbasbasbag57
(g73
g59
NtRp1238
(dp1239
g62
(dp1240
sg71
g490
sg64
(lp1241
g57
(g78
g59
NtRp1242
(dp1243
g62
(dp1244
g82
g83
ssg71
g1238
sg64
(lp1245
S'wsgi_input'
p1246
asbag57
(g78
g59
NtRp1247
(dp1248
g62
(dp1249
g89
g90
ssg71
g1238
sg64
(lp1250
S':'
asbag57
(g78
g59
NtRp1251
(dp1252
g62
(dp1253
sg71
g1238
sg64
(lp1254
g57
(g58
g59
NtRp1255
(dp1256
g62
(dp1257
g70
I4
ssg71
g1251
sg64
(lp1258
S'<socket._fileobject object at 0x7f46a05332d0>'
p1259
asbasbasbag57
(g73
g59
NtRp1260
(dp1261
g62
(dp1262
sg71
g490
sg64
(lp1263
g57
(g78
g59
NtRp1264
(dp1265
g62
(dp1266
g82
g83
ssg71
g1260
sg64
(lp1267
S'wsgi_multiprocess'
p1268
asbag57
(g78
g59
NtRp1269
(dp1270
g62
(dp1271
g89
g90
ssg71
g1260
sg64
(lp1272
S':'
asbag57
(g78
g59
NtRp1273
(dp1274
g62
(dp1275
sg71
g1260
sg64
(lp1276
g57
(g58
g59
NtRp1277
(dp1278
g62
(dp1279
g70
I4
ssg71
g1273
sg64
(lp1280
g100
asbasbasbag57
(g73
g59
NtRp1281
(dp1282
g62
(dp1283
sg71
g490
sg64
(lp1284
g57
(g78
g59
NtRp1285
(dp1286
g62
(dp1287
g82
g83
ssg71
g1281
sg64
(lp1288
S'wsgi_multithread'
p1289
asbag57
(g78
g59
NtRp1290
(dp1291
g62
(dp1292
g89
g90
ssg71
g1281
sg64
(lp1293
S':'
asbag57
(g78
g59
NtRp1294
(dp1295
g62
(dp1296
sg71
g1281
sg64
(lp1297
g57
(g58
g59
NtRp1298
(dp1299
g62
(dp1300
g70
I4
ssg71
g1294
sg64
(lp1301
S'True'
p1302
asbasbasbag57
(g73
g59
NtRp1303
(dp1304
g62
(dp1305
sg71
g490
sg64
(lp1306
g57
(g78
g59
NtRp1307
(dp1308
g62
(dp1309
g82
g83
ssg71
g1303
sg64
(lp1310
S'wsgi_run_once'
p1311
asbag57
(g78
g59
NtRp1312
(dp1313
g62
(dp1314
g89
g90
ssg71
g1303
sg64
(lp1315
S':'
asbag57
(g78
g59
NtRp1316
(dp1317
g62
(dp1318
sg71
g1303
sg64
(lp1319
g57
(g58
g59
NtRp1320
(dp1321
g62
(dp1322
g70
I4
ssg71
g1316
sg64
(lp1323
g100
asbasbasbag57
(g73
g59
NtRp1324
(dp1325
g62
(dp1326
sg71
g490
sg64
(lp1327
g57
(g78
g59
NtRp1328
(dp1329
g62
(dp1330
g82
g83
ssg71
g1324
sg64
(lp1331
S'wsgi_url_scheme'
p1332
asbag57
(g78
g59
NtRp1333
(dp1334
g62
(dp1335
g89
g90
ssg71
g1324
sg64
(lp1336
S':'
asbag57
(g78
g59
NtRp1337
(dp1338
g62
(dp1339
sg71
g1324
sg64
(lp1340
g57
(g58
g59
NtRp1341
(dp1342
g62
(dp1343
g70
I4
ssg71
g1337
sg64
(lp1344
S'http'
p1345
asbasbasbag57
(g73
g59
NtRp1346
(dp1347
g62
(dp1348
sg71
g490
sg64
(lp1349
g57
(g78
g59
NtRp1350
(dp1351
g62
(dp1352
g82
g83
ssg71
g1346
sg64
(lp1353
S'wsgi_version'
p1354
asbag57
(g78
g59
NtRp1355
(dp1356
g62
(dp1357
g89
g90
ssg71
g1346
sg64
(lp1358
S':'
asbag57
(g78
g59
NtRp1359
(dp1360
g62
(dp1361
sg71
g1346
sg64
(lp1362
g57
(g58
g59
NtRp1363
(dp1364
g62
(dp1365
g70
I4
ssg71
g1359
sg64
(lp1366
g57
(g66
g59
NtRp1367
(dp1368
g62
(dp1369
g70
I3
ssg71
Nsg64
(lp1370
g57
(g73
g59
NtRp1371
(dp1372
g62
(dp1373
sg71
g1367
sg64
(lp1374
g57
(g78
g59
NtRp1375
(dp1376
g62
(dp1377
sg71
g1371
sg64
(lp1378
g57
(g58
g59
NtRp1379
(dp1380
g62
(dp1381
g70
I3
ssg71
g1375
sg64
(lp1382
S'1'
asbasbasbag57
(g73
g59
NtRp1383
(dp1384
g62
(dp1385
sg71
g1367
sg64
(lp1386
g57
(g78
g59
NtRp1387
(dp1388
g62
(dp1389
sg71
g1383
sg64
(lp1390
g57
(g58
g59
NtRp1391
(dp1392
g62
(dp1393
g70
I3
ssg71
g1387
sg64
(lp1394
S'0'
asbasbasbasbasbasbasbasbasbasbasbag57
(g73
g59
NtRp1395
(dp1396
g62
(dp1397
sg71
g67
sg64
(lp1398
g57
(g78
g59
NtRp1399
(dp1400
g62
(dp1401
g82
g83
ssg71
g1395
sg64
(lp1402
S'extension'
p1403
asbag57
(g78
g59
NtRp1404
(dp1405
g62
(dp1406
g89
g90
ssg71
g1395
sg64
(lp1407
S':'
asbag57
(g78
g59
NtRp1408
(dp1409
g62
(dp1410
sg71
g1395
sg64
(lp1411
g57
(g58
g59
NtRp1412
(dp1413
g62
(dp1414
g70
I5
ssg71
g1408
sg64
(lp1415
S'html'
p1416
asbasbasbag57
(g73
g59
NtRp1417
(dp1418
g62
(dp1419
sg71
g67
sg64
(lp1420
g57
(g78
g59
NtRp1421
(dp1422
g62
(dp1423
g82
g83
ssg71
g1417
sg64
(lp1424
S'folder'
p1425
asbag57
(g78
g59
NtRp1426
(dp1427
g62
(dp1428
g89
g90
ssg71
g1417
sg64
(lp1429
S':'
asbag57
(g78
g59
NtRp1430
(dp1431
g62
(dp1432
sg71
g1417
sg64
(lp1433
g57
(g58
g59
NtRp1434
(dp1435
g62
(dp1436
g70
I5
ssg71
g1430
sg64
(lp1437
S'/home/tuna/cyberagent/IgoR/C_Sources/Server/igor-assistant-ca-2012/applications/igor/'
p1438
asbasbasbag57
(g73
g59
NtRp1439
(dp1440
g62
(dp1441
sg71
g67
sg64
(lp1442
g57
(g78
g59
NtRp1443
(dp1444
g62
(dp1445
g82
g83
ssg71
g1439
sg64
(lp1446
S'function'
p1447
asbag57
(g78
g59
NtRp1448
(dp1449
g62
(dp1450
g89
g90
ssg71
g1439
sg64
(lp1451
S':'
asbag57
(g78
g59
NtRp1452
(dp1453
g62
(dp1454
sg71
g1439
sg64
(lp1455
g57
(g58
g59
NtRp1456
(dp1457
g62
(dp1458
g70
I5
ssg71
g1452
sg64
(lp1459
S'call'
p1460
asbasbasbag57
(g73
g59
NtRp1461
(dp1462
g62
(dp1463
sg71
g67
sg64
(lp1464
g57
(g78
g59
NtRp1465
(dp1466
g62
(dp1467
g82
g83
ssg71
g1461
sg64
(lp1468
S'get_vars'
p1469
asbag57
(g78
g59
NtRp1470
(dp1471
g62
(dp1472
g89
g90
ssg71
g1461
sg64
(lp1473
S':'
asbag57
(g78
g59
NtRp1474
(dp1475
g62
(dp1476
sg71
g1461
sg64
(lp1477
g57
(g58
g59
NtRp1478
(dp1479
g62
(dp1480
g70
I5
ssg71
g1474
sg64
(lp1481
g57
(g66
g59
NtRp1482
(dp1483
g62
(dp1484
g70
I4
ssg71
Nsg64
(lp1485
sbasbasbasbag57
(g73
g59
NtRp1486
(dp1487
g62
(dp1488
sg71
g67
sg64
(lp1489
g57
(g78
g59
NtRp1490
(dp1491
g62
(dp1492
g82
g83
ssg71
g1486
sg64
(lp1493
S'global_settings'
p1494
asbag57
(g78
g59
NtRp1495
(dp1496
g62
(dp1497
g89
g90
ssg71
g1486
sg64
(lp1498
S':'
asbag57
(g78
g59
NtRp1499
(dp1500
g62
(dp1501
sg71
g1486
sg64
(lp1502
g57
(g58
g59
NtRp1503
(dp1504
g62
(dp1505
g70
I5
ssg71
g1499
sg64
(lp1506
g57
(g66
g59
NtRp1507
(dp1508
g62
(dp1509
g70
I4
ssg71
Nsg64
(lp1510
g57
(g73
g59
NtRp1511
(dp1512
g62
(dp1513
sg71
g1507
sg64
(lp1514
g57
(g78
g59
NtRp1515
(dp1516
g62
(dp1517
g82
g83
ssg71
g1511
sg64
(lp1518
g502
asbag57
(g78
g59
NtRp1519
(dp1520
g62
(dp1521
g89
g90
ssg71
g1511
sg64
(lp1522
S':'
asbag57
(g78
g59
NtRp1523
(dp1524
g62
(dp1525
sg71
g1511
sg64
(lp1526
g57
(g58
g59
NtRp1527
(dp1528
g62
(dp1529
g70
I4
ssg71
g1523
sg64
(lp1530
S"set(['/home/tuna/cyberagent/IgoR/C_Sources/Server/igor-assistant-ca-2012/applications/admin/', '/home/tuna/cyberagent/IgoR/C_Sources/Server/igor-assistant-ca-2012/applications/igor/', '/home/tuna/cyberagent/IgoR/C_Sources/Server/igor-assistant-ca-2012/applications/welcome/'])"
p1531
asbasbasbag57
(g73
g59
NtRp1532
(dp1533
g62
(dp1534
sg71
g1507
sg64
(lp1535
g57
(g78
g59
NtRp1536
(dp1537
g62
(dp1538
g82
g83
ssg71
g1532
sg64
(lp1539
g524
asbag57
(g78
g59
NtRp1540
(dp1541
g62
(dp1542
g89
g90
ssg71
g1532
sg64
(lp1543
S':'
asbag57
(g78
g59
NtRp1544
(dp1545
g62
(dp1546
sg71
g1532
sg64
(lp1547
g57
(g58
g59
NtRp1548
(dp1549
g62
(dp1550
g70
I4
ssg71
g1544
sg64
(lp1551
g537
asbasbasbag57
(g73
g59
NtRp1552
(dp1553
g62
(dp1554
sg71
g1507
sg64
(lp1555
g57
(g78
g59
NtRp1556
(dp1557
g62
(dp1558
g82
g83
ssg71
g1552
sg64
(lp1559
g546
asbag57
(g78
g59
NtRp1560
(dp1561
g62
(dp1562
g89
g90
ssg71
g1552
sg64
(lp1563
S':'
asbag57
(g78
g59
NtRp1564
(dp1565
g62
(dp1566
sg71
g1552
sg64
(lp1567
g57
(g58
g59
NtRp1568
(dp1569
g62
(dp1570
g70
I4
ssg71
g1564
sg64
(lp1571
g57
(g66
g59
NtRp1572
(dp1573
g62
(dp1574
g70
I3
ssg71
Nsg64
(lp1575
sbasbasbasbag57
(g73
g59
NtRp1576
(dp1577
g62
(dp1578
sg71
g1507
sg64
(lp1579
g57
(g78
g59
NtRp1580
(dp1581
g62
(dp1582
g82
g83
ssg71
g1576
sg64
(lp1583
g571
asbag57
(g78
g59
NtRp1584
(dp1585
g62
(dp1586
g89
g90
ssg71
g1576
sg64
(lp1587
S':'
asbag57
(g78
g59
NtRp1588
(dp1589
g62
(dp1590
sg71
g1576
sg64
(lp1591
g57
(g58
g59
NtRp1592
(dp1593
g62
(dp1594
g70
I4
ssg71
g1588
sg64
(lp1595
S"<Values at 0x23f4998: {'verbose': False, 'ip': '127.0.0.1', 'shutdown_timeout': 5, 'taskbar': False, 'nocron': False, 'pid_filename': 'httpserver.pid', 'maxthreads': None, 'softcron': False, 'server_name': 'tuna.com', 'bpython': False, 'nogui': False, 'port': 8000, 'extcron': False, 'debuglevel': 30, 'test': None, 'folder': '/home/tuna/cyberagent/IgoR/C_Sources/Server/igor-assistant-ca-2012', 'config': '', 'import_models': False, 'winservice': '', 'shell': None, 'run': '', 'log_filename': 'httpserver.log', 'args': [''], 'socket_timeout': 5, 'ssl_ca_certificate': None, 'scheduler': None, 'profiler_filename': None, 'ssl_private_key': '', 'password': '<ask>', 'request_queue_size': 5, 'ssl_certificate': '', 'cronjob': False, 'numthreads': None, 'quiet': False, 'interfaces': None, 'minthreads': None, 'timeout': 10, 'plain': False, 'nobanner': False}>"
p1596
asbasbasbag57
(g73
g59
NtRp1597
(dp1598
g62
(dp1599
sg71
g1507
sg64
(lp1600
g57
(g78
g59
NtRp1601
(dp1602
g62
(dp1603
g82
g83
ssg71
g1597
sg64
(lp1604
g593
asbag57
(g78
g59
NtRp1605
(dp1606
g62
(dp1607
g89
g90
ssg71
g1597
sg64
(lp1608
S':'
asbag57
(g78
g59
NtRp1609
(dp1610
g62
(dp1611
sg71
g1597
sg64
(lp1612
g57
(g58
g59
NtRp1613
(dp1614
g62
(dp1615
g70
I4
ssg71
g1609
sg64
(lp1616
S'set([])'
p1617
asbasbasbag57
(g73
g59
NtRp1618
(dp1619
g62
(dp1620
sg71
g1507
sg64
(lp1621
g57
(g78
g59
NtRp1622
(dp1623
g62
(dp1624
g82
g83
ssg71
g1618
sg64
(lp1625
g615
asbag57
(g78
g59
NtRp1626
(dp1627
g62
(dp1628
g89
g90
ssg71
g1618
sg64
(lp1629
S':'
asbag57
(g78
g59
NtRp1630
(dp1631
g62
(dp1632
sg71
g1618
sg64
(lp1633
g57
(g58
g59
NtRp1634
(dp1635
g62
(dp1636
g70
I4
ssg71
g1630
sg64
(lp1637
g100
asbasbasbag57
(g73
g59
NtRp1638
(dp1639
g62
(dp1640
sg71
g1507
sg64
(lp1641
g57
(g78
g59
NtRp1642
(dp1643
g62
(dp1644
g82
g83
ssg71
g1638
sg64
(lp1645
g636
asbag57
(g78
g59
NtRp1646
(dp1647
g62
(dp1648
g89
g90
ssg71
g1638
sg64
(lp1649
S':'
asbag57
(g78
g59
NtRp1650
(dp1651
g62
(dp1652
sg71
g1638
sg64
(lp1653
g57
(g58
g59
NtRp1654
(dp1655
g62
(dp1656
g70
I4
ssg71
g1650
sg64
(lp1657
g649
asbasbasbag57
(g73
g59
NtRp1658
(dp1659
g62
(dp1660
sg71
g1507
sg64
(lp1661
g57
(g78
g59
NtRp1662
(dp1663
g62
(dp1664
g82
g83
ssg71
g1658
sg64
(lp1665
g812
asbag57
(g78
g59
NtRp1666
(dp1667
g62
(dp1668
g89
g90
ssg71
g1658
sg64
(lp1669
S':'
asbag57
(g78
g59
NtRp1670
(dp1671
g62
(dp1672
sg71
g1658
sg64
(lp1673
g57
(g58
g59
NtRp1674
(dp1675
g62
(dp1676
g70
I4
ssg71
g1670
sg64
(lp1677
g100
asbasbasbag57
(g73
g59
NtRp1678
(dp1679
g62
(dp1680
sg71
g1507
sg64
(lp1681
g57
(g78
g59
NtRp1682
(dp1683
g62
(dp1684
g82
g83
ssg71
g1678
sg64
(lp1685
g833
asbag57
(g78
g59
NtRp1686
(dp1687
g62
(dp1688
g89
g90
ssg71
g1678
sg64
(lp1689
S':'
asbag57
(g78
g59
NtRp1690
(dp1691
g62
(dp1692
sg71
g1678
sg64
(lp1693
g57
(g58
g59
NtRp1694
(dp1695
g62
(dp1696
g70
I4
ssg71
g1690
sg64
(lp1697
g100
asbasbasbag57
(g73
g59
NtRp1698
(dp1699
g62
(dp1700
sg71
g1507
sg64
(lp1701
g57
(g78
g59
NtRp1702
(dp1703
g62
(dp1704
g82
g83
ssg71
g1698
sg64
(lp1705
g1071
asbag57
(g78
g59
NtRp1706
(dp1707
g62
(dp1708
g89
g90
ssg71
g1698
sg64
(lp1709
S':'
asbag57
(g78
g59
NtRp1710
(dp1711
g62
(dp1712
sg71
g1698
sg64
(lp1713
g57
(g58
g59
NtRp1714
(dp1715
g62
(dp1716
g70
I4
ssg71
g1710
sg64
(lp1717
g1084
asbasbasbag57
(g73
g59
NtRp1718
(dp1719
g62
(dp1720
sg71
g1507
sg64
(lp1721
g57
(g78
g59
NtRp1722
(dp1723
g62
(dp1724
g82
g83
ssg71
g1718
sg64
(lp1725
g1114
asbag57
(g78
g59
NtRp1726
(dp1727
g62
(dp1728
g89
g90
ssg71
g1718
sg64
(lp1729
S':'
asbag57
(g78
g59
NtRp1730
(dp1731
g62
(dp1732
sg71
g1718
sg64
(lp1733
g57
(g58
g59
NtRp1734
(dp1735
g62
(dp1736
g70
I4
ssg71
g1730
sg64
(lp1737
g57
(g66
g59
NtRp1738
(dp1739
g62
(dp1740
g70
I3
ssg71
Nsg64
(lp1741
g57
(g73
g59
NtRp1742
(dp1743
g62
(dp1744
sg71
g1738
sg64
(lp1745
g57
(g78
g59
NtRp1746
(dp1747
g62
(dp1748
sg71
g1742
sg64
(lp1749
g57
(g58
g59
NtRp1750
(dp1751
g62
(dp1752
g70
I3
ssg71
g1746
sg64
(lp1753
S'1'
asbasbasbag57
(g73
g59
NtRp1754
(dp1755
g62
(dp1756
sg71
g1738
sg64
(lp1757
g57
(g78
g59
NtRp1758
(dp1759
g62
(dp1760
sg71
g1754
sg64
(lp1761
g57
(g58
g59
NtRp1762
(dp1763
g62
(dp1764
g70
I3
ssg71
g1758
sg64
(lp1765
S'99'
p1766
asbasbasbag57
(g73
g59
NtRp1767
(dp1768
g62
(dp1769
sg71
g1738
sg64
(lp1770
g57
(g78
g59
NtRp1771
(dp1772
g62
(dp1773
sg71
g1767
sg64
(lp1774
g57
(g58
g59
NtRp1775
(dp1776
g62
(dp1777
g70
I3
ssg71
g1771
sg64
(lp1778
S'7'
asbasbasbag57
(g73
g59
NtRp1779
(dp1780
g62
(dp1781
sg71
g1738
sg64
(lp1782
g57
(g78
g59
NtRp1783
(dp1784
g62
(dp1785
sg71
g1779
sg64
(lp1786
g57
(g58
g59
NtRp1787
(dp1788
g62
(dp1789
g70
I3
ssg71
g1783
sg64
(lp1790
S'datetime.datetime(2012, 3, 4, 22, 12, 8)'
p1791
asbasbasbag57
(g73
g59
NtRp1792
(dp1793
g62
(dp1794
sg71
g1738
sg64
(lp1795
g57
(g78
g59
NtRp1796
(dp1797
g62
(dp1798
sg71
g1792
sg64
(lp1799
g57
(g58
g59
NtRp1800
(dp1801
g62
(dp1802
g70
I3
ssg71
g1796
sg64
(lp1803
g1193
asbasbasbasbasbasbasbasbasbasbasbag57
(g73
g59
NtRp1804
(dp1805
g62
(dp1806
sg71
g67
sg64
(lp1807
g57
(g78
g59
NtRp1808
(dp1809
g62
(dp1810
g82
g83
ssg71
g1804
sg64
(lp1811
S'is_https'
p1812
asbag57
(g78
g59
NtRp1813
(dp1814
g62
(dp1815
g89
g90
ssg71
g1804
sg64
(lp1816
S':'
asbag57
(g78
g59
NtRp1817
(dp1818
g62
(dp1819
sg71
g1804
sg64
(lp1820
g57
(g58
g59
NtRp1821
(dp1822
g62
(dp1823
g70
I5
ssg71
g1817
sg64
(lp1824
g100
asbasbasbag57
(g73
g59
NtRp1825
(dp1826
g62
(dp1827
sg71
g67
sg64
(lp1828
g57
(g78
g59
NtRp1829
(dp1830
g62
(dp1831
g82
g83
ssg71
g1825
sg64
(lp1832
S'is_local'
p1833
asbag57
(g78
g59
NtRp1834
(dp1835
g62
(dp1836
g89
g90
ssg71
g1825
sg64
(lp1837
S':'
asbag57
(g78
g59
NtRp1838
(dp1839
g62
(dp1840
sg71
g1825
sg64
(lp1841
g57
(g58
g59
NtRp1842
(dp1843
g62
(dp1844
g70
I5
ssg71
g1838
sg64
(lp1845
g1302
asbasbasbag57
(g73
g59
NtRp1846
(dp1847
g62
(dp1848
sg71
g67
sg64
(lp1849
g57
(g78
g59
NtRp1850
(dp1851
g62
(dp1852
g82
g83
ssg71
g1846
sg64
(lp1853
S'is_restful'
p1854
asbag57
(g78
g59
NtRp1855
(dp1856
g62
(dp1857
g89
g90
ssg71
g1846
sg64
(lp1858
S':'
asbag57
(g78
g59
NtRp1859
(dp1860
g62
(dp1861
sg71
g1846
sg64
(lp1862
g57
(g58
g59
NtRp1863
(dp1864
g62
(dp1865
g70
I5
ssg71
g1859
sg64
(lp1866
g100
asbasbasbag57
(g73
g59
NtRp1867
(dp1868
g62
(dp1869
sg71
g67
sg64
(lp1870
g57
(g78
g59
NtRp1871
(dp1872
g62
(dp1873
g82
g83
ssg71
g1867
sg64
(lp1874
S'now'
p1875
asbag57
(g78
g59
NtRp1876
(dp1877
g62
(dp1878
g89
g90
ssg71
g1867
sg64
(lp1879
S':'
asbag57
(g78
g59
NtRp1880
(dp1881
g62
(dp1882
sg71
g1867
sg64
(lp1883
g57
(g58
g59
NtRp1884
(dp1885
g62
(dp1886
g70
I5
ssg71
g1880
sg64
(lp1887
S'datetime.datetime(2012, 8, 3, 0, 48, 55, 568330)'
p1888
asbasbasbag57
(g73
g59
NtRp1889
(dp1890
g62
(dp1891
sg71
g67
sg64
(lp1892
g57
(g78
g59
NtRp1893
(dp1894
g62
(dp1895
g82
g83
ssg71
g1889
sg64
(lp1896
S'post_vars'
p1897
asbag57
(g78
g59
NtRp1898
(dp1899
g62
(dp1900
g89
g90
ssg71
g1889
sg64
(lp1901
S':'
asbag57
(g78
g59
NtRp1902
(dp1903
g62
(dp1904
sg71
g1889
sg64
(lp1905
g57
(g58
g59
NtRp1906
(dp1907
g62
(dp1908
g70
I5
ssg71
g1902
sg64
(lp1909
g57
(g66
g59
NtRp1910
(dp1911
g62
(dp1912
g70
I4
ssg71
Nsg64
(lp1913
sbasbasbasbag57
(g73
g59
NtRp1914
(dp1915
g62
(dp1916
sg71
g67
sg64
(lp1917
g57
(g78
g59
NtRp1918
(dp1919
g62
(dp1920
g82
g83
ssg71
g1914
sg64
(lp1921
S'raw_args'
p1922
asbag57
(g78
g59
NtRp1923
(dp1924
g62
(dp1925
g89
g90
ssg71
g1914
sg64
(lp1926
S':'
asbag57
(g78
g59
NtRp1927
(dp1928
g62
(dp1929
sg71
g1914
sg64
(lp1930
g57
(g58
g59
NtRp1931
(dp1932
g62
(dp1933
g70
I5
ssg71
g1927
sg64
(lp1934
S'json/get_project_detail/2'
p1935
asbasbasbag57
(g73
g59
NtRp1936
(dp1937
g62
(dp1938
sg71
g67
sg64
(lp1939
g57
(g78
g59
NtRp1940
(dp1941
g62
(dp1942
g82
g83
ssg71
g1936
sg64
(lp1943
S'url'
p1944
asbag57
(g78
g59
NtRp1945
(dp1946
g62
(dp1947
g89
g90
ssg71
g1936
sg64
(lp1948
S':'
asbag57
(g78
g59
NtRp1949
(dp1950
g62
(dp1951
sg71
g1936
sg64
(lp1952
g57
(g58
g59
NtRp1953
(dp1954
g62
(dp1955
g70
I5
ssg71
g1949
sg64
(lp1956
S'/igor/project/call/json/get_project_detail/2'
p1957
asbasbasbag57
(g73
g59
NtRp1958
(dp1959
g62
(dp1960
sg71
g67
sg64
(lp1961
g57
(g78
g59
NtRp1962
(dp1963
g62
(dp1964
g82
g83
ssg71
g1958
sg64
(lp1965
S'utcnow'
p1966
asbag57
(g78
g59
NtRp1967
(dp1968
g62
(dp1969
g89
g90
ssg71
g1958
sg64
(lp1970
S':'
asbag57
(g78
g59
NtRp1971
(dp1972
g62
(dp1973
sg71
g1958
sg64
(lp1974
g57
(g58
g59
NtRp1975
(dp1976
g62
(dp1977
g70
I5
ssg71
g1971
sg64
(lp1978
S'datetime.datetime(2012, 8, 2, 17, 48, 55, 568366)'
p1979
asbasbasbag57
(g73
g59
NtRp1980
(dp1981
g62
(dp1982
sg71
g67
sg64
(lp1983
g57
(g78
g59
NtRp1984
(dp1985
g62
(dp1986
g82
g83
ssg71
g1980
sg64
(lp1987
S'uuid'
p1988
asbag57
(g78
g59
NtRp1989
(dp1990
g62
(dp1991
g89
g90
ssg71
g1980
sg64
(lp1992
S':'
asbag57
(g78
g59
NtRp1993
(dp1994
g62
(dp1995
sg71
g1980
sg64
(lp1996
g57
(g58
g59
NtRp1997
(dp1998
g62
(dp1999
g70
I5
ssg71
g1993
sg64
(lp2000
S'igor/127.0.0.1.2012-08-03.00-48-55.7f382760-a51e-4f48-8352-96bffcf23889'
p2001
asbasbasbag57
(g73
g59
NtRp2002
(dp2003
g62
(dp2004
sg71
g67
sg64
(lp2005
g57
(g78
g59
NtRp2006
(dp2007
g62
(dp2008
g82
g83
ssg71
g2002
sg64
(lp2009
S'vars'
p2010
asbag57
(g78
g59
NtRp2011
(dp2012
g62
(dp2013
g89
g90
ssg71
g2002
sg64
(lp2014
S':'
asbag57
(g78
g59
NtRp2015
(dp2016
g62
(dp2017
sg71
g2002
sg64
(lp2018
g57
(g58
g59
NtRp2019
(dp2020
g62
(dp2021
g70
I5
ssg71
g2015
sg64
(lp2022
g57
(g66
g59
NtRp2023
(dp2024
g62
(dp2025
g70
I4
ssg71
Nsg64
(lp2026
sbasbasbasbag57
(g73
g59
NtRp2027
(dp2028
g62
(dp2029
sg71
g67
sg64
(lp2030
g57
(g78
g59
NtRp2031
(dp2032
g62
(dp2033
g82
g83
ssg71
g2027
sg64
(lp2034
S'wsgi'
p2035
asbag57
(g78
g59
NtRp2036
(dp2037
g62
(dp2038
g89
g90
ssg71
g2027
sg64
(lp2039
S':'
asbag57
(g78
g59
NtRp2040
(dp2041
g62
(dp2042
sg71
g2027
sg64
(lp2043
g57
(g58
g59
NtRp2044
(dp2045
g62
(dp2046
g70
I5
ssg71
g2040
sg64
(lp2047
g57
(g66
g59
NtRp2048
(dp2049
g62
(dp2050
g70
I4
ssg71
Nsg64
(lp2051
g57
(g73
g59
NtRp2052
(dp2053
g62
(dp2054
sg71
g2048
sg64
(lp2055
g57
(g78
g59
NtRp2056
(dp2057
g62
(dp2058
g82
g83
ssg71
g2052
sg64
(lp2059
S'environ'
p2060
asbag57
(g78
g59
NtRp2061
(dp2062
g62
(dp2063
g89
g90
ssg71
g2052
sg64
(lp2064
S':'
asbag57
(g78
g59
NtRp2065
(dp2066
g62
(dp2067
sg71
g2052
sg64
(lp2068
g57
(g58
g59
NtRp2069
(dp2070
g62
(dp2071
g70
I4
ssg71
g2065
sg64
(lp2072
g57
(g66
g59
NtRp2073
(dp2074
g62
(dp2075
g70
I3
ssg71
Nsg64
(lp2076
g57
(g73
g59
NtRp2077
(dp2078
g62
(dp2079
sg71
g2073
sg64
(lp2080
g57
(g78
g59
NtRp2081
(dp2082
g62
(dp2083
g82
g83
ssg71
g2077
sg64
(lp2084
S'HTTP_ACCEPT'
p2085
asbag57
(g78
g59
NtRp2086
(dp2087
g62
(dp2088
g89
g90
ssg71
g2077
sg64
(lp2089
S':'
asbag57
(g78
g59
NtRp2090
(dp2091
g62
(dp2092
sg71
g2077
sg64
(lp2093
g57
(g58
g59
NtRp2094
(dp2095
g62
(dp2096
g70
I3
ssg71
g2090
sg64
(lp2097
g671
asbasbasbag57
(g73
g59
NtRp2098
(dp2099
g62
(dp2100
sg71
g2073
sg64
(lp2101
g57
(g78
g59
NtRp2102
(dp2103
g62
(dp2104
g82
g83
ssg71
g2098
sg64
(lp2105
S'HTTP_ACCEPT_ENCODING'
p2106
asbag57
(g78
g59
NtRp2107
(dp2108
g62
(dp2109
g89
g90
ssg71
g2098
sg64
(lp2110
S':'
asbag57
(g78
g59
NtRp2111
(dp2112
g62
(dp2113
sg71
g2098
sg64
(lp2114
g57
(g58
g59
NtRp2115
(dp2116
g62
(dp2117
g70
I3
ssg71
g2111
sg64
(lp2118
g693
asbasbasbag57
(g73
g59
NtRp2119
(dp2120
g62
(dp2121
sg71
g2073
sg64
(lp2122
g57
(g78
g59
NtRp2123
(dp2124
g62
(dp2125
g82
g83
ssg71
g2119
sg64
(lp2126
S'HTTP_ACCEPT_LANGUAGE'
p2127
asbag57
(g78
g59
NtRp2128
(dp2129
g62
(dp2130
g89
g90
ssg71
g2119
sg64
(lp2131
S':'
asbag57
(g78
g59
NtRp2132
(dp2133
g62
(dp2134
sg71
g2119
sg64
(lp2135
g57
(g58
g59
NtRp2136
(dp2137
g62
(dp2138
g70
I3
ssg71
g2132
sg64
(lp2139
g715
asbasbasbag57
(g73
g59
NtRp2140
(dp2141
g62
(dp2142
sg71
g2073
sg64
(lp2143
g57
(g78
g59
NtRp2144
(dp2145
g62
(dp2146
g82
g83
ssg71
g2140
sg64
(lp2147
S'HTTP_CONNECTION'
p2148
asbag57
(g78
g59
NtRp2149
(dp2150
g62
(dp2151
g89
g90
ssg71
g2140
sg64
(lp2152
S':'
asbag57
(g78
g59
NtRp2153
(dp2154
g62
(dp2155
sg71
g2140
sg64
(lp2156
g57
(g58
g59
NtRp2157
(dp2158
g62
(dp2159
g70
I3
ssg71
g2153
sg64
(lp2160
g737
asbasbasbag57
(g73
g59
NtRp2161
(dp2162
g62
(dp2163
sg71
g2073
sg64
(lp2164
g57
(g78
g59
NtRp2165
(dp2166
g62
(dp2167
g82
g83
ssg71
g2161
sg64
(lp2168
S'HTTP_COOKIE'
p2169
asbag57
(g78
g59
NtRp2170
(dp2171
g62
(dp2172
g89
g90
ssg71
g2161
sg64
(lp2173
S':'
asbag57
(g78
g59
NtRp2174
(dp2175
g62
(dp2176
sg71
g2161
sg64
(lp2177
g57
(g58
g59
NtRp2178
(dp2179
g62
(dp2180
g70
I3
ssg71
g2174
sg64
(lp2181
g759
asbasbasbag57
(g73
g59
NtRp2182
(dp2183
g62
(dp2184
sg71
g2073
sg64
(lp2185
g57
(g78
g59
NtRp2186
(dp2187
g62
(dp2188
g82
g83
ssg71
g2182
sg64
(lp2189
S'HTTP_HOST'
p2190
asbag57
(g78
g59
NtRp2191
(dp2192
g62
(dp2193
g89
g90
ssg71
g2182
sg64
(lp2194
S':'
asbag57
(g78
g59
NtRp2195
(dp2196
g62
(dp2197
sg71
g2182
sg64
(lp2198
g57
(g58
g59
NtRp2199
(dp2200
g62
(dp2201
g70
I3
ssg71
g2195
sg64
(lp2202
g781
asbasbasbag57
(g73
g59
NtRp2203
(dp2204
g62
(dp2205
sg71
g2073
sg64
(lp2206
g57
(g78
g59
NtRp2207
(dp2208
g62
(dp2209
g82
g83
ssg71
g2203
sg64
(lp2210
S'HTTP_USER_AGENT'
p2211
asbag57
(g78
g59
NtRp2212
(dp2213
g62
(dp2214
g89
g90
ssg71
g2203
sg64
(lp2215
S':'
asbag57
(g78
g59
NtRp2216
(dp2217
g62
(dp2218
sg71
g2203
sg64
(lp2219
g57
(g58
g59
NtRp2220
(dp2221
g62
(dp2222
g70
I3
ssg71
g2216
sg64
(lp2223
g803
asbasbasbag57
(g73
g59
NtRp2224
(dp2225
g62
(dp2226
sg71
g2073
sg64
(lp2227
g57
(g78
g59
NtRp2228
(dp2229
g62
(dp2230
g82
g83
ssg71
g2224
sg64
(lp2231
S'PATH_INFO'
p2232
asbag57
(g78
g59
NtRp2233
(dp2234
g62
(dp2235
g89
g90
ssg71
g2224
sg64
(lp2236
S':'
asbag57
(g78
g59
NtRp2237
(dp2238
g62
(dp2239
sg71
g2224
sg64
(lp2240
g57
(g58
g59
NtRp2241
(dp2242
g62
(dp2243
g70
I3
ssg71
g2237
sg64
(lp2244
g867
asbasbasbag57
(g73
g59
NtRp2245
(dp2246
g62
(dp2247
sg71
g2073
sg64
(lp2248
g57
(g78
g59
NtRp2249
(dp2250
g62
(dp2251
g82
g83
ssg71
g2245
sg64
(lp2252
S'QUERY_STRING'
p2253
asbag57
(g78
g59
NtRp2254
(dp2255
g62
(dp2256
g89
g90
ssg71
g2245
sg64
(lp2257
S':'
asbag57
(g78
g59
NtRp2258
(dp2259
g62
(dp2260
sg71
g2245
sg64
(lp2261
g57
(g58
g59
NtRp2262
(dp2263
g62
(dp2264
g70
I3
ssg71
g2258
sg64
(lp2265
S''
asbasbasbag57
(g73
g59
NtRp2266
(dp2267
g62
(dp2268
sg71
g2073
sg64
(lp2269
g57
(g78
g59
NtRp2270
(dp2271
g62
(dp2272
g82
g83
ssg71
g2266
sg64
(lp2273
S'REMOTE_ADDR'
p2274
asbag57
(g78
g59
NtRp2275
(dp2276
g62
(dp2277
g89
g90
ssg71
g2266
sg64
(lp2278
S':'
asbag57
(g78
g59
NtRp2279
(dp2280
g62
(dp2281
sg71
g2266
sg64
(lp2282
g57
(g58
g59
NtRp2283
(dp2284
g62
(dp2285
g70
I3
ssg71
g2279
sg64
(lp2286
g228
asbasbasbag57
(g73
g59
NtRp2287
(dp2288
g62
(dp2289
sg71
g2073
sg64
(lp2290
g57
(g78
g59
NtRp2291
(dp2292
g62
(dp2293
g82
g83
ssg71
g2287
sg64
(lp2294
S'REMOTE_PORT'
p2295
asbag57
(g78
g59
NtRp2296
(dp2297
g62
(dp2298
g89
g90
ssg71
g2287
sg64
(lp2299
S':'
asbag57
(g78
g59
NtRp2300
(dp2301
g62
(dp2302
sg71
g2287
sg64
(lp2303
g57
(g58
g59
NtRp2304
(dp2305
g62
(dp2306
g70
I3
ssg71
g2300
sg64
(lp2307
g931
asbasbasbag57
(g73
g59
NtRp2308
(dp2309
g62
(dp2310
sg71
g2073
sg64
(lp2311
g57
(g78
g59
NtRp2312
(dp2313
g62
(dp2314
g82
g83
ssg71
g2308
sg64
(lp2315
S'REQUEST_METHOD'
p2316
asbag57
(g78
g59
NtRp2317
(dp2318
g62
(dp2319
g89
g90
ssg71
g2308
sg64
(lp2320
S':'
asbag57
(g78
g59
NtRp2321
(dp2322
g62
(dp2323
sg71
g2308
sg64
(lp2324
g57
(g58
g59
NtRp2325
(dp2326
g62
(dp2327
g70
I3
ssg71
g2321
sg64
(lp2328
g953
asbasbasbag57
(g73
g59
NtRp2329
(dp2330
g62
(dp2331
sg71
g2073
sg64
(lp2332
g57
(g78
g59
NtRp2333
(dp2334
g62
(dp2335
g82
g83
ssg71
g2329
sg64
(lp2336
S'SCRIPT_NAME'
p2337
asbag57
(g78
g59
NtRp2338
(dp2339
g62
(dp2340
g89
g90
ssg71
g2329
sg64
(lp2341
S':'
asbag57
(g78
g59
NtRp2342
(dp2343
g62
(dp2344
sg71
g2329
sg64
(lp2345
g57
(g58
g59
NtRp2346
(dp2347
g62
(dp2348
g70
I3
ssg71
g2342
sg64
(lp2349
S''
asbasbasbag57
(g73
g59
NtRp2350
(dp2351
g62
(dp2352
sg71
g2073
sg64
(lp2353
g57
(g78
g59
NtRp2354
(dp2355
g62
(dp2356
g82
g83
ssg71
g2350
sg64
(lp2357
S'SERVER_NAME'
p2358
asbag57
(g78
g59
NtRp2359
(dp2360
g62
(dp2361
g89
g90
ssg71
g2350
sg64
(lp2362
S':'
asbag57
(g78
g59
NtRp2363
(dp2364
g62
(dp2365
sg71
g2350
sg64
(lp2366
g57
(g58
g59
NtRp2367
(dp2368
g62
(dp2369
g70
I3
ssg71
g2363
sg64
(lp2370
g996
asbasbasbag57
(g73
g59
NtRp2371
(dp2372
g62
(dp2373
sg71
g2073
sg64
(lp2374
g57
(g78
g59
NtRp2375
(dp2376
g62
(dp2377
g82
g83
ssg71
g2371
sg64
(lp2378
S'SERVER_PORT'
p2379
asbag57
(g78
g59
NtRp2380
(dp2381
g62
(dp2382
g89
g90
ssg71
g2371
sg64
(lp2383
S':'
asbag57
(g78
g59
NtRp2384
(dp2385
g62
(dp2386
sg71
g2371
sg64
(lp2387
g57
(g58
g59
NtRp2388
(dp2389
g62
(dp2390
g70
I3
ssg71
g2384
sg64
(lp2391
g1018
asbasbasbag57
(g73
g59
NtRp2392
(dp2393
g62
(dp2394
sg71
g2073
sg64
(lp2395
g57
(g78
g59
NtRp2396
(dp2397
g62
(dp2398
g82
g83
ssg71
g2392
sg64
(lp2399
S'SERVER_PROTOCOL'
p2400
asbag57
(g78
g59
NtRp2401
(dp2402
g62
(dp2403
g89
g90
ssg71
g2392
sg64
(lp2404
S':'
asbag57
(g78
g59
NtRp2405
(dp2406
g62
(dp2407
sg71
g2392
sg64
(lp2408
g57
(g58
g59
NtRp2409
(dp2410
g62
(dp2411
g70
I3
ssg71
g2405
sg64
(lp2412
g1040
asbasbasbag57
(g73
g59
NtRp2413
(dp2414
g62
(dp2415
sg71
g2073
sg64
(lp2416
g57
(g78
g59
NtRp2417
(dp2418
g62
(dp2419
g82
g83
ssg71
g2413
sg64
(lp2420
S'SERVER_SOFTWARE'
p2421
asbag57
(g78
g59
NtRp2422
(dp2423
g62
(dp2424
g89
g90
ssg71
g2413
sg64
(lp2425
S':'
asbag57
(g78
g59
NtRp2426
(dp2427
g62
(dp2428
sg71
g2413
sg64
(lp2429
g57
(g58
g59
NtRp2430
(dp2431
g62
(dp2432
g70
I3
ssg71
g2426
sg64
(lp2433
g1062
asbasbasbag57
(g73
g59
NtRp2434
(dp2435
g62
(dp2436
sg71
g2073
sg64
(lp2437
g57
(g78
g59
NtRp2438
(dp2439
g62
(dp2440
g82
g83
ssg71
g2434
sg64
(lp2441
S'wsgi.errors'
p2442
asbag57
(g78
g59
NtRp2443
(dp2444
g62
(dp2445
g89
g90
ssg71
g2434
sg64
(lp2446
S':'
asbag57
(g78
g59
NtRp2447
(dp2448
g62
(dp2449
sg71
g2434
sg64
(lp2450
g57
(g58
g59
NtRp2451
(dp2452
g62
(dp2453
g70
I3
ssg71
g2447
sg64
(lp2454
S"<open file '<stderr>', mode 'w' at 0x7f46c33da270>"
p2455
asbasbasbag57
(g73
g59
NtRp2456
(dp2457
g62
(dp2458
sg71
g2073
sg64
(lp2459
g57
(g78
g59
NtRp2460
(dp2461
g62
(dp2462
g82
g83
ssg71
g2456
sg64
(lp2463
S'wsgi.file_wrapper'
p2464
asbag57
(g78
g59
NtRp2465
(dp2466
g62
(dp2467
g89
g90
ssg71
g2456
sg64
(lp2468
S':'
asbag57
(g78
g59
NtRp2469
(dp2470
g62
(dp2471
sg71
g2456
sg64
(lp2472
g57
(g58
g59
NtRp2473
(dp2474
g62
(dp2475
g70
I3
ssg71
g2469
sg64
(lp2476
S'<class wsgiref.util.FileWrapper at 0x22d1940>'
p2477
asbasbasbag57
(g73
g59
NtRp2478
(dp2479
g62
(dp2480
sg71
g2073
sg64
(lp2481
g57
(g78
g59
NtRp2482
(dp2483
g62
(dp2484
g82
g83
ssg71
g2478
sg64
(lp2485
S'wsgi.input'
p2486
asbag57
(g78
g59
NtRp2487
(dp2488
g62
(dp2489
g89
g90
ssg71
g2478
sg64
(lp2490
S':'
asbag57
(g78
g59
NtRp2491
(dp2492
g62
(dp2493
sg71
g2478
sg64
(lp2494
g57
(g58
g59
NtRp2495
(dp2496
g62
(dp2497
g70
I3
ssg71
g2491
sg64
(lp2498
S'<cStringIO.StringO object at 0x7f468832adf8>'
p2499
asbasbasbag57
(g73
g59
NtRp2500
(dp2501
g62
(dp2502
sg71
g2073
sg64
(lp2503
g57
(g78
g59
NtRp2504
(dp2505
g62
(dp2506
g82
g83
ssg71
g2500
sg64
(lp2507
S'wsgi.multiprocess'
p2508
asbag57
(g78
g59
NtRp2509
(dp2510
g62
(dp2511
g89
g90
ssg71
g2500
sg64
(lp2512
S':'
asbag57
(g78
g59
NtRp2513
(dp2514
g62
(dp2515
sg71
g2500
sg64
(lp2516
g57
(g58
g59
NtRp2517
(dp2518
g62
(dp2519
g70
I3
ssg71
g2513
sg64
(lp2520
g100
asbasbasbag57
(g73
g59
NtRp2521
(dp2522
g62
(dp2523
sg71
g2073
sg64
(lp2524
g57
(g78
g59
NtRp2525
(dp2526
g62
(dp2527
g82
g83
ssg71
g2521
sg64
(lp2528
S'wsgi.multithread'
p2529
asbag57
(g78
g59
NtRp2530
(dp2531
g62
(dp2532
g89
g90
ssg71
g2521
sg64
(lp2533
S':'
asbag57
(g78
g59
NtRp2534
(dp2535
g62
(dp2536
sg71
g2521
sg64
(lp2537
g57
(g58
g59
NtRp2538
(dp2539
g62
(dp2540
g70
I3
ssg71
g2534
sg64
(lp2541
g1302
asbasbasbag57
(g73
g59
NtRp2542
(dp2543
g62
(dp2544
sg71
g2073
sg64
(lp2545
g57
(g78
g59
NtRp2546
(dp2547
g62
(dp2548
g82
g83
ssg71
g2542
sg64
(lp2549
S'wsgi.run_once'
p2550
asbag57
(g78
g59
NtRp2551
(dp2552
g62
(dp2553
g89
g90
ssg71
g2542
sg64
(lp2554
S':'
asbag57
(g78
g59
NtRp2555
(dp2556
g62
(dp2557
sg71
g2542
sg64
(lp2558
g57
(g58
g59
NtRp2559
(dp2560
g62
(dp2561
g70
I3
ssg71
g2555
sg64
(lp2562
g100
asbasbasbag57
(g73
g59
NtRp2563
(dp2564
g62
(dp2565
sg71
g2073
sg64
(lp2566
g57
(g78
g59
NtRp2567
(dp2568
g62
(dp2569
g82
g83
ssg71
g2563
sg64
(lp2570
S'wsgi.url_scheme'
p2571
asbag57
(g78
g59
NtRp2572
(dp2573
g62
(dp2574
g89
g90
ssg71
g2563
sg64
(lp2575
S':'
asbag57
(g78
g59
NtRp2576
(dp2577
g62
(dp2578
sg71
g2563
sg64
(lp2579
g57
(g58
g59
NtRp2580
(dp2581
g62
(dp2582
g70
I3
ssg71
g2576
sg64
(lp2583
g1345
asbasbasbag57
(g73
g59
NtRp2584
(dp2585
g62
(dp2586
sg71
g2073
sg64
(lp2587
g57
(g78
g59
NtRp2588
(dp2589
g62
(dp2590
g82
g83
ssg71
g2584
sg64
(lp2591
S'wsgi.version'
p2592
asbag57
(g78
g59
NtRp2593
(dp2594
g62
(dp2595
g89
g90
ssg71
g2584
sg64
(lp2596
S':'
asbag57
(g78
g59
NtRp2597
(dp2598
g62
(dp2599
sg71
g2584
sg64
(lp2600
g57
(g58
g59
NtRp2601
(dp2602
g62
(dp2603
g70
I3
ssg71
g2597
sg64
(lp2604
S'1'
asbasbasbasbasbasbasbasbasbasbasbasbasbsS'frames'
p2605
(lp2606
(dp2607
S'file'
p2608
S'/home/tuna/cyberagent/IgoR/C_Sources/Server/igor-assistant-ca-2012/gluon/restricted.py'
p2609
sS'dump'
p2610
(dp2611
S'environment'
p2612
S"{'A': <class 'gluon.html.A'>, 'Auth': <class 'gluon.tools.Auth'>, 'B': <class 'gluon.html.B'>, 'BEAUTIFY': <class 'gluon.html.BEAUTIFY'>, 'BODY': <class 'gluon.html.BODY'>, 'BR': <class 'gluon.html.BR'>, 'BUTTON': <class 'gluon.html.BUTTON'>, 'CAT': <class 'gluon.html.CAT'>, 'CENTER': <class 'gluon.html.CENTER'>, 'CLEANUP': <class 'gluon.validators.CLEANUP'>, ...}"
p2613
sS'ccode'
p2614
S'<code object <module> at 0x7f46a0718bb0, file "/...pplications/igor/controllers/project.py", line 9>'
p2615
ssS'lnum'
p2616
I205
sS'lines'
p2617
(dp2618
I200
S'    try:'
p2619
sI201
S'        if type(code) == types.CodeType:'
p2620
sI202
S'            ccode = code'
p2621
sI203
S'        else:'
p2622
sI204
S'            ccode = compile2(code,layer)'
p2623
sI205
S'        exec ccode in environment'
p2624
sI206
S'    except HTTP:'
p2625
sI207
S'        raise'
p2626
sI208
S'    except RestrictedError:'
p2627
sI209
S'        # do not encapsulate (obfuscate) the original RestrictedError'
p2628
ssS'call'
p2629
S"(code='# -*- coding: utf-8 -*-\\n# this file is released ...lient_data\\nresponse._vars=response._caller(call)\\n', environment={'A': <class 'gluon.html.A'>, 'Auth': <class 'gluon.tools.Auth'>, 'B': <class 'gluon.html.B'>, 'BEAUTIFY': <class 'gluon.html.BEAUTIFY'>, 'BODY': <class 'gluon.html.BODY'>, 'BR': <class 'gluon.html.BR'>, 'BUTTON': <class 'gluon.html.BUTTON'>, 'CAT': <class 'gluon.html.CAT'>, 'CENTER': <class 'gluon.html.CENTER'>, 'CLEANUP': <class 'gluon.validators.CLEANUP'>, ...}, layer='/home/tuna/cyberagent/IgoR/C_Sources/Server/igor...-ca-2012/applications/igor/controllers/project.py')"
p2630
sS'func'
p2631
S'restricted'
p2632
sa(dp2633
g2608
S'/home/tuna/cyberagent/IgoR/C_Sources/Server/igor-assistant-ca-2012/applications/igor/controllers/project.py'
p2634
sg2610
(dp2635
sg2616
I177
sg2617
(dp2636
I167
S''
sI168
S'\t\t\tif (afternoon):'
p2637
sI169
S'\t\t\t\tafternoon = map(lambda s: s - 6, afternoon)'
p2638
sI170
S'\t\t\t\tclient = class_data_format('
p2639
sI171
S'\t\t\t\t\tclass_subject, class_scheduler,'
p2640
sI172
S'\t\t\t\t\tsubject, afternoon, "Afternoon")'
p2641
sI173
S''
sI174
S'\t\t\t\tclient_data.append (client)'
p2642
sI175
S''
sI176
S'\treturn client_data'
p2643
ssg2629
S'()'
p2644
sg2631
S'<module>'
p2645
sa(dp2646
g2608
S'/home/tuna/cyberagent/IgoR/C_Sources/Server/igor-assistant-ca-2012/gluon/globals.py'
p2647
sg2610
(dp2648
S'self'
p2649
S'undefined'
p2650
sS'f'
S'<function call>'
p2651
ssg2616
I173
sg2617
(dp2652
I168
S'        self.menu = []             # used by the default view layout'
p2653
sI169
S'        self.files = []            # used by web2py_ajax.html'
p2654
sI170
S'        self.generic_patterns = [] # patterns to allow generic views'
p2655
sI171
S"        self.delimiters = ('{{','}}')"
p2656
sI172
S'        self._vars = None'
p2657
sI173
S'        self._caller = lambda f: f()'
p2658
sI174
S'        self._view_environment = None'
p2659
sI175
S'        self._custom_commit = None'
p2660
sI176
S'        self._custom_rollback = None'
p2661
sI177
S''
ssg2629
S'(f=<function call>)'
p2662
sg2631
S'<lambda>'
p2663
sa(dp2664
g2608
S'/home/tuna/cyberagent/IgoR/C_Sources/Server/igor-assistant-ca-2012/applications/igor/controllers/project.py'
p2665
sg2610
(dp2666
S'global service'
p2667
S'<gluon.tools.Service object>'
p2668
ssg2616
I19
sg2617
(dp2669
I14
S'service = Service()'
p2670
sI15
S''
sI16
S'def call():'
p2671
sI17
S'\tsession.forget()'
p2672
sI18
S''
sI19
S'\treturn service()'
p2673
sI20
S''
sI21
S'@service.jsonp'
p2674
sI22
S'@service.json'
p2675
sI23
S'def get_projects(user_id, term = 0):'
p2676
ssg2629
S'()'
p2677
sg2631
g2629
sa(dp2678
g2608
S'/home/tuna/cyberagent/IgoR/C_Sources/Server/igor-assistant-ca-2012/gluon/tools.py'
p2679
sg2610
(dp2680
S'request.args'
p2681
S"['json', 'get_project_detail', '2']"
p2682
sS'self.serve_json'
p2683
S'<bound method Service.serve_json of <gluon.tools.Service object>>'
p2684
sS'self'
p2685
S'<gluon.tools.Service object>'
p2686
sS'request'
p2687
S"<Storage {'body': <cStringIO.StringO object at 0..._vars': <Storage {}>, 'post_vars': <Storage {}>}>"
p2688
ssg2616
I4015
sg2617
(dp2689
I4010
S"        elif arg0 == 'csv':"
p2690
sI4011
S'            return self.serve_csv(request.args[1:])'
p2691
sI4012
S"        elif arg0 == 'xml':"
p2692
sI4013
S'            return self.serve_xml(request.args[1:])'
p2693
sI4014
S"        elif arg0 == 'json':"
p2694
sI4015
S'            return self.serve_json(request.args[1:])'
p2695
sI4016
S'        # phucnh add 20120730'
p2696
sI4017
S"        elif arg0 == 'jsonp':"
p2697
sI4018
S'            return self.serve_jsonp(request.args[1:])'
p2698
sI4019
S'        # end phucnh add 20120730'
p2699
ssg2629
S'(self=<gluon.tools.Service object>)'
p2700
sg2631
S'__call__'
p2701
sa(dp2702
g2608
S'/home/tuna/cyberagent/IgoR/C_Sources/Server/igor-assistant-ca-2012/gluon/tools.py'
p2703
sg2610
(dp2704
S'args'
p2705
S"['get_project_detail', '2']"
p2706
sS'd'
g45
sS'self'
p2707
S'<gluon.tools.Service object>'
p2708
sS'global universal_caller'
p2709
S'<function universal_caller>'
p2710
sS'self.json_procedures'
p2711
S"{'get_project_by_class': <function get_project_by_class>, 'get_project_by_user_class': <function get_project_by_user_class>, 'get_project_detail': <function get_project_detail>, 'get_projects': <function get_projects>}"
p2712
sS's'
g2650
ssg2616
I3808
sg2617
(dp2713
I3808
S'            s = universal_caller(self.json_procedures[args[0]],*args[1:],**d)'
p2714
sI3809
S"            if hasattr(s, 'as_list'):"
p2715
sI3810
S'                s = s.as_list()'
p2716
sI3811
S'            return response.json(s)'
p2717
sI3812
S'        self.error()'
p2718
sI3803
S"        response.headers['Content-Type'] = 'application/json; charset=utf-8'"
p2719
sI3804
S'        if not args:'
p2720
sI3805
S'            args = request.args'
p2721
sI3806
S'        d = dict(request.vars)'
p2722
sI3807
S'        if args and args[0] in self.json_procedures:'
p2723
ssg2629
S"(self=<gluon.tools.Service object>, args=['get_project_detail', '2'])"
p2724
sg2631
S'serve_json'
p2725
sa(dp2726
g2608
S'/home/tuna/cyberagent/IgoR/C_Sources/Server/igor-assistant-ca-2012/gluon/tools.py'
p2727
sg2610
(dp2728
S'arg_dict'
p2729
S"{'project_id': '2'}"
p2730
sS'f'
S'<function get_project_detail>'
p2731
ssg2616
I3490
sg2617
(dp2732
I3488
S'                arg_dict[arg_name] = b[arg_name]'
p2733
sI3489
S''
sI3490
S'        return f(**arg_dict)'
p2734
sI3491
S''
sI3492
S'    # Raise an error, the function cannot be called.'
p2735
sI3493
S'    raise HTTP(404, "Object does not exist")'
p2736
sI3494
S''
sI3485
S'        # However, we need to update the arg_dict with the values from the named arguments as well.'
p2737
sI3486
S'        for arg_name in named_args:'
p2738
sI3487
S'            if b.has_key(arg_name):'
p2739
ssg2629
S"(f=<function get_project_detail>, *a=('2',), **b={})"
p2740
sg2631
S'universal_caller'
p2741
sa(dp2742
g2608
S'/home/tuna/cyberagent/IgoR/C_Sources/Server/igor-assistant-ca-2012/applications/igor/controllers/project.py'
p2743
sg2610
(dp2744
S'project'
p2745
S'<gluon.dal.Rows object>'
p2746
sS'global format_client_data'
p2747
S'<function format_client_data>'
p2748
ssg2616
I70
sg2617
(dp2749
I65
S'\t\t\t"project id can not less than 0")'
p2750
sI66
S'\t###'
p2751
sI67
S'\tproject = db(db.test.id == project_id and'
p2752
sI68
S'\t\tdb.test.test_type == 2).select()'
p2753
sI69
S''
sI70
S'\tproject = format_client_data(project)'
p2754
sI71
S''
sI72
S'\treturn MessagePackager.get_packaged_message(MessageStatus.OK, project)'
p2755
sI73
S''
sI74
S'@service.jsonp'
p2756
ssg2629
S"(project_id='2')"
p2757
sg2631
S'get_project_detail'
p2758
sa(dp2759
g2608
S'/home/tuna/cyberagent/IgoR/C_Sources/Server/igor-assistant-ca-2012/applications/igor/controllers/project.py'
p2760
sg2610
(dp2761
S'global db'
p2762
S"<DAL {'auth_event': <Table {'origin': <gluon.dal...': <gluon.dal.Field object at 0x7f46a0738e50>}>}>"
p2763
sS'class_subject'
p2764
g2650
sS'db.subject.id'
p2765
S'<gluon.dal.Field object>'
p2766
sS'db.subject'
p2767
S"<Table {'note': <gluon.dal.Field object at 0x7f4...de': <gluon.dal.Field object at 0x7f46a07235d0>}>"
p2768
sS'subject'
p2769
g2650
ssg2616
I145
sg2617
(dp2770
I140
S''
sI141
S'\tclient_data = list()'
p2771
sI142
S''
sI143
S'\tfor project in projects:'
p2772
sI144
S''
sI145
S'\t\tsubject = db(db.subject.id == class_subject.subject).select().first()'
p2773
sI146
S'\t\tclass_schedulers = db(db.class_scheduler.class_subject == class_subject.id).select()'
p2774
sI147
S''
sI148
S'\t\tif (subject == None):'
p2775
sI149
S'\t\t\tcontinue'
p2776
ssg2629
S'(projects=<gluon.dal.Rows object>)'
p2777
sg2631
S'format_client_data'
p2778
sasS'pyver'
p2779
S'Python 2.7.3: /usr/bin/python'
p2780
sS'session'
p2781
g57
(g58
g59
NtRp2782
(dp2783
g62
(dp2784
sg64
(lp2785
g57
(g66
g59
NtRp2786
(dp2787
g62
(dp2788
g70
I5
ssg71
Nsg64
(lp2789
sbasbsS'etype'
p2790
S"<type 'exceptions.NameError'>"
p2791
sS'date'
p2792
S'Fri Aug  3 00:48:55 2012'
p2793
sS'response'
p2794
g57
(g58
g59
NtRp2795
(dp2796
g62
(dp2797
sg64
(lp2798
g57
(g66
g59
NtRp2799
(dp2800
g62
(dp2801
g70
I5
ssg71
Nsg64
(lp2802
g57
(g73
g59
NtRp2803
(dp2804
g62
(dp2805
sg71
g2799
sg64
(lp2806
g57
(g78
g59
NtRp2807
(dp2808
g62
(dp2809
g82
g83
ssg71
g2803
sg64
(lp2810
g193
asbag57
(g78
g59
NtRp2811
(dp2812
g62
(dp2813
g89
g90
ssg71
g2803
sg64
(lp2814
S':'
asbag57
(g78
g59
NtRp2815
(dp2816
g62
(dp2817
sg71
g2803
sg64
(lp2818
g57
(g58
g59
NtRp2819
(dp2820
g62
(dp2821
g70
I5
ssg71
g2815
sg64
(lp2822
S'<cStringIO.StringO object at 0x7f46882a22d0>'
p2823
asbasbasbag57
(g73
g59
NtRp2824
(dp2825
g62
(dp2826
sg71
g2799
sg64
(lp2827
g57
(g78
g59
NtRp2828
(dp2829
g62
(dp2830
g82
g83
ssg71
g2824
sg64
(lp2831
g259
asbag57
(g78
g59
NtRp2832
(dp2833
g62
(dp2834
g89
g90
ssg71
g2824
sg64
(lp2835
S':'
asbag57
(g78
g59
NtRp2836
(dp2837
g62
(dp2838
sg71
g2824
sg64
(lp2839
g57
(g58
g59
NtRp2840
(dp2841
g62
(dp2842
g70
I5
ssg71
g2836
sg64
(lp2843
g57
(g66
g59
NtRp2844
(dp2845
g62
(dp2846
g70
I4
ssg71
Nsg64
(lp2847
g57
(g73
g59
NtRp2848
(dp2849
g62
(dp2850
sg71
g2844
sg64
(lp2851
g57
(g78
g59
NtRp2852
(dp2853
g62
(dp2854
g82
g83
ssg71
g2848
sg64
(lp2855
S'session_id_igor'
p2856
asbag57
(g78
g59
NtRp2857
(dp2858
g62
(dp2859
g89
g90
ssg71
g2848
sg64
(lp2860
S':'
asbag57
(g78
g59
NtRp2861
(dp2862
g62
(dp2863
sg71
g2848
sg64
(lp2864
g57
(g58
g59
NtRp2865
(dp2866
g62
(dp2867
g70
I4
ssg71
g2861
sg64
(lp2868
g57
(g66
g59
NtRp2869
(dp2870
g62
(dp2871
g70
I3
ssg71
Nsg64
(lp2872
g57
(g73
g59
NtRp2873
(dp2874
g62
(dp2875
sg71
g2869
sg64
(lp2876
g57
(g78
g59
NtRp2877
(dp2878
g62
(dp2879
g82
g83
ssg71
g2873
sg64
(lp2880
g309
asbag57
(g78
g59
NtRp2881
(dp2882
g62
(dp2883
g89
g90
ssg71
g2873
sg64
(lp2884
S':'
asbag57
(g78
g59
NtRp2885
(dp2886
g62
(dp2887
sg71
g2873
sg64
(lp2888
g57
(g58
g59
NtRp2889
(dp2890
g62
(dp2891
g70
I3
ssg71
g2885
sg64
(lp2892
S''
asbasbasbag57
(g73
g59
NtRp2893
(dp2894
g62
(dp2895
sg71
g2869
sg64
(lp2896
g57
(g78
g59
NtRp2897
(dp2898
g62
(dp2899
g82
g83
ssg71
g2893
sg64
(lp2900
g330
asbag57
(g78
g59
NtRp2901
(dp2902
g62
(dp2903
g89
g90
ssg71
g2893
sg64
(lp2904
S':'
asbag57
(g78
g59
NtRp2905
(dp2906
g62
(dp2907
sg71
g2893
sg64
(lp2908
g57
(g58
g59
NtRp2909
(dp2910
g62
(dp2911
g70
I3
ssg71
g2905
sg64
(lp2912
S''
asbasbasbag57
(g73
g59
NtRp2913
(dp2914
g62
(dp2915
sg71
g2869
sg64
(lp2916
g57
(g78
g59
NtRp2917
(dp2918
g62
(dp2919
g82
g83
ssg71
g2913
sg64
(lp2920
g351
asbag57
(g78
g59
NtRp2921
(dp2922
g62
(dp2923
g89
g90
ssg71
g2913
sg64
(lp2924
S':'
asbag57
(g78
g59
NtRp2925
(dp2926
g62
(dp2927
sg71
g2913
sg64
(lp2928
g57
(g58
g59
NtRp2929
(dp2930
g62
(dp2931
g70
I3
ssg71
g2925
sg64
(lp2932
S''
asbasbasbag57
(g73
g59
NtRp2933
(dp2934
g62
(dp2935
sg71
g2869
sg64
(lp2936
g57
(g78
g59
NtRp2937
(dp2938
g62
(dp2939
g82
g83
ssg71
g2933
sg64
(lp2940
g372
asbag57
(g78
g59
NtRp2941
(dp2942
g62
(dp2943
g89
g90
ssg71
g2933
sg64
(lp2944
S':'
asbag57
(g78
g59
NtRp2945
(dp2946
g62
(dp2947
sg71
g2933
sg64
(lp2948
g57
(g58
g59
NtRp2949
(dp2950
g62
(dp2951
g70
I3
ssg71
g2945
sg64
(lp2952
S''
asbasbasbag57
(g73
g59
NtRp2953
(dp2954
g62
(dp2955
sg71
g2869
sg64
(lp2956
g57
(g78
g59
NtRp2957
(dp2958
g62
(dp2959
g82
g83
ssg71
g2953
sg64
(lp2960
g393
asbag57
(g78
g59
NtRp2961
(dp2962
g62
(dp2963
g89
g90
ssg71
g2953
sg64
(lp2964
S':'
asbag57
(g78
g59
NtRp2965
(dp2966
g62
(dp2967
sg71
g2953
sg64
(lp2968
g57
(g58
g59
NtRp2969
(dp2970
g62
(dp2971
g70
I3
ssg71
g2965
sg64
(lp2972
S''
asbasbasbag57
(g73
g59
NtRp2973
(dp2974
g62
(dp2975
sg71
g2869
sg64
(lp2976
g57
(g78
g59
NtRp2977
(dp2978
g62
(dp2979
g82
g83
ssg71
g2973
sg64
(lp2980
g414
asbag57
(g78
g59
NtRp2981
(dp2982
g62
(dp2983
g89
g90
ssg71
g2973
sg64
(lp2984
S':'
asbag57
(g78
g59
NtRp2985
(dp2986
g62
(dp2987
sg71
g2973
sg64
(lp2988
g57
(g58
g59
NtRp2989
(dp2990
g62
(dp2991
g70
I3
ssg71
g2985
sg64
(lp2992
S'/'
asbasbasbag57
(g73
g59
NtRp2993
(dp2994
g62
(dp2995
sg71
g2869
sg64
(lp2996
g57
(g78
g59
NtRp2997
(dp2998
g62
(dp2999
g82
g83
ssg71
g2993
sg64
(lp3000
g435
asbag57
(g78
g59
NtRp3001
(dp3002
g62
(dp3003
g89
g90
ssg71
g2993
sg64
(lp3004
S':'
asbag57
(g78
g59
NtRp3005
(dp3006
g62
(dp3007
sg71
g2993
sg64
(lp3008
g57
(g58
g59
NtRp3009
(dp3010
g62
(dp3011
g70
I3
ssg71
g3005
sg64
(lp3012
S''
asbasbasbag57
(g73
g59
NtRp3013
(dp3014
g62
(dp3015
sg71
g2869
sg64
(lp3016
g57
(g78
g59
NtRp3017
(dp3018
g62
(dp3019
g82
g83
ssg71
g3013
sg64
(lp3020
g456
asbag57
(g78
g59
NtRp3021
(dp3022
g62
(dp3023
g89
g90
ssg71
g3013
sg64
(lp3024
S':'
asbag57
(g78
g59
NtRp3025
(dp3026
g62
(dp3027
sg71
g3013
sg64
(lp3028
g57
(g58
g59
NtRp3029
(dp3030
g62
(dp3031
g70
I3
ssg71
g3025
sg64
(lp3032
S''
asbasbasbasbasbasbasbasbasbasbasbag57
(g73
g59
NtRp3033
(dp3034
g62
(dp3035
sg71
g2799
sg64
(lp3036
g57
(g78
g59
NtRp3037
(dp3038
g62
(dp3039
g82
g83
ssg71
g3033
sg64
(lp3040
S'delimiters'
p3041
asbag57
(g78
g59
NtRp3042
(dp3043
g62
(dp3044
g89
g90
ssg71
g3033
sg64
(lp3045
S':'
asbag57
(g78
g59
NtRp3046
(dp3047
g62
(dp3048
sg71
g3033
sg64
(lp3049
g57
(g58
g59
NtRp3050
(dp3051
g62
(dp3052
g70
I5
ssg71
g3046
sg64
(lp3053
g57
(g66
g59
NtRp3054
(dp3055
g62
(dp3056
g70
I4
ssg71
Nsg64
(lp3057
g57
(g73
g59
NtRp3058
(dp3059
g62
(dp3060
sg71
g3054
sg64
(lp3061
g57
(g78
g59
NtRp3062
(dp3063
g62
(dp3064
sg71
g3058
sg64
(lp3065
g57
(g58
g59
NtRp3066
(dp3067
g62
(dp3068
g70
I4
ssg71
g3062
sg64
(lp3069
S'{{'
p3070
asbasbasbag57
(g73
g59
NtRp3071
(dp3072
g62
(dp3073
sg71
g3054
sg64
(lp3074
g57
(g78
g59
NtRp3075
(dp3076
g62
(dp3077
sg71
g3071
sg64
(lp3078
g57
(g58
g59
NtRp3079
(dp3080
g62
(dp3081
g70
I4
ssg71
g3075
sg64
(lp3082
S'}}'
p3083
asbasbasbasbasbasbasbag57
(g73
g59
NtRp3084
(dp3085
g62
(dp3086
sg71
g2799
sg64
(lp3087
g57
(g78
g59
NtRp3088
(dp3089
g62
(dp3090
g82
g83
ssg71
g3084
sg64
(lp3091
S'files'
p3092
asbag57
(g78
g59
NtRp3093
(dp3094
g62
(dp3095
g89
g90
ssg71
g3084
sg64
(lp3096
S':'
asbag57
(g78
g59
NtRp3097
(dp3098
g62
(dp3099
sg71
g3084
sg64
(lp3100
g57
(g58
g59
NtRp3101
(dp3102
g62
(dp3103
g70
I5
ssg71
g3097
sg64
(lp3104
g57
(g66
g59
NtRp3105
(dp3106
g62
(dp3107
g70
I4
ssg71
Nsg64
(lp3108
sbasbasbasbag57
(g73
g59
NtRp3109
(dp3110
g62
(dp3111
sg71
g2799
sg64
(lp3112
g57
(g78
g59
NtRp3113
(dp3114
g62
(dp3115
g82
g83
ssg71
g3109
sg64
(lp3116
S'flash'
p3117
asbag57
(g78
g59
NtRp3118
(dp3119
g62
(dp3120
g89
g90
ssg71
g3109
sg64
(lp3121
S':'
asbag57
(g78
g59
NtRp3122
(dp3123
g62
(dp3124
sg71
g3109
sg64
(lp3125
g57
(g58
g59
NtRp3126
(dp3127
g62
(dp3128
g70
I5
ssg71
g3122
sg64
(lp3129
S''
asbasbasbag57
(g73
g59
NtRp3130
(dp3131
g62
(dp3132
sg71
g2799
sg64
(lp3133
g57
(g78
g59
NtRp3134
(dp3135
g62
(dp3136
g82
g83
ssg71
g3130
sg64
(lp3137
S'generic_patterns'
p3138
asbag57
(g78
g59
NtRp3139
(dp3140
g62
(dp3141
g89
g90
ssg71
g3130
sg64
(lp3142
S':'
asbag57
(g78
g59
NtRp3143
(dp3144
g62
(dp3145
sg71
g3130
sg64
(lp3146
g57
(g58
g59
NtRp3147
(dp3148
g62
(dp3149
g70
I5
ssg71
g3143
sg64
(lp3150
g57
(g66
g59
NtRp3151
(dp3152
g62
(dp3153
g70
I4
ssg71
Nsg64
(lp3154
g57
(g73
g59
NtRp3155
(dp3156
g62
(dp3157
sg71
g3151
sg64
(lp3158
g57
(g78
g59
NtRp3159
(dp3160
g62
(dp3161
sg71
g3155
sg64
(lp3162
g57
(g58
g59
NtRp3163
(dp3164
g62
(dp3165
g70
I4
ssg71
g3159
sg64
(lp3166
S'*'
asbasbasbasbasbasbasbag57
(g73
g59
NtRp3167
(dp3168
g62
(dp3169
sg71
g2799
sg64
(lp3170
g57
(g78
g59
NtRp3171
(dp3172
g62
(dp3173
g82
g83
ssg71
g3167
sg64
(lp3174
S'headers'
p3175
asbag57
(g78
g59
NtRp3176
(dp3177
g62
(dp3178
g89
g90
ssg71
g3167
sg64
(lp3179
S':'
asbag57
(g78
g59
NtRp3180
(dp3181
g62
(dp3182
sg71
g3167
sg64
(lp3183
g57
(g58
g59
NtRp3184
(dp3185
g62
(dp3186
g70
I5
ssg71
g3180
sg64
(lp3187
g57
(g66
g59
NtRp3188
(dp3189
g62
(dp3190
g70
I4
ssg71
Nsg64
(lp3191
g57
(g73
g59
NtRp3192
(dp3193
g62
(dp3194
sg71
g3188
sg64
(lp3195
g57
(g78
g59
NtRp3196
(dp3197
g62
(dp3198
g82
g83
ssg71
g3192
sg64
(lp3199
S'Cache-Control'
p3200
asbag57
(g78
g59
NtRp3201
(dp3202
g62
(dp3203
g89
g90
ssg71
g3192
sg64
(lp3204
S':'
asbag57
(g78
g59
NtRp3205
(dp3206
g62
(dp3207
sg71
g3192
sg64
(lp3208
g57
(g58
g59
NtRp3209
(dp3210
g62
(dp3211
g70
I4
ssg71
g3205
sg64
(lp3212
S'no-store, no-cache, must-revalidate, post-check=0, pre-check=0'
p3213
asbasbasbag57
(g73
g59
NtRp3214
(dp3215
g62
(dp3216
sg71
g3188
sg64
(lp3217
g57
(g78
g59
NtRp3218
(dp3219
g62
(dp3220
g82
g83
ssg71
g3214
sg64
(lp3221
S'Content-Type'
p3222
asbag57
(g78
g59
NtRp3223
(dp3224
g62
(dp3225
g89
g90
ssg71
g3214
sg64
(lp3226
S':'
asbag57
(g78
g59
NtRp3227
(dp3228
g62
(dp3229
sg71
g3214
sg64
(lp3230
g57
(g58
g59
NtRp3231
(dp3232
g62
(dp3233
g70
I4
ssg71
g3227
sg64
(lp3234
S'application/json; charset=utf-8'
p3235
asbasbasbag57
(g73
g59
NtRp3236
(dp3237
g62
(dp3238
sg71
g3188
sg64
(lp3239
g57
(g78
g59
NtRp3240
(dp3241
g62
(dp3242
g82
g83
ssg71
g3236
sg64
(lp3243
S'Expires'
p3244
asbag57
(g78
g59
NtRp3245
(dp3246
g62
(dp3247
g89
g90
ssg71
g3236
sg64
(lp3248
S':'
asbag57
(g78
g59
NtRp3249
(dp3250
g62
(dp3251
sg71
g3236
sg64
(lp3252
g57
(g58
g59
NtRp3253
(dp3254
g62
(dp3255
g70
I4
ssg71
g3249
sg64
(lp3256
S'Thu, 02 Aug 2012 17:48:55 GMT'
p3257
asbasbasbag57
(g73
g59
NtRp3258
(dp3259
g62
(dp3260
sg71
g3188
sg64
(lp3261
g57
(g78
g59
NtRp3262
(dp3263
g62
(dp3264
g82
g83
ssg71
g3258
sg64
(lp3265
S'Pragma'
p3266
asbag57
(g78
g59
NtRp3267
(dp3268
g62
(dp3269
g89
g90
ssg71
g3258
sg64
(lp3270
S':'
asbag57
(g78
g59
NtRp3271
(dp3272
g62
(dp3273
sg71
g3258
sg64
(lp3274
g57
(g58
g59
NtRp3275
(dp3276
g62
(dp3277
g70
I4
ssg71
g3271
sg64
(lp3278
S'no-cache'
p3279
asbasbasbag57
(g73
g59
NtRp3280
(dp3281
g62
(dp3282
sg71
g3188
sg64
(lp3283
g57
(g78
g59
NtRp3284
(dp3285
g62
(dp3286
g82
g83
ssg71
g3280
sg64
(lp3287
S'X-Powered-By'
p3288
asbag57
(g78
g59
NtRp3289
(dp3290
g62
(dp3291
g89
g90
ssg71
g3280
sg64
(lp3292
S':'
asbag57
(g78
g59
NtRp3293
(dp3294
g62
(dp3295
sg71
g3280
sg64
(lp3296
g57
(g58
g59
NtRp3297
(dp3298
g62
(dp3299
g70
I4
ssg71
g3293
sg64
(lp3300
S'web2py'
p3301
asbasbasbasbasbasbasbag57
(g73
g59
NtRp3302
(dp3303
g62
(dp3304
sg71
g2799
sg64
(lp3305
g57
(g78
g59
NtRp3306
(dp3307
g62
(dp3308
g82
g83
ssg71
g3302
sg64
(lp3309
S'menu'
p3310
asbag57
(g78
g59
NtRp3311
(dp3312
g62
(dp3313
g89
g90
ssg71
g3302
sg64
(lp3314
S':'
asbag57
(g78
g59
NtRp3315
(dp3316
g62
(dp3317
sg71
g3302
sg64
(lp3318
g57
(g58
g59
NtRp3319
(dp3320
g62
(dp3321
g70
I5
ssg71
g3315
sg64
(lp3322
g57
(g66
g59
NtRp3323
(dp3324
g62
(dp3325
g70
I4
ssg71
Nsg64
(lp3326
g57
(g73
g59
NtRp3327
(dp3328
g62
(dp3329
sg71
g3323
sg64
(lp3330
g57
(g78
g59
NtRp3331
(dp3332
g62
(dp3333
sg71
g3327
sg64
(lp3334
g57
(g58
g59
NtRp3335
(dp3336
g62
(dp3337
g70
I4
ssg71
g3331
sg64
(lp3338
g57
(g66
g59
NtRp3339
(dp3340
g62
(dp3341
g70
I3
ssg71
Nsg64
(lp3342
g57
(g73
g59
NtRp3343
(dp3344
g62
(dp3345
sg71
g3339
sg64
(lp3346
g57
(g78
g59
NtRp3347
(dp3348
g62
(dp3349
sg71
g3343
sg64
(lp3350
g57
(g58
g59
NtRp3351
(dp3352
g62
(dp3353
g70
I3
ssg71
g3347
sg64
(lp3354
cgluon.languages
lazyT_unpickle
p3355
(S't\x04\x00\x00\x00Home'
tRp3356
asbasbasbag57
(g73
g59
NtRp3357
(dp3358
g62
(dp3359
sg71
g3339
sg64
(lp3360
g57
(g78
g59
NtRp3361
(dp3362
g62
(dp3363
sg71
g3357
sg64
(lp3364
g57
(g58
g59
NtRp3365
(dp3366
g62
(dp3367
g70
I3
ssg71
g3361
sg64
(lp3368
g100
asbasbasbag57
(g73
g59
NtRp3369
(dp3370
g62
(dp3371
sg71
g3339
sg64
(lp3372
g57
(g78
g59
NtRp3373
(dp3374
g62
(dp3375
sg71
g3369
sg64
(lp3376
g57
(g58
g59
NtRp3377
(dp3378
g62
(dp3379
g70
I3
ssg71
g3373
sg64
(lp3380
S'/igor/default/index'
p3381
asbasbasbag57
(g73
g59
NtRp3382
(dp3383
g62
(dp3384
sg71
g3339
sg64
(lp3385
g57
(g78
g59
NtRp3386
(dp3387
g62
(dp3388
sg71
g3382
sg64
(lp3389
g57
(g58
g59
NtRp3390
(dp3391
g62
(dp3392
g70
I3
ssg71
g3386
sg64
(lp3393
g57
(g66
g59
NtRp3394
(dp3395
g62
(dp3396
g70
I2
ssg71
Nsg64
(lp3397
sbasbasbasbasbasbasbasbag57
(g73
g59
NtRp3398
(dp3399
g62
(dp3400
sg71
g3323
sg64
(lp3401
g57
(g78
g59
NtRp3402
(dp3403
g62
(dp3404
sg71
g3398
sg64
(lp3405
g57
(g58
g59
NtRp3406
(dp3407
g62
(dp3408
g70
I4
ssg71
g3402
sg64
(lp3409
g57
(g66
g59
NtRp3410
(dp3411
g62
(dp3412
g70
I3
ssg71
Nsg64
(lp3413
g57
(g73
g59
NtRp3414
(dp3415
g62
(dp3416
sg71
g3410
sg64
(lp3417
g57
(g78
g59
NtRp3418
(dp3419
g62
(dp3420
sg71
g3414
sg64
(lp3421
g57
(g58
g59
NtRp3422
(dp3423
g62
(dp3424
g70
I3
ssg71
g3418
sg64
(lp3425
g57
(cgluon.html
SPAN
p3426
g59
NtRp3427
(dp3428
g62
(dp3429
g82
S'color:yellow'
p3430
ssg71
Nsg64
(lp3431
g3301
asbasbasbasbag57
(g73
g59
NtRp3432
(dp3433
g62
(dp3434
sg71
g3410
sg64
(lp3435
g57
(g78
g59
NtRp3436
(dp3437
g62
(dp3438
sg71
g3432
sg64
(lp3439
g57
(g58
g59
NtRp3440
(dp3441
g62
(dp3442
g70
I3
ssg71
g3436
sg64
(lp3443
g100
asbasbasbag57
(g73
g59
NtRp3444
(dp3445
g62
(dp3446
sg71
g3410
sg64
(lp3447
g57
(g78
g59
NtRp3448
(dp3449
g62
(dp3450
sg71
g3444
sg64
(lp3451
g57
(g58
g59
NtRp3452
(dp3453
g62
(dp3454
g70
I3
ssg71
g3448
sg64
(lp3455
S'None'
p3456
asbasbasbag57
(g73
g59
NtRp3457
(dp3458
g62
(dp3459
sg71
g3410
sg64
(lp3460
g57
(g78
g59
NtRp3461
(dp3462
g62
(dp3463
sg71
g3457
sg64
(lp3464
g57
(g58
g59
NtRp3465
(dp3466
g62
(dp3467
g70
I3
ssg71
g3461
sg64
(lp3468
g57
(g66
g59
NtRp3469
(dp3470
g62
(dp3471
g70
I2
ssg71
Nsg64
(lp3472
g57
(g73
g59
NtRp3473
(dp3474
g62
(dp3475
sg71
g3469
sg64
(lp3476
g57
(g78
g59
NtRp3477
(dp3478
g62
(dp3479
sg71
g3473
sg64
(lp3480
g57
(g58
g59
NtRp3481
(dp3482
g62
(dp3483
g70
I2
ssg71
g3477
sg64
(lp3484
g57
(g66
g59
NtRp3485
(dp3486
g62
(dp3487
g70
I1
ssg71
Nsg64
(lp3488
g57
(g73
g59
NtRp3489
(dp3490
g62
(dp3491
sg71
g3485
sg64
(lp3492
g57
(g78
g59
NtRp3493
(dp3494
g62
(dp3495
sg71
g3489
sg64
(lp3496
g57
(g58
g59
NtRp3497
(dp3498
g62
(dp3499
g70
I1
ssg71
g3493
sg64
(lp3500
g3355
(S's\x08\x00\x00\x00My Sites'
tRp3501
asbasbasbag57
(g73
g59
NtRp3502
(dp3503
g62
(dp3504
sg71
g3485
sg64
(lp3505
g57
(g78
g59
NtRp3506
(dp3507
g62
(dp3508
sg71
g3502
sg64
(lp3509
g57
(g58
g59
NtRp3510
(dp3511
g62
(dp3512
g70
I1
ssg71
g3506
sg64
(lp3513
I00
asbasbasbag57
(g73
g59
NtRp3514
(dp3515
g62
(dp3516
sg71
g3485
sg64
(lp3517
g57
(g78
g59
NtRp3518
(dp3519
g62
(dp3520
sg71
g3514
sg64
(lp3521
g57
(g58
g59
NtRp3522
(dp3523
g62
(dp3524
g70
I1
ssg71
g3518
sg64
(lp3525
S'/admin/default/site'
p3526
asbasbasbasbasbasbasbag57
(g73
g59
NtRp3527
(dp3528
g62
(dp3529
sg71
g3469
sg64
(lp3530
g57
(g78
g59
NtRp3531
(dp3532
g62
(dp3533
sg71
g3527
sg64
(lp3534
g57
(g58
g59
NtRp3535
(dp3536
g62
(dp3537
g70
I2
ssg71
g3531
sg64
(lp3538
g57
(g66
g59
NtRp3539
(dp3540
g62
(dp3541
g70
I1
ssg71
Nsg64
(lp3542
g57
(g73
g59
NtRp3543
(dp3544
g62
(dp3545
sg71
g3539
sg64
(lp3546
g57
(g78
g59
NtRp3547
(dp3548
g62
(dp3549
sg71
g3543
sg64
(lp3550
g57
(g58
g59
NtRp3551
(dp3552
g62
(dp3553
g70
I1
ssg71
g3547
sg64
(lp3554
g3355
(S's\x08\x00\x00\x00This App'
tRp3555
asbasbasbag57
(g73
g59
NtRp3556
(dp3557
g62
(dp3558
sg71
g3539
sg64
(lp3559
g57
(g78
g59
NtRp3560
(dp3561
g62
(dp3562
sg71
g3556
sg64
(lp3563
g57
(g58
g59
NtRp3564
(dp3565
g62
(dp3566
g70
I1
ssg71
g3560
sg64
(lp3567
I00
asbasbasbag57
(g73
g59
NtRp3568
(dp3569
g62
(dp3570
sg71
g3539
sg64
(lp3571
g57
(g78
g59
NtRp3572
(dp3573
g62
(dp3574
sg71
g3568
sg64
(lp3575
g57
(g58
g59
NtRp3576
(dp3577
g62
(dp3578
g70
I1
ssg71
g3572
sg64
(lp3579
S'/admin/default/design/igor'
p3580
asbasbasbag57
(g73
g59
NtRp3581
(dp3582
g62
(dp3583
sg71
g3539
sg64
(lp3584
g57
(g78
g59
NtRp3585
(dp3586
g62
(dp3587
sg71
g3581
sg64
(lp3588
g57
(g58
g59
NtRp3589
(dp3590
g62
(dp3591
g70
I1
ssg71
g3585
sg64
(lp3592
(lp3593
(g3355
(S't\n\x00\x00\x00Controller'
tRp3594
I00
S'/admin/default/edit/igor/controllers/project.py'
tp3595
a(g3355
(S't\x04\x00\x00\x00View'
tRp3596
I00
S'/admin/default/edit/igor/views/project/call.html'
tp3597
a(g3355
(S't\x06\x00\x00\x00Layout'
tRp3598
I00
S'/admin/default/edit/igor/views/layout.html'
tp3599
a(g3355
(S't\n\x00\x00\x00Stylesheet'
tRp3600
I00
S'/admin/default/edit/igor/static/css/web2py.css'
tp3601
a(g3355
(S's\x08\x00\x00\x00DB Model'
tRp3602
I00
S'/admin/default/edit/igor/models/db.py'
tp3603
a(g3355
(S's\n\x00\x00\x00Menu Model'
tRp3604
I00
S'/admin/default/edit/igor/models/menu.py'
tp3605
a(g3355
(S't\x08\x00\x00\x00Database'
tRp3606
I00
S'/igor/appadmin/index'
tp3607
a(g3355
(S't\x06\x00\x00\x00Errors'
tRp3608
I00
S'/admin/default/errors/igor'
tp3609
a(g3355
(S't\x05\x00\x00\x00About'
tRp3610
I00
S'/admin/default/about/igor'
tp3611
aasbasbasbasbasbasbasbag57
(g73
g59
NtRp3612
(dp3613
g62
(dp3614
sg71
g3469
sg64
(lp3615
g57
(g78
g59
NtRp3616
(dp3617
g62
(dp3618
sg71
g3612
sg64
(lp3619
g57
(g58
g59
NtRp3620
(dp3621
g62
(dp3622
g70
I2
ssg71
g3616
sg64
(lp3623
g57
(g66
g59
NtRp3624
(dp3625
g62
(dp3626
g70
I1
ssg71
Nsg64
(lp3627
g57
(g73
g59
NtRp3628
(dp3629
g62
(dp3630
sg71
g3624
sg64
(lp3631
g57
(g78
g59
NtRp3632
(dp3633
g62
(dp3634
sg71
g3628
sg64
(lp3635
g57
(g58
g59
NtRp3636
(dp3637
g62
(dp3638
g70
I1
ssg71
g3632
sg64
(lp3639
S'web2py.com'
p3640
asbasbasbag57
(g73
g59
NtRp3641
(dp3642
g62
(dp3643
sg71
g3624
sg64
(lp3644
g57
(g78
g59
NtRp3645
(dp3646
g62
(dp3647
sg71
g3641
sg64
(lp3648
g57
(g58
g59
NtRp3649
(dp3650
g62
(dp3651
g70
I1
ssg71
g3645
sg64
(lp3652
I00
asbasbasbag57
(g73
g59
NtRp3653
(dp3654
g62
(dp3655
sg71
g3624
sg64
(lp3656
g57
(g78
g59
NtRp3657
(dp3658
g62
(dp3659
sg71
g3653
sg64
(lp3660
g57
(g58
g59
NtRp3661
(dp3662
g62
(dp3663
g70
I1
ssg71
g3657
sg64
(lp3664
S'http://www.web2py.com'
p3665
asbasbasbag57
(g73
g59
NtRp3666
(dp3667
g62
(dp3668
sg71
g3624
sg64
(lp3669
g57
(g78
g59
NtRp3670
(dp3671
g62
(dp3672
sg71
g3666
sg64
(lp3673
g57
(g58
g59
NtRp3674
(dp3675
g62
(dp3676
g70
I1
ssg71
g3670
sg64
(lp3677
(lp3678
(g3355
(S't\x08\x00\x00\x00Download'
tRp3679
I00
S'http://www.web2py.com/examples/default/download'
p3680
tp3681
a(g3355
(S't\x07\x00\x00\x00Support'
tRp3682
I00
S'http://www.web2py.com/examples/default/support'
p3683
tp3684
a(g3355
(S't\x04\x00\x00\x00Demo'
tRp3685
I00
S'http://web2py.com/demo_admin'
p3686
tp3687
a(g3355
(S's\x0e\x00\x00\x00Quick Examples'
tRp3688
I00
S'http://web2py.com/examples/default/examples'
p3689
tp3690
a(g3355
(S't\x03\x00\x00\x00FAQ'
tRp3691
I00
S'http://web2py.com/AlterEgo'
p3692
tp3693
a(g3355
(S't\x06\x00\x00\x00Videos'
tRp3694
I00
S'http://www.web2py.com/examples/default/videos/'
p3695
tp3696
a(g3355
(S's\x11\x00\x00\x00Free Applications'
tRp3697
I00
S'http://web2py.com/appliances'
p3698
tp3699
a(g3355
(S't\x07\x00\x00\x00Plugins'
tRp3700
I00
S'http://web2py.com/plugins'
p3701
tp3702
a(g3355
(S't\x07\x00\x00\x00Layouts'
tRp3703
I00
S'http://web2py.com/layouts'
p3704
tp3705
a(g3355
(S't\x07\x00\x00\x00Recipes'
tRp3706
I00
S'http://web2pyslices.com/'
p3707
tp3708
a(g3355
(S't\x08\x00\x00\x00Semantic'
tRp3709
I00
S'http://web2py.com/semantic'
p3710
tp3711
aasbasbasbasbasbasbasbag57
(g73
g59
NtRp3712
(dp3713
g62
(dp3714
sg71
g3469
sg64
(lp3715
g57
(g78
g59
NtRp3716
(dp3717
g62
(dp3718
sg71
g3712
sg64
(lp3719
g57
(g58
g59
NtRp3720
(dp3721
g62
(dp3722
g70
I2
ssg71
g3716
sg64
(lp3723
g57
(g66
g59
NtRp3724
(dp3725
g62
(dp3726
g70
I1
ssg71
Nsg64
(lp3727
g57
(g73
g59
NtRp3728
(dp3729
g62
(dp3730
sg71
g3724
sg64
(lp3731
g57
(g78
g59
NtRp3732
(dp3733
g62
(dp3734
sg71
g3728
sg64
(lp3735
g57
(g58
g59
NtRp3736
(dp3737
g62
(dp3738
g70
I1
ssg71
g3732
sg64
(lp3739
g3355
(S't\r\x00\x00\x00Documentation'
tRp3740
asbasbasbag57
(g73
g59
NtRp3741
(dp3742
g62
(dp3743
sg71
g3724
sg64
(lp3744
g57
(g78
g59
NtRp3745
(dp3746
g62
(dp3747
sg71
g3741
sg64
(lp3748
g57
(g58
g59
NtRp3749
(dp3750
g62
(dp3751
g70
I1
ssg71
g3745
sg64
(lp3752
I00
asbasbasbag57
(g73
g59
NtRp3753
(dp3754
g62
(dp3755
sg71
g3724
sg64
(lp3756
g57
(g78
g59
NtRp3757
(dp3758
g62
(dp3759
sg71
g3753
sg64
(lp3760
g57
(g58
g59
NtRp3761
(dp3762
g62
(dp3763
g70
I1
ssg71
g3757
sg64
(lp3764
S'http://www.web2py.com/book'
p3765
asbasbasbag57
(g73
g59
NtRp3766
(dp3767
g62
(dp3768
sg71
g3724
sg64
(lp3769
g57
(g78
g59
NtRp3770
(dp3771
g62
(dp3772
sg71
g3766
sg64
(lp3773
g57
(g58
g59
NtRp3774
(dp3775
g62
(dp3776
g70
I1
ssg71
g3770
sg64
(lp3777
(lp3778
(g3355
(S't\x07\x00\x00\x00Preface'
tRp3779
I00
S'http://www.web2py.com/book/default/chapter/00'
p3780
tp3781
a(g3355
(S't\x0c\x00\x00\x00Introduction'
tRp3782
I00
S'http://www.web2py.com/book/default/chapter/01'
p3783
tp3784
a(g3355
(S't\x06\x00\x00\x00Python'
tRp3785
I00
S'http://www.web2py.com/book/default/chapter/02'
p3786
tp3787
a(g3355
(S't\x08\x00\x00\x00Overview'
tRp3788
I00
S'http://www.web2py.com/book/default/chapter/03'
p3789
tp3790
a(g3355
(S's\x08\x00\x00\x00The Core'
tRp3791
I00
S'http://www.web2py.com/book/default/chapter/04'
p3792
tp3793
a(g3355
(S's\t\x00\x00\x00The Views'
tRp3794
I00
S'http://www.web2py.com/book/default/chapter/05'
p3795
tp3796
a(g3355
(S't\x08\x00\x00\x00Database'
tRp3797
I00
S'http://www.web2py.com/book/default/chapter/06'
p3798
tp3799
a(g3355
(S's\x14\x00\x00\x00Forms and Validators'
tRp3800
I00
S'http://www.web2py.com/book/default/chapter/07'
p3801
tp3802
a(g3355
(S's\r\x00\x00\x00Email and SMS'
tRp3803
I00
S'http://www.web2py.com/book/default/chapter/08'
p3804
tp3805
a(g3355
(S's\x0e\x00\x00\x00Access Control'
tRp3806
I00
S'http://www.web2py.com/book/default/chapter/09'
p3807
tp3808
a(g3355
(S't\x08\x00\x00\x00Services'
tRp3809
I00
S'http://www.web2py.com/book/default/chapter/10'
p3810
tp3811
a(g3355
(S's\x0c\x00\x00\x00Ajax Recipes'
tRp3812
I00
S'http://www.web2py.com/book/default/chapter/11'
p3813
tp3814
a(g3355
(S's\x16\x00\x00\x00Components and Plugins'
tRp3815
I00
S'http://www.web2py.com/book/default/chapter/12'
p3816
tp3817
a(g3355
(S's\x12\x00\x00\x00Deployment Recipes'
tRp3818
I00
S'http://www.web2py.com/book/default/chapter/13'
p3819
tp3820
a(g3355
(S's\r\x00\x00\x00Other Recipes'
tRp3821
I00
S'http://www.web2py.com/book/default/chapter/14'
p3822
tp3823
a(g3355
(S's\r\x00\x00\x00Buy this book'
tRp3824
I00
S'http://stores.lulu.com/web2py'
p3825
tp3826
aasbasbasbasbasbasbasbag57
(g73
g59
NtRp3827
(dp3828
g62
(dp3829
sg71
g3469
sg64
(lp3830
g57
(g78
g59
NtRp3831
(dp3832
g62
(dp3833
sg71
g3827
sg64
(lp3834
g57
(g58
g59
NtRp3835
(dp3836
g62
(dp3837
g70
I2
ssg71
g3831
sg64
(lp3838
g57
(g66
g59
NtRp3839
(dp3840
g62
(dp3841
g70
I1
ssg71
Nsg64
(lp3842
g57
(g73
g59
NtRp3843
(dp3844
g62
(dp3845
sg71
g3839
sg64
(lp3846
g57
(g78
g59
NtRp3847
(dp3848
g62
(dp3849
sg71
g3843
sg64
(lp3850
g57
(g58
g59
NtRp3851
(dp3852
g62
(dp3853
g70
I1
ssg71
g3847
sg64
(lp3854
g3355
(S't\t\x00\x00\x00Community'
tRp3855
asbasbasbag57
(g73
g59
NtRp3856
(dp3857
g62
(dp3858
sg71
g3839
sg64
(lp3859
g57
(g78
g59
NtRp3860
(dp3861
g62
(dp3862
sg71
g3856
sg64
(lp3863
g57
(g58
g59
NtRp3864
(dp3865
g62
(dp3866
g70
I1
ssg71
g3860
sg64
(lp3867
I00
asbasbasbag57
(g73
g59
NtRp3868
(dp3869
g62
(dp3870
sg71
g3839
sg64
(lp3871
g57
(g78
g59
NtRp3872
(dp3873
g62
(dp3874
sg71
g3868
sg64
(lp3875
g57
(g58
g59
NtRp3876
(dp3877
g62
(dp3878
g70
I1
ssg71
g3872
sg64
(lp3879
Nasbasbasbag57
(g73
g59
NtRp3880
(dp3881
g62
(dp3882
sg71
g3839
sg64
(lp3883
g57
(g78
g59
NtRp3884
(dp3885
g62
(dp3886
sg71
g3880
sg64
(lp3887
g57
(g58
g59
NtRp3888
(dp3889
g62
(dp3890
g70
I1
ssg71
g3884
sg64
(lp3891
(lp3892
(g3355
(S't\x06\x00\x00\x00Groups'
tRp3893
I00
S'http://www.web2py.com/examples/default/usergroups'
p3894
tp3895
a(g3355
(S't\x07\x00\x00\x00Twitter'
tRp3896
I00
S'http://twitter.com/web2py'
p3897
tp3898
a(g3355
(S's\t\x00\x00\x00Live Chat'
tRp3899
I00
S'http://webchat.freenode.net/?channels=web2py'
p3900
tp3901
aasbasbasbasbasbasbasbag57
(g73
g59
NtRp3902
(dp3903
g62
(dp3904
sg71
g3469
sg64
(lp3905
g57
(g78
g59
NtRp3906
(dp3907
g62
(dp3908
sg71
g3902
sg64
(lp3909
g57
(g58
g59
NtRp3910
(dp3911
g62
(dp3912
g70
I2
ssg71
g3906
sg64
(lp3913
g57
(g66
g59
NtRp3914
(dp3915
g62
(dp3916
g70
I1
ssg71
Nsg64
(lp3917
g57
(g73
g59
NtRp3918
(dp3919
g62
(dp3920
sg71
g3914
sg64
(lp3921
g57
(g78
g59
NtRp3922
(dp3923
g62
(dp3924
sg71
g3918
sg64
(lp3925
g57
(g58
g59
NtRp3926
(dp3927
g62
(dp3928
g70
I1
ssg71
g3922
sg64
(lp3929
g3355
(S't\x07\x00\x00\x00Plugins'
tRp3930
asbasbasbag57
(g73
g59
NtRp3931
(dp3932
g62
(dp3933
sg71
g3914
sg64
(lp3934
g57
(g78
g59
NtRp3935
(dp3936
g62
(dp3937
sg71
g3931
sg64
(lp3938
g57
(g58
g59
NtRp3939
(dp3940
g62
(dp3941
g70
I1
ssg71
g3935
sg64
(lp3942
I00
asbasbasbag57
(g73
g59
NtRp3943
(dp3944
g62
(dp3945
sg71
g3914
sg64
(lp3946
g57
(g78
g59
NtRp3947
(dp3948
g62
(dp3949
sg71
g3943
sg64
(lp3950
g57
(g58
g59
NtRp3951
(dp3952
g62
(dp3953
g70
I1
ssg71
g3947
sg64
(lp3954
Nasbasbasbag57
(g73
g59
NtRp3955
(dp3956
g62
(dp3957
sg71
g3914
sg64
(lp3958
g57
(g78
g59
NtRp3959
(dp3960
g62
(dp3961
sg71
g3955
sg64
(lp3962
g57
(g58
g59
NtRp3963
(dp3964
g62
(dp3965
g70
I1
ssg71
g3959
sg64
(lp3966
(lp3967
(S'plugin_wiki'
p3968
I00
S'http://web2py.com/examples/default/download'
p3969
tp3970
a(g3355
(S's\r\x00\x00\x00Other Plugins'
tRp3971
I00
g3701
tp3972
a(g3355
(S's\x0e\x00\x00\x00Layout Plugins'
tRp3973
I00
g3704
tp3974
aasbasbasbasbasbasbasbasbasbasbasbasbasbasbasbasbasbasbasbag57
(g73
g59
NtRp3975
(dp3976
g62
(dp3977
sg71
g2799
sg64
(lp3978
g57
(g78
g59
NtRp3979
(dp3980
g62
(dp3981
g82
g83
ssg71
g3975
sg64
(lp3982
S'meta'
p3983
asbag57
(g78
g59
NtRp3984
(dp3985
g62
(dp3986
g89
g90
ssg71
g3975
sg64
(lp3987
S':'
asbag57
(g78
g59
NtRp3988
(dp3989
g62
(dp3990
sg71
g3975
sg64
(lp3991
g57
(g58
g59
NtRp3992
(dp3993
g62
(dp3994
g70
I5
ssg71
g3988
sg64
(lp3995
g57
(g66
g59
NtRp3996
(dp3997
g62
(dp3998
g70
I4
ssg71
Nsg64
(lp3999
g57
(g73
g59
NtRp4000
(dp4001
g62
(dp4002
sg71
g3996
sg64
(lp4003
g57
(g78
g59
NtRp4004
(dp4005
g62
(dp4006
g82
g83
ssg71
g4000
sg64
(lp4007
S'author'
p4008
asbag57
(g78
g59
NtRp4009
(dp4010
g62
(dp4011
g89
g90
ssg71
g4000
sg64
(lp4012
S':'
asbag57
(g78
g59
NtRp4013
(dp4014
g62
(dp4015
sg71
g4000
sg64
(lp4016
g57
(g58
g59
NtRp4017
(dp4018
g62
(dp4019
g70
I4
ssg71
g4013
sg64
(lp4020
S'Your Name <you@example.com>'
p4021
asbasbasbag57
(g73
g59
NtRp4022
(dp4023
g62
(dp4024
sg71
g3996
sg64
(lp4025
g57
(g78
g59
NtRp4026
(dp4027
g62
(dp4028
g82
g83
ssg71
g4022
sg64
(lp4029
S'copyright'
p4030
asbag57
(g78
g59
NtRp4031
(dp4032
g62
(dp4033
g89
g90
ssg71
g4022
sg64
(lp4034
S':'
asbag57
(g78
g59
NtRp4035
(dp4036
g62
(dp4037
sg71
g4022
sg64
(lp4038
g57
(g58
g59
NtRp4039
(dp4040
g62
(dp4041
g70
I4
ssg71
g4035
sg64
(lp4042
S'Copyright 2011'
p4043
asbasbasbag57
(g73
g59
NtRp4044
(dp4045
g62
(dp4046
sg71
g3996
sg64
(lp4047
g57
(g78
g59
NtRp4048
(dp4049
g62
(dp4050
g82
g83
ssg71
g4044
sg64
(lp4051
S'description'
p4052
asbag57
(g78
g59
NtRp4053
(dp4054
g62
(dp4055
g89
g90
ssg71
g4044
sg64
(lp4056
S':'
asbag57
(g78
g59
NtRp4057
(dp4058
g62
(dp4059
sg71
g4044
sg64
(lp4060
g57
(g58
g59
NtRp4061
(dp4062
g62
(dp4063
g70
I4
ssg71
g4057
sg64
(lp4064
S'a cool new app'
p4065
asbasbasbag57
(g73
g59
NtRp4066
(dp4067
g62
(dp4068
sg71
g3996
sg64
(lp4069
g57
(g78
g59
NtRp4070
(dp4071
g62
(dp4072
g82
g83
ssg71
g4066
sg64
(lp4073
S'generator'
p4074
asbag57
(g78
g59
NtRp4075
(dp4076
g62
(dp4077
g89
g90
ssg71
g4066
sg64
(lp4078
S':'
asbag57
(g78
g59
NtRp4079
(dp4080
g62
(dp4081
sg71
g4066
sg64
(lp4082
g57
(g58
g59
NtRp4083
(dp4084
g62
(dp4085
g70
I4
ssg71
g4079
sg64
(lp4086
S'Web2py Web Framework'
p4087
asbasbasbag57
(g73
g59
NtRp4088
(dp4089
g62
(dp4090
sg71
g3996
sg64
(lp4091
g57
(g78
g59
NtRp4092
(dp4093
g62
(dp4094
g82
g83
ssg71
g4088
sg64
(lp4095
S'keywords'
p4096
asbag57
(g78
g59
NtRp4097
(dp4098
g62
(dp4099
g89
g90
ssg71
g4088
sg64
(lp4100
S':'
asbag57
(g78
g59
NtRp4101
(dp4102
g62
(dp4103
sg71
g4088
sg64
(lp4104
g57
(g58
g59
NtRp4105
(dp4106
g62
(dp4107
g70
I4
ssg71
g4101
sg64
(lp4108
S'web2py, python, framework'
p4109
asbasbasbasbasbasbasbag57
(g73
g59
NtRp4110
(dp4111
g62
(dp4112
sg71
g2799
sg64
(lp4113
g57
(g78
g59
NtRp4114
(dp4115
g62
(dp4116
g82
g83
ssg71
g4110
sg64
(lp4117
S'postprocessing'
p4118
asbag57
(g78
g59
NtRp4119
(dp4120
g62
(dp4121
g89
g90
ssg71
g4110
sg64
(lp4122
S':'
asbag57
(g78
g59
NtRp4123
(dp4124
g62
(dp4125
sg71
g4110
sg64
(lp4126
g57
(g58
g59
NtRp4127
(dp4128
g62
(dp4129
g70
I5
ssg71
g4123
sg64
(lp4130
g57
(g66
g59
NtRp4131
(dp4132
g62
(dp4133
g70
I4
ssg71
Nsg64
(lp4134
sbasbasbasbag57
(g73
g59
NtRp4135
(dp4136
g62
(dp4137
sg71
g2799
sg64
(lp4138
g57
(g78
g59
NtRp4139
(dp4140
g62
(dp4141
g82
g83
ssg71
g4135
sg64
(lp4142
S'session_filename'
p4143
asbag57
(g78
g59
NtRp4144
(dp4145
g62
(dp4146
g89
g90
ssg71
g4135
sg64
(lp4147
S':'
asbag57
(g78
g59
NtRp4148
(dp4149
g62
(dp4150
sg71
g4135
sg64
(lp4151
g57
(g58
g59
NtRp4152
(dp4153
g62
(dp4154
g70
I5
ssg71
g4148
sg64
(lp4155
S'/home/tuna/cyberagent/IgoR/C_Sources/Server/igor-assistant-ca-2012/applications/igor/sessions/127.0.0.1-6b503a33-d573-4e96-a1fe-d27fae02a226'
p4156
asbasbasbag57
(g73
g59
NtRp4157
(dp4158
g62
(dp4159
sg71
g2799
sg64
(lp4160
g57
(g78
g59
NtRp4161
(dp4162
g62
(dp4163
g82
g83
ssg71
g4157
sg64
(lp4164
S'session_id'
p4165
asbag57
(g78
g59
NtRp4166
(dp4167
g62
(dp4168
g89
g90
ssg71
g4157
sg64
(lp4169
S':'
asbag57
(g78
g59
NtRp4170
(dp4171
g62
(dp4172
sg71
g4157
sg64
(lp4173
g57
(g58
g59
NtRp4174
(dp4175
g62
(dp4176
g70
I5
ssg71
g4170
sg64
(lp4177
S'127.0.0.1-6b503a33-d573-4e96-a1fe-d27fae02a226'
p4178
asbasbasbag57
(g73
g59
NtRp4179
(dp4180
g62
(dp4181
sg71
g2799
sg64
(lp4182
g57
(g78
g59
NtRp4183
(dp4184
g62
(dp4185
g82
g83
ssg71
g4179
sg64
(lp4186
S'session_id_name'
p4187
asbag57
(g78
g59
NtRp4188
(dp4189
g62
(dp4190
g89
g90
ssg71
g4179
sg64
(lp4191
S':'
asbag57
(g78
g59
NtRp4192
(dp4193
g62
(dp4194
sg71
g4179
sg64
(lp4195
g57
(g58
g59
NtRp4196
(dp4197
g62
(dp4198
g70
I5
ssg71
g4192
sg64
(lp4199
g2856
asbasbasbag57
(g73
g59
NtRp4200
(dp4201
g62
(dp4202
sg71
g2799
sg64
(lp4203
g57
(g78
g59
NtRp4204
(dp4205
g62
(dp4206
g82
g83
ssg71
g4200
sg64
(lp4207
S'session_new'
p4208
asbag57
(g78
g59
NtRp4209
(dp4210
g62
(dp4211
g89
g90
ssg71
g4200
sg64
(lp4212
S':'
asbag57
(g78
g59
NtRp4213
(dp4214
g62
(dp4215
sg71
g4200
sg64
(lp4216
g57
(g58
g59
NtRp4217
(dp4218
g62
(dp4219
g70
I5
ssg71
g4213
sg64
(lp4220
g1302
asbasbasbag57
(g73
g59
NtRp4221
(dp4222
g62
(dp4223
sg71
g2799
sg64
(lp4224
g57
(g78
g59
NtRp4225
(dp4226
g62
(dp4227
g82
g83
ssg71
g4221
sg64
(lp4228
S'status'
p4229
asbag57
(g78
g59
NtRp4230
(dp4231
g62
(dp4232
g89
g90
ssg71
g4221
sg64
(lp4233
S':'
asbag57
(g78
g59
NtRp4234
(dp4235
g62
(dp4236
sg71
g4221
sg64
(lp4237
g57
(g58
g59
NtRp4238
(dp4239
g62
(dp4240
g70
I5
ssg71
g4234
sg64
(lp4241
S'200'
p4242
asbasbasbag57
(g73
g59
NtRp4243
(dp4244
g62
(dp4245
sg71
g2799
sg64
(lp4246
g57
(g78
g59
NtRp4247
(dp4248
g62
(dp4249
g82
g83
ssg71
g4243
sg64
(lp4250
S'subtitle'
p4251
asbag57
(g78
g59
NtRp4252
(dp4253
g62
(dp4254
g89
g90
ssg71
g4243
sg64
(lp4255
S':'
asbag57
(g78
g59
NtRp4256
(dp4257
g62
(dp4258
sg71
g4243
sg64
(lp4259
g57
(g58
g59
NtRp4260
(dp4261
g62
(dp4262
g70
I5
ssg71
g4256
sg64
(lp4263
g3355
(S's\r\x00\x00\x00customize me!'
tRp4264
asbasbasbag57
(g73
g59
NtRp4265
(dp4266
g62
(dp4267
sg71
g2799
sg64
(lp4268
g57
(g78
g59
NtRp4269
(dp4270
g62
(dp4271
g82
g83
ssg71
g4265
sg64
(lp4272
S'title'
p4273
asbag57
(g78
g59
NtRp4274
(dp4275
g62
(dp4276
g89
g90
ssg71
g4265
sg64
(lp4277
S':'
asbag57
(g78
g59
NtRp4278
(dp4279
g62
(dp4280
sg71
g4265
sg64
(lp4281
g57
(g58
g59
NtRp4282
(dp4283
g62
(dp4284
g70
I5
ssg71
g4278
sg64
(lp4285
S'Igor'
p4286
asbasbasbag57
(g73
g59
NtRp4287
(dp4288
g62
(dp4289
sg71
g2799
sg64
(lp4290
g57
(g78
g59
NtRp4291
(dp4292
g62
(dp4293
g82
g83
ssg71
g4287
sg64
(lp4294
g1988
asbag57
(g78
g59
NtRp4295
(dp4296
g62
(dp4297
g89
g90
ssg71
g4287
sg64
(lp4298
S':'
asbag57
(g78
g59
NtRp4299
(dp4300
g62
(dp4301
sg71
g4287
sg64
(lp4302
g57
(g58
g59
NtRp4303
(dp4304
g62
(dp4305
g70
I5
ssg71
g4299
sg64
(lp4306
g2001
asbasbasbag57
(g73
g59
NtRp4307
(dp4308
g62
(dp4309
sg71
g2799
sg64
(lp4310
g57
(g78
g59
NtRp4311
(dp4312
g62
(dp4313
g82
g83
ssg71
g4307
sg64
(lp4314
S'view'
p4315
asbag57
(g78
g59
NtRp4316
(dp4317
g62
(dp4318
g89
g90
ssg71
g4307
sg64
(lp4319
S':'
asbag57
(g78
g59
NtRp4320
(dp4321
g62
(dp4322
sg71
g4307
sg64
(lp4323
g57
(g58
g59
NtRp4324
(dp4325
g62
(dp4326
g70
I5
ssg71
g4320
sg64
(lp4327
S'project/call.html'
p4328
asbasbasbasbasbsS'locals'
p4329
(dp4330
S'project'
p4331
S"<Row {'update_record': <function <lambda> at 0x7..._record': <function <lambda> at 0x7f46a070c050>}>"
p4332
sS'client_data'
p4333
S'[]'
p4334
sS'projects'
p4335
S'<gluon.dal.Rows object>'
p4336
sssS'traceback'
p4337
S'Traceback (most recent call last):\n  File "/home/tuna/cyberagent/IgoR/C_Sources/Server/igor-assistant-ca-2012/gluon/restricted.py", line 205, in restricted\n    exec ccode in environment\n  File "/home/tuna/cyberagent/IgoR/C_Sources/Server/igor-assistant-ca-2012/applications/igor/controllers/project.py", line 177, in <module>\n  File "/home/tuna/cyberagent/IgoR/C_Sources/Server/igor-assistant-ca-2012/gluon/globals.py", line 173, in <lambda>\n    self._caller = lambda f: f()\n  File "/home/tuna/cyberagent/IgoR/C_Sources/Server/igor-assistant-ca-2012/applications/igor/controllers/project.py", line 19, in call\n    return service()\n  File "/home/tuna/cyberagent/IgoR/C_Sources/Server/igor-assistant-ca-2012/gluon/tools.py", line 4015, in __call__\n    return self.serve_json(request.args[1:])\n  File "/home/tuna/cyberagent/IgoR/C_Sources/Server/igor-assistant-ca-2012/gluon/tools.py", line 3808, in serve_json\n    s = universal_caller(self.json_procedures[args[0]],*args[1:],**d)\n  File "/home/tuna/cyberagent/IgoR/C_Sources/Server/igor-assistant-ca-2012/gluon/tools.py", line 3490, in universal_caller\n    return f(**arg_dict)\n  File "/home/tuna/cyberagent/IgoR/C_Sources/Server/igor-assistant-ca-2012/applications/igor/controllers/project.py", line 70, in get_project_detail\n    project = format_client_data(project)\n  File "/home/tuna/cyberagent/IgoR/C_Sources/Server/igor-assistant-ca-2012/applications/igor/controllers/project.py", line 145, in format_client_data\n    subject = db(db.subject.id == class_subject.subject).select().first()\nNameError: global name \'class_subject\' is not defined\n'
p4338
s.