(dp1
S'output'
p2
S"<type 'exceptions.IndentationError'> expected an indented block (controllers/jobs.py, line 254)"
p3
sS'layer'
p4
S'D:\\workspace\\ca\\IgoR\\C_Sources\\Server\\igor-assistant-ca-2012\\applications\\igor\\controllers/jobs.py'
p5
sS'code'
p6
S'# -*- coding: utf-8 -*-\n# this file is released under public domain and you can use without limitations\n\n#########################################################################\n## This is jobs controller\n## Author: phucnh, tuna\n#########################################################################\n\nfrom message_packager import *\nfrom gluon.dal import Rows\nfrom igor_time import *\n\n@request.restful()\ndef get_jobs_by_class():\n\tresponse.view = \'generic.json\'\n\tdef GET(user_id, class_id):\n\n\t\t# Validate input \n\t\tif (not user_id.isdigit()):\n\t\t\treturn MessagePackager.get_packaged_message (\n\t\t\t\tMessageStatus.ERROR, \n\t\t\t\t"use id must be numberic")\n\n\t\tif (int (user_id) < 0):\n\t\t\treturn MessagePackager.get_packaged_message (\n\t\t\t\tMessageStatus.ERROR, \n\t\t\t\t"user id can not less than 0")\n\n\t\tif (not class_id.isdigit()):\n\t\t\treturn MessagePackager.get_packaged_message (\n\t\t\t\tMessageStatus.ERROR, \n\t\t\t\t"class id must be numberic")\n\n\t\tif (int (class_id) < 0):\n\t\t\treturn MessagePackager.get_packaged_message (\n\t\t\t\tMessageStatus.ERROR, \n\t\t\t\t"class id can not less than 0")\n\n\n\t\tjobs = db(\n\t\t\tdb.job.owner == user_id and\n\t\t\tdb.job.class_subject == class_id).select()\n\n\t\treturn MessagePackager.get_packaged_message(MessageStatus.OK, jobs)\n\n\treturn locals()\t\n\n@request.restful()\ndef get_jobs_detail():\n\tresponse.view = \'generic.json\'\n\tdef GET(job_id):\n\n\t\t#validate input\n\t\tif (not job_id.isdigit()):\n\t\t\treturn MessagePackager.get_packaged_message (\n\t\t\t\tMessageStatus.ERROR, \n\t\t\t\t"job id must be numberic")\n\n\t\tif (int (job_id) < 0):\n\t\t\treturn MessagePackager.get_packaged_message (\n\t\t\t\tMessageStatus.ERROR, \n\t\t\t\t"job id can not less than 0")\n\n\t\tjob = db(\n\t\t\tdb.job.id == job_id).select() \n\n\t\t# job = format_client_data(job)\n\n\t\treturn MessagePackager.get_packaged_message(MessageStatus.OK, job)\n\n\treturn locals()\t\n\n\n@request.restful()\ndef add_class_job():\n\tresponse.view = \'generic.json\'\n\tdef GET(user_id, name, start_time, end_time, job_type, date, \n\t\trepeat_date, note, location, test, class_id):\n\n\t\t# Validate input\n\t\tif (not class_id.isdigit()):\n\t\t\treturn MessagePackager.get_packaged_message (\n\t\t\t\tMessageStatus.ERROR, \n\t\t\t\t"class id must be numberic")\n\n\t\tif (not user_id.isdigit()):\n\t\t\treturn MessagePackager.get_packaged_message (\n\t\t\t\tMessageStatus.ERROR, \n\t\t\t\t"user id must be numberic")\n\t\tif (int (class_id) < 0):\n\t\t\treturn MessagePackager.get_packaged_message (\n\t\t\t\tMessageStatus.ERROR, \n\t\t\t\t"class id can not less than 0")\n\t\tif (int (user_id) < 0):\n\t\t\treturn MessagePackager.get_packaged_message (\n\t\t\t\tMessageStatus.ERROR, \n\t\t\t\t"user id can not less than 0")\n\n\t\t# Insert new data\n\t\ttry:\n\t\t\t# job_id = db.job.insert(\n\t\t\t# owner = user_id,\n\t\t\t# name = name,\n\t\t\t# start_time = start_time,\n\t\t\t# end_time = end_time,\n\t\t\t# job_type = job_type,\n\t\t\t# date = date, ### Tuna input ????\n\t\t\t# repeat_date = repeat_date,\n\t\t\t# note = note,\n\t\t\t# location = location,\n\t\t\t# test = test,\n\t\t\t# class_subject = class_id)\n\t\t\tadd_class_job(user_id, name, start_time, \n\t\t\t\tend_time, job_type, \n\t\t\t\tdate, repeat_date, note, \n\t\t\t\tlocation, test, class_id)\n\n\t\texcept Exception, err:\n\t\t\treturn MessagePackager.get_packaged_message(MessageStatus.ERROR, str (err) )\n\n\t\treturn MessagePackager.get_packaged_message(MessageStatus.OK, job_id)\n\n\treturn locals()\n\n@request.restful()\ndef delete_job():\n\tresponse.view = \'generic.json\'\n\tdef GET(job_id):\n\n\t\t#validate input\n\t\tif (not job_id.isdigit()):\n\t\t\treturn MessagePackager.get_packaged_message (\n\t\t\t\tMessageStatus.ERROR, \n\t\t\t\t"job id must be numberic")\n\n\t\tif (int (job_id) < 0):\n\t\t\treturn MessagePackager.get_packaged_message (\n\t\t\t\tMessageStatus.ERROR, \n\t\t\t\t"job id can not less than 0")\n\n\t\ttry:\n\t\t\tjob_id = db(db.job.id == job_id).delete()\n\t\texcept Exception, err:\n\t\t\treturn MessagePackager.get_packaged_message(MessageStatus.ERROR, str (err) )\n\t\t\n\n\t\treturn MessagePackager.get_packaged_message(MessageStatus.OK, job_id)\n\n\treturn locals()\n\n@request.restful()\ndef mark_job_finished():\n\tresponse.view = \'generic.json\'\n\tdef GET(job_id):\n\n\t\t#validate input\n\t\tif (not job_id.isdigit()):\n\t\t\treturn MessagePackager.get_packaged_message (\n\t\t\t\tMessageStatus.ERROR, \n\t\t\t\t"job id must be numberic")\n\n\t\tif (int (job_id) < 0):\n\t\t\treturn MessagePackager.get_packaged_message (\n\t\t\t\tMessageStatus.ERROR, \n\t\t\t\t"job id can not less than 0")\n\n\t\t#update data\n\t\ttry:\n\t\t\trow = db(db.job.id == job_id).update(status = 1)\n\t\texcept Exception, err:\n\t\t\treturn MessagePackager.get_packaged_message(MessageStatus.ERROR, str (err) )\n\t\t# row.update_record(status = 1)\n\n\t\treturn MessagePackager.get_packaged_message(MessageStatus.OK, "Done")\n\treturn locals()\n\n@request.restful()\ndef mark_jobs_finished():\n\tresponse.view = \'generic.json\'\n\tdef GET(*job_ids):\n\n\t\t#update data\n\t\ttry:\n\t\t\tfor job_id in job_ids:\n\t\t\t\t#validate input\n\t\t\t\tif (not job_id.isdigit()):\n\t\t\t\t\traise Exception(\'job id must be numberic\')\n\t\t\t\t\t# return MessagePackager.get_packaged_message (\n\t\t\t\t\t# MessageStatus.ERROR, \n\t\t\t\t\t# "job id must be numberic")\n\n\t\t\t\tif (int (job_id) < 0):\n\t\t\t\t\traise Exception(\'job id can not less than 0\')\n\t\t\t\t\t# return MessagePackager.get_packaged_message (\n\t\t\t\t\t# MessageStatus.ERROR, \n\t\t\t\t\t# "job id can not less than 0")\n\t\t\t\n\t\t\t\trow = db(db.job.id == job_id).update(status = 1)\n\t\t\t\t\t\n\t\texcept Exception, err:\n\t\t\tdb.rollback()\n\t\t\treturn MessagePackager.get_packaged_message(MessageStatus.ERROR, str (err) )\n\n\t\treturn MessagePackager.get_packaged_message(MessageStatus.OK, "Done")\n\n\treturn locals()\n\n\n@request.restful()\ndef accept_job():\n\tresponse.view = \'generic.json\'\n\tdef GET(job_id, owner, from_user):\n\n\t\t## validate input\n\t\tif (not job_id.isdigit()):\n\t\t\treturn MessagePackager.get_packaged_message (\n\t\t\tMessageStatus.ERROR,\n\t\t\t"job id must be numberic")\n\n\t\tif (int (job_id) < 0):\n\t\t\treturn MessagePackager.get_packaged_message (\n\t\t\tMessageStatus.ERROR, \n\t\t\t"job id can not less than 0")\n\t\tif (not owner.isdigit()):\n\t\t\treturn MessagePackager.get_packaged_message (\n\t\t\tMessageStatus.ERROR,\n\t\t\t"user id must be numberic")\n\n\t\tif (int (owner) < 0):\n\t\t\treturn MessagePackager.get_packaged_message (\n\t\t\tMessageStatus.ERROR, \n\t\t\t"user id can not less than 0")\n\t\tif (not from_user.isdigit()):\n\t\t\treturn MessagePackager.get_packaged_message (\n\t\t\tMessageStatus.ERROR,\n\t\t\t"user id must be numberic")\n\n\t\tif (int (from_user) < 0):\n\t\t\treturn MessagePackager.get_packaged_message (\n\t\t\tMessageStatus.ERROR, \n\t\t\t"user id can not less than 0")\n\n\t\t##\n\t\trows = db(db.notification.owner == from_user).select()\n\t\tcheck = False\n\t\tfor row in rows:\n\t\t\tif (row.is_read == True):\n\t\t\t\tcheck = True\n\t\t\t\tbreak\n\n\t\tif (check):\n\t\t#\tadd_class_job() ### Tuna input???\n\t\t\n\t\telse:\n\t\t\treturn MessagePackager.get_packaged_message(MessageStatus.ERROR,\n\t\t\t\t"can not accept job: notification is not checked")\n\n\treturn locals()\n\n@request.restful()\ndef share_job_to_class():\n\tresponse.view = \'generic.json\'\n\tdef GET(job_id, from_user_id, class_id):\n\n\t\t#validate data\n\t\tif (not job_id.isdigit()):\n\t\t\treturn MessagePackager.get_packaged_message (\n\t\t\tMessageStatus.ERROR,\n\t\t\t"job id must be numberic")\n\n\t\tif (int (job_id) < 0):\n\t\t\treturn MessagePackager.get_packaged_message (\n\t\t\tMessageStatus.ERROR, \n\t\t\t"job id can not less than 0")\n\t\tif (not from_user_id.isdigit()):\n\t\t\treturn MessagePackager.get_packaged_message (\n\t\t\tMessageStatus.ERROR,\n\t\t\t"user id must be numberic")\n\n\t\tif (int (from_user_id) < 0):\n\t\t\treturn MessagePackager.get_packaged_message (\n\t\t\tMessageStatus.ERROR, \n\t\t\t"user id can not less than 0")\n\t\tif (not class_id.isdigit()):\n\t\t\treturn MessagePackager.get_packaged_message (\n\t\t\tMessageStatus.ERROR,\n\t\t\t"class id must be numberic")\n\n\t\tif (int (class_id) < 0):\n\t\t\treturn MessagePackager.get_packaged_message (\n\t\t\tMessageStatus.ERROR, \n\t\t\t"class id can not less than 0")\n\t\t\n\t\t###\n\n\t\trows = db(db.user.user_course == class_id).select()\n\n\t\tfor row in rows:\n\n\t\t\ttry:\n\t\t\t\tnotification_id = db.notification.insert(\n\t\t\t\tnotification_class = 0,\n\t\t\t\towner = from_user_id,\n\t\t\t\tuser_share = row.id,\n\t\t\t\tis_read = False,\n\t\t\t\ttype = 1,\n\t\t\t\t# date = , ##Tuna - get date ???\n\t\t\t\tis_completed = False\n\t\t\t\t)\n\n\t\t\texcept Exception as err:\n\t\t\t\treturn MessagePackager.get_packaged_message(MessageStatus.ERROR, str (err) )\n\n\t\treturn MessagePackager.get_packaged_message(MessageStatus.OK, "Done")\n\n\treturn locals()\n\n\n\n# @request.restful()\n# def share_job_to_project():\n# \tresponse.view = \'generic.json\'\n# \tdef GET(job_id, from_user_id, class_id):\n\n# \t\t#validate data\n# \t\tif (not job_id.isdigit()):\n# \t\t\treturn MessagePackager.get_packaged_message (\n# \t\t\tMessageStatus.ERROR,\n# \t\t\t"job id must be numberic")\n\n# \t\tif (int (job_id) < 0):\n# \t\t\treturn MessagePackager.get_packaged_message (\n# \t\t\tMessageStatus.ERROR, \n# \t\t\t"job id can not less than 0")\n# \t\tif (not from_user_id.isdigit()):\n# \t\t\treturn MessagePackager.get_packaged_message (\n# \t\t\tMessageStatus.ERROR,\n# \t\t\t"user id must be numberic")\n\n# \t\tif (int (from_user_id) < 0):\n# \t\t\treturn MessagePackager.get_packaged_message (\n# \t\t\tMessageStatus.ERROR, \n# \t\t\t"user id can not less than 0")\n# \t\tif (not class_id.isdigit()):\n# \t\t\treturn MessagePackager.get_packaged_message (\n# \t\t\tMessageStatus.ERROR,\n# \t\t\t"class id must be numberic")\n\n# \t\tif (int (class_id) < 0):\n# \t\t\treturn MessagePackager.get_packaged_message (\n# \t\t\tMessageStatus.ERROR, \n# \t\t\t"class id can not less than 0")\n\t\t\n# \t\t###\n\n# \t\trows = db(db.user.user_course == class_id).select()\n\n# \t\tfor row in rows:\n\n# \t\t\ttry:\n# \t\t\t\tnotification_id = db.notification.insert(\n# \t\t\t\tnotification_class = 0,\n# \t\t\t\towner = from_user_id,\n# \t\t\t\tuser_share = row.id,\n# \t\t\t\tis_read = False,\n# \t\t\t\ttype = 1,\n# \t\t\t\tdate = , ##Tuna - get date ???\n# \t\t\t\tis_completed = False\n# \t\t\t\t)\n\n# \t\t\texcept Exception as e:\n# \t\t\t\treturn MessagePackager.get_packaged_message(MessageStatus.ERROR, e.errno + \': \' + e.strerror )\n\n# \t\treturn MessagePackager.get_packaged_message(MessageStatus.OK, "Done")\n\n# \treturn locals()\n\n\n\n\n##############################\n## Format output for client\n##\n##############################\n\ndef format_client_data(job):\n\tif (job == None):\n\t\treturn\n\n\nresponse._vars=response._caller(add_class_job)\n'
p7
sS'snapshot'
p8
(dp9
S'exception'
p10
(dp11
S'__getslice__'
p12
S"<method-wrapper '__getslice__' of exceptions.IndentationError object>"
p13
sS'text'
p14
S"'\\t\\telse:\\n'"
p15
sS'__str__'
p16
S"<method-wrapper '__str__' of exceptions.IndentationError object>"
p17
sS'__reduce__'
p18
S'<built-in method __reduce__ of exceptions.IndentationError object>'
p19
sS'__dict__'
p20
S'{}'
p21
sS'__sizeof__'
p22
S'<built-in method __sizeof__ of exceptions.IndentationError object>'
p23
sS'__init__'
p24
S"<method-wrapper '__init__' of exceptions.IndentationError object>"
p25
sS'__setattr__'
p26
S"<method-wrapper '__setattr__' of exceptions.IndentationError object>"
p27
sS'__reduce_ex__'
p28
S'<built-in method __reduce_ex__ of exceptions.IndentationError object>'
p29
sS'__new__'
p30
S'<built-in method __new__ of type object>'
p31
sS'__format__'
p32
S'<built-in method __format__ of exceptions.IndentationError object>'
p33
sS'__class__'
p34
S"<type 'exceptions.IndentationError'>"
p35
sS'filename'
p36
S"r'D:\\workspace\\ca\\IgoR\\C_Sources\\Server\\igor-assistant-ca-2012\\applications\\igor\\controllers/jobs.py'"
p37
sS'lineno'
p38
S'254'
p39
sS'msg'
p40
S"'expected an indented block'"
p41
sS'__doc__'
p42
S"'Improper indentation.'"
p43
sS'__getitem__'
p44
S"<method-wrapper '__getitem__' of exceptions.IndentationError object>"
p45
sS'__setstate__'
p46
S'<built-in method __setstate__ of exceptions.IndentationError object>'
p47
sS'__getattribute__'
p48
S"<method-wrapper '__getattribute__' of exceptions.IndentationError object>"
p49
sS'print_file_and_line'
p50
S'None'
p51
sS'args'
p52
S"('expected an indented block', (r'D:\\workspace\\ca\\IgoR\\C_Sources\\Server\\igor-assistant-ca-2012\\applications\\igor\\controllers/jobs.py', 254, 6, '\\t\\telse:\\n'))"
p53
sS'__subclasshook__'
p54
S'<built-in method __subclasshook__ of type object>'
p55
sS'offset'
p56
S'6'
sS'__unicode__'
p57
S'<built-in method __unicode__ of exceptions.IndentationError object>'
p58
sS'__delattr__'
p59
S"<method-wrapper '__delattr__' of exceptions.IndentationError object>"
p60
sS'__repr__'
p61
S"<method-wrapper '__repr__' of exceptions.IndentationError object>"
p62
sS'__hash__'
p63
S"<method-wrapper '__hash__' of exceptions.IndentationError object>"
p64
ssS'evalue'
p65
S'expected an indented block (controllers/jobs.py, line 254)'
p66
sS'request'
p67
ccopy_reg
_reconstructor
p68
(cgluon.html
BEAUTIFY
p69
c__builtin__
object
p70
NtRp71
(dp72
S'attributes'
p73
(dp74
sS'components'
p75
(lp76
g68
(cgluon.html
TABLE
p77
g70
NtRp78
(dp79
g73
(dp80
S'level'
p81
I5
ssS'parent'
p82
Nsg75
(lp83
g68
(cgluon.html
TR
p84
g70
NtRp85
(dp86
g73
(dp87
sg82
g78
sg75
(lp88
g68
(cgluon.html
TD
p89
g70
NtRp90
(dp91
g73
(dp92
S'_style'
p93
S'font-weight:bold;vertical-align:top'
p94
ssg82
g85
sg75
(lp95
S'ajax'
p96
asbag68
(g89
g70
NtRp97
(dp98
g73
(dp99
S'_valign'
p100
S'top'
p101
ssg82
g85
sg75
(lp102
S':'
asbag68
(g89
g70
NtRp103
(dp104
g73
(dp105
sg82
g85
sg75
(lp106
g68
(g69
g70
NtRp107
(dp108
g73
(dp109
g81
I5
ssg82
g103
sg75
(lp110
S'False'
p111
asbasbasbag68
(g84
g70
NtRp112
(dp113
g73
(dp114
sg82
g78
sg75
(lp115
g68
(g89
g70
NtRp116
(dp117
g73
(dp118
g93
g94
ssg82
g112
sg75
(lp119
S'application'
p120
asbag68
(g89
g70
NtRp121
(dp122
g73
(dp123
g100
g101
ssg82
g112
sg75
(lp124
S':'
asbag68
(g89
g70
NtRp125
(dp126
g73
(dp127
sg82
g112
sg75
(lp128
g68
(g69
g70
NtRp129
(dp130
g73
(dp131
g81
I5
ssg82
g125
sg75
(lp132
S'igor'
p133
asbasbasbag68
(g84
g70
NtRp134
(dp135
g73
(dp136
sg82
g78
sg75
(lp137
g68
(g89
g70
NtRp138
(dp139
g73
(dp140
g93
g94
ssg82
g134
sg75
(lp141
g52
asbag68
(g89
g70
NtRp142
(dp143
g73
(dp144
g100
g101
ssg82
g134
sg75
(lp145
S':'
asbag68
(g89
g70
NtRp146
(dp147
g73
(dp148
sg82
g134
sg75
(lp149
g68
(g69
g70
NtRp150
(dp151
g73
(dp152
g81
I5
ssg82
g146
sg75
(lp153
g68
(g77
g70
NtRp154
(dp155
g73
(dp156
g81
I4
ssg82
Nsg75
(lp157
g68
(g84
g70
NtRp158
(dp159
g73
(dp160
sg82
g154
sg75
(lp161
g68
(g89
g70
NtRp162
(dp163
g73
(dp164
sg82
g158
sg75
(lp165
g68
(g69
g70
NtRp166
(dp167
g73
(dp168
g81
I4
ssg82
g162
sg75
(lp169
S'2'
asbasbasbag68
(g84
g70
NtRp170
(dp171
g73
(dp172
sg82
g154
sg75
(lp173
g68
(g89
g70
NtRp174
(dp175
g73
(dp176
sg82
g170
sg75
(lp177
g68
(g69
g70
NtRp178
(dp179
g73
(dp180
g81
I4
ssg82
g174
sg75
(lp181
S'test_job'
p182
asbasbasbag68
(g84
g70
NtRp183
(dp184
g73
(dp185
sg82
g154
sg75
(lp186
g68
(g89
g70
NtRp187
(dp188
g73
(dp189
sg82
g183
sg75
(lp190
g68
(g69
g70
NtRp191
(dp192
g73
(dp193
g81
I4
ssg82
g187
sg75
(lp194
S'1340104776'
p195
asbasbasbag68
(g84
g70
NtRp196
(dp197
g73
(dp198
sg82
g154
sg75
(lp199
g68
(g89
g70
NtRp200
(dp201
g73
(dp202
sg82
g196
sg75
(lp203
g68
(g69
g70
NtRp204
(dp205
g73
(dp206
g81
I4
ssg82
g200
sg75
(lp207
S'1340104776'
p208
asbasbasbag68
(g84
g70
NtRp209
(dp210
g73
(dp211
sg82
g154
sg75
(lp212
g68
(g89
g70
NtRp213
(dp214
g73
(dp215
sg82
g209
sg75
(lp216
g68
(g69
g70
NtRp217
(dp218
g73
(dp219
g81
I4
ssg82
g213
sg75
(lp220
S'1'
asbasbasbag68
(g84
g70
NtRp221
(dp222
g73
(dp223
sg82
g154
sg75
(lp224
g68
(g89
g70
NtRp225
(dp226
g73
(dp227
sg82
g221
sg75
(lp228
g68
(g69
g70
NtRp229
(dp230
g73
(dp231
g81
I4
ssg82
g225
sg75
(lp232
S'1340104776'
p233
asbasbasbag68
(g84
g70
NtRp234
(dp235
g73
(dp236
sg82
g154
sg75
(lp237
g68
(g89
g70
NtRp238
(dp239
g73
(dp240
sg82
g234
sg75
(lp241
g68
(g69
g70
NtRp242
(dp243
g73
(dp244
g81
I4
ssg82
g238
sg75
(lp245
S'0'
asbasbasbag68
(g84
g70
NtRp246
(dp247
g73
(dp248
sg82
g154
sg75
(lp249
g68
(g89
g70
NtRp250
(dp251
g73
(dp252
sg82
g246
sg75
(lp253
g68
(g69
g70
NtRp254
(dp255
g73
(dp256
g81
I4
ssg82
g250
sg75
(lp257
S'test_note'
p258
asbasbasbag68
(g84
g70
NtRp259
(dp260
g73
(dp261
sg82
g154
sg75
(lp262
g68
(g89
g70
NtRp263
(dp264
g73
(dp265
sg82
g259
sg75
(lp266
g68
(g69
g70
NtRp267
(dp268
g73
(dp269
g81
I4
ssg82
g263
sg75
(lp270
S'd3-201'
p271
asbasbasbag68
(g84
g70
NtRp272
(dp273
g73
(dp274
sg82
g154
sg75
(lp275
g68
(g89
g70
NtRp276
(dp277
g73
(dp278
sg82
g272
sg75
(lp279
g68
(g69
g70
NtRp280
(dp281
g73
(dp282
g81
I4
ssg82
g276
sg75
(lp283
S'1'
asbasbasbag68
(g84
g70
NtRp284
(dp285
g73
(dp286
sg82
g154
sg75
(lp287
g68
(g89
g70
NtRp288
(dp289
g73
(dp290
sg82
g284
sg75
(lp291
g68
(g69
g70
NtRp292
(dp293
g73
(dp294
g81
I4
ssg82
g288
sg75
(lp295
S'2'
asbasbasbasbasbasbasbag68
(g84
g70
NtRp296
(dp297
g73
(dp298
sg82
g78
sg75
(lp299
g68
(g89
g70
NtRp300
(dp301
g73
(dp302
g93
g94
ssg82
g296
sg75
(lp303
S'body'
p304
asbag68
(g89
g70
NtRp305
(dp306
g73
(dp307
g100
g101
ssg82
g296
sg75
(lp308
S':'
asbag68
(g89
g70
NtRp309
(dp310
g73
(dp311
sg82
g296
sg75
(lp312
g68
(g69
g70
NtRp313
(dp314
g73
(dp315
g81
I5
ssg82
g309
sg75
(lp316
S'<cStringIO.StringO object at 0x0000000008F540A0>'
p317
asbasbasbag68
(g84
g70
NtRp318
(dp319
g73
(dp320
sg82
g78
sg75
(lp321
g68
(g89
g70
NtRp322
(dp323
g73
(dp324
g93
g94
ssg82
g318
sg75
(lp325
S'client'
p326
asbag68
(g89
g70
NtRp327
(dp328
g73
(dp329
g100
g101
ssg82
g318
sg75
(lp330
S':'
asbag68
(g89
g70
NtRp331
(dp332
g73
(dp333
sg82
g318
sg75
(lp334
g68
(g69
g70
NtRp335
(dp336
g73
(dp337
g81
I5
ssg82
g331
sg75
(lp338
S'127.0.0.1'
p339
asbasbasbag68
(g84
g70
NtRp340
(dp341
g73
(dp342
sg82
g78
sg75
(lp343
g68
(g89
g70
NtRp344
(dp345
g73
(dp346
g93
g94
ssg82
g340
sg75
(lp347
S'controller'
p348
asbag68
(g89
g70
NtRp349
(dp350
g73
(dp351
g100
g101
ssg82
g340
sg75
(lp352
S':'
asbag68
(g89
g70
NtRp353
(dp354
g73
(dp355
sg82
g340
sg75
(lp356
g68
(g69
g70
NtRp357
(dp358
g73
(dp359
g81
I5
ssg82
g353
sg75
(lp360
S'jobs'
p361
asbasbasbag68
(g84
g70
NtRp362
(dp363
g73
(dp364
sg82
g78
sg75
(lp365
g68
(g89
g70
NtRp366
(dp367
g73
(dp368
g93
g94
ssg82
g362
sg75
(lp369
S'cookies'
p370
asbag68
(g89
g70
NtRp371
(dp372
g73
(dp373
g100
g101
ssg82
g362
sg75
(lp374
S':'
asbag68
(g89
g70
NtRp375
(dp376
g73
(dp377
sg82
g362
sg75
(lp378
g68
(g69
g70
NtRp379
(dp380
g73
(dp381
g81
I5
ssg82
g375
sg75
(lp382
g68
(g77
g70
NtRp383
(dp384
g73
(dp385
g81
I4
ssg82
Nsg75
(lp386
g68
(g84
g70
NtRp387
(dp388
g73
(dp389
sg82
g383
sg75
(lp390
g68
(g89
g70
NtRp391
(dp392
g73
(dp393
g93
g94
ssg82
g387
sg75
(lp394
S'session_id_admin'
p395
asbag68
(g89
g70
NtRp396
(dp397
g73
(dp398
g100
g101
ssg82
g387
sg75
(lp399
S':'
asbag68
(g89
g70
NtRp400
(dp401
g73
(dp402
sg82
g387
sg75
(lp403
g68
(g69
g70
NtRp404
(dp405
g73
(dp406
g81
I4
ssg82
g400
sg75
(lp407
g68
(g77
g70
NtRp408
(dp409
g73
(dp410
g81
I3
ssg82
Nsg75
(lp411
g68
(g84
g70
NtRp412
(dp413
g73
(dp414
sg82
g408
sg75
(lp415
g68
(g89
g70
NtRp416
(dp417
g73
(dp418
g93
g94
ssg82
g412
sg75
(lp419
S'comment'
p420
asbag68
(g89
g70
NtRp421
(dp422
g73
(dp423
g100
g101
ssg82
g412
sg75
(lp424
S':'
asbag68
(g89
g70
NtRp425
(dp426
g73
(dp427
sg82
g412
sg75
(lp428
g68
(g69
g70
NtRp429
(dp430
g73
(dp431
g81
I3
ssg82
g425
sg75
(lp432
S''
asbasbasbag68
(g84
g70
NtRp433
(dp434
g73
(dp435
sg82
g408
sg75
(lp436
g68
(g89
g70
NtRp437
(dp438
g73
(dp439
g93
g94
ssg82
g433
sg75
(lp440
S'domain'
p441
asbag68
(g89
g70
NtRp442
(dp443
g73
(dp444
g100
g101
ssg82
g433
sg75
(lp445
S':'
asbag68
(g89
g70
NtRp446
(dp447
g73
(dp448
sg82
g433
sg75
(lp449
g68
(g69
g70
NtRp450
(dp451
g73
(dp452
g81
I3
ssg82
g446
sg75
(lp453
S''
asbasbasbag68
(g84
g70
NtRp454
(dp455
g73
(dp456
sg82
g408
sg75
(lp457
g68
(g89
g70
NtRp458
(dp459
g73
(dp460
g93
g94
ssg82
g454
sg75
(lp461
S'expires'
p462
asbag68
(g89
g70
NtRp463
(dp464
g73
(dp465
g100
g101
ssg82
g454
sg75
(lp466
S':'
asbag68
(g89
g70
NtRp467
(dp468
g73
(dp469
sg82
g454
sg75
(lp470
g68
(g69
g70
NtRp471
(dp472
g73
(dp473
g81
I3
ssg82
g467
sg75
(lp474
S''
asbasbasbag68
(g84
g70
NtRp475
(dp476
g73
(dp477
sg82
g408
sg75
(lp478
g68
(g89
g70
NtRp479
(dp480
g73
(dp481
g93
g94
ssg82
g475
sg75
(lp482
S'httponly'
p483
asbag68
(g89
g70
NtRp484
(dp485
g73
(dp486
g100
g101
ssg82
g475
sg75
(lp487
S':'
asbag68
(g89
g70
NtRp488
(dp489
g73
(dp490
sg82
g475
sg75
(lp491
g68
(g69
g70
NtRp492
(dp493
g73
(dp494
g81
I3
ssg82
g488
sg75
(lp495
S''
asbasbasbag68
(g84
g70
NtRp496
(dp497
g73
(dp498
sg82
g408
sg75
(lp499
g68
(g89
g70
NtRp500
(dp501
g73
(dp502
g93
g94
ssg82
g496
sg75
(lp503
S'max-age'
p504
asbag68
(g89
g70
NtRp505
(dp506
g73
(dp507
g100
g101
ssg82
g496
sg75
(lp508
S':'
asbag68
(g89
g70
NtRp509
(dp510
g73
(dp511
sg82
g496
sg75
(lp512
g68
(g69
g70
NtRp513
(dp514
g73
(dp515
g81
I3
ssg82
g509
sg75
(lp516
S''
asbasbasbag68
(g84
g70
NtRp517
(dp518
g73
(dp519
sg82
g408
sg75
(lp520
g68
(g89
g70
NtRp521
(dp522
g73
(dp523
g93
g94
ssg82
g517
sg75
(lp524
S'path'
p525
asbag68
(g89
g70
NtRp526
(dp527
g73
(dp528
g100
g101
ssg82
g517
sg75
(lp529
S':'
asbag68
(g89
g70
NtRp530
(dp531
g73
(dp532
sg82
g517
sg75
(lp533
g68
(g69
g70
NtRp534
(dp535
g73
(dp536
g81
I3
ssg82
g530
sg75
(lp537
S''
asbasbasbag68
(g84
g70
NtRp538
(dp539
g73
(dp540
sg82
g408
sg75
(lp541
g68
(g89
g70
NtRp542
(dp543
g73
(dp544
g93
g94
ssg82
g538
sg75
(lp545
S'secure'
p546
asbag68
(g89
g70
NtRp547
(dp548
g73
(dp549
g100
g101
ssg82
g538
sg75
(lp550
S':'
asbag68
(g89
g70
NtRp551
(dp552
g73
(dp553
sg82
g538
sg75
(lp554
g68
(g69
g70
NtRp555
(dp556
g73
(dp557
g81
I3
ssg82
g551
sg75
(lp558
S''
asbasbasbag68
(g84
g70
NtRp559
(dp560
g73
(dp561
sg82
g408
sg75
(lp562
g68
(g89
g70
NtRp563
(dp564
g73
(dp565
g93
g94
ssg82
g559
sg75
(lp566
S'version'
p567
asbag68
(g89
g70
NtRp568
(dp569
g73
(dp570
g100
g101
ssg82
g559
sg75
(lp571
S':'
asbag68
(g89
g70
NtRp572
(dp573
g73
(dp574
sg82
g559
sg75
(lp575
g68
(g69
g70
NtRp576
(dp577
g73
(dp578
g81
I3
ssg82
g572
sg75
(lp579
S''
asbasbasbasbasbasbasbag68
(g84
g70
NtRp580
(dp581
g73
(dp582
sg82
g383
sg75
(lp583
g68
(g89
g70
NtRp584
(dp585
g73
(dp586
g93
g94
ssg82
g580
sg75
(lp587
S'session_id_igor'
p588
asbag68
(g89
g70
NtRp589
(dp590
g73
(dp591
g100
g101
ssg82
g580
sg75
(lp592
S':'
asbag68
(g89
g70
NtRp593
(dp594
g73
(dp595
sg82
g580
sg75
(lp596
g68
(g69
g70
NtRp597
(dp598
g73
(dp599
g81
I4
ssg82
g593
sg75
(lp600
g68
(g77
g70
NtRp601
(dp602
g73
(dp603
g81
I3
ssg82
Nsg75
(lp604
g68
(g84
g70
NtRp605
(dp606
g73
(dp607
sg82
g601
sg75
(lp608
g68
(g89
g70
NtRp609
(dp610
g73
(dp611
g93
g94
ssg82
g605
sg75
(lp612
g420
asbag68
(g89
g70
NtRp613
(dp614
g73
(dp615
g100
g101
ssg82
g605
sg75
(lp616
S':'
asbag68
(g89
g70
NtRp617
(dp618
g73
(dp619
sg82
g605
sg75
(lp620
g68
(g69
g70
NtRp621
(dp622
g73
(dp623
g81
I3
ssg82
g617
sg75
(lp624
S''
asbasbasbag68
(g84
g70
NtRp625
(dp626
g73
(dp627
sg82
g601
sg75
(lp628
g68
(g89
g70
NtRp629
(dp630
g73
(dp631
g93
g94
ssg82
g625
sg75
(lp632
g441
asbag68
(g89
g70
NtRp633
(dp634
g73
(dp635
g100
g101
ssg82
g625
sg75
(lp636
S':'
asbag68
(g89
g70
NtRp637
(dp638
g73
(dp639
sg82
g625
sg75
(lp640
g68
(g69
g70
NtRp641
(dp642
g73
(dp643
g81
I3
ssg82
g637
sg75
(lp644
S''
asbasbasbag68
(g84
g70
NtRp645
(dp646
g73
(dp647
sg82
g601
sg75
(lp648
g68
(g89
g70
NtRp649
(dp650
g73
(dp651
g93
g94
ssg82
g645
sg75
(lp652
g462
asbag68
(g89
g70
NtRp653
(dp654
g73
(dp655
g100
g101
ssg82
g645
sg75
(lp656
S':'
asbag68
(g89
g70
NtRp657
(dp658
g73
(dp659
sg82
g645
sg75
(lp660
g68
(g69
g70
NtRp661
(dp662
g73
(dp663
g81
I3
ssg82
g657
sg75
(lp664
S''
asbasbasbag68
(g84
g70
NtRp665
(dp666
g73
(dp667
sg82
g601
sg75
(lp668
g68
(g89
g70
NtRp669
(dp670
g73
(dp671
g93
g94
ssg82
g665
sg75
(lp672
g483
asbag68
(g89
g70
NtRp673
(dp674
g73
(dp675
g100
g101
ssg82
g665
sg75
(lp676
S':'
asbag68
(g89
g70
NtRp677
(dp678
g73
(dp679
sg82
g665
sg75
(lp680
g68
(g69
g70
NtRp681
(dp682
g73
(dp683
g81
I3
ssg82
g677
sg75
(lp684
S''
asbasbasbag68
(g84
g70
NtRp685
(dp686
g73
(dp687
sg82
g601
sg75
(lp688
g68
(g89
g70
NtRp689
(dp690
g73
(dp691
g93
g94
ssg82
g685
sg75
(lp692
g504
asbag68
(g89
g70
NtRp693
(dp694
g73
(dp695
g100
g101
ssg82
g685
sg75
(lp696
S':'
asbag68
(g89
g70
NtRp697
(dp698
g73
(dp699
sg82
g685
sg75
(lp700
g68
(g69
g70
NtRp701
(dp702
g73
(dp703
g81
I3
ssg82
g697
sg75
(lp704
S''
asbasbasbag68
(g84
g70
NtRp705
(dp706
g73
(dp707
sg82
g601
sg75
(lp708
g68
(g89
g70
NtRp709
(dp710
g73
(dp711
g93
g94
ssg82
g705
sg75
(lp712
g525
asbag68
(g89
g70
NtRp713
(dp714
g73
(dp715
g100
g101
ssg82
g705
sg75
(lp716
S':'
asbag68
(g89
g70
NtRp717
(dp718
g73
(dp719
sg82
g705
sg75
(lp720
g68
(g69
g70
NtRp721
(dp722
g73
(dp723
g81
I3
ssg82
g717
sg75
(lp724
S''
asbasbasbag68
(g84
g70
NtRp725
(dp726
g73
(dp727
sg82
g601
sg75
(lp728
g68
(g89
g70
NtRp729
(dp730
g73
(dp731
g93
g94
ssg82
g725
sg75
(lp732
g546
asbag68
(g89
g70
NtRp733
(dp734
g73
(dp735
g100
g101
ssg82
g725
sg75
(lp736
S':'
asbag68
(g89
g70
NtRp737
(dp738
g73
(dp739
sg82
g725
sg75
(lp740
g68
(g69
g70
NtRp741
(dp742
g73
(dp743
g81
I3
ssg82
g737
sg75
(lp744
S''
asbasbasbag68
(g84
g70
NtRp745
(dp746
g73
(dp747
sg82
g601
sg75
(lp748
g68
(g89
g70
NtRp749
(dp750
g73
(dp751
g93
g94
ssg82
g745
sg75
(lp752
g567
asbag68
(g89
g70
NtRp753
(dp754
g73
(dp755
g100
g101
ssg82
g745
sg75
(lp756
S':'
asbag68
(g89
g70
NtRp757
(dp758
g73
(dp759
sg82
g745
sg75
(lp760
g68
(g69
g70
NtRp761
(dp762
g73
(dp763
g81
I3
ssg82
g757
sg75
(lp764
S''
asbasbasbasbasbasbasbag68
(g84
g70
NtRp765
(dp766
g73
(dp767
sg82
g383
sg75
(lp768
g68
(g89
g70
NtRp769
(dp770
g73
(dp771
g93
g94
ssg82
g765
sg75
(lp772
S'session_id_welcome'
p773
asbag68
(g89
g70
NtRp774
(dp775
g73
(dp776
g100
g101
ssg82
g765
sg75
(lp777
S':'
asbag68
(g89
g70
NtRp778
(dp779
g73
(dp780
sg82
g765
sg75
(lp781
g68
(g69
g70
NtRp782
(dp783
g73
(dp784
g81
I4
ssg82
g778
sg75
(lp785
g68
(g77
g70
NtRp786
(dp787
g73
(dp788
g81
I3
ssg82
Nsg75
(lp789
g68
(g84
g70
NtRp790
(dp791
g73
(dp792
sg82
g786
sg75
(lp793
g68
(g89
g70
NtRp794
(dp795
g73
(dp796
g93
g94
ssg82
g790
sg75
(lp797
g420
asbag68
(g89
g70
NtRp798
(dp799
g73
(dp800
g100
g101
ssg82
g790
sg75
(lp801
S':'
asbag68
(g89
g70
NtRp802
(dp803
g73
(dp804
sg82
g790
sg75
(lp805
g68
(g69
g70
NtRp806
(dp807
g73
(dp808
g81
I3
ssg82
g802
sg75
(lp809
S''
asbasbasbag68
(g84
g70
NtRp810
(dp811
g73
(dp812
sg82
g786
sg75
(lp813
g68
(g89
g70
NtRp814
(dp815
g73
(dp816
g93
g94
ssg82
g810
sg75
(lp817
g441
asbag68
(g89
g70
NtRp818
(dp819
g73
(dp820
g100
g101
ssg82
g810
sg75
(lp821
S':'
asbag68
(g89
g70
NtRp822
(dp823
g73
(dp824
sg82
g810
sg75
(lp825
g68
(g69
g70
NtRp826
(dp827
g73
(dp828
g81
I3
ssg82
g822
sg75
(lp829
S''
asbasbasbag68
(g84
g70
NtRp830
(dp831
g73
(dp832
sg82
g786
sg75
(lp833
g68
(g89
g70
NtRp834
(dp835
g73
(dp836
g93
g94
ssg82
g830
sg75
(lp837
g462
asbag68
(g89
g70
NtRp838
(dp839
g73
(dp840
g100
g101
ssg82
g830
sg75
(lp841
S':'
asbag68
(g89
g70
NtRp842
(dp843
g73
(dp844
sg82
g830
sg75
(lp845
g68
(g69
g70
NtRp846
(dp847
g73
(dp848
g81
I3
ssg82
g842
sg75
(lp849
S''
asbasbasbag68
(g84
g70
NtRp850
(dp851
g73
(dp852
sg82
g786
sg75
(lp853
g68
(g89
g70
NtRp854
(dp855
g73
(dp856
g93
g94
ssg82
g850
sg75
(lp857
g483
asbag68
(g89
g70
NtRp858
(dp859
g73
(dp860
g100
g101
ssg82
g850
sg75
(lp861
S':'
asbag68
(g89
g70
NtRp862
(dp863
g73
(dp864
sg82
g850
sg75
(lp865
g68
(g69
g70
NtRp866
(dp867
g73
(dp868
g81
I3
ssg82
g862
sg75
(lp869
S''
asbasbasbag68
(g84
g70
NtRp870
(dp871
g73
(dp872
sg82
g786
sg75
(lp873
g68
(g89
g70
NtRp874
(dp875
g73
(dp876
g93
g94
ssg82
g870
sg75
(lp877
g504
asbag68
(g89
g70
NtRp878
(dp879
g73
(dp880
g100
g101
ssg82
g870
sg75
(lp881
S':'
asbag68
(g89
g70
NtRp882
(dp883
g73
(dp884
sg82
g870
sg75
(lp885
g68
(g69
g70
NtRp886
(dp887
g73
(dp888
g81
I3
ssg82
g882
sg75
(lp889
S''
asbasbasbag68
(g84
g70
NtRp890
(dp891
g73
(dp892
sg82
g786
sg75
(lp893
g68
(g89
g70
NtRp894
(dp895
g73
(dp896
g93
g94
ssg82
g890
sg75
(lp897
g525
asbag68
(g89
g70
NtRp898
(dp899
g73
(dp900
g100
g101
ssg82
g890
sg75
(lp901
S':'
asbag68
(g89
g70
NtRp902
(dp903
g73
(dp904
sg82
g890
sg75
(lp905
g68
(g69
g70
NtRp906
(dp907
g73
(dp908
g81
I3
ssg82
g902
sg75
(lp909
S''
asbasbasbag68
(g84
g70
NtRp910
(dp911
g73
(dp912
sg82
g786
sg75
(lp913
g68
(g89
g70
NtRp914
(dp915
g73
(dp916
g93
g94
ssg82
g910
sg75
(lp917
g546
asbag68
(g89
g70
NtRp918
(dp919
g73
(dp920
g100
g101
ssg82
g910
sg75
(lp921
S':'
asbag68
(g89
g70
NtRp922
(dp923
g73
(dp924
sg82
g910
sg75
(lp925
g68
(g69
g70
NtRp926
(dp927
g73
(dp928
g81
I3
ssg82
g922
sg75
(lp929
S''
asbasbasbag68
(g84
g70
NtRp930
(dp931
g73
(dp932
sg82
g786
sg75
(lp933
g68
(g89
g70
NtRp934
(dp935
g73
(dp936
g93
g94
ssg82
g930
sg75
(lp937
g567
asbag68
(g89
g70
NtRp938
(dp939
g73
(dp940
g100
g101
ssg82
g930
sg75
(lp941
S':'
asbag68
(g89
g70
NtRp942
(dp943
g73
(dp944
sg82
g930
sg75
(lp945
g68
(g69
g70
NtRp946
(dp947
g73
(dp948
g81
I3
ssg82
g942
sg75
(lp949
S''
asbasbasbasbasbasbasbasbasbasbasbag68
(g84
g70
NtRp950
(dp951
g73
(dp952
sg82
g78
sg75
(lp953
g68
(g89
g70
NtRp954
(dp955
g73
(dp956
g93
g94
ssg82
g950
sg75
(lp957
S'env'
p958
asbag68
(g89
g70
NtRp959
(dp960
g73
(dp961
g100
g101
ssg82
g950
sg75
(lp962
S':'
asbag68
(g89
g70
NtRp963
(dp964
g73
(dp965
sg82
g950
sg75
(lp966
g68
(g69
g70
NtRp967
(dp968
g73
(dp969
g81
I5
ssg82
g963
sg75
(lp970
g68
(g77
g70
NtRp971
(dp972
g73
(dp973
g81
I4
ssg82
Nsg75
(lp974
g68
(g84
g70
NtRp975
(dp976
g73
(dp977
sg82
g971
sg75
(lp978
g68
(g89
g70
NtRp979
(dp980
g73
(dp981
g93
g94
ssg82
g975
sg75
(lp982
S'app_folders'
p983
asbag68
(g89
g70
NtRp984
(dp985
g73
(dp986
g100
g101
ssg82
g975
sg75
(lp987
S':'
asbag68
(g89
g70
NtRp988
(dp989
g73
(dp990
sg82
g975
sg75
(lp991
g68
(g69
g70
NtRp992
(dp993
g73
(dp994
g81
I4
ssg82
g988
sg75
(lp995
S"set(['D:\\\\workspace\\\\ca\\\\IgoR\\\\C_Sources\\\\Server\\\\igor-assistant-ca-2012\\\\applications\\\\admin\\\\', 'D:\\\\workspace\\\\ca\\\\IgoR\\\\C_Sources\\\\Server\\\\igor-assistant-ca-2012\\\\applications\\\\igor\\\\', 'D:\\\\workspace\\\\ca\\\\IgoR\\\\C_Sources\\\\Server\\\\igor-assistant-ca-2012\\\\applications\\\\welcome\\\\'])"
p996
asbasbasbag68
(g84
g70
NtRp997
(dp998
g73
(dp999
sg82
g971
sg75
(lp1000
g68
(g89
g70
NtRp1001
(dp1002
g73
(dp1003
g93
g94
ssg82
g997
sg75
(lp1004
S'applications_parent'
p1005
asbag68
(g89
g70
NtRp1006
(dp1007
g73
(dp1008
g100
g101
ssg82
g997
sg75
(lp1009
S':'
asbag68
(g89
g70
NtRp1010
(dp1011
g73
(dp1012
sg82
g997
sg75
(lp1013
g68
(g69
g70
NtRp1014
(dp1015
g73
(dp1016
g81
I4
ssg82
g1010
sg75
(lp1017
S'D:\\workspace\\ca\\IgoR\\C_Sources\\Server\\igor-assistant-ca-2012'
p1018
asbasbasbag68
(g84
g70
NtRp1019
(dp1020
g73
(dp1021
sg82
g971
sg75
(lp1022
g68
(g89
g70
NtRp1023
(dp1024
g73
(dp1025
g93
g94
ssg82
g1019
sg75
(lp1026
S'cmd_args'
p1027
asbag68
(g89
g70
NtRp1028
(dp1029
g73
(dp1030
g100
g101
ssg82
g1019
sg75
(lp1031
S':'
asbag68
(g89
g70
NtRp1032
(dp1033
g73
(dp1034
sg82
g1019
sg75
(lp1035
g68
(g69
g70
NtRp1036
(dp1037
g73
(dp1038
g81
I4
ssg82
g1032
sg75
(lp1039
g68
(g77
g70
NtRp1040
(dp1041
g73
(dp1042
g81
I3
ssg82
Nsg75
(lp1043
g68
(g84
g70
NtRp1044
(dp1045
g73
(dp1046
sg82
g1040
sg75
(lp1047
g68
(g89
g70
NtRp1048
(dp1049
g73
(dp1050
sg82
g1044
sg75
(lp1051
g68
(g69
g70
NtRp1052
(dp1053
g73
(dp1054
g81
I3
ssg82
g1048
sg75
(lp1055
S'startserver'
p1056
asbasbasbasbasbasbasbag68
(g84
g70
NtRp1057
(dp1058
g73
(dp1059
sg82
g971
sg75
(lp1060
g68
(g89
g70
NtRp1061
(dp1062
g73
(dp1063
g93
g94
ssg82
g1057
sg75
(lp1064
S'cmd_options'
p1065
asbag68
(g89
g70
NtRp1066
(dp1067
g73
(dp1068
g100
g101
ssg82
g1057
sg75
(lp1069
S':'
asbag68
(g89
g70
NtRp1070
(dp1071
g73
(dp1072
sg82
g1057
sg75
(lp1073
g68
(g69
g70
NtRp1074
(dp1075
g73
(dp1076
g81
I4
ssg82
g1070
sg75
(lp1077
S"<Values at 0x3563d88: {'verbose': False, 'ip': '127.0.0.1', 'shutdown_timeout': 5, 'taskbar': False, 'nocron': False, 'pid_filename': 'httpserver.pid', 'maxthreads': None, 'softcron': False, 'server_name': 'PHUCNH-PC', 'bpython': False, 'nogui': False, 'port': 8000, 'extcron': False, 'debuglevel': 30, 'test': None, 'folder': 'D:\\\\workspace\\\\ca\\\\IgoR\\\\C_Sources\\\\Server\\\\igor-assistant-ca-2012', 'config': '', 'import_models': False, 'winservice': '', 'shell': None, 'run': '', 'log_filename': 'httpserver.log', 'args': [''], 'socket_timeout': 5, 'ssl_ca_certificate': None, 'scheduler': None, 'profiler_filename': None, 'ssl_private_key': '', 'password': '<ask>', 'request_queue_size': 5, 'ssl_certificate': '', 'cronjob': False, 'numthreads': None, 'quiet': False, 'interfaces': None, 'minthreads': None, 'timeout': 10, 'plain': False, 'nobanner': False}>"
p1078
asbasbasbag68
(g84
g70
NtRp1079
(dp1080
g73
(dp1081
sg82
g971
sg75
(lp1082
g68
(g89
g70
NtRp1083
(dp1084
g73
(dp1085
g93
g94
ssg82
g1079
sg75
(lp1086
S'db_sessions'
p1087
asbag68
(g89
g70
NtRp1088
(dp1089
g73
(dp1090
g100
g101
ssg82
g1079
sg75
(lp1091
S':'
asbag68
(g89
g70
NtRp1092
(dp1093
g73
(dp1094
sg82
g1079
sg75
(lp1095
g68
(g69
g70
NtRp1096
(dp1097
g73
(dp1098
g81
I4
ssg82
g1092
sg75
(lp1099
S'set([])'
p1100
asbasbasbag68
(g84
g70
NtRp1101
(dp1102
g73
(dp1103
sg82
g971
sg75
(lp1104
g68
(g89
g70
NtRp1105
(dp1106
g73
(dp1107
g93
g94
ssg82
g1101
sg75
(lp1108
S'debugging'
p1109
asbag68
(g89
g70
NtRp1110
(dp1111
g73
(dp1112
g100
g101
ssg82
g1101
sg75
(lp1113
S':'
asbag68
(g89
g70
NtRp1114
(dp1115
g73
(dp1116
sg82
g1101
sg75
(lp1117
g68
(g69
g70
NtRp1118
(dp1119
g73
(dp1120
g81
I4
ssg82
g1114
sg75
(lp1121
g111
asbasbasbag68
(g84
g70
NtRp1122
(dp1123
g73
(dp1124
sg82
g971
sg75
(lp1125
g68
(g89
g70
NtRp1126
(dp1127
g73
(dp1128
g93
g94
ssg82
g1122
sg75
(lp1129
S'gluon_parent'
p1130
asbag68
(g89
g70
NtRp1131
(dp1132
g73
(dp1133
g100
g101
ssg82
g1122
sg75
(lp1134
S':'
asbag68
(g89
g70
NtRp1135
(dp1136
g73
(dp1137
sg82
g1122
sg75
(lp1138
g68
(g69
g70
NtRp1139
(dp1140
g73
(dp1141
g81
I4
ssg82
g1135
sg75
(lp1142
S'D:\\workspace\\ca\\IgoR\\C_Sources\\Server\\igor-assistant-ca-2012'
p1143
asbasbasbag68
(g84
g70
NtRp1144
(dp1145
g73
(dp1146
sg82
g971
sg75
(lp1147
g68
(g89
g70
NtRp1148
(dp1149
g73
(dp1150
g93
g94
ssg82
g1144
sg75
(lp1151
S'http_accept'
p1152
asbag68
(g89
g70
NtRp1153
(dp1154
g73
(dp1155
g100
g101
ssg82
g1144
sg75
(lp1156
S':'
asbag68
(g89
g70
NtRp1157
(dp1158
g73
(dp1159
sg82
g1144
sg75
(lp1160
g68
(g69
g70
NtRp1161
(dp1162
g73
(dp1163
g81
I4
ssg82
g1157
sg75
(lp1164
S'text/html,application/xhtml+xml,application/xml;q=0.9,*/*;q=0.8'
p1165
asbasbasbag68
(g84
g70
NtRp1166
(dp1167
g73
(dp1168
sg82
g971
sg75
(lp1169
g68
(g89
g70
NtRp1170
(dp1171
g73
(dp1172
g93
g94
ssg82
g1166
sg75
(lp1173
S'http_accept_charset'
p1174
asbag68
(g89
g70
NtRp1175
(dp1176
g73
(dp1177
g100
g101
ssg82
g1166
sg75
(lp1178
S':'
asbag68
(g89
g70
NtRp1179
(dp1180
g73
(dp1181
sg82
g1166
sg75
(lp1182
g68
(g69
g70
NtRp1183
(dp1184
g73
(dp1185
g81
I4
ssg82
g1179
sg75
(lp1186
S'UTF-8,*;q=0.5'
p1187
asbasbasbag68
(g84
g70
NtRp1188
(dp1189
g73
(dp1190
sg82
g971
sg75
(lp1191
g68
(g89
g70
NtRp1192
(dp1193
g73
(dp1194
g93
g94
ssg82
g1188
sg75
(lp1195
S'http_accept_encoding'
p1196
asbag68
(g89
g70
NtRp1197
(dp1198
g73
(dp1199
g100
g101
ssg82
g1188
sg75
(lp1200
S':'
asbag68
(g89
g70
NtRp1201
(dp1202
g73
(dp1203
sg82
g1188
sg75
(lp1204
g68
(g69
g70
NtRp1205
(dp1206
g73
(dp1207
g81
I4
ssg82
g1201
sg75
(lp1208
S'gzip,deflate,sdch'
p1209
asbasbasbag68
(g84
g70
NtRp1210
(dp1211
g73
(dp1212
sg82
g971
sg75
(lp1213
g68
(g89
g70
NtRp1214
(dp1215
g73
(dp1216
g93
g94
ssg82
g1210
sg75
(lp1217
S'http_accept_language'
p1218
asbag68
(g89
g70
NtRp1219
(dp1220
g73
(dp1221
g100
g101
ssg82
g1210
sg75
(lp1222
S':'
asbag68
(g89
g70
NtRp1223
(dp1224
g73
(dp1225
sg82
g1210
sg75
(lp1226
g68
(g69
g70
NtRp1227
(dp1228
g73
(dp1229
g81
I4
ssg82
g1223
sg75
(lp1230
S'en-US,en;q=0.8,vi;q=0.6,fr-FR;q=0.4,fr;q=0.2'
p1231
asbasbasbag68
(g84
g70
NtRp1232
(dp1233
g73
(dp1234
sg82
g971
sg75
(lp1235
g68
(g89
g70
NtRp1236
(dp1237
g73
(dp1238
g93
g94
ssg82
g1232
sg75
(lp1239
S'http_cache_control'
p1240
asbag68
(g89
g70
NtRp1241
(dp1242
g73
(dp1243
g100
g101
ssg82
g1232
sg75
(lp1244
S':'
asbag68
(g89
g70
NtRp1245
(dp1246
g73
(dp1247
sg82
g1232
sg75
(lp1248
g68
(g69
g70
NtRp1249
(dp1250
g73
(dp1251
g81
I4
ssg82
g1245
sg75
(lp1252
S'max-age=0'
p1253
asbasbasbag68
(g84
g70
NtRp1254
(dp1255
g73
(dp1256
sg82
g971
sg75
(lp1257
g68
(g89
g70
NtRp1258
(dp1259
g73
(dp1260
g93
g94
ssg82
g1254
sg75
(lp1261
S'http_connection'
p1262
asbag68
(g89
g70
NtRp1263
(dp1264
g73
(dp1265
g100
g101
ssg82
g1254
sg75
(lp1266
S':'
asbag68
(g89
g70
NtRp1267
(dp1268
g73
(dp1269
sg82
g1254
sg75
(lp1270
g68
(g69
g70
NtRp1271
(dp1272
g73
(dp1273
g81
I4
ssg82
g1267
sg75
(lp1274
S'keep-alive'
p1275
asbasbasbag68
(g84
g70
NtRp1276
(dp1277
g73
(dp1278
sg82
g971
sg75
(lp1279
g68
(g89
g70
NtRp1280
(dp1281
g73
(dp1282
g93
g94
ssg82
g1276
sg75
(lp1283
S'http_cookie'
p1284
asbag68
(g89
g70
NtRp1285
(dp1286
g73
(dp1287
g100
g101
ssg82
g1276
sg75
(lp1288
S':'
asbag68
(g89
g70
NtRp1289
(dp1290
g73
(dp1291
sg82
g1276
sg75
(lp1292
g68
(g69
g70
NtRp1293
(dp1294
g73
(dp1295
g81
I4
ssg82
g1289
sg75
(lp1296
S'session_id_welcome=127.0.0.1-79d5828c-c17a-4224-96b8-25d49468e5fc; session_id_igor=127.0.0.1-787f7edc-2d0a-46ff-beb5-65aa1574d6c8; session_id_admin=127.0.0.1-09abd0ca-c550-4c89-9a05-f31195dc8a18'
p1297
asbasbasbag68
(g84
g70
NtRp1298
(dp1299
g73
(dp1300
sg82
g971
sg75
(lp1301
g68
(g89
g70
NtRp1302
(dp1303
g73
(dp1304
g93
g94
ssg82
g1298
sg75
(lp1305
S'http_host'
p1306
asbag68
(g89
g70
NtRp1307
(dp1308
g73
(dp1309
g100
g101
ssg82
g1298
sg75
(lp1310
S':'
asbag68
(g89
g70
NtRp1311
(dp1312
g73
(dp1313
sg82
g1298
sg75
(lp1314
g68
(g69
g70
NtRp1315
(dp1316
g73
(dp1317
g81
I4
ssg82
g1311
sg75
(lp1318
S'127.0.0.1:8000'
p1319
asbasbasbag68
(g84
g70
NtRp1320
(dp1321
g73
(dp1322
sg82
g971
sg75
(lp1323
g68
(g89
g70
NtRp1324
(dp1325
g73
(dp1326
g93
g94
ssg82
g1320
sg75
(lp1327
S'http_user_agent'
p1328
asbag68
(g89
g70
NtRp1329
(dp1330
g73
(dp1331
g100
g101
ssg82
g1320
sg75
(lp1332
S':'
asbag68
(g89
g70
NtRp1333
(dp1334
g73
(dp1335
sg82
g1320
sg75
(lp1336
g68
(g69
g70
NtRp1337
(dp1338
g73
(dp1339
g81
I4
ssg82
g1333
sg75
(lp1340
S'Mozilla/5.0 (Windows NT 6.1; WOW64) AppleWebKit/536.11 (KHTML, like Gecko) Chrome/20.0.1132.57 Safari/536.11'
p1341
asbasbasbag68
(g84
g70
NtRp1342
(dp1343
g73
(dp1344
sg82
g971
sg75
(lp1345
g68
(g89
g70
NtRp1346
(dp1347
g73
(dp1348
g93
g94
ssg82
g1342
sg75
(lp1349
S'is_jython'
p1350
asbag68
(g89
g70
NtRp1351
(dp1352
g73
(dp1353
g100
g101
ssg82
g1342
sg75
(lp1354
S':'
asbag68
(g89
g70
NtRp1355
(dp1356
g73
(dp1357
sg82
g1342
sg75
(lp1358
g68
(g69
g70
NtRp1359
(dp1360
g73
(dp1361
g81
I4
ssg82
g1355
sg75
(lp1362
g111
asbasbasbag68
(g84
g70
NtRp1363
(dp1364
g73
(dp1365
sg82
g971
sg75
(lp1366
g68
(g89
g70
NtRp1367
(dp1368
g73
(dp1369
g93
g94
ssg82
g1363
sg75
(lp1370
S'is_pypy'
p1371
asbag68
(g89
g70
NtRp1372
(dp1373
g73
(dp1374
g100
g101
ssg82
g1363
sg75
(lp1375
S':'
asbag68
(g89
g70
NtRp1376
(dp1377
g73
(dp1378
sg82
g1363
sg75
(lp1379
g68
(g69
g70
NtRp1380
(dp1381
g73
(dp1382
g81
I4
ssg82
g1376
sg75
(lp1383
g111
asbasbasbag68
(g84
g70
NtRp1384
(dp1385
g73
(dp1386
sg82
g971
sg75
(lp1387
g68
(g89
g70
NtRp1388
(dp1389
g73
(dp1390
g93
g94
ssg82
g1384
sg75
(lp1391
S'path_info'
p1392
asbag68
(g89
g70
NtRp1393
(dp1394
g73
(dp1395
g100
g101
ssg82
g1384
sg75
(lp1396
S':'
asbag68
(g89
g70
NtRp1397
(dp1398
g73
(dp1399
sg82
g1384
sg75
(lp1400
g68
(g69
g70
NtRp1401
(dp1402
g73
(dp1403
g81
I4
ssg82
g1397
sg75
(lp1404
S'/igor/jobs/add_class_job/2/test job/1340104776/1340104776/1/1340104776/0/test note/d3-201/1/2'
p1405
asbasbasbag68
(g84
g70
NtRp1406
(dp1407
g73
(dp1408
sg82
g971
sg75
(lp1409
g68
(g89
g70
NtRp1410
(dp1411
g73
(dp1412
g93
g94
ssg82
g1406
sg75
(lp1413
S'query_string'
p1414
asbag68
(g89
g70
NtRp1415
(dp1416
g73
(dp1417
g100
g101
ssg82
g1406
sg75
(lp1418
S':'
asbag68
(g89
g70
NtRp1419
(dp1420
g73
(dp1421
sg82
g1406
sg75
(lp1422
g68
(g69
g70
NtRp1423
(dp1424
g73
(dp1425
g81
I4
ssg82
g1419
sg75
(lp1426
S''
asbasbasbag68
(g84
g70
NtRp1427
(dp1428
g73
(dp1429
sg82
g971
sg75
(lp1430
g68
(g89
g70
NtRp1431
(dp1432
g73
(dp1433
g93
g94
ssg82
g1427
sg75
(lp1434
S'remote_addr'
p1435
asbag68
(g89
g70
NtRp1436
(dp1437
g73
(dp1438
g100
g101
ssg82
g1427
sg75
(lp1439
S':'
asbag68
(g89
g70
NtRp1440
(dp1441
g73
(dp1442
sg82
g1427
sg75
(lp1443
g68
(g69
g70
NtRp1444
(dp1445
g73
(dp1446
g81
I4
ssg82
g1440
sg75
(lp1447
g339
asbasbasbag68
(g84
g70
NtRp1448
(dp1449
g73
(dp1450
sg82
g971
sg75
(lp1451
g68
(g89
g70
NtRp1452
(dp1453
g73
(dp1454
g93
g94
ssg82
g1448
sg75
(lp1455
S'remote_port'
p1456
asbag68
(g89
g70
NtRp1457
(dp1458
g73
(dp1459
g100
g101
ssg82
g1448
sg75
(lp1460
S':'
asbag68
(g89
g70
NtRp1461
(dp1462
g73
(dp1463
sg82
g1448
sg75
(lp1464
g68
(g69
g70
NtRp1465
(dp1466
g73
(dp1467
g81
I4
ssg82
g1461
sg75
(lp1468
S'19152'
p1469
asbasbasbag68
(g84
g70
NtRp1470
(dp1471
g73
(dp1472
sg82
g971
sg75
(lp1473
g68
(g89
g70
NtRp1474
(dp1475
g73
(dp1476
g93
g94
ssg82
g1470
sg75
(lp1477
S'request_method'
p1478
asbag68
(g89
g70
NtRp1479
(dp1480
g73
(dp1481
g100
g101
ssg82
g1470
sg75
(lp1482
S':'
asbag68
(g89
g70
NtRp1483
(dp1484
g73
(dp1485
sg82
g1470
sg75
(lp1486
g68
(g69
g70
NtRp1487
(dp1488
g73
(dp1489
g81
I4
ssg82
g1483
sg75
(lp1490
S'GET'
p1491
asbasbasbag68
(g84
g70
NtRp1492
(dp1493
g73
(dp1494
sg82
g971
sg75
(lp1495
g68
(g89
g70
NtRp1496
(dp1497
g73
(dp1498
g93
g94
ssg82
g1492
sg75
(lp1499
S'script_name'
p1500
asbag68
(g89
g70
NtRp1501
(dp1502
g73
(dp1503
g100
g101
ssg82
g1492
sg75
(lp1504
S':'
asbag68
(g89
g70
NtRp1505
(dp1506
g73
(dp1507
sg82
g1492
sg75
(lp1508
g68
(g69
g70
NtRp1509
(dp1510
g73
(dp1511
g81
I4
ssg82
g1505
sg75
(lp1512
S''
asbasbasbag68
(g84
g70
NtRp1513
(dp1514
g73
(dp1515
sg82
g971
sg75
(lp1516
g68
(g89
g70
NtRp1517
(dp1518
g73
(dp1519
g93
g94
ssg82
g1513
sg75
(lp1520
S'server_name'
p1521
asbag68
(g89
g70
NtRp1522
(dp1523
g73
(dp1524
g100
g101
ssg82
g1513
sg75
(lp1525
S':'
asbag68
(g89
g70
NtRp1526
(dp1527
g73
(dp1528
sg82
g1513
sg75
(lp1529
g68
(g69
g70
NtRp1530
(dp1531
g73
(dp1532
g81
I4
ssg82
g1526
sg75
(lp1533
S'PHUCNH-PC'
p1534
asbasbasbag68
(g84
g70
NtRp1535
(dp1536
g73
(dp1537
sg82
g971
sg75
(lp1538
g68
(g89
g70
NtRp1539
(dp1540
g73
(dp1541
g93
g94
ssg82
g1535
sg75
(lp1542
S'server_port'
p1543
asbag68
(g89
g70
NtRp1544
(dp1545
g73
(dp1546
g100
g101
ssg82
g1535
sg75
(lp1547
S':'
asbag68
(g89
g70
NtRp1548
(dp1549
g73
(dp1550
sg82
g1535
sg75
(lp1551
g68
(g69
g70
NtRp1552
(dp1553
g73
(dp1554
g81
I4
ssg82
g1548
sg75
(lp1555
S'8000'
p1556
asbasbasbag68
(g84
g70
NtRp1557
(dp1558
g73
(dp1559
sg82
g971
sg75
(lp1560
g68
(g89
g70
NtRp1561
(dp1562
g73
(dp1563
g93
g94
ssg82
g1557
sg75
(lp1564
S'server_protocol'
p1565
asbag68
(g89
g70
NtRp1566
(dp1567
g73
(dp1568
g100
g101
ssg82
g1557
sg75
(lp1569
S':'
asbag68
(g89
g70
NtRp1570
(dp1571
g73
(dp1572
sg82
g1557
sg75
(lp1573
g68
(g69
g70
NtRp1574
(dp1575
g73
(dp1576
g81
I4
ssg82
g1570
sg75
(lp1577
S'HTTP/1.1'
p1578
asbasbasbag68
(g84
g70
NtRp1579
(dp1580
g73
(dp1581
sg82
g971
sg75
(lp1582
g68
(g89
g70
NtRp1583
(dp1584
g73
(dp1585
g93
g94
ssg82
g1579
sg75
(lp1586
S'server_software'
p1587
asbag68
(g89
g70
NtRp1588
(dp1589
g73
(dp1590
g100
g101
ssg82
g1579
sg75
(lp1591
S':'
asbag68
(g89
g70
NtRp1592
(dp1593
g73
(dp1594
sg82
g1579
sg75
(lp1595
g68
(g69
g70
NtRp1596
(dp1597
g73
(dp1598
g81
I4
ssg82
g1592
sg75
(lp1599
S'Rocket 1.2.4'
p1600
asbasbasbag68
(g84
g70
NtRp1601
(dp1602
g73
(dp1603
sg82
g971
sg75
(lp1604
g68
(g89
g70
NtRp1605
(dp1606
g73
(dp1607
g93
g94
ssg82
g1601
sg75
(lp1608
S'web2py_crontype'
p1609
asbag68
(g89
g70
NtRp1610
(dp1611
g73
(dp1612
g100
g101
ssg82
g1601
sg75
(lp1613
S':'
asbag68
(g89
g70
NtRp1614
(dp1615
g73
(dp1616
sg82
g1601
sg75
(lp1617
g68
(g69
g70
NtRp1618
(dp1619
g73
(dp1620
g81
I4
ssg82
g1614
sg75
(lp1621
S'hard'
p1622
asbasbasbag68
(g84
g70
NtRp1623
(dp1624
g73
(dp1625
sg82
g971
sg75
(lp1626
g68
(g89
g70
NtRp1627
(dp1628
g73
(dp1629
g93
g94
ssg82
g1623
sg75
(lp1630
S'web2py_path'
p1631
asbag68
(g89
g70
NtRp1632
(dp1633
g73
(dp1634
g100
g101
ssg82
g1623
sg75
(lp1635
S':'
asbag68
(g89
g70
NtRp1636
(dp1637
g73
(dp1638
sg82
g1623
sg75
(lp1639
g68
(g69
g70
NtRp1640
(dp1641
g73
(dp1642
g81
I4
ssg82
g1636
sg75
(lp1643
g1018
asbasbasbag68
(g84
g70
NtRp1644
(dp1645
g73
(dp1646
sg82
g971
sg75
(lp1647
g68
(g89
g70
NtRp1648
(dp1649
g73
(dp1650
g93
g94
ssg82
g1644
sg75
(lp1651
S'web2py_version'
p1652
asbag68
(g89
g70
NtRp1653
(dp1654
g73
(dp1655
g100
g101
ssg82
g1644
sg75
(lp1656
S':'
asbag68
(g89
g70
NtRp1657
(dp1658
g73
(dp1659
sg82
g1644
sg75
(lp1660
g68
(g69
g70
NtRp1661
(dp1662
g73
(dp1663
g81
I4
ssg82
g1657
sg75
(lp1664
g68
(g77
g70
NtRp1665
(dp1666
g73
(dp1667
g81
I3
ssg82
Nsg75
(lp1668
g68
(g84
g70
NtRp1669
(dp1670
g73
(dp1671
sg82
g1665
sg75
(lp1672
g68
(g89
g70
NtRp1673
(dp1674
g73
(dp1675
sg82
g1669
sg75
(lp1676
g68
(g69
g70
NtRp1677
(dp1678
g73
(dp1679
g81
I3
ssg82
g1673
sg75
(lp1680
S'1'
asbasbasbag68
(g84
g70
NtRp1681
(dp1682
g73
(dp1683
sg82
g1665
sg75
(lp1684
g68
(g89
g70
NtRp1685
(dp1686
g73
(dp1687
sg82
g1681
sg75
(lp1688
g68
(g69
g70
NtRp1689
(dp1690
g73
(dp1691
g81
I3
ssg82
g1685
sg75
(lp1692
S'99'
p1693
asbasbasbag68
(g84
g70
NtRp1694
(dp1695
g73
(dp1696
sg82
g1665
sg75
(lp1697
g68
(g89
g70
NtRp1698
(dp1699
g73
(dp1700
sg82
g1694
sg75
(lp1701
g68
(g69
g70
NtRp1702
(dp1703
g73
(dp1704
g81
I3
ssg82
g1698
sg75
(lp1705
S'7'
asbasbasbag68
(g84
g70
NtRp1706
(dp1707
g73
(dp1708
sg82
g1665
sg75
(lp1709
g68
(g89
g70
NtRp1710
(dp1711
g73
(dp1712
sg82
g1706
sg75
(lp1713
g68
(g69
g70
NtRp1714
(dp1715
g73
(dp1716
g81
I3
ssg82
g1710
sg75
(lp1717
S'datetime.datetime(2012, 3, 4, 22, 12, 8)'
p1718
asbasbasbag68
(g84
g70
NtRp1719
(dp1720
g73
(dp1721
sg82
g1665
sg75
(lp1722
g68
(g89
g70
NtRp1723
(dp1724
g73
(dp1725
sg82
g1719
sg75
(lp1726
g68
(g69
g70
NtRp1727
(dp1728
g73
(dp1729
g81
I3
ssg82
g1723
sg75
(lp1730
S'stable'
p1731
asbasbasbasbasbasbasbag68
(g84
g70
NtRp1732
(dp1733
g73
(dp1734
sg82
g971
sg75
(lp1735
g68
(g89
g70
NtRp1736
(dp1737
g73
(dp1738
g93
g94
ssg82
g1732
sg75
(lp1739
S'wsgi_errors'
p1740
asbag68
(g89
g70
NtRp1741
(dp1742
g73
(dp1743
g100
g101
ssg82
g1732
sg75
(lp1744
S':'
asbag68
(g89
g70
NtRp1745
(dp1746
g73
(dp1747
sg82
g1732
sg75
(lp1748
g68
(g69
g70
NtRp1749
(dp1750
g73
(dp1751
g81
I4
ssg82
g1745
sg75
(lp1752
S"<open file '<stderr>', mode 'w' at 0x0000000001D4E1E0>"
p1753
asbasbasbag68
(g84
g70
NtRp1754
(dp1755
g73
(dp1756
sg82
g971
sg75
(lp1757
g68
(g89
g70
NtRp1758
(dp1759
g73
(dp1760
g93
g94
ssg82
g1754
sg75
(lp1761
S'wsgi_file_wrapper'
p1762
asbag68
(g89
g70
NtRp1763
(dp1764
g73
(dp1765
g100
g101
ssg82
g1754
sg75
(lp1766
S':'
asbag68
(g89
g70
NtRp1767
(dp1768
g73
(dp1769
sg82
g1754
sg75
(lp1770
g68
(g69
g70
NtRp1771
(dp1772
g73
(dp1773
g81
I4
ssg82
g1767
sg75
(lp1774
S'<class wsgiref.util.FileWrapper at 0x0000000003420AC8>'
p1775
asbasbasbag68
(g84
g70
NtRp1776
(dp1777
g73
(dp1778
sg82
g971
sg75
(lp1779
g68
(g89
g70
NtRp1780
(dp1781
g73
(dp1782
g93
g94
ssg82
g1776
sg75
(lp1783
S'wsgi_input'
p1784
asbag68
(g89
g70
NtRp1785
(dp1786
g73
(dp1787
g100
g101
ssg82
g1776
sg75
(lp1788
S':'
asbag68
(g89
g70
NtRp1789
(dp1790
g73
(dp1791
sg82
g1776
sg75
(lp1792
g68
(g69
g70
NtRp1793
(dp1794
g73
(dp1795
g81
I4
ssg82
g1789
sg75
(lp1796
S'<socket._fileobject object at 0x00000000058565E8>'
p1797
asbasbasbag68
(g84
g70
NtRp1798
(dp1799
g73
(dp1800
sg82
g971
sg75
(lp1801
g68
(g89
g70
NtRp1802
(dp1803
g73
(dp1804
g93
g94
ssg82
g1798
sg75
(lp1805
S'wsgi_multiprocess'
p1806
asbag68
(g89
g70
NtRp1807
(dp1808
g73
(dp1809
g100
g101
ssg82
g1798
sg75
(lp1810
S':'
asbag68
(g89
g70
NtRp1811
(dp1812
g73
(dp1813
sg82
g1798
sg75
(lp1814
g68
(g69
g70
NtRp1815
(dp1816
g73
(dp1817
g81
I4
ssg82
g1811
sg75
(lp1818
g111
asbasbasbag68
(g84
g70
NtRp1819
(dp1820
g73
(dp1821
sg82
g971
sg75
(lp1822
g68
(g89
g70
NtRp1823
(dp1824
g73
(dp1825
g93
g94
ssg82
g1819
sg75
(lp1826
S'wsgi_multithread'
p1827
asbag68
(g89
g70
NtRp1828
(dp1829
g73
(dp1830
g100
g101
ssg82
g1819
sg75
(lp1831
S':'
asbag68
(g89
g70
NtRp1832
(dp1833
g73
(dp1834
sg82
g1819
sg75
(lp1835
g68
(g69
g70
NtRp1836
(dp1837
g73
(dp1838
g81
I4
ssg82
g1832
sg75
(lp1839
S'True'
p1840
asbasbasbag68
(g84
g70
NtRp1841
(dp1842
g73
(dp1843
sg82
g971
sg75
(lp1844
g68
(g89
g70
NtRp1845
(dp1846
g73
(dp1847
g93
g94
ssg82
g1841
sg75
(lp1848
S'wsgi_run_once'
p1849
asbag68
(g89
g70
NtRp1850
(dp1851
g73
(dp1852
g100
g101
ssg82
g1841
sg75
(lp1853
S':'
asbag68
(g89
g70
NtRp1854
(dp1855
g73
(dp1856
sg82
g1841
sg75
(lp1857
g68
(g69
g70
NtRp1858
(dp1859
g73
(dp1860
g81
I4
ssg82
g1854
sg75
(lp1861
g111
asbasbasbag68
(g84
g70
NtRp1862
(dp1863
g73
(dp1864
sg82
g971
sg75
(lp1865
g68
(g89
g70
NtRp1866
(dp1867
g73
(dp1868
g93
g94
ssg82
g1862
sg75
(lp1869
S'wsgi_url_scheme'
p1870
asbag68
(g89
g70
NtRp1871
(dp1872
g73
(dp1873
g100
g101
ssg82
g1862
sg75
(lp1874
S':'
asbag68
(g89
g70
NtRp1875
(dp1876
g73
(dp1877
sg82
g1862
sg75
(lp1878
g68
(g69
g70
NtRp1879
(dp1880
g73
(dp1881
g81
I4
ssg82
g1875
sg75
(lp1882
S'http'
p1883
asbasbasbag68
(g84
g70
NtRp1884
(dp1885
g73
(dp1886
sg82
g971
sg75
(lp1887
g68
(g89
g70
NtRp1888
(dp1889
g73
(dp1890
g93
g94
ssg82
g1884
sg75
(lp1891
S'wsgi_version'
p1892
asbag68
(g89
g70
NtRp1893
(dp1894
g73
(dp1895
g100
g101
ssg82
g1884
sg75
(lp1896
S':'
asbag68
(g89
g70
NtRp1897
(dp1898
g73
(dp1899
sg82
g1884
sg75
(lp1900
g68
(g69
g70
NtRp1901
(dp1902
g73
(dp1903
g81
I4
ssg82
g1897
sg75
(lp1904
g68
(g77
g70
NtRp1905
(dp1906
g73
(dp1907
g81
I3
ssg82
Nsg75
(lp1908
g68
(g84
g70
NtRp1909
(dp1910
g73
(dp1911
sg82
g1905
sg75
(lp1912
g68
(g89
g70
NtRp1913
(dp1914
g73
(dp1915
sg82
g1909
sg75
(lp1916
g68
(g69
g70
NtRp1917
(dp1918
g73
(dp1919
g81
I3
ssg82
g1913
sg75
(lp1920
S'1'
asbasbasbag68
(g84
g70
NtRp1921
(dp1922
g73
(dp1923
sg82
g1905
sg75
(lp1924
g68
(g89
g70
NtRp1925
(dp1926
g73
(dp1927
sg82
g1921
sg75
(lp1928
g68
(g69
g70
NtRp1929
(dp1930
g73
(dp1931
g81
I3
ssg82
g1925
sg75
(lp1932
S'0'
asbasbasbasbasbasbasbasbasbasbasbag68
(g84
g70
NtRp1933
(dp1934
g73
(dp1935
sg82
g78
sg75
(lp1936
g68
(g89
g70
NtRp1937
(dp1938
g73
(dp1939
g93
g94
ssg82
g1933
sg75
(lp1940
S'extension'
p1941
asbag68
(g89
g70
NtRp1942
(dp1943
g73
(dp1944
g100
g101
ssg82
g1933
sg75
(lp1945
S':'
asbag68
(g89
g70
NtRp1946
(dp1947
g73
(dp1948
sg82
g1933
sg75
(lp1949
g68
(g69
g70
NtRp1950
(dp1951
g73
(dp1952
g81
I5
ssg82
g1946
sg75
(lp1953
S'html'
p1954
asbasbasbag68
(g84
g70
NtRp1955
(dp1956
g73
(dp1957
sg82
g78
sg75
(lp1958
g68
(g89
g70
NtRp1959
(dp1960
g73
(dp1961
g93
g94
ssg82
g1955
sg75
(lp1962
S'folder'
p1963
asbag68
(g89
g70
NtRp1964
(dp1965
g73
(dp1966
g100
g101
ssg82
g1955
sg75
(lp1967
S':'
asbag68
(g89
g70
NtRp1968
(dp1969
g73
(dp1970
sg82
g1955
sg75
(lp1971
g68
(g69
g70
NtRp1972
(dp1973
g73
(dp1974
g81
I5
ssg82
g1968
sg75
(lp1975
S'D:\\workspace\\ca\\IgoR\\C_Sources\\Server\\igor-assistant-ca-2012\\applications\\igor\\'
p1976
asbasbasbag68
(g84
g70
NtRp1977
(dp1978
g73
(dp1979
sg82
g78
sg75
(lp1980
g68
(g89
g70
NtRp1981
(dp1982
g73
(dp1983
g93
g94
ssg82
g1977
sg75
(lp1984
S'function'
p1985
asbag68
(g89
g70
NtRp1986
(dp1987
g73
(dp1988
g100
g101
ssg82
g1977
sg75
(lp1989
S':'
asbag68
(g89
g70
NtRp1990
(dp1991
g73
(dp1992
sg82
g1977
sg75
(lp1993
g68
(g69
g70
NtRp1994
(dp1995
g73
(dp1996
g81
I5
ssg82
g1990
sg75
(lp1997
S'add_class_job'
p1998
asbasbasbag68
(g84
g70
NtRp1999
(dp2000
g73
(dp2001
sg82
g78
sg75
(lp2002
g68
(g89
g70
NtRp2003
(dp2004
g73
(dp2005
g93
g94
ssg82
g1999
sg75
(lp2006
S'get_vars'
p2007
asbag68
(g89
g70
NtRp2008
(dp2009
g73
(dp2010
g100
g101
ssg82
g1999
sg75
(lp2011
S':'
asbag68
(g89
g70
NtRp2012
(dp2013
g73
(dp2014
sg82
g1999
sg75
(lp2015
g68
(g69
g70
NtRp2016
(dp2017
g73
(dp2018
g81
I5
ssg82
g2012
sg75
(lp2019
g68
(g77
g70
NtRp2020
(dp2021
g73
(dp2022
g81
I4
ssg82
Nsg75
(lp2023
sbasbasbasbag68
(g84
g70
NtRp2024
(dp2025
g73
(dp2026
sg82
g78
sg75
(lp2027
g68
(g89
g70
NtRp2028
(dp2029
g73
(dp2030
g93
g94
ssg82
g2024
sg75
(lp2031
S'global_settings'
p2032
asbag68
(g89
g70
NtRp2033
(dp2034
g73
(dp2035
g100
g101
ssg82
g2024
sg75
(lp2036
S':'
asbag68
(g89
g70
NtRp2037
(dp2038
g73
(dp2039
sg82
g2024
sg75
(lp2040
g68
(g69
g70
NtRp2041
(dp2042
g73
(dp2043
g81
I5
ssg82
g2037
sg75
(lp2044
g68
(g77
g70
NtRp2045
(dp2046
g73
(dp2047
g81
I4
ssg82
Nsg75
(lp2048
g68
(g84
g70
NtRp2049
(dp2050
g73
(dp2051
sg82
g2045
sg75
(lp2052
g68
(g89
g70
NtRp2053
(dp2054
g73
(dp2055
g93
g94
ssg82
g2049
sg75
(lp2056
g983
asbag68
(g89
g70
NtRp2057
(dp2058
g73
(dp2059
g100
g101
ssg82
g2049
sg75
(lp2060
S':'
asbag68
(g89
g70
NtRp2061
(dp2062
g73
(dp2063
sg82
g2049
sg75
(lp2064
g68
(g69
g70
NtRp2065
(dp2066
g73
(dp2067
g81
I4
ssg82
g2061
sg75
(lp2068
S"set(['D:\\\\workspace\\\\ca\\\\IgoR\\\\C_Sources\\\\Server\\\\igor-assistant-ca-2012\\\\applications\\\\admin\\\\', 'D:\\\\workspace\\\\ca\\\\IgoR\\\\C_Sources\\\\Server\\\\igor-assistant-ca-2012\\\\applications\\\\igor\\\\', 'D:\\\\workspace\\\\ca\\\\IgoR\\\\C_Sources\\\\Server\\\\igor-assistant-ca-2012\\\\applications\\\\welcome\\\\'])"
p2069
asbasbasbag68
(g84
g70
NtRp2070
(dp2071
g73
(dp2072
sg82
g2045
sg75
(lp2073
g68
(g89
g70
NtRp2074
(dp2075
g73
(dp2076
g93
g94
ssg82
g2070
sg75
(lp2077
g1005
asbag68
(g89
g70
NtRp2078
(dp2079
g73
(dp2080
g100
g101
ssg82
g2070
sg75
(lp2081
S':'
asbag68
(g89
g70
NtRp2082
(dp2083
g73
(dp2084
sg82
g2070
sg75
(lp2085
g68
(g69
g70
NtRp2086
(dp2087
g73
(dp2088
g81
I4
ssg82
g2082
sg75
(lp2089
g1018
asbasbasbag68
(g84
g70
NtRp2090
(dp2091
g73
(dp2092
sg82
g2045
sg75
(lp2093
g68
(g89
g70
NtRp2094
(dp2095
g73
(dp2096
g93
g94
ssg82
g2090
sg75
(lp2097
g1027
asbag68
(g89
g70
NtRp2098
(dp2099
g73
(dp2100
g100
g101
ssg82
g2090
sg75
(lp2101
S':'
asbag68
(g89
g70
NtRp2102
(dp2103
g73
(dp2104
sg82
g2090
sg75
(lp2105
g68
(g69
g70
NtRp2106
(dp2107
g73
(dp2108
g81
I4
ssg82
g2102
sg75
(lp2109
g68
(g77
g70
NtRp2110
(dp2111
g73
(dp2112
g81
I3
ssg82
Nsg75
(lp2113
g68
(g84
g70
NtRp2114
(dp2115
g73
(dp2116
sg82
g2110
sg75
(lp2117
g68
(g89
g70
NtRp2118
(dp2119
g73
(dp2120
sg82
g2114
sg75
(lp2121
g68
(g69
g70
NtRp2122
(dp2123
g73
(dp2124
g81
I3
ssg82
g2118
sg75
(lp2125
g1056
asbasbasbasbasbasbasbag68
(g84
g70
NtRp2126
(dp2127
g73
(dp2128
sg82
g2045
sg75
(lp2129
g68
(g89
g70
NtRp2130
(dp2131
g73
(dp2132
g93
g94
ssg82
g2126
sg75
(lp2133
g1065
asbag68
(g89
g70
NtRp2134
(dp2135
g73
(dp2136
g100
g101
ssg82
g2126
sg75
(lp2137
S':'
asbag68
(g89
g70
NtRp2138
(dp2139
g73
(dp2140
sg82
g2126
sg75
(lp2141
g68
(g69
g70
NtRp2142
(dp2143
g73
(dp2144
g81
I4
ssg82
g2138
sg75
(lp2145
S"<Values at 0x3563d88: {'verbose': False, 'ip': '127.0.0.1', 'shutdown_timeout': 5, 'taskbar': False, 'nocron': False, 'pid_filename': 'httpserver.pid', 'maxthreads': None, 'softcron': False, 'server_name': 'PHUCNH-PC', 'bpython': False, 'nogui': False, 'port': 8000, 'extcron': False, 'debuglevel': 30, 'test': None, 'folder': 'D:\\\\workspace\\\\ca\\\\IgoR\\\\C_Sources\\\\Server\\\\igor-assistant-ca-2012', 'config': '', 'import_models': False, 'winservice': '', 'shell': None, 'run': '', 'log_filename': 'httpserver.log', 'args': [''], 'socket_timeout': 5, 'ssl_ca_certificate': None, 'scheduler': None, 'profiler_filename': None, 'ssl_private_key': '', 'password': '<ask>', 'request_queue_size': 5, 'ssl_certificate': '', 'cronjob': False, 'numthreads': None, 'quiet': False, 'interfaces': None, 'minthreads': None, 'timeout': 10, 'plain': False, 'nobanner': False}>"
p2146
asbasbasbag68
(g84
g70
NtRp2147
(dp2148
g73
(dp2149
sg82
g2045
sg75
(lp2150
g68
(g89
g70
NtRp2151
(dp2152
g73
(dp2153
g93
g94
ssg82
g2147
sg75
(lp2154
g1087
asbag68
(g89
g70
NtRp2155
(dp2156
g73
(dp2157
g100
g101
ssg82
g2147
sg75
(lp2158
S':'
asbag68
(g89
g70
NtRp2159
(dp2160
g73
(dp2161
sg82
g2147
sg75
(lp2162
g68
(g69
g70
NtRp2163
(dp2164
g73
(dp2165
g81
I4
ssg82
g2159
sg75
(lp2166
S'set([])'
p2167
asbasbasbag68
(g84
g70
NtRp2168
(dp2169
g73
(dp2170
sg82
g2045
sg75
(lp2171
g68
(g89
g70
NtRp2172
(dp2173
g73
(dp2174
g93
g94
ssg82
g2168
sg75
(lp2175
g1109
asbag68
(g89
g70
NtRp2176
(dp2177
g73
(dp2178
g100
g101
ssg82
g2168
sg75
(lp2179
S':'
asbag68
(g89
g70
NtRp2180
(dp2181
g73
(dp2182
sg82
g2168
sg75
(lp2183
g68
(g69
g70
NtRp2184
(dp2185
g73
(dp2186
g81
I4
ssg82
g2180
sg75
(lp2187
g111
asbasbasbag68
(g84
g70
NtRp2188
(dp2189
g73
(dp2190
sg82
g2045
sg75
(lp2191
g68
(g89
g70
NtRp2192
(dp2193
g73
(dp2194
g93
g94
ssg82
g2188
sg75
(lp2195
g1130
asbag68
(g89
g70
NtRp2196
(dp2197
g73
(dp2198
g100
g101
ssg82
g2188
sg75
(lp2199
S':'
asbag68
(g89
g70
NtRp2200
(dp2201
g73
(dp2202
sg82
g2188
sg75
(lp2203
g68
(g69
g70
NtRp2204
(dp2205
g73
(dp2206
g81
I4
ssg82
g2200
sg75
(lp2207
g1143
asbasbasbag68
(g84
g70
NtRp2208
(dp2209
g73
(dp2210
sg82
g2045
sg75
(lp2211
g68
(g89
g70
NtRp2212
(dp2213
g73
(dp2214
g93
g94
ssg82
g2208
sg75
(lp2215
g1350
asbag68
(g89
g70
NtRp2216
(dp2217
g73
(dp2218
g100
g101
ssg82
g2208
sg75
(lp2219
S':'
asbag68
(g89
g70
NtRp2220
(dp2221
g73
(dp2222
sg82
g2208
sg75
(lp2223
g68
(g69
g70
NtRp2224
(dp2225
g73
(dp2226
g81
I4
ssg82
g2220
sg75
(lp2227
g111
asbasbasbag68
(g84
g70
NtRp2228
(dp2229
g73
(dp2230
sg82
g2045
sg75
(lp2231
g68
(g89
g70
NtRp2232
(dp2233
g73
(dp2234
g93
g94
ssg82
g2228
sg75
(lp2235
g1371
asbag68
(g89
g70
NtRp2236
(dp2237
g73
(dp2238
g100
g101
ssg82
g2228
sg75
(lp2239
S':'
asbag68
(g89
g70
NtRp2240
(dp2241
g73
(dp2242
sg82
g2228
sg75
(lp2243
g68
(g69
g70
NtRp2244
(dp2245
g73
(dp2246
g81
I4
ssg82
g2240
sg75
(lp2247
g111
asbasbasbag68
(g84
g70
NtRp2248
(dp2249
g73
(dp2250
sg82
g2045
sg75
(lp2251
g68
(g89
g70
NtRp2252
(dp2253
g73
(dp2254
g93
g94
ssg82
g2248
sg75
(lp2255
g1609
asbag68
(g89
g70
NtRp2256
(dp2257
g73
(dp2258
g100
g101
ssg82
g2248
sg75
(lp2259
S':'
asbag68
(g89
g70
NtRp2260
(dp2261
g73
(dp2262
sg82
g2248
sg75
(lp2263
g68
(g69
g70
NtRp2264
(dp2265
g73
(dp2266
g81
I4
ssg82
g2260
sg75
(lp2267
g1622
asbasbasbag68
(g84
g70
NtRp2268
(dp2269
g73
(dp2270
sg82
g2045
sg75
(lp2271
g68
(g89
g70
NtRp2272
(dp2273
g73
(dp2274
g93
g94
ssg82
g2268
sg75
(lp2275
g1652
asbag68
(g89
g70
NtRp2276
(dp2277
g73
(dp2278
g100
g101
ssg82
g2268
sg75
(lp2279
S':'
asbag68
(g89
g70
NtRp2280
(dp2281
g73
(dp2282
sg82
g2268
sg75
(lp2283
g68
(g69
g70
NtRp2284
(dp2285
g73
(dp2286
g81
I4
ssg82
g2280
sg75
(lp2287
g68
(g77
g70
NtRp2288
(dp2289
g73
(dp2290
g81
I3
ssg82
Nsg75
(lp2291
g68
(g84
g70
NtRp2292
(dp2293
g73
(dp2294
sg82
g2288
sg75
(lp2295
g68
(g89
g70
NtRp2296
(dp2297
g73
(dp2298
sg82
g2292
sg75
(lp2299
g68
(g69
g70
NtRp2300
(dp2301
g73
(dp2302
g81
I3
ssg82
g2296
sg75
(lp2303
S'1'
asbasbasbag68
(g84
g70
NtRp2304
(dp2305
g73
(dp2306
sg82
g2288
sg75
(lp2307
g68
(g89
g70
NtRp2308
(dp2309
g73
(dp2310
sg82
g2304
sg75
(lp2311
g68
(g69
g70
NtRp2312
(dp2313
g73
(dp2314
g81
I3
ssg82
g2308
sg75
(lp2315
S'99'
p2316
asbasbasbag68
(g84
g70
NtRp2317
(dp2318
g73
(dp2319
sg82
g2288
sg75
(lp2320
g68
(g89
g70
NtRp2321
(dp2322
g73
(dp2323
sg82
g2317
sg75
(lp2324
g68
(g69
g70
NtRp2325
(dp2326
g73
(dp2327
g81
I3
ssg82
g2321
sg75
(lp2328
S'7'
asbasbasbag68
(g84
g70
NtRp2329
(dp2330
g73
(dp2331
sg82
g2288
sg75
(lp2332
g68
(g89
g70
NtRp2333
(dp2334
g73
(dp2335
sg82
g2329
sg75
(lp2336
g68
(g69
g70
NtRp2337
(dp2338
g73
(dp2339
g81
I3
ssg82
g2333
sg75
(lp2340
S'datetime.datetime(2012, 3, 4, 22, 12, 8)'
p2341
asbasbasbag68
(g84
g70
NtRp2342
(dp2343
g73
(dp2344
sg82
g2288
sg75
(lp2345
g68
(g89
g70
NtRp2346
(dp2347
g73
(dp2348
sg82
g2342
sg75
(lp2349
g68
(g69
g70
NtRp2350
(dp2351
g73
(dp2352
g81
I3
ssg82
g2346
sg75
(lp2353
g1731
asbasbasbasbasbasbasbasbasbasbasbag68
(g84
g70
NtRp2354
(dp2355
g73
(dp2356
sg82
g78
sg75
(lp2357
g68
(g89
g70
NtRp2358
(dp2359
g73
(dp2360
g93
g94
ssg82
g2354
sg75
(lp2361
S'is_https'
p2362
asbag68
(g89
g70
NtRp2363
(dp2364
g73
(dp2365
g100
g101
ssg82
g2354
sg75
(lp2366
S':'
asbag68
(g89
g70
NtRp2367
(dp2368
g73
(dp2369
sg82
g2354
sg75
(lp2370
g68
(g69
g70
NtRp2371
(dp2372
g73
(dp2373
g81
I5
ssg82
g2367
sg75
(lp2374
g111
asbasbasbag68
(g84
g70
NtRp2375
(dp2376
g73
(dp2377
sg82
g78
sg75
(lp2378
g68
(g89
g70
NtRp2379
(dp2380
g73
(dp2381
g93
g94
ssg82
g2375
sg75
(lp2382
S'is_local'
p2383
asbag68
(g89
g70
NtRp2384
(dp2385
g73
(dp2386
g100
g101
ssg82
g2375
sg75
(lp2387
S':'
asbag68
(g89
g70
NtRp2388
(dp2389
g73
(dp2390
sg82
g2375
sg75
(lp2391
g68
(g69
g70
NtRp2392
(dp2393
g73
(dp2394
g81
I5
ssg82
g2388
sg75
(lp2395
g1840
asbasbasbag68
(g84
g70
NtRp2396
(dp2397
g73
(dp2398
sg82
g78
sg75
(lp2399
g68
(g89
g70
NtRp2400
(dp2401
g73
(dp2402
g93
g94
ssg82
g2396
sg75
(lp2403
S'is_restful'
p2404
asbag68
(g89
g70
NtRp2405
(dp2406
g73
(dp2407
g100
g101
ssg82
g2396
sg75
(lp2408
S':'
asbag68
(g89
g70
NtRp2409
(dp2410
g73
(dp2411
sg82
g2396
sg75
(lp2412
g68
(g69
g70
NtRp2413
(dp2414
g73
(dp2415
g81
I5
ssg82
g2409
sg75
(lp2416
g111
asbasbasbag68
(g84
g70
NtRp2417
(dp2418
g73
(dp2419
sg82
g78
sg75
(lp2420
g68
(g89
g70
NtRp2421
(dp2422
g73
(dp2423
g93
g94
ssg82
g2417
sg75
(lp2424
S'now'
p2425
asbag68
(g89
g70
NtRp2426
(dp2427
g73
(dp2428
g100
g101
ssg82
g2417
sg75
(lp2429
S':'
asbag68
(g89
g70
NtRp2430
(dp2431
g73
(dp2432
sg82
g2417
sg75
(lp2433
g68
(g69
g70
NtRp2434
(dp2435
g73
(dp2436
g81
I5
ssg82
g2430
sg75
(lp2437
S'datetime.datetime(2012, 7, 30, 21, 14, 24, 130000)'
p2438
asbasbasbag68
(g84
g70
NtRp2439
(dp2440
g73
(dp2441
sg82
g78
sg75
(lp2442
g68
(g89
g70
NtRp2443
(dp2444
g73
(dp2445
g93
g94
ssg82
g2439
sg75
(lp2446
S'post_vars'
p2447
asbag68
(g89
g70
NtRp2448
(dp2449
g73
(dp2450
g100
g101
ssg82
g2439
sg75
(lp2451
S':'
asbag68
(g89
g70
NtRp2452
(dp2453
g73
(dp2454
sg82
g2439
sg75
(lp2455
g68
(g69
g70
NtRp2456
(dp2457
g73
(dp2458
g81
I5
ssg82
g2452
sg75
(lp2459
g68
(g77
g70
NtRp2460
(dp2461
g73
(dp2462
g81
I4
ssg82
Nsg75
(lp2463
sbasbasbasbag68
(g84
g70
NtRp2464
(dp2465
g73
(dp2466
sg82
g78
sg75
(lp2467
g68
(g89
g70
NtRp2468
(dp2469
g73
(dp2470
g93
g94
ssg82
g2464
sg75
(lp2471
S'raw_args'
p2472
asbag68
(g89
g70
NtRp2473
(dp2474
g73
(dp2475
g100
g101
ssg82
g2464
sg75
(lp2476
S':'
asbag68
(g89
g70
NtRp2477
(dp2478
g73
(dp2479
sg82
g2464
sg75
(lp2480
g68
(g69
g70
NtRp2481
(dp2482
g73
(dp2483
g81
I5
ssg82
g2477
sg75
(lp2484
S'2/test job/1340104776/1340104776/1/1340104776/0/test note/d3-201/1/2'
p2485
asbasbasbag68
(g84
g70
NtRp2486
(dp2487
g73
(dp2488
sg82
g78
sg75
(lp2489
g68
(g89
g70
NtRp2490
(dp2491
g73
(dp2492
g93
g94
ssg82
g2486
sg75
(lp2493
S'url'
p2494
asbag68
(g89
g70
NtRp2495
(dp2496
g73
(dp2497
g100
g101
ssg82
g2486
sg75
(lp2498
S':'
asbag68
(g89
g70
NtRp2499
(dp2500
g73
(dp2501
sg82
g2486
sg75
(lp2502
g68
(g69
g70
NtRp2503
(dp2504
g73
(dp2505
g81
I5
ssg82
g2499
sg75
(lp2506
S'/igor/jobs/add_class_job/2/test_job/1340104776/1340104776/1/1340104776/0/test_note/d3-201/1/2'
p2507
asbasbasbag68
(g84
g70
NtRp2508
(dp2509
g73
(dp2510
sg82
g78
sg75
(lp2511
g68
(g89
g70
NtRp2512
(dp2513
g73
(dp2514
g93
g94
ssg82
g2508
sg75
(lp2515
S'utcnow'
p2516
asbag68
(g89
g70
NtRp2517
(dp2518
g73
(dp2519
g100
g101
ssg82
g2508
sg75
(lp2520
S':'
asbag68
(g89
g70
NtRp2521
(dp2522
g73
(dp2523
sg82
g2508
sg75
(lp2524
g68
(g69
g70
NtRp2525
(dp2526
g73
(dp2527
g81
I5
ssg82
g2521
sg75
(lp2528
S'datetime.datetime(2012, 7, 30, 14, 14, 24, 130000)'
p2529
asbasbasbag68
(g84
g70
NtRp2530
(dp2531
g73
(dp2532
sg82
g78
sg75
(lp2533
g68
(g89
g70
NtRp2534
(dp2535
g73
(dp2536
g93
g94
ssg82
g2530
sg75
(lp2537
S'uuid'
p2538
asbag68
(g89
g70
NtRp2539
(dp2540
g73
(dp2541
g100
g101
ssg82
g2530
sg75
(lp2542
S':'
asbag68
(g89
g70
NtRp2543
(dp2544
g73
(dp2545
sg82
g2530
sg75
(lp2546
g68
(g69
g70
NtRp2547
(dp2548
g73
(dp2549
g81
I5
ssg82
g2543
sg75
(lp2550
S'igor/127.0.0.1.2012-07-30.21-14-24.0b6330b0-f8ec-4b1a-972e-7014a9632aff'
p2551
asbasbasbag68
(g84
g70
NtRp2552
(dp2553
g73
(dp2554
sg82
g78
sg75
(lp2555
g68
(g89
g70
NtRp2556
(dp2557
g73
(dp2558
g93
g94
ssg82
g2552
sg75
(lp2559
S'vars'
p2560
asbag68
(g89
g70
NtRp2561
(dp2562
g73
(dp2563
g100
g101
ssg82
g2552
sg75
(lp2564
S':'
asbag68
(g89
g70
NtRp2565
(dp2566
g73
(dp2567
sg82
g2552
sg75
(lp2568
g68
(g69
g70
NtRp2569
(dp2570
g73
(dp2571
g81
I5
ssg82
g2565
sg75
(lp2572
g68
(g77
g70
NtRp2573
(dp2574
g73
(dp2575
g81
I4
ssg82
Nsg75
(lp2576
sbasbasbasbag68
(g84
g70
NtRp2577
(dp2578
g73
(dp2579
sg82
g78
sg75
(lp2580
g68
(g89
g70
NtRp2581
(dp2582
g73
(dp2583
g93
g94
ssg82
g2577
sg75
(lp2584
S'wsgi'
p2585
asbag68
(g89
g70
NtRp2586
(dp2587
g73
(dp2588
g100
g101
ssg82
g2577
sg75
(lp2589
S':'
asbag68
(g89
g70
NtRp2590
(dp2591
g73
(dp2592
sg82
g2577
sg75
(lp2593
g68
(g69
g70
NtRp2594
(dp2595
g73
(dp2596
g81
I5
ssg82
g2590
sg75
(lp2597
g68
(g77
g70
NtRp2598
(dp2599
g73
(dp2600
g81
I4
ssg82
Nsg75
(lp2601
g68
(g84
g70
NtRp2602
(dp2603
g73
(dp2604
sg82
g2598
sg75
(lp2605
g68
(g89
g70
NtRp2606
(dp2607
g73
(dp2608
g93
g94
ssg82
g2602
sg75
(lp2609
S'environ'
p2610
asbag68
(g89
g70
NtRp2611
(dp2612
g73
(dp2613
g100
g101
ssg82
g2602
sg75
(lp2614
S':'
asbag68
(g89
g70
NtRp2615
(dp2616
g73
(dp2617
sg82
g2602
sg75
(lp2618
g68
(g69
g70
NtRp2619
(dp2620
g73
(dp2621
g81
I4
ssg82
g2615
sg75
(lp2622
g68
(g77
g70
NtRp2623
(dp2624
g73
(dp2625
g81
I3
ssg82
Nsg75
(lp2626
g68
(g84
g70
NtRp2627
(dp2628
g73
(dp2629
sg82
g2623
sg75
(lp2630
g68
(g89
g70
NtRp2631
(dp2632
g73
(dp2633
g93
g94
ssg82
g2627
sg75
(lp2634
S'HTTP_ACCEPT'
p2635
asbag68
(g89
g70
NtRp2636
(dp2637
g73
(dp2638
g100
g101
ssg82
g2627
sg75
(lp2639
S':'
asbag68
(g89
g70
NtRp2640
(dp2641
g73
(dp2642
sg82
g2627
sg75
(lp2643
g68
(g69
g70
NtRp2644
(dp2645
g73
(dp2646
g81
I3
ssg82
g2640
sg75
(lp2647
g1165
asbasbasbag68
(g84
g70
NtRp2648
(dp2649
g73
(dp2650
sg82
g2623
sg75
(lp2651
g68
(g89
g70
NtRp2652
(dp2653
g73
(dp2654
g93
g94
ssg82
g2648
sg75
(lp2655
S'HTTP_ACCEPT_CHARSET'
p2656
asbag68
(g89
g70
NtRp2657
(dp2658
g73
(dp2659
g100
g101
ssg82
g2648
sg75
(lp2660
S':'
asbag68
(g89
g70
NtRp2661
(dp2662
g73
(dp2663
sg82
g2648
sg75
(lp2664
g68
(g69
g70
NtRp2665
(dp2666
g73
(dp2667
g81
I3
ssg82
g2661
sg75
(lp2668
g1187
asbasbasbag68
(g84
g70
NtRp2669
(dp2670
g73
(dp2671
sg82
g2623
sg75
(lp2672
g68
(g89
g70
NtRp2673
(dp2674
g73
(dp2675
g93
g94
ssg82
g2669
sg75
(lp2676
S'HTTP_ACCEPT_ENCODING'
p2677
asbag68
(g89
g70
NtRp2678
(dp2679
g73
(dp2680
g100
g101
ssg82
g2669
sg75
(lp2681
S':'
asbag68
(g89
g70
NtRp2682
(dp2683
g73
(dp2684
sg82
g2669
sg75
(lp2685
g68
(g69
g70
NtRp2686
(dp2687
g73
(dp2688
g81
I3
ssg82
g2682
sg75
(lp2689
g1209
asbasbasbag68
(g84
g70
NtRp2690
(dp2691
g73
(dp2692
sg82
g2623
sg75
(lp2693
g68
(g89
g70
NtRp2694
(dp2695
g73
(dp2696
g93
g94
ssg82
g2690
sg75
(lp2697
S'HTTP_ACCEPT_LANGUAGE'
p2698
asbag68
(g89
g70
NtRp2699
(dp2700
g73
(dp2701
g100
g101
ssg82
g2690
sg75
(lp2702
S':'
asbag68
(g89
g70
NtRp2703
(dp2704
g73
(dp2705
sg82
g2690
sg75
(lp2706
g68
(g69
g70
NtRp2707
(dp2708
g73
(dp2709
g81
I3
ssg82
g2703
sg75
(lp2710
g1231
asbasbasbag68
(g84
g70
NtRp2711
(dp2712
g73
(dp2713
sg82
g2623
sg75
(lp2714
g68
(g89
g70
NtRp2715
(dp2716
g73
(dp2717
g93
g94
ssg82
g2711
sg75
(lp2718
S'HTTP_CACHE_CONTROL'
p2719
asbag68
(g89
g70
NtRp2720
(dp2721
g73
(dp2722
g100
g101
ssg82
g2711
sg75
(lp2723
S':'
asbag68
(g89
g70
NtRp2724
(dp2725
g73
(dp2726
sg82
g2711
sg75
(lp2727
g68
(g69
g70
NtRp2728
(dp2729
g73
(dp2730
g81
I3
ssg82
g2724
sg75
(lp2731
g1253
asbasbasbag68
(g84
g70
NtRp2732
(dp2733
g73
(dp2734
sg82
g2623
sg75
(lp2735
g68
(g89
g70
NtRp2736
(dp2737
g73
(dp2738
g93
g94
ssg82
g2732
sg75
(lp2739
S'HTTP_CONNECTION'
p2740
asbag68
(g89
g70
NtRp2741
(dp2742
g73
(dp2743
g100
g101
ssg82
g2732
sg75
(lp2744
S':'
asbag68
(g89
g70
NtRp2745
(dp2746
g73
(dp2747
sg82
g2732
sg75
(lp2748
g68
(g69
g70
NtRp2749
(dp2750
g73
(dp2751
g81
I3
ssg82
g2745
sg75
(lp2752
g1275
asbasbasbag68
(g84
g70
NtRp2753
(dp2754
g73
(dp2755
sg82
g2623
sg75
(lp2756
g68
(g89
g70
NtRp2757
(dp2758
g73
(dp2759
g93
g94
ssg82
g2753
sg75
(lp2760
S'HTTP_COOKIE'
p2761
asbag68
(g89
g70
NtRp2762
(dp2763
g73
(dp2764
g100
g101
ssg82
g2753
sg75
(lp2765
S':'
asbag68
(g89
g70
NtRp2766
(dp2767
g73
(dp2768
sg82
g2753
sg75
(lp2769
g68
(g69
g70
NtRp2770
(dp2771
g73
(dp2772
g81
I3
ssg82
g2766
sg75
(lp2773
g1297
asbasbasbag68
(g84
g70
NtRp2774
(dp2775
g73
(dp2776
sg82
g2623
sg75
(lp2777
g68
(g89
g70
NtRp2778
(dp2779
g73
(dp2780
g93
g94
ssg82
g2774
sg75
(lp2781
S'HTTP_HOST'
p2782
asbag68
(g89
g70
NtRp2783
(dp2784
g73
(dp2785
g100
g101
ssg82
g2774
sg75
(lp2786
S':'
asbag68
(g89
g70
NtRp2787
(dp2788
g73
(dp2789
sg82
g2774
sg75
(lp2790
g68
(g69
g70
NtRp2791
(dp2792
g73
(dp2793
g81
I3
ssg82
g2787
sg75
(lp2794
g1319
asbasbasbag68
(g84
g70
NtRp2795
(dp2796
g73
(dp2797
sg82
g2623
sg75
(lp2798
g68
(g89
g70
NtRp2799
(dp2800
g73
(dp2801
g93
g94
ssg82
g2795
sg75
(lp2802
S'HTTP_USER_AGENT'
p2803
asbag68
(g89
g70
NtRp2804
(dp2805
g73
(dp2806
g100
g101
ssg82
g2795
sg75
(lp2807
S':'
asbag68
(g89
g70
NtRp2808
(dp2809
g73
(dp2810
sg82
g2795
sg75
(lp2811
g68
(g69
g70
NtRp2812
(dp2813
g73
(dp2814
g81
I3
ssg82
g2808
sg75
(lp2815
g1341
asbasbasbag68
(g84
g70
NtRp2816
(dp2817
g73
(dp2818
sg82
g2623
sg75
(lp2819
g68
(g89
g70
NtRp2820
(dp2821
g73
(dp2822
g93
g94
ssg82
g2816
sg75
(lp2823
S'PATH_INFO'
p2824
asbag68
(g89
g70
NtRp2825
(dp2826
g73
(dp2827
g100
g101
ssg82
g2816
sg75
(lp2828
S':'
asbag68
(g89
g70
NtRp2829
(dp2830
g73
(dp2831
sg82
g2816
sg75
(lp2832
g68
(g69
g70
NtRp2833
(dp2834
g73
(dp2835
g81
I3
ssg82
g2829
sg75
(lp2836
g1405
asbasbasbag68
(g84
g70
NtRp2837
(dp2838
g73
(dp2839
sg82
g2623
sg75
(lp2840
g68
(g89
g70
NtRp2841
(dp2842
g73
(dp2843
g93
g94
ssg82
g2837
sg75
(lp2844
S'QUERY_STRING'
p2845
asbag68
(g89
g70
NtRp2846
(dp2847
g73
(dp2848
g100
g101
ssg82
g2837
sg75
(lp2849
S':'
asbag68
(g89
g70
NtRp2850
(dp2851
g73
(dp2852
sg82
g2837
sg75
(lp2853
g68
(g69
g70
NtRp2854
(dp2855
g73
(dp2856
g81
I3
ssg82
g2850
sg75
(lp2857
S''
asbasbasbag68
(g84
g70
NtRp2858
(dp2859
g73
(dp2860
sg82
g2623
sg75
(lp2861
g68
(g89
g70
NtRp2862
(dp2863
g73
(dp2864
g93
g94
ssg82
g2858
sg75
(lp2865
S'REMOTE_ADDR'
p2866
asbag68
(g89
g70
NtRp2867
(dp2868
g73
(dp2869
g100
g101
ssg82
g2858
sg75
(lp2870
S':'
asbag68
(g89
g70
NtRp2871
(dp2872
g73
(dp2873
sg82
g2858
sg75
(lp2874
g68
(g69
g70
NtRp2875
(dp2876
g73
(dp2877
g81
I3
ssg82
g2871
sg75
(lp2878
g339
asbasbasbag68
(g84
g70
NtRp2879
(dp2880
g73
(dp2881
sg82
g2623
sg75
(lp2882
g68
(g89
g70
NtRp2883
(dp2884
g73
(dp2885
g93
g94
ssg82
g2879
sg75
(lp2886
S'REMOTE_PORT'
p2887
asbag68
(g89
g70
NtRp2888
(dp2889
g73
(dp2890
g100
g101
ssg82
g2879
sg75
(lp2891
S':'
asbag68
(g89
g70
NtRp2892
(dp2893
g73
(dp2894
sg82
g2879
sg75
(lp2895
g68
(g69
g70
NtRp2896
(dp2897
g73
(dp2898
g81
I3
ssg82
g2892
sg75
(lp2899
g1469
asbasbasbag68
(g84
g70
NtRp2900
(dp2901
g73
(dp2902
sg82
g2623
sg75
(lp2903
g68
(g89
g70
NtRp2904
(dp2905
g73
(dp2906
g93
g94
ssg82
g2900
sg75
(lp2907
S'REQUEST_METHOD'
p2908
asbag68
(g89
g70
NtRp2909
(dp2910
g73
(dp2911
g100
g101
ssg82
g2900
sg75
(lp2912
S':'
asbag68
(g89
g70
NtRp2913
(dp2914
g73
(dp2915
sg82
g2900
sg75
(lp2916
g68
(g69
g70
NtRp2917
(dp2918
g73
(dp2919
g81
I3
ssg82
g2913
sg75
(lp2920
g1491
asbasbasbag68
(g84
g70
NtRp2921
(dp2922
g73
(dp2923
sg82
g2623
sg75
(lp2924
g68
(g89
g70
NtRp2925
(dp2926
g73
(dp2927
g93
g94
ssg82
g2921
sg75
(lp2928
S'SCRIPT_NAME'
p2929
asbag68
(g89
g70
NtRp2930
(dp2931
g73
(dp2932
g100
g101
ssg82
g2921
sg75
(lp2933
S':'
asbag68
(g89
g70
NtRp2934
(dp2935
g73
(dp2936
sg82
g2921
sg75
(lp2937
g68
(g69
g70
NtRp2938
(dp2939
g73
(dp2940
g81
I3
ssg82
g2934
sg75
(lp2941
S''
asbasbasbag68
(g84
g70
NtRp2942
(dp2943
g73
(dp2944
sg82
g2623
sg75
(lp2945
g68
(g89
g70
NtRp2946
(dp2947
g73
(dp2948
g93
g94
ssg82
g2942
sg75
(lp2949
S'SERVER_NAME'
p2950
asbag68
(g89
g70
NtRp2951
(dp2952
g73
(dp2953
g100
g101
ssg82
g2942
sg75
(lp2954
S':'
asbag68
(g89
g70
NtRp2955
(dp2956
g73
(dp2957
sg82
g2942
sg75
(lp2958
g68
(g69
g70
NtRp2959
(dp2960
g73
(dp2961
g81
I3
ssg82
g2955
sg75
(lp2962
g1534
asbasbasbag68
(g84
g70
NtRp2963
(dp2964
g73
(dp2965
sg82
g2623
sg75
(lp2966
g68
(g89
g70
NtRp2967
(dp2968
g73
(dp2969
g93
g94
ssg82
g2963
sg75
(lp2970
S'SERVER_PORT'
p2971
asbag68
(g89
g70
NtRp2972
(dp2973
g73
(dp2974
g100
g101
ssg82
g2963
sg75
(lp2975
S':'
asbag68
(g89
g70
NtRp2976
(dp2977
g73
(dp2978
sg82
g2963
sg75
(lp2979
g68
(g69
g70
NtRp2980
(dp2981
g73
(dp2982
g81
I3
ssg82
g2976
sg75
(lp2983
g1556
asbasbasbag68
(g84
g70
NtRp2984
(dp2985
g73
(dp2986
sg82
g2623
sg75
(lp2987
g68
(g89
g70
NtRp2988
(dp2989
g73
(dp2990
g93
g94
ssg82
g2984
sg75
(lp2991
S'SERVER_PROTOCOL'
p2992
asbag68
(g89
g70
NtRp2993
(dp2994
g73
(dp2995
g100
g101
ssg82
g2984
sg75
(lp2996
S':'
asbag68
(g89
g70
NtRp2997
(dp2998
g73
(dp2999
sg82
g2984
sg75
(lp3000
g68
(g69
g70
NtRp3001
(dp3002
g73
(dp3003
g81
I3
ssg82
g2997
sg75
(lp3004
g1578
asbasbasbag68
(g84
g70
NtRp3005
(dp3006
g73
(dp3007
sg82
g2623
sg75
(lp3008
g68
(g89
g70
NtRp3009
(dp3010
g73
(dp3011
g93
g94
ssg82
g3005
sg75
(lp3012
S'SERVER_SOFTWARE'
p3013
asbag68
(g89
g70
NtRp3014
(dp3015
g73
(dp3016
g100
g101
ssg82
g3005
sg75
(lp3017
S':'
asbag68
(g89
g70
NtRp3018
(dp3019
g73
(dp3020
sg82
g3005
sg75
(lp3021
g68
(g69
g70
NtRp3022
(dp3023
g73
(dp3024
g81
I3
ssg82
g3018
sg75
(lp3025
g1600
asbasbasbag68
(g84
g70
NtRp3026
(dp3027
g73
(dp3028
sg82
g2623
sg75
(lp3029
g68
(g89
g70
NtRp3030
(dp3031
g73
(dp3032
g93
g94
ssg82
g3026
sg75
(lp3033
S'wsgi.errors'
p3034
asbag68
(g89
g70
NtRp3035
(dp3036
g73
(dp3037
g100
g101
ssg82
g3026
sg75
(lp3038
S':'
asbag68
(g89
g70
NtRp3039
(dp3040
g73
(dp3041
sg82
g3026
sg75
(lp3042
g68
(g69
g70
NtRp3043
(dp3044
g73
(dp3045
g81
I3
ssg82
g3039
sg75
(lp3046
S"<open file '<stderr>', mode 'w' at 0x0000000001D4E1E0>"
p3047
asbasbasbag68
(g84
g70
NtRp3048
(dp3049
g73
(dp3050
sg82
g2623
sg75
(lp3051
g68
(g89
g70
NtRp3052
(dp3053
g73
(dp3054
g93
g94
ssg82
g3048
sg75
(lp3055
S'wsgi.file_wrapper'
p3056
asbag68
(g89
g70
NtRp3057
(dp3058
g73
(dp3059
g100
g101
ssg82
g3048
sg75
(lp3060
S':'
asbag68
(g89
g70
NtRp3061
(dp3062
g73
(dp3063
sg82
g3048
sg75
(lp3064
g68
(g69
g70
NtRp3065
(dp3066
g73
(dp3067
g81
I3
ssg82
g3061
sg75
(lp3068
S'<class wsgiref.util.FileWrapper at 0x0000000003420AC8>'
p3069
asbasbasbag68
(g84
g70
NtRp3070
(dp3071
g73
(dp3072
sg82
g2623
sg75
(lp3073
g68
(g89
g70
NtRp3074
(dp3075
g73
(dp3076
g93
g94
ssg82
g3070
sg75
(lp3077
S'wsgi.input'
p3078
asbag68
(g89
g70
NtRp3079
(dp3080
g73
(dp3081
g100
g101
ssg82
g3070
sg75
(lp3082
S':'
asbag68
(g89
g70
NtRp3083
(dp3084
g73
(dp3085
sg82
g3070
sg75
(lp3086
g68
(g69
g70
NtRp3087
(dp3088
g73
(dp3089
g81
I3
ssg82
g3083
sg75
(lp3090
S'<cStringIO.StringO object at 0x0000000008F540A0>'
p3091
asbasbasbag68
(g84
g70
NtRp3092
(dp3093
g73
(dp3094
sg82
g2623
sg75
(lp3095
g68
(g89
g70
NtRp3096
(dp3097
g73
(dp3098
g93
g94
ssg82
g3092
sg75
(lp3099
S'wsgi.multiprocess'
p3100
asbag68
(g89
g70
NtRp3101
(dp3102
g73
(dp3103
g100
g101
ssg82
g3092
sg75
(lp3104
S':'
asbag68
(g89
g70
NtRp3105
(dp3106
g73
(dp3107
sg82
g3092
sg75
(lp3108
g68
(g69
g70
NtRp3109
(dp3110
g73
(dp3111
g81
I3
ssg82
g3105
sg75
(lp3112
g111
asbasbasbag68
(g84
g70
NtRp3113
(dp3114
g73
(dp3115
sg82
g2623
sg75
(lp3116
g68
(g89
g70
NtRp3117
(dp3118
g73
(dp3119
g93
g94
ssg82
g3113
sg75
(lp3120
S'wsgi.multithread'
p3121
asbag68
(g89
g70
NtRp3122
(dp3123
g73
(dp3124
g100
g101
ssg82
g3113
sg75
(lp3125
S':'
asbag68
(g89
g70
NtRp3126
(dp3127
g73
(dp3128
sg82
g3113
sg75
(lp3129
g68
(g69
g70
NtRp3130
(dp3131
g73
(dp3132
g81
I3
ssg82
g3126
sg75
(lp3133
g1840
asbasbasbag68
(g84
g70
NtRp3134
(dp3135
g73
(dp3136
sg82
g2623
sg75
(lp3137
g68
(g89
g70
NtRp3138
(dp3139
g73
(dp3140
g93
g94
ssg82
g3134
sg75
(lp3141
S'wsgi.run_once'
p3142
asbag68
(g89
g70
NtRp3143
(dp3144
g73
(dp3145
g100
g101
ssg82
g3134
sg75
(lp3146
S':'
asbag68
(g89
g70
NtRp3147
(dp3148
g73
(dp3149
sg82
g3134
sg75
(lp3150
g68
(g69
g70
NtRp3151
(dp3152
g73
(dp3153
g81
I3
ssg82
g3147
sg75
(lp3154
g111
asbasbasbag68
(g84
g70
NtRp3155
(dp3156
g73
(dp3157
sg82
g2623
sg75
(lp3158
g68
(g89
g70
NtRp3159
(dp3160
g73
(dp3161
g93
g94
ssg82
g3155
sg75
(lp3162
S'wsgi.url_scheme'
p3163
asbag68
(g89
g70
NtRp3164
(dp3165
g73
(dp3166
g100
g101
ssg82
g3155
sg75
(lp3167
S':'
asbag68
(g89
g70
NtRp3168
(dp3169
g73
(dp3170
sg82
g3155
sg75
(lp3171
g68
(g69
g70
NtRp3172
(dp3173
g73
(dp3174
g81
I3
ssg82
g3168
sg75
(lp3175
g1883
asbasbasbag68
(g84
g70
NtRp3176
(dp3177
g73
(dp3178
sg82
g2623
sg75
(lp3179
g68
(g89
g70
NtRp3180
(dp3181
g73
(dp3182
g93
g94
ssg82
g3176
sg75
(lp3183
S'wsgi.version'
p3184
asbag68
(g89
g70
NtRp3185
(dp3186
g73
(dp3187
g100
g101
ssg82
g3176
sg75
(lp3188
S':'
asbag68
(g89
g70
NtRp3189
(dp3190
g73
(dp3191
sg82
g3176
sg75
(lp3192
g68
(g69
g70
NtRp3193
(dp3194
g73
(dp3195
g81
I3
ssg82
g3189
sg75
(lp3196
S'1'
asbasbasbasbasbasbasbasbasbasbasbasbasbsS'frames'
p3197
(lp3198
(dp3199
S'file'
p3200
S'D:\\workspace\\ca\\IgoR\\C_Sources\\Server\\igor-assistant-ca-2012\\gluon\\restricted.py'
p3201
sS'dump'
p3202
(dp3203
S'code'
p3204
S"'# -*- coding: utf-8 -*-\\n# this file is released ...\\n\\nresponse._vars=response._caller(add_class_job)\\n'"
p3205
sS'layer'
p3206
S"r'D:\\workspace\\ca\\IgoR\\C_Sources\\Server\\igor-assistant-ca-2012\\applications\\igor\\controllers/jobs.py'"
p3207
sS'global compile2'
p3208
S'<function compile2>'
p3209
sS'ccode'
p3210
S'undefined'
p3211
ssS'lnum'
p3212
I204
sS'lines'
p3213
(dp3214
I199
S"    environment['__name__'] = '__restricted__'"
p3215
sI200
S'    try:'
p3216
sI201
S'        if type(code) == types.CodeType:'
p3217
sI202
S'            ccode = code'
p3218
sI203
S'        else:'
p3219
sI204
S'            ccode = compile2(code,layer)'
p3220
sI205
S'        exec ccode in environment'
p3221
sI206
S'    except HTTP:'
p3222
sI207
S'        raise'
p3223
sI208
S'    except RestrictedError:'
p3224
ssS'call'
p3225
S"(code='# -*- coding: utf-8 -*-\\n# this file is released ...\\n\\nresponse._vars=response._caller(add_class_job)\\n', environment={'A': <class 'gluon.html.A'>, 'Auth': <class 'gluon.tools.Auth'>, 'B': <class 'gluon.html.B'>, 'BEAUTIFY': <class 'gluon.html.BEAUTIFY'>, 'BODY': <class 'gluon.html.BODY'>, 'BR': <class 'gluon.html.BR'>, 'BUTTON': <class 'gluon.html.BUTTON'>, 'CAT': <class 'gluon.html.CAT'>, 'CENTER': <class 'gluon.html.CENTER'>, 'CLEANUP': <class 'gluon.validators.CLEANUP'>, ...}, layer=r'D:\\workspace\\ca\\IgoR\\C_Sources\\Server\\igor-assistant-ca-2012\\applications\\igor\\controllers/jobs.py')"
p3226
sS'func'
p3227
S'restricted'
p3228
sa(dp3229
g3200
S'D:\\workspace\\ca\\IgoR\\C_Sources\\Server\\igor-assistant-ca-2012\\gluon\\restricted.py'
p3230
sg3202
(dp3231
S'builtincompile'
p3232
S'<built-in function compile>'
p3233
sS'code'
p3234
S"'# -*- coding: utf-8 -*-\\n# this file is released ...\\n\\nresponse._vars=response._caller(add_class_job)\\n'"
p3235
sS'code.rstrip'
p3236
S'<built-in method rstrip of str object>'
p3237
sS').replace'
p3238
g3211
sS'layer'
p3239
S"r'D:\\workspace\\ca\\IgoR\\C_Sources\\Server\\igor-assistant-ca-2012\\applications\\igor\\controllers/jobs.py'"
p3240
ssg3212
I189
sg3213
(dp3241
I192
S'    """'
p3242
sI193
S'    runs code in environment and returns the output. if an exception occurs'
p3243
sI184
S''
sI185
S'def compile2(code,layer):'
p3244
sI186
S'    """'
p3245
sI187
S"    The +'\\n' is necessary else compile fails when code ends in a comment."
p3246
sI188
S'    """'
p3247
sI189
S"    return compile(code.rstrip().replace('\\r\\n','\\n')+'\\n', layer, 'exec')"
p3248
sI190
S''
sI191
S"def restricted(code, environment=None, layer='Unknown'):"
p3249
ssg3225
S"(code='# -*- coding: utf-8 -*-\\n# this file is released ...\\n\\nresponse._vars=response._caller(add_class_job)\\n', layer=r'D:\\workspace\\ca\\IgoR\\C_Sources\\Server\\igor-assistant-ca-2012\\applications\\igor\\controllers/jobs.py')"
p3250
sg3227
S'compile2'
p3251
sasS'pyver'
p3252
S'Python 2.7.3: C:\\Python27\\python.exe'
p3253
sS'session'
p3254
g68
(g69
g70
NtRp3255
(dp3256
g73
(dp3257
sg75
(lp3258
g68
(g77
g70
NtRp3259
(dp3260
g73
(dp3261
g81
I5
ssg82
Nsg75
(lp3262
sbasbsS'etype'
p3263
S"<type 'exceptions.IndentationError'>"
p3264
sS'date'
p3265
S'Mon Jul 30 21:14:24 2012'
p3266
sS'response'
p3267
g68
(g69
g70
NtRp3268
(dp3269
g73
(dp3270
sg75
(lp3271
g68
(g77
g70
NtRp3272
(dp3273
g73
(dp3274
g81
I5
ssg82
Nsg75
(lp3275
g68
(g84
g70
NtRp3276
(dp3277
g73
(dp3278
sg82
g3272
sg75
(lp3279
g68
(g89
g70
NtRp3280
(dp3281
g73
(dp3282
g93
g94
ssg82
g3276
sg75
(lp3283
g304
asbag68
(g89
g70
NtRp3284
(dp3285
g73
(dp3286
g100
g101
ssg82
g3276
sg75
(lp3287
S':'
asbag68
(g89
g70
NtRp3288
(dp3289
g73
(dp3290
sg82
g3276
sg75
(lp3291
g68
(g69
g70
NtRp3292
(dp3293
g73
(dp3294
g81
I5
ssg82
g3288
sg75
(lp3295
S'<cStringIO.StringO object at 0x0000000005CDCC70>'
p3296
asbasbasbag68
(g84
g70
NtRp3297
(dp3298
g73
(dp3299
sg82
g3272
sg75
(lp3300
g68
(g89
g70
NtRp3301
(dp3302
g73
(dp3303
g93
g94
ssg82
g3297
sg75
(lp3304
g370
asbag68
(g89
g70
NtRp3305
(dp3306
g73
(dp3307
g100
g101
ssg82
g3297
sg75
(lp3308
S':'
asbag68
(g89
g70
NtRp3309
(dp3310
g73
(dp3311
sg82
g3297
sg75
(lp3312
g68
(g69
g70
NtRp3313
(dp3314
g73
(dp3315
g81
I5
ssg82
g3309
sg75
(lp3316
g68
(g77
g70
NtRp3317
(dp3318
g73
(dp3319
g81
I4
ssg82
Nsg75
(lp3320
g68
(g84
g70
NtRp3321
(dp3322
g73
(dp3323
sg82
g3317
sg75
(lp3324
g68
(g89
g70
NtRp3325
(dp3326
g73
(dp3327
g93
g94
ssg82
g3321
sg75
(lp3328
S'session_id_igor'
p3329
asbag68
(g89
g70
NtRp3330
(dp3331
g73
(dp3332
g100
g101
ssg82
g3321
sg75
(lp3333
S':'
asbag68
(g89
g70
NtRp3334
(dp3335
g73
(dp3336
sg82
g3321
sg75
(lp3337
g68
(g69
g70
NtRp3338
(dp3339
g73
(dp3340
g81
I4
ssg82
g3334
sg75
(lp3341
g68
(g77
g70
NtRp3342
(dp3343
g73
(dp3344
g81
I3
ssg82
Nsg75
(lp3345
g68
(g84
g70
NtRp3346
(dp3347
g73
(dp3348
sg82
g3342
sg75
(lp3349
g68
(g89
g70
NtRp3350
(dp3351
g73
(dp3352
g93
g94
ssg82
g3346
sg75
(lp3353
g420
asbag68
(g89
g70
NtRp3354
(dp3355
g73
(dp3356
g100
g101
ssg82
g3346
sg75
(lp3357
S':'
asbag68
(g89
g70
NtRp3358
(dp3359
g73
(dp3360
sg82
g3346
sg75
(lp3361
g68
(g69
g70
NtRp3362
(dp3363
g73
(dp3364
g81
I3
ssg82
g3358
sg75
(lp3365
S''
asbasbasbag68
(g84
g70
NtRp3366
(dp3367
g73
(dp3368
sg82
g3342
sg75
(lp3369
g68
(g89
g70
NtRp3370
(dp3371
g73
(dp3372
g93
g94
ssg82
g3366
sg75
(lp3373
g441
asbag68
(g89
g70
NtRp3374
(dp3375
g73
(dp3376
g100
g101
ssg82
g3366
sg75
(lp3377
S':'
asbag68
(g89
g70
NtRp3378
(dp3379
g73
(dp3380
sg82
g3366
sg75
(lp3381
g68
(g69
g70
NtRp3382
(dp3383
g73
(dp3384
g81
I3
ssg82
g3378
sg75
(lp3385
S''
asbasbasbag68
(g84
g70
NtRp3386
(dp3387
g73
(dp3388
sg82
g3342
sg75
(lp3389
g68
(g89
g70
NtRp3390
(dp3391
g73
(dp3392
g93
g94
ssg82
g3386
sg75
(lp3393
g462
asbag68
(g89
g70
NtRp3394
(dp3395
g73
(dp3396
g100
g101
ssg82
g3386
sg75
(lp3397
S':'
asbag68
(g89
g70
NtRp3398
(dp3399
g73
(dp3400
sg82
g3386
sg75
(lp3401
g68
(g69
g70
NtRp3402
(dp3403
g73
(dp3404
g81
I3
ssg82
g3398
sg75
(lp3405
S''
asbasbasbag68
(g84
g70
NtRp3406
(dp3407
g73
(dp3408
sg82
g3342
sg75
(lp3409
g68
(g89
g70
NtRp3410
(dp3411
g73
(dp3412
g93
g94
ssg82
g3406
sg75
(lp3413
g483
asbag68
(g89
g70
NtRp3414
(dp3415
g73
(dp3416
g100
g101
ssg82
g3406
sg75
(lp3417
S':'
asbag68
(g89
g70
NtRp3418
(dp3419
g73
(dp3420
sg82
g3406
sg75
(lp3421
g68
(g69
g70
NtRp3422
(dp3423
g73
(dp3424
g81
I3
ssg82
g3418
sg75
(lp3425
S''
asbasbasbag68
(g84
g70
NtRp3426
(dp3427
g73
(dp3428
sg82
g3342
sg75
(lp3429
g68
(g89
g70
NtRp3430
(dp3431
g73
(dp3432
g93
g94
ssg82
g3426
sg75
(lp3433
g504
asbag68
(g89
g70
NtRp3434
(dp3435
g73
(dp3436
g100
g101
ssg82
g3426
sg75
(lp3437
S':'
asbag68
(g89
g70
NtRp3438
(dp3439
g73
(dp3440
sg82
g3426
sg75
(lp3441
g68
(g69
g70
NtRp3442
(dp3443
g73
(dp3444
g81
I3
ssg82
g3438
sg75
(lp3445
S''
asbasbasbag68
(g84
g70
NtRp3446
(dp3447
g73
(dp3448
sg82
g3342
sg75
(lp3449
g68
(g89
g70
NtRp3450
(dp3451
g73
(dp3452
g93
g94
ssg82
g3446
sg75
(lp3453
g525
asbag68
(g89
g70
NtRp3454
(dp3455
g73
(dp3456
g100
g101
ssg82
g3446
sg75
(lp3457
S':'
asbag68
(g89
g70
NtRp3458
(dp3459
g73
(dp3460
sg82
g3446
sg75
(lp3461
g68
(g69
g70
NtRp3462
(dp3463
g73
(dp3464
g81
I3
ssg82
g3458
sg75
(lp3465
S'/'
asbasbasbag68
(g84
g70
NtRp3466
(dp3467
g73
(dp3468
sg82
g3342
sg75
(lp3469
g68
(g89
g70
NtRp3470
(dp3471
g73
(dp3472
g93
g94
ssg82
g3466
sg75
(lp3473
g546
asbag68
(g89
g70
NtRp3474
(dp3475
g73
(dp3476
g100
g101
ssg82
g3466
sg75
(lp3477
S':'
asbag68
(g89
g70
NtRp3478
(dp3479
g73
(dp3480
sg82
g3466
sg75
(lp3481
g68
(g69
g70
NtRp3482
(dp3483
g73
(dp3484
g81
I3
ssg82
g3478
sg75
(lp3485
S''
asbasbasbag68
(g84
g70
NtRp3486
(dp3487
g73
(dp3488
sg82
g3342
sg75
(lp3489
g68
(g89
g70
NtRp3490
(dp3491
g73
(dp3492
g93
g94
ssg82
g3486
sg75
(lp3493
g567
asbag68
(g89
g70
NtRp3494
(dp3495
g73
(dp3496
g100
g101
ssg82
g3486
sg75
(lp3497
S':'
asbag68
(g89
g70
NtRp3498
(dp3499
g73
(dp3500
sg82
g3486
sg75
(lp3501
g68
(g69
g70
NtRp3502
(dp3503
g73
(dp3504
g81
I3
ssg82
g3498
sg75
(lp3505
S''
asbasbasbasbasbasbasbasbasbasbasbag68
(g84
g70
NtRp3506
(dp3507
g73
(dp3508
sg82
g3272
sg75
(lp3509
g68
(g89
g70
NtRp3510
(dp3511
g73
(dp3512
g93
g94
ssg82
g3506
sg75
(lp3513
S'delimiters'
p3514
asbag68
(g89
g70
NtRp3515
(dp3516
g73
(dp3517
g100
g101
ssg82
g3506
sg75
(lp3518
S':'
asbag68
(g89
g70
NtRp3519
(dp3520
g73
(dp3521
sg82
g3506
sg75
(lp3522
g68
(g69
g70
NtRp3523
(dp3524
g73
(dp3525
g81
I5
ssg82
g3519
sg75
(lp3526
g68
(g77
g70
NtRp3527
(dp3528
g73
(dp3529
g81
I4
ssg82
Nsg75
(lp3530
g68
(g84
g70
NtRp3531
(dp3532
g73
(dp3533
sg82
g3527
sg75
(lp3534
g68
(g89
g70
NtRp3535
(dp3536
g73
(dp3537
sg82
g3531
sg75
(lp3538
g68
(g69
g70
NtRp3539
(dp3540
g73
(dp3541
g81
I4
ssg82
g3535
sg75
(lp3542
S'{{'
p3543
asbasbasbag68
(g84
g70
NtRp3544
(dp3545
g73
(dp3546
sg82
g3527
sg75
(lp3547
g68
(g89
g70
NtRp3548
(dp3549
g73
(dp3550
sg82
g3544
sg75
(lp3551
g68
(g69
g70
NtRp3552
(dp3553
g73
(dp3554
g81
I4
ssg82
g3548
sg75
(lp3555
S'}}'
p3556
asbasbasbasbasbasbasbag68
(g84
g70
NtRp3557
(dp3558
g73
(dp3559
sg82
g3272
sg75
(lp3560
g68
(g89
g70
NtRp3561
(dp3562
g73
(dp3563
g93
g94
ssg82
g3557
sg75
(lp3564
S'files'
p3565
asbag68
(g89
g70
NtRp3566
(dp3567
g73
(dp3568
g100
g101
ssg82
g3557
sg75
(lp3569
S':'
asbag68
(g89
g70
NtRp3570
(dp3571
g73
(dp3572
sg82
g3557
sg75
(lp3573
g68
(g69
g70
NtRp3574
(dp3575
g73
(dp3576
g81
I5
ssg82
g3570
sg75
(lp3577
g68
(g77
g70
NtRp3578
(dp3579
g73
(dp3580
g81
I4
ssg82
Nsg75
(lp3581
sbasbasbasbag68
(g84
g70
NtRp3582
(dp3583
g73
(dp3584
sg82
g3272
sg75
(lp3585
g68
(g89
g70
NtRp3586
(dp3587
g73
(dp3588
g93
g94
ssg82
g3582
sg75
(lp3589
S'flash'
p3590
asbag68
(g89
g70
NtRp3591
(dp3592
g73
(dp3593
g100
g101
ssg82
g3582
sg75
(lp3594
S':'
asbag68
(g89
g70
NtRp3595
(dp3596
g73
(dp3597
sg82
g3582
sg75
(lp3598
g68
(g69
g70
NtRp3599
(dp3600
g73
(dp3601
g81
I5
ssg82
g3595
sg75
(lp3602
S''
asbasbasbag68
(g84
g70
NtRp3603
(dp3604
g73
(dp3605
sg82
g3272
sg75
(lp3606
g68
(g89
g70
NtRp3607
(dp3608
g73
(dp3609
g93
g94
ssg82
g3603
sg75
(lp3610
S'generic_patterns'
p3611
asbag68
(g89
g70
NtRp3612
(dp3613
g73
(dp3614
g100
g101
ssg82
g3603
sg75
(lp3615
S':'
asbag68
(g89
g70
NtRp3616
(dp3617
g73
(dp3618
sg82
g3603
sg75
(lp3619
g68
(g69
g70
NtRp3620
(dp3621
g73
(dp3622
g81
I5
ssg82
g3616
sg75
(lp3623
g68
(g77
g70
NtRp3624
(dp3625
g73
(dp3626
g81
I4
ssg82
Nsg75
(lp3627
g68
(g84
g70
NtRp3628
(dp3629
g73
(dp3630
sg82
g3624
sg75
(lp3631
g68
(g89
g70
NtRp3632
(dp3633
g73
(dp3634
sg82
g3628
sg75
(lp3635
g68
(g69
g70
NtRp3636
(dp3637
g73
(dp3638
g81
I4
ssg82
g3632
sg75
(lp3639
S'*'
asbasbasbasbasbasbasbag68
(g84
g70
NtRp3640
(dp3641
g73
(dp3642
sg82
g3272
sg75
(lp3643
g68
(g89
g70
NtRp3644
(dp3645
g73
(dp3646
g93
g94
ssg82
g3640
sg75
(lp3647
S'headers'
p3648
asbag68
(g89
g70
NtRp3649
(dp3650
g73
(dp3651
g100
g101
ssg82
g3640
sg75
(lp3652
S':'
asbag68
(g89
g70
NtRp3653
(dp3654
g73
(dp3655
sg82
g3640
sg75
(lp3656
g68
(g69
g70
NtRp3657
(dp3658
g73
(dp3659
g81
I5
ssg82
g3653
sg75
(lp3660
g68
(g77
g70
NtRp3661
(dp3662
g73
(dp3663
g81
I4
ssg82
Nsg75
(lp3664
g68
(g84
g70
NtRp3665
(dp3666
g73
(dp3667
sg82
g3661
sg75
(lp3668
g68
(g89
g70
NtRp3669
(dp3670
g73
(dp3671
g93
g94
ssg82
g3665
sg75
(lp3672
S'Cache-Control'
p3673
asbag68
(g89
g70
NtRp3674
(dp3675
g73
(dp3676
g100
g101
ssg82
g3665
sg75
(lp3677
S':'
asbag68
(g89
g70
NtRp3678
(dp3679
g73
(dp3680
sg82
g3665
sg75
(lp3681
g68
(g69
g70
NtRp3682
(dp3683
g73
(dp3684
g81
I4
ssg82
g3678
sg75
(lp3685
S'no-store, no-cache, must-revalidate, post-check=0, pre-check=0'
p3686
asbasbasbag68
(g84
g70
NtRp3687
(dp3688
g73
(dp3689
sg82
g3661
sg75
(lp3690
g68
(g89
g70
NtRp3691
(dp3692
g73
(dp3693
g93
g94
ssg82
g3687
sg75
(lp3694
S'Content-Type'
p3695
asbag68
(g89
g70
NtRp3696
(dp3697
g73
(dp3698
g100
g101
ssg82
g3687
sg75
(lp3699
S':'
asbag68
(g89
g70
NtRp3700
(dp3701
g73
(dp3702
sg82
g3687
sg75
(lp3703
g68
(g69
g70
NtRp3704
(dp3705
g73
(dp3706
g81
I4
ssg82
g3700
sg75
(lp3707
S'text/html; charset=utf-8'
p3708
asbasbasbag68
(g84
g70
NtRp3709
(dp3710
g73
(dp3711
sg82
g3661
sg75
(lp3712
g68
(g89
g70
NtRp3713
(dp3714
g73
(dp3715
g93
g94
ssg82
g3709
sg75
(lp3716
S'Expires'
p3717
asbag68
(g89
g70
NtRp3718
(dp3719
g73
(dp3720
g100
g101
ssg82
g3709
sg75
(lp3721
S':'
asbag68
(g89
g70
NtRp3722
(dp3723
g73
(dp3724
sg82
g3709
sg75
(lp3725
g68
(g69
g70
NtRp3726
(dp3727
g73
(dp3728
g81
I4
ssg82
g3722
sg75
(lp3729
S'Mon, 30 Jul 2012 14:14:24 GMT'
p3730
asbasbasbag68
(g84
g70
NtRp3731
(dp3732
g73
(dp3733
sg82
g3661
sg75
(lp3734
g68
(g89
g70
NtRp3735
(dp3736
g73
(dp3737
g93
g94
ssg82
g3731
sg75
(lp3738
S'Pragma'
p3739
asbag68
(g89
g70
NtRp3740
(dp3741
g73
(dp3742
g100
g101
ssg82
g3731
sg75
(lp3743
S':'
asbag68
(g89
g70
NtRp3744
(dp3745
g73
(dp3746
sg82
g3731
sg75
(lp3747
g68
(g69
g70
NtRp3748
(dp3749
g73
(dp3750
g81
I4
ssg82
g3744
sg75
(lp3751
S'no-cache'
p3752
asbasbasbag68
(g84
g70
NtRp3753
(dp3754
g73
(dp3755
sg82
g3661
sg75
(lp3756
g68
(g89
g70
NtRp3757
(dp3758
g73
(dp3759
g93
g94
ssg82
g3753
sg75
(lp3760
S'X-Powered-By'
p3761
asbag68
(g89
g70
NtRp3762
(dp3763
g73
(dp3764
g100
g101
ssg82
g3753
sg75
(lp3765
S':'
asbag68
(g89
g70
NtRp3766
(dp3767
g73
(dp3768
sg82
g3753
sg75
(lp3769
g68
(g69
g70
NtRp3770
(dp3771
g73
(dp3772
g81
I4
ssg82
g3766
sg75
(lp3773
S'web2py'
p3774
asbasbasbasbasbasbasbag68
(g84
g70
NtRp3775
(dp3776
g73
(dp3777
sg82
g3272
sg75
(lp3778
g68
(g89
g70
NtRp3779
(dp3780
g73
(dp3781
g93
g94
ssg82
g3775
sg75
(lp3782
S'menu'
p3783
asbag68
(g89
g70
NtRp3784
(dp3785
g73
(dp3786
g100
g101
ssg82
g3775
sg75
(lp3787
S':'
asbag68
(g89
g70
NtRp3788
(dp3789
g73
(dp3790
sg82
g3775
sg75
(lp3791
g68
(g69
g70
NtRp3792
(dp3793
g73
(dp3794
g81
I5
ssg82
g3788
sg75
(lp3795
g68
(g77
g70
NtRp3796
(dp3797
g73
(dp3798
g81
I4
ssg82
Nsg75
(lp3799
g68
(g84
g70
NtRp3800
(dp3801
g73
(dp3802
sg82
g3796
sg75
(lp3803
g68
(g89
g70
NtRp3804
(dp3805
g73
(dp3806
sg82
g3800
sg75
(lp3807
g68
(g69
g70
NtRp3808
(dp3809
g73
(dp3810
g81
I4
ssg82
g3804
sg75
(lp3811
g68
(g77
g70
NtRp3812
(dp3813
g73
(dp3814
g81
I3
ssg82
Nsg75
(lp3815
g68
(g84
g70
NtRp3816
(dp3817
g73
(dp3818
sg82
g3812
sg75
(lp3819
g68
(g89
g70
NtRp3820
(dp3821
g73
(dp3822
sg82
g3816
sg75
(lp3823
g68
(g69
g70
NtRp3824
(dp3825
g73
(dp3826
g81
I3
ssg82
g3820
sg75
(lp3827
cgluon.languages
lazyT_unpickle
p3828
(S't\x04\x00\x00\x00Home'
tRp3829
asbasbasbag68
(g84
g70
NtRp3830
(dp3831
g73
(dp3832
sg82
g3812
sg75
(lp3833
g68
(g89
g70
NtRp3834
(dp3835
g73
(dp3836
sg82
g3830
sg75
(lp3837
g68
(g69
g70
NtRp3838
(dp3839
g73
(dp3840
g81
I3
ssg82
g3834
sg75
(lp3841
g111
asbasbasbag68
(g84
g70
NtRp3842
(dp3843
g73
(dp3844
sg82
g3812
sg75
(lp3845
g68
(g89
g70
NtRp3846
(dp3847
g73
(dp3848
sg82
g3842
sg75
(lp3849
g68
(g69
g70
NtRp3850
(dp3851
g73
(dp3852
g81
I3
ssg82
g3846
sg75
(lp3853
S'/igor/default/index'
p3854
asbasbasbag68
(g84
g70
NtRp3855
(dp3856
g73
(dp3857
sg82
g3812
sg75
(lp3858
g68
(g89
g70
NtRp3859
(dp3860
g73
(dp3861
sg82
g3855
sg75
(lp3862
g68
(g69
g70
NtRp3863
(dp3864
g73
(dp3865
g81
I3
ssg82
g3859
sg75
(lp3866
g68
(g77
g70
NtRp3867
(dp3868
g73
(dp3869
g81
I2
ssg82
Nsg75
(lp3870
sbasbasbasbasbasbasbasbag68
(g84
g70
NtRp3871
(dp3872
g73
(dp3873
sg82
g3796
sg75
(lp3874
g68
(g89
g70
NtRp3875
(dp3876
g73
(dp3877
sg82
g3871
sg75
(lp3878
g68
(g69
g70
NtRp3879
(dp3880
g73
(dp3881
g81
I4
ssg82
g3875
sg75
(lp3882
g68
(g77
g70
NtRp3883
(dp3884
g73
(dp3885
g81
I3
ssg82
Nsg75
(lp3886
g68
(g84
g70
NtRp3887
(dp3888
g73
(dp3889
sg82
g3883
sg75
(lp3890
g68
(g89
g70
NtRp3891
(dp3892
g73
(dp3893
sg82
g3887
sg75
(lp3894
g68
(g69
g70
NtRp3895
(dp3896
g73
(dp3897
g81
I3
ssg82
g3891
sg75
(lp3898
g68
(cgluon.html
SPAN
p3899
g70
NtRp3900
(dp3901
g73
(dp3902
g93
S'color:yellow'
p3903
ssg82
Nsg75
(lp3904
g3774
asbasbasbasbag68
(g84
g70
NtRp3905
(dp3906
g73
(dp3907
sg82
g3883
sg75
(lp3908
g68
(g89
g70
NtRp3909
(dp3910
g73
(dp3911
sg82
g3905
sg75
(lp3912
g68
(g69
g70
NtRp3913
(dp3914
g73
(dp3915
g81
I3
ssg82
g3909
sg75
(lp3916
g111
asbasbasbag68
(g84
g70
NtRp3917
(dp3918
g73
(dp3919
sg82
g3883
sg75
(lp3920
g68
(g89
g70
NtRp3921
(dp3922
g73
(dp3923
sg82
g3917
sg75
(lp3924
g68
(g69
g70
NtRp3925
(dp3926
g73
(dp3927
g81
I3
ssg82
g3921
sg75
(lp3928
S'None'
p3929
asbasbasbag68
(g84
g70
NtRp3930
(dp3931
g73
(dp3932
sg82
g3883
sg75
(lp3933
g68
(g89
g70
NtRp3934
(dp3935
g73
(dp3936
sg82
g3930
sg75
(lp3937
g68
(g69
g70
NtRp3938
(dp3939
g73
(dp3940
g81
I3
ssg82
g3934
sg75
(lp3941
g68
(g77
g70
NtRp3942
(dp3943
g73
(dp3944
g81
I2
ssg82
Nsg75
(lp3945
g68
(g84
g70
NtRp3946
(dp3947
g73
(dp3948
sg82
g3942
sg75
(lp3949
g68
(g89
g70
NtRp3950
(dp3951
g73
(dp3952
sg82
g3946
sg75
(lp3953
g68
(g69
g70
NtRp3954
(dp3955
g73
(dp3956
g81
I2
ssg82
g3950
sg75
(lp3957
g68
(g77
g70
NtRp3958
(dp3959
g73
(dp3960
g81
I1
ssg82
Nsg75
(lp3961
g68
(g84
g70
NtRp3962
(dp3963
g73
(dp3964
sg82
g3958
sg75
(lp3965
g68
(g89
g70
NtRp3966
(dp3967
g73
(dp3968
sg82
g3962
sg75
(lp3969
g68
(g69
g70
NtRp3970
(dp3971
g73
(dp3972
g81
I1
ssg82
g3966
sg75
(lp3973
g3828
(S's\x08\x00\x00\x00My Sites'
tRp3974
asbasbasbag68
(g84
g70
NtRp3975
(dp3976
g73
(dp3977
sg82
g3958
sg75
(lp3978
g68
(g89
g70
NtRp3979
(dp3980
g73
(dp3981
sg82
g3975
sg75
(lp3982
g68
(g69
g70
NtRp3983
(dp3984
g73
(dp3985
g81
I1
ssg82
g3979
sg75
(lp3986
I00
asbasbasbag68
(g84
g70
NtRp3987
(dp3988
g73
(dp3989
sg82
g3958
sg75
(lp3990
g68
(g89
g70
NtRp3991
(dp3992
g73
(dp3993
sg82
g3987
sg75
(lp3994
g68
(g69
g70
NtRp3995
(dp3996
g73
(dp3997
g81
I1
ssg82
g3991
sg75
(lp3998
S'/admin/default/site'
p3999
asbasbasbasbasbasbasbag68
(g84
g70
NtRp4000
(dp4001
g73
(dp4002
sg82
g3942
sg75
(lp4003
g68
(g89
g70
NtRp4004
(dp4005
g73
(dp4006
sg82
g4000
sg75
(lp4007
g68
(g69
g70
NtRp4008
(dp4009
g73
(dp4010
g81
I2
ssg82
g4004
sg75
(lp4011
g68
(g77
g70
NtRp4012
(dp4013
g73
(dp4014
g81
I1
ssg82
Nsg75
(lp4015
g68
(g84
g70
NtRp4016
(dp4017
g73
(dp4018
sg82
g4012
sg75
(lp4019
g68
(g89
g70
NtRp4020
(dp4021
g73
(dp4022
sg82
g4016
sg75
(lp4023
g68
(g69
g70
NtRp4024
(dp4025
g73
(dp4026
g81
I1
ssg82
g4020
sg75
(lp4027
g3828
(S's\x08\x00\x00\x00This App'
tRp4028
asbasbasbag68
(g84
g70
NtRp4029
(dp4030
g73
(dp4031
sg82
g4012
sg75
(lp4032
g68
(g89
g70
NtRp4033
(dp4034
g73
(dp4035
sg82
g4029
sg75
(lp4036
g68
(g69
g70
NtRp4037
(dp4038
g73
(dp4039
g81
I1
ssg82
g4033
sg75
(lp4040
I00
asbasbasbag68
(g84
g70
NtRp4041
(dp4042
g73
(dp4043
sg82
g4012
sg75
(lp4044
g68
(g89
g70
NtRp4045
(dp4046
g73
(dp4047
sg82
g4041
sg75
(lp4048
g68
(g69
g70
NtRp4049
(dp4050
g73
(dp4051
g81
I1
ssg82
g4045
sg75
(lp4052
S'/admin/default/design/igor'
p4053
asbasbasbag68
(g84
g70
NtRp4054
(dp4055
g73
(dp4056
sg82
g4012
sg75
(lp4057
g68
(g89
g70
NtRp4058
(dp4059
g73
(dp4060
sg82
g4054
sg75
(lp4061
g68
(g69
g70
NtRp4062
(dp4063
g73
(dp4064
g81
I1
ssg82
g4058
sg75
(lp4065
(lp4066
(g3828
(S't\n\x00\x00\x00Controller'
tRp4067
I00
S'/admin/default/edit/igor/controllers/jobs.py'
tp4068
a(g3828
(S't\x04\x00\x00\x00View'
tRp4069
I00
S'/admin/default/edit/igor/views/jobs/add_class_job.html'
tp4070
a(g3828
(S't\x06\x00\x00\x00Layout'
tRp4071
I00
S'/admin/default/edit/igor/views/layout.html'
tp4072
a(g3828
(S't\n\x00\x00\x00Stylesheet'
tRp4073
I00
S'/admin/default/edit/igor/static/css/web2py.css'
tp4074
a(g3828
(S's\x08\x00\x00\x00DB Model'
tRp4075
I00
S'/admin/default/edit/igor/models/db.py'
tp4076
a(g3828
(S's\n\x00\x00\x00Menu Model'
tRp4077
I00
S'/admin/default/edit/igor/models/menu.py'
tp4078
a(g3828
(S't\x08\x00\x00\x00Database'
tRp4079
I00
S'/igor/appadmin/index'
tp4080
a(g3828
(S't\x06\x00\x00\x00Errors'
tRp4081
I00
S'/admin/default/errors/igor'
tp4082
a(g3828
(S't\x05\x00\x00\x00About'
tRp4083
I00
S'/admin/default/about/igor'
tp4084
aasbasbasbasbasbasbasbag68
(g84
g70
NtRp4085
(dp4086
g73
(dp4087
sg82
g3942
sg75
(lp4088
g68
(g89
g70
NtRp4089
(dp4090
g73
(dp4091
sg82
g4085
sg75
(lp4092
g68
(g69
g70
NtRp4093
(dp4094
g73
(dp4095
g81
I2
ssg82
g4089
sg75
(lp4096
g68
(g77
g70
NtRp4097
(dp4098
g73
(dp4099
g81
I1
ssg82
Nsg75
(lp4100
g68
(g84
g70
NtRp4101
(dp4102
g73
(dp4103
sg82
g4097
sg75
(lp4104
g68
(g89
g70
NtRp4105
(dp4106
g73
(dp4107
sg82
g4101
sg75
(lp4108
g68
(g69
g70
NtRp4109
(dp4110
g73
(dp4111
g81
I1
ssg82
g4105
sg75
(lp4112
S'web2py.com'
p4113
asbasbasbag68
(g84
g70
NtRp4114
(dp4115
g73
(dp4116
sg82
g4097
sg75
(lp4117
g68
(g89
g70
NtRp4118
(dp4119
g73
(dp4120
sg82
g4114
sg75
(lp4121
g68
(g69
g70
NtRp4122
(dp4123
g73
(dp4124
g81
I1
ssg82
g4118
sg75
(lp4125
I00
asbasbasbag68
(g84
g70
NtRp4126
(dp4127
g73
(dp4128
sg82
g4097
sg75
(lp4129
g68
(g89
g70
NtRp4130
(dp4131
g73
(dp4132
sg82
g4126
sg75
(lp4133
g68
(g69
g70
NtRp4134
(dp4135
g73
(dp4136
g81
I1
ssg82
g4130
sg75
(lp4137
S'http://www.web2py.com'
p4138
asbasbasbag68
(g84
g70
NtRp4139
(dp4140
g73
(dp4141
sg82
g4097
sg75
(lp4142
g68
(g89
g70
NtRp4143
(dp4144
g73
(dp4145
sg82
g4139
sg75
(lp4146
g68
(g69
g70
NtRp4147
(dp4148
g73
(dp4149
g81
I1
ssg82
g4143
sg75
(lp4150
(lp4151
(g3828
(S't\x08\x00\x00\x00Download'
tRp4152
I00
S'http://www.web2py.com/examples/default/download'
p4153
tp4154
a(g3828
(S't\x07\x00\x00\x00Support'
tRp4155
I00
S'http://www.web2py.com/examples/default/support'
p4156
tp4157
a(g3828
(S't\x04\x00\x00\x00Demo'
tRp4158
I00
S'http://web2py.com/demo_admin'
p4159
tp4160
a(g3828
(S's\x0e\x00\x00\x00Quick Examples'
tRp4161
I00
S'http://web2py.com/examples/default/examples'
p4162
tp4163
a(g3828
(S't\x03\x00\x00\x00FAQ'
tRp4164
I00
S'http://web2py.com/AlterEgo'
p4165
tp4166
a(g3828
(S't\x06\x00\x00\x00Videos'
tRp4167
I00
S'http://www.web2py.com/examples/default/videos/'
p4168
tp4169
a(g3828
(S's\x11\x00\x00\x00Free Applications'
tRp4170
I00
S'http://web2py.com/appliances'
p4171
tp4172
a(g3828
(S't\x07\x00\x00\x00Plugins'
tRp4173
I00
S'http://web2py.com/plugins'
p4174
tp4175
a(g3828
(S't\x07\x00\x00\x00Layouts'
tRp4176
I00
S'http://web2py.com/layouts'
p4177
tp4178
a(g3828
(S't\x07\x00\x00\x00Recipes'
tRp4179
I00
S'http://web2pyslices.com/'
p4180
tp4181
a(g3828
(S't\x08\x00\x00\x00Semantic'
tRp4182
I00
S'http://web2py.com/semantic'
p4183
tp4184
aasbasbasbasbasbasbasbag68
(g84
g70
NtRp4185
(dp4186
g73
(dp4187
sg82
g3942
sg75
(lp4188
g68
(g89
g70
NtRp4189
(dp4190
g73
(dp4191
sg82
g4185
sg75
(lp4192
g68
(g69
g70
NtRp4193
(dp4194
g73
(dp4195
g81
I2
ssg82
g4189
sg75
(lp4196
g68
(g77
g70
NtRp4197
(dp4198
g73
(dp4199
g81
I1
ssg82
Nsg75
(lp4200
g68
(g84
g70
NtRp4201
(dp4202
g73
(dp4203
sg82
g4197
sg75
(lp4204
g68
(g89
g70
NtRp4205
(dp4206
g73
(dp4207
sg82
g4201
sg75
(lp4208
g68
(g69
g70
NtRp4209
(dp4210
g73
(dp4211
g81
I1
ssg82
g4205
sg75
(lp4212
g3828
(S't\r\x00\x00\x00Documentation'
tRp4213
asbasbasbag68
(g84
g70
NtRp4214
(dp4215
g73
(dp4216
sg82
g4197
sg75
(lp4217
g68
(g89
g70
NtRp4218
(dp4219
g73
(dp4220
sg82
g4214
sg75
(lp4221
g68
(g69
g70
NtRp4222
(dp4223
g73
(dp4224
g81
I1
ssg82
g4218
sg75
(lp4225
I00
asbasbasbag68
(g84
g70
NtRp4226
(dp4227
g73
(dp4228
sg82
g4197
sg75
(lp4229
g68
(g89
g70
NtRp4230
(dp4231
g73
(dp4232
sg82
g4226
sg75
(lp4233
g68
(g69
g70
NtRp4234
(dp4235
g73
(dp4236
g81
I1
ssg82
g4230
sg75
(lp4237
S'http://www.web2py.com/book'
p4238
asbasbasbag68
(g84
g70
NtRp4239
(dp4240
g73
(dp4241
sg82
g4197
sg75
(lp4242
g68
(g89
g70
NtRp4243
(dp4244
g73
(dp4245
sg82
g4239
sg75
(lp4246
g68
(g69
g70
NtRp4247
(dp4248
g73
(dp4249
g81
I1
ssg82
g4243
sg75
(lp4250
(lp4251
(g3828
(S't\x07\x00\x00\x00Preface'
tRp4252
I00
S'http://www.web2py.com/book/default/chapter/00'
p4253
tp4254
a(g3828
(S't\x0c\x00\x00\x00Introduction'
tRp4255
I00
S'http://www.web2py.com/book/default/chapter/01'
p4256
tp4257
a(g3828
(S't\x06\x00\x00\x00Python'
tRp4258
I00
S'http://www.web2py.com/book/default/chapter/02'
p4259
tp4260
a(g3828
(S't\x08\x00\x00\x00Overview'
tRp4261
I00
S'http://www.web2py.com/book/default/chapter/03'
p4262
tp4263
a(g3828
(S's\x08\x00\x00\x00The Core'
tRp4264
I00
S'http://www.web2py.com/book/default/chapter/04'
p4265
tp4266
a(g3828
(S's\t\x00\x00\x00The Views'
tRp4267
I00
S'http://www.web2py.com/book/default/chapter/05'
p4268
tp4269
a(g3828
(S't\x08\x00\x00\x00Database'
tRp4270
I00
S'http://www.web2py.com/book/default/chapter/06'
p4271
tp4272
a(g3828
(S's\x14\x00\x00\x00Forms and Validators'
tRp4273
I00
S'http://www.web2py.com/book/default/chapter/07'
p4274
tp4275
a(g3828
(S's\r\x00\x00\x00Email and SMS'
tRp4276
I00
S'http://www.web2py.com/book/default/chapter/08'
p4277
tp4278
a(g3828
(S's\x0e\x00\x00\x00Access Control'
tRp4279
I00
S'http://www.web2py.com/book/default/chapter/09'
p4280
tp4281
a(g3828
(S't\x08\x00\x00\x00Services'
tRp4282
I00
S'http://www.web2py.com/book/default/chapter/10'
p4283
tp4284
a(g3828
(S's\x0c\x00\x00\x00Ajax Recipes'
tRp4285
I00
S'http://www.web2py.com/book/default/chapter/11'
p4286
tp4287
a(g3828
(S's\x16\x00\x00\x00Components and Plugins'
tRp4288
I00
S'http://www.web2py.com/book/default/chapter/12'
p4289
tp4290
a(g3828
(S's\x12\x00\x00\x00Deployment Recipes'
tRp4291
I00
S'http://www.web2py.com/book/default/chapter/13'
p4292
tp4293
a(g3828
(S's\r\x00\x00\x00Other Recipes'
tRp4294
I00
S'http://www.web2py.com/book/default/chapter/14'
p4295
tp4296
a(g3828
(S's\r\x00\x00\x00Buy this book'
tRp4297
I00
S'http://stores.lulu.com/web2py'
p4298
tp4299
aasbasbasbasbasbasbasbag68
(g84
g70
NtRp4300
(dp4301
g73
(dp4302
sg82
g3942
sg75
(lp4303
g68
(g89
g70
NtRp4304
(dp4305
g73
(dp4306
sg82
g4300
sg75
(lp4307
g68
(g69
g70
NtRp4308
(dp4309
g73
(dp4310
g81
I2
ssg82
g4304
sg75
(lp4311
g68
(g77
g70
NtRp4312
(dp4313
g73
(dp4314
g81
I1
ssg82
Nsg75
(lp4315
g68
(g84
g70
NtRp4316
(dp4317
g73
(dp4318
sg82
g4312
sg75
(lp4319
g68
(g89
g70
NtRp4320
(dp4321
g73
(dp4322
sg82
g4316
sg75
(lp4323
g68
(g69
g70
NtRp4324
(dp4325
g73
(dp4326
g81
I1
ssg82
g4320
sg75
(lp4327
g3828
(S't\t\x00\x00\x00Community'
tRp4328
asbasbasbag68
(g84
g70
NtRp4329
(dp4330
g73
(dp4331
sg82
g4312
sg75
(lp4332
g68
(g89
g70
NtRp4333
(dp4334
g73
(dp4335
sg82
g4329
sg75
(lp4336
g68
(g69
g70
NtRp4337
(dp4338
g73
(dp4339
g81
I1
ssg82
g4333
sg75
(lp4340
I00
asbasbasbag68
(g84
g70
NtRp4341
(dp4342
g73
(dp4343
sg82
g4312
sg75
(lp4344
g68
(g89
g70
NtRp4345
(dp4346
g73
(dp4347
sg82
g4341
sg75
(lp4348
g68
(g69
g70
NtRp4349
(dp4350
g73
(dp4351
g81
I1
ssg82
g4345
sg75
(lp4352
Nasbasbasbag68
(g84
g70
NtRp4353
(dp4354
g73
(dp4355
sg82
g4312
sg75
(lp4356
g68
(g89
g70
NtRp4357
(dp4358
g73
(dp4359
sg82
g4353
sg75
(lp4360
g68
(g69
g70
NtRp4361
(dp4362
g73
(dp4363
g81
I1
ssg82
g4357
sg75
(lp4364
(lp4365
(g3828
(S't\x06\x00\x00\x00Groups'
tRp4366
I00
S'http://www.web2py.com/examples/default/usergroups'
p4367
tp4368
a(g3828
(S't\x07\x00\x00\x00Twitter'
tRp4369
I00
S'http://twitter.com/web2py'
p4370
tp4371
a(g3828
(S's\t\x00\x00\x00Live Chat'
tRp4372
I00
S'http://webchat.freenode.net/?channels=web2py'
p4373
tp4374
aasbasbasbasbasbasbasbag68
(g84
g70
NtRp4375
(dp4376
g73
(dp4377
sg82
g3942
sg75
(lp4378
g68
(g89
g70
NtRp4379
(dp4380
g73
(dp4381
sg82
g4375
sg75
(lp4382
g68
(g69
g70
NtRp4383
(dp4384
g73
(dp4385
g81
I2
ssg82
g4379
sg75
(lp4386
g68
(g77
g70
NtRp4387
(dp4388
g73
(dp4389
g81
I1
ssg82
Nsg75
(lp4390
g68
(g84
g70
NtRp4391
(dp4392
g73
(dp4393
sg82
g4387
sg75
(lp4394
g68
(g89
g70
NtRp4395
(dp4396
g73
(dp4397
sg82
g4391
sg75
(lp4398
g68
(g69
g70
NtRp4399
(dp4400
g73
(dp4401
g81
I1
ssg82
g4395
sg75
(lp4402
g3828
(S't\x07\x00\x00\x00Plugins'
tRp4403
asbasbasbag68
(g84
g70
NtRp4404
(dp4405
g73
(dp4406
sg82
g4387
sg75
(lp4407
g68
(g89
g70
NtRp4408
(dp4409
g73
(dp4410
sg82
g4404
sg75
(lp4411
g68
(g69
g70
NtRp4412
(dp4413
g73
(dp4414
g81
I1
ssg82
g4408
sg75
(lp4415
I00
asbasbasbag68
(g84
g70
NtRp4416
(dp4417
g73
(dp4418
sg82
g4387
sg75
(lp4419
g68
(g89
g70
NtRp4420
(dp4421
g73
(dp4422
sg82
g4416
sg75
(lp4423
g68
(g69
g70
NtRp4424
(dp4425
g73
(dp4426
g81
I1
ssg82
g4420
sg75
(lp4427
Nasbasbasbag68
(g84
g70
NtRp4428
(dp4429
g73
(dp4430
sg82
g4387
sg75
(lp4431
g68
(g89
g70
NtRp4432
(dp4433
g73
(dp4434
sg82
g4428
sg75
(lp4435
g68
(g69
g70
NtRp4436
(dp4437
g73
(dp4438
g81
I1
ssg82
g4432
sg75
(lp4439
(lp4440
(S'plugin_wiki'
p4441
I00
S'http://web2py.com/examples/default/download'
p4442
tp4443
a(g3828
(S's\r\x00\x00\x00Other Plugins'
tRp4444
I00
g4174
tp4445
a(g3828
(S's\x0e\x00\x00\x00Layout Plugins'
tRp4446
I00
g4177
tp4447
aasbasbasbasbasbasbasbasbasbasbasbasbasbasbasbasbasbasbasbag68
(g84
g70
NtRp4448
(dp4449
g73
(dp4450
sg82
g3272
sg75
(lp4451
g68
(g89
g70
NtRp4452
(dp4453
g73
(dp4454
g93
g94
ssg82
g4448
sg75
(lp4455
S'meta'
p4456
asbag68
(g89
g70
NtRp4457
(dp4458
g73
(dp4459
g100
g101
ssg82
g4448
sg75
(lp4460
S':'
asbag68
(g89
g70
NtRp4461
(dp4462
g73
(dp4463
sg82
g4448
sg75
(lp4464
g68
(g69
g70
NtRp4465
(dp4466
g73
(dp4467
g81
I5
ssg82
g4461
sg75
(lp4468
g68
(g77
g70
NtRp4469
(dp4470
g73
(dp4471
g81
I4
ssg82
Nsg75
(lp4472
g68
(g84
g70
NtRp4473
(dp4474
g73
(dp4475
sg82
g4469
sg75
(lp4476
g68
(g89
g70
NtRp4477
(dp4478
g73
(dp4479
g93
g94
ssg82
g4473
sg75
(lp4480
S'author'
p4481
asbag68
(g89
g70
NtRp4482
(dp4483
g73
(dp4484
g100
g101
ssg82
g4473
sg75
(lp4485
S':'
asbag68
(g89
g70
NtRp4486
(dp4487
g73
(dp4488
sg82
g4473
sg75
(lp4489
g68
(g69
g70
NtRp4490
(dp4491
g73
(dp4492
g81
I4
ssg82
g4486
sg75
(lp4493
S'Your Name <you@example.com>'
p4494
asbasbasbag68
(g84
g70
NtRp4495
(dp4496
g73
(dp4497
sg82
g4469
sg75
(lp4498
g68
(g89
g70
NtRp4499
(dp4500
g73
(dp4501
g93
g94
ssg82
g4495
sg75
(lp4502
S'copyright'
p4503
asbag68
(g89
g70
NtRp4504
(dp4505
g73
(dp4506
g100
g101
ssg82
g4495
sg75
(lp4507
S':'
asbag68
(g89
g70
NtRp4508
(dp4509
g73
(dp4510
sg82
g4495
sg75
(lp4511
g68
(g69
g70
NtRp4512
(dp4513
g73
(dp4514
g81
I4
ssg82
g4508
sg75
(lp4515
S'Copyright 2011'
p4516
asbasbasbag68
(g84
g70
NtRp4517
(dp4518
g73
(dp4519
sg82
g4469
sg75
(lp4520
g68
(g89
g70
NtRp4521
(dp4522
g73
(dp4523
g93
g94
ssg82
g4517
sg75
(lp4524
S'description'
p4525
asbag68
(g89
g70
NtRp4526
(dp4527
g73
(dp4528
g100
g101
ssg82
g4517
sg75
(lp4529
S':'
asbag68
(g89
g70
NtRp4530
(dp4531
g73
(dp4532
sg82
g4517
sg75
(lp4533
g68
(g69
g70
NtRp4534
(dp4535
g73
(dp4536
g81
I4
ssg82
g4530
sg75
(lp4537
S'a cool new app'
p4538
asbasbasbag68
(g84
g70
NtRp4539
(dp4540
g73
(dp4541
sg82
g4469
sg75
(lp4542
g68
(g89
g70
NtRp4543
(dp4544
g73
(dp4545
g93
g94
ssg82
g4539
sg75
(lp4546
S'generator'
p4547
asbag68
(g89
g70
NtRp4548
(dp4549
g73
(dp4550
g100
g101
ssg82
g4539
sg75
(lp4551
S':'
asbag68
(g89
g70
NtRp4552
(dp4553
g73
(dp4554
sg82
g4539
sg75
(lp4555
g68
(g69
g70
NtRp4556
(dp4557
g73
(dp4558
g81
I4
ssg82
g4552
sg75
(lp4559
S'Web2py Web Framework'
p4560
asbasbasbag68
(g84
g70
NtRp4561
(dp4562
g73
(dp4563
sg82
g4469
sg75
(lp4564
g68
(g89
g70
NtRp4565
(dp4566
g73
(dp4567
g93
g94
ssg82
g4561
sg75
(lp4568
S'keywords'
p4569
asbag68
(g89
g70
NtRp4570
(dp4571
g73
(dp4572
g100
g101
ssg82
g4561
sg75
(lp4573
S':'
asbag68
(g89
g70
NtRp4574
(dp4575
g73
(dp4576
sg82
g4561
sg75
(lp4577
g68
(g69
g70
NtRp4578
(dp4579
g73
(dp4580
g81
I4
ssg82
g4574
sg75
(lp4581
S'web2py, python, framework'
p4582
asbasbasbasbasbasbasbag68
(g84
g70
NtRp4583
(dp4584
g73
(dp4585
sg82
g3272
sg75
(lp4586
g68
(g89
g70
NtRp4587
(dp4588
g73
(dp4589
g93
g94
ssg82
g4583
sg75
(lp4590
S'postprocessing'
p4591
asbag68
(g89
g70
NtRp4592
(dp4593
g73
(dp4594
g100
g101
ssg82
g4583
sg75
(lp4595
S':'
asbag68
(g89
g70
NtRp4596
(dp4597
g73
(dp4598
sg82
g4583
sg75
(lp4599
g68
(g69
g70
NtRp4600
(dp4601
g73
(dp4602
g81
I5
ssg82
g4596
sg75
(lp4603
g68
(g77
g70
NtRp4604
(dp4605
g73
(dp4606
g81
I4
ssg82
Nsg75
(lp4607
sbasbasbasbag68
(g84
g70
NtRp4608
(dp4609
g73
(dp4610
sg82
g3272
sg75
(lp4611
g68
(g89
g70
NtRp4612
(dp4613
g73
(dp4614
g93
g94
ssg82
g4608
sg75
(lp4615
S'session_filename'
p4616
asbag68
(g89
g70
NtRp4617
(dp4618
g73
(dp4619
g100
g101
ssg82
g4608
sg75
(lp4620
S':'
asbag68
(g89
g70
NtRp4621
(dp4622
g73
(dp4623
sg82
g4608
sg75
(lp4624
g68
(g69
g70
NtRp4625
(dp4626
g73
(dp4627
g81
I5
ssg82
g4621
sg75
(lp4628
S'D:\\workspace\\ca\\IgoR\\C_Sources\\Server\\igor-assistant-ca-2012\\applications\\igor\\sessions\\127.0.0.1-c5ca8610-a5c7-4fd3-bfe4-f248955b0e36'
p4629
asbasbasbag68
(g84
g70
NtRp4630
(dp4631
g73
(dp4632
sg82
g3272
sg75
(lp4633
g68
(g89
g70
NtRp4634
(dp4635
g73
(dp4636
g93
g94
ssg82
g4630
sg75
(lp4637
S'session_id'
p4638
asbag68
(g89
g70
NtRp4639
(dp4640
g73
(dp4641
g100
g101
ssg82
g4630
sg75
(lp4642
S':'
asbag68
(g89
g70
NtRp4643
(dp4644
g73
(dp4645
sg82
g4630
sg75
(lp4646
g68
(g69
g70
NtRp4647
(dp4648
g73
(dp4649
g81
I5
ssg82
g4643
sg75
(lp4650
S'127.0.0.1-c5ca8610-a5c7-4fd3-bfe4-f248955b0e36'
p4651
asbasbasbag68
(g84
g70
NtRp4652
(dp4653
g73
(dp4654
sg82
g3272
sg75
(lp4655
g68
(g89
g70
NtRp4656
(dp4657
g73
(dp4658
g93
g94
ssg82
g4652
sg75
(lp4659
S'session_id_name'
p4660
asbag68
(g89
g70
NtRp4661
(dp4662
g73
(dp4663
g100
g101
ssg82
g4652
sg75
(lp4664
S':'
asbag68
(g89
g70
NtRp4665
(dp4666
g73
(dp4667
sg82
g4652
sg75
(lp4668
g68
(g69
g70
NtRp4669
(dp4670
g73
(dp4671
g81
I5
ssg82
g4665
sg75
(lp4672
g3329
asbasbasbag68
(g84
g70
NtRp4673
(dp4674
g73
(dp4675
sg82
g3272
sg75
(lp4676
g68
(g89
g70
NtRp4677
(dp4678
g73
(dp4679
g93
g94
ssg82
g4673
sg75
(lp4680
S'session_new'
p4681
asbag68
(g89
g70
NtRp4682
(dp4683
g73
(dp4684
g100
g101
ssg82
g4673
sg75
(lp4685
S':'
asbag68
(g89
g70
NtRp4686
(dp4687
g73
(dp4688
sg82
g4673
sg75
(lp4689
g68
(g69
g70
NtRp4690
(dp4691
g73
(dp4692
g81
I5
ssg82
g4686
sg75
(lp4693
g1840
asbasbasbag68
(g84
g70
NtRp4694
(dp4695
g73
(dp4696
sg82
g3272
sg75
(lp4697
g68
(g89
g70
NtRp4698
(dp4699
g73
(dp4700
g93
g94
ssg82
g4694
sg75
(lp4701
S'status'
p4702
asbag68
(g89
g70
NtRp4703
(dp4704
g73
(dp4705
g100
g101
ssg82
g4694
sg75
(lp4706
S':'
asbag68
(g89
g70
NtRp4707
(dp4708
g73
(dp4709
sg82
g4694
sg75
(lp4710
g68
(g69
g70
NtRp4711
(dp4712
g73
(dp4713
g81
I5
ssg82
g4707
sg75
(lp4714
S'200'
p4715
asbasbasbag68
(g84
g70
NtRp4716
(dp4717
g73
(dp4718
sg82
g3272
sg75
(lp4719
g68
(g89
g70
NtRp4720
(dp4721
g73
(dp4722
g93
g94
ssg82
g4716
sg75
(lp4723
S'subtitle'
p4724
asbag68
(g89
g70
NtRp4725
(dp4726
g73
(dp4727
g100
g101
ssg82
g4716
sg75
(lp4728
S':'
asbag68
(g89
g70
NtRp4729
(dp4730
g73
(dp4731
sg82
g4716
sg75
(lp4732
g68
(g69
g70
NtRp4733
(dp4734
g73
(dp4735
g81
I5
ssg82
g4729
sg75
(lp4736
g3828
(S's\r\x00\x00\x00customize me!'
tRp4737
asbasbasbag68
(g84
g70
NtRp4738
(dp4739
g73
(dp4740
sg82
g3272
sg75
(lp4741
g68
(g89
g70
NtRp4742
(dp4743
g73
(dp4744
g93
g94
ssg82
g4738
sg75
(lp4745
S'title'
p4746
asbag68
(g89
g70
NtRp4747
(dp4748
g73
(dp4749
g100
g101
ssg82
g4738
sg75
(lp4750
S':'
asbag68
(g89
g70
NtRp4751
(dp4752
g73
(dp4753
sg82
g4738
sg75
(lp4754
g68
(g69
g70
NtRp4755
(dp4756
g73
(dp4757
g81
I5
ssg82
g4751
sg75
(lp4758
S'Igor'
p4759
asbasbasbag68
(g84
g70
NtRp4760
(dp4761
g73
(dp4762
sg82
g3272
sg75
(lp4763
g68
(g89
g70
NtRp4764
(dp4765
g73
(dp4766
g93
g94
ssg82
g4760
sg75
(lp4767
g2538
asbag68
(g89
g70
NtRp4768
(dp4769
g73
(dp4770
g100
g101
ssg82
g4760
sg75
(lp4771
S':'
asbag68
(g89
g70
NtRp4772
(dp4773
g73
(dp4774
sg82
g4760
sg75
(lp4775
g68
(g69
g70
NtRp4776
(dp4777
g73
(dp4778
g81
I5
ssg82
g4772
sg75
(lp4779
g2551
asbasbasbag68
(g84
g70
NtRp4780
(dp4781
g73
(dp4782
sg82
g3272
sg75
(lp4783
g68
(g89
g70
NtRp4784
(dp4785
g73
(dp4786
g93
g94
ssg82
g4780
sg75
(lp4787
S'view'
p4788
asbag68
(g89
g70
NtRp4789
(dp4790
g73
(dp4791
g100
g101
ssg82
g4780
sg75
(lp4792
S':'
asbag68
(g89
g70
NtRp4793
(dp4794
g73
(dp4795
sg82
g4780
sg75
(lp4796
g68
(g69
g70
NtRp4797
(dp4798
g73
(dp4799
g81
I5
ssg82
g4793
sg75
(lp4800
S'jobs/add_class_job.html'
p4801
asbasbasbasbasbsS'locals'
p4802
(dp4803
g4
S"r'D:\\workspace\\ca\\IgoR\\C_Sources\\Server\\igor-assistant-ca-2012\\applications\\igor\\controllers/jobs.py'"
p4804
sg6
S"'# -*- coding: utf-8 -*-\\n# this file is released ...\\n\\nresponse._vars=response._caller(add_class_job)\\n'"
p4805
sssS'traceback'
p4806
S'Traceback (most recent call last):\n  File "D:\\workspace\\ca\\IgoR\\C_Sources\\Server\\igor-assistant-ca-2012\\gluon\\restricted.py", line 204, in restricted\n    ccode = compile2(code,layer)\n  File "D:\\workspace\\ca\\IgoR\\C_Sources\\Server\\igor-assistant-ca-2012\\gluon\\restricted.py", line 189, in compile2\n    return compile(code.rstrip().replace(\'\\r\\n\',\'\\n\')+\'\\n\', layer, \'exec\')\n  File "D:\\workspace\\ca\\IgoR\\C_Sources\\Server\\igor-assistant-ca-2012\\applications\\igor\\controllers/jobs.py", line 254\n    else:\n       ^\nIndentationError: expected an indented block\n'
p4807
s.