(dp1
S'output'
p2
S"<type 'exceptions.AttributeError'> 'exceptions.AttributeError' object has no attribute 'errno'"
p3
sS'layer'
p4
S'D:\\workspace\\CA\\IgoR\\C_Sources\\Server\\igor-assistant-ca-2012\\applications\\igor\\controllers/class_subject.py'
p5
sS'code'
p6
S'# -*- coding: utf-8 -*-\n# this file is released under public domain and you can use without limitations\n\n#########################################################################\n## This is class_subject controller\n## Author: phucnh, tuna\n#########################################################################\n\nfrom message_packager import *\nfrom gluon.dal import Rows\n\n# Get all classes by specific subject\n@request.restful()\ndef get_classes_by_subject():\n\tresponse.view = \'generic.json\'\n\tdef GET(subject_id, term = 0):\n\n\t\t# Validate input \n\t\tif (not subject_id.isdigit()):\n\t\t\treturn MessagePackager.get_packaged_message (\n\t\t\t\tMessageStatus.ERROR, \n\t\t\t\t"subject id must be numberic")\n\n\t\tif (not (str (term)).isdigit()):\n\t\t\treturn MessagePackager.get_packaged_message(\n\t\t\t\tMessageStatus.ERROR,\n\t\t\t\t"term must be numberic")\n\n\t\tif (int (subject_id) < 0):\n\t\t\treturn MessagePackager.get_packaged_message (\n\t\t\t\tMessageStatus.ERROR, \n\t\t\t\t"subject id can not less than 1")\n\n\t\t# Get data\n\t\tif (term == 0):\n\t\t\tterm = get_current_term()\n\n\t\tclasses = db(\n\t\t\tdb.class_subject.subject == subject_id and \n\t\t\tdb.class_subject.term == term).select()\n\n\t\treturn MessagePackager.get_packaged_message(MessageStatus.OK, classes)\n\n\treturn locals()\n\n\n# Get class detail\n@request.restful()\ndef get_class_detail():\n\tresponse.view = \'generic.json\'\n\tdef GET(id):\n\n\t\t# Validate input \n\t\tif (not id.isdigit()):\n\t\t\treturn MessagePackager.get_packaged_message (\n\t\t\t\tMessageStatus.ERROR, \n\t\t\t\t"class id must be numberic")\n\n\t\tif (int (id) < 0):\n\t\t\treturn MessagePackager.get_packaged_message (\n\t\t\t\tMessageStatus.ERROR, \n\t\t\t\t"class id can not less than 1")\n\n\t\t# Get data\n\n\t\tclass_subject = db(db.class_subject.id == id).select()\n\n\t\tclass_subject = format_client_data(class_subject)\n\n\t\treturn MessagePackager.get_packaged_message(MessageStatus.OK, class_subject)\n\n\treturn locals()\n\n# Get all classes of user\n# Input:\n# \tinteger user_id\n# \tinteger term\n@request.restful()\ndef get_classes_by_user():\n\tresponse.view = \'generic.json\'\n\tdef GET(user_id, term = 0):\n\n\t\t# Get data\n\t\tterm = get_current_term()\n\t\tuser_schedulers = db(db.scheduler.owner == user_id).select()\n\t\t\n\t\tclasses = list()\n\n\t\tfor user_scheduler in user_schedulers:\n\t\t\tclasses.append(db(\n\t\t\t\tdb.class_subject.id == user_scheduler.class_subject and\n\t\t\t\tdb.class_subject.term == term))\n\n\t\tclasses = format_client_data(classes)\n\n\t\treturn MessagePackager.get_packaged_message(MessageStatus.OK, classes)\n\n\treturn locals()\n\n@request.restful()\ndef add_class_to_user():\n\tresponse.view = \'generic.json\'\n\tdef GET(class_id, user_id):\n\n\t\t# Validate input\n\t\tif (not class_id.isdigit()):\n\t\t\treturn MessagePackager.get_packaged_message (\n\t\t\t\tMessageStatus.ERROR, \n\t\t\t\t"class id must be numberic")\n\n\t\tif (not user_id.isdigit()):\n\t\t\treturn MessagePackager.get_packaged_message (\n\t\t\t\tMessageStatus.ERROR, \n\t\t\t\t"user id must be numberic")\n\n\t\t# Insert new data\n\t\t# TODO: add class\'s rule\n\n\t\ttry:\n\t\t\tscheduler_id = db.scheduer.insert(\n\t\t\tonwer = user_id,\n\t\t\tclass_subject = class_id,\n\t\t\tterm = get_current_term())\n\t\texcept Exception as e:\n\t\t\treturn MessagePackager.get_packaged_message(MessageStatus.ERROR, e.errno + \': \' + e.strerror )\n\n\t\treturn MessagePackager.get_packaged_message(MessageStatus.OK, scheduler_id)\n\n\treturn locals()\n\n@request.restful()\ndef delete_class():\n\tresponse.view = \'generic.json\'\n\tdef GET(user_id, class_id):\n\n\t\ttry:\n\t\t\tscheduler = delete_scheduler(user_id, class_id);\n\t\texcept Exception as e:\n\t\t\treturn MessagePackager.get_packaged_message(MessageStatus.ERROR, e.errno + \': \' + e.strerror )\n\n\t\treturn MessagePackager.get_packaged_message(MessageStatus.OK, scheduler)\n\n\treturn locals()\n\n# Format class data to client data\ndef format_client_data(classes):\n\tif (classes == None):\n\t\treturn\n\n\tclient_data = list()\n\n\tfor class_subject in classes:\n\n\t\tsubject = db(db.subject.id == class_subject.subject).select().first()\n\t\tclass_schedulers = db(db.class_scheduler.class_subject == class_subject.id).select()\n\t\t\n\t\tif (subject == None):\n\t\t\tcontinue\n\t\t# print class_schedulers\n\t\tfor class_scheduler in class_schedulers:\n\t\t\t\n\t\t\t# Get session list (integer)\n\t\t\tsessions = get_class_sessions(class_scheduler.period)\n\n\t\t\t# Morning session\n\t\t\tmorning = [session for session in sessions if session <=6]\n\t\t\tafternoon = [session for session in sessions if session >= 7]\n\n\n\t\t\tif (morning):\n\t\t\t\tclient = class_data_format(\n\t\t\t\t\tclass_subject, class_scheduler,\n\t\t\t\t\tsubject, morning, "Morning")\n\t\t\t\t\n\t\t\t\tclient_data.append(client)\n\n\t\t\tif (afternoon):\n\t\t\t\tclient = class_data_format(\n\t\t\t\t\tclass_subject, class_scheduler,\n\t\t\t\t\tsubject, afternoon, "Afternoon")\n\n\t\t\t\tclient_data.append (client)\n\n\treturn client_data\n\ndef class_data_format(class_subject, class_scheduler ,subject, session, period):\n\tclient = dict(\n\t\tclass_id     = class_subject.id,\n\t\tclass_code   = class_subject.class_code,\n\t\tsubject_name = subject.name,\n\t\tsubject_code = subject.subject_code,\n\t\tnum_of_day   = class_scheduler.day_of_week,\n        #"total_session": "Session 1-2-3",\n        teacher_name = class_subject.teacher,\n        location     = class_subject.location,\n        period = period,\n\t\tsession_start = str(session[0]),\n\t\t)\n\n\treturn client\nresponse._vars=response._caller(delete_class)\n'
p7
sS'snapshot'
p8
(dp9
S'exception'
p10
(dp11
S'__hash__'
p12
S"<method-wrapper '__hash__' of exceptions.AttributeError object>"
p13
sS'__setattr__'
p14
S"<method-wrapper '__setattr__' of exceptions.AttributeError object>"
p15
sS'__reduce_ex__'
p16
S'<built-in method __reduce_ex__ of exceptions.AttributeError object>'
p17
sS'__getslice__'
p18
S"<method-wrapper '__getslice__' of exceptions.AttributeError object>"
p19
sS'__getitem__'
p20
S"<method-wrapper '__getitem__' of exceptions.AttributeError object>"
p21
sS'__setstate__'
p22
S'<built-in method __setstate__ of exceptions.AttributeError object>'
p23
sS'__reduce__'
p24
S'<built-in method __reduce__ of exceptions.AttributeError object>'
p25
sS'__str__'
p26
S"<method-wrapper '__str__' of exceptions.AttributeError object>"
p27
sS'__format__'
p28
S'<built-in method __format__ of exceptions.AttributeError object>'
p29
sS'__getattribute__'
p30
S"<method-wrapper '__getattribute__' of exceptions.AttributeError object>"
p31
sS'__class__'
p32
S"<type 'exceptions.AttributeError'>"
p33
sS'__unicode__'
p34
S'<built-in method __unicode__ of exceptions.AttributeError object>'
p35
sS'__delattr__'
p36
S"<method-wrapper '__delattr__' of exceptions.AttributeError object>"
p37
sS'__subclasshook__'
p38
S'<built-in method __subclasshook__ of type object>'
p39
sS'__repr__'
p40
S"<method-wrapper '__repr__' of exceptions.AttributeError object>"
p41
sS'__dict__'
p42
S'{}'
p43
sS'args'
p44
S'("\'exceptions.AttributeError\' object has no attribute \'errno\'",)'
p45
sS'__sizeof__'
p46
S'<built-in method __sizeof__ of exceptions.AttributeError object>'
p47
sS'__doc__'
p48
S"'Attribute not found.'"
p49
sS'__init__'
p50
S"<method-wrapper '__init__' of exceptions.AttributeError object>"
p51
sS'__new__'
p52
S'<built-in method __new__ of type object>'
p53
ssS'evalue'
p54
S"'exceptions.AttributeError' object has no attribute 'errno'"
p55
sS'request'
p56
ccopy_reg
_reconstructor
p57
(cgluon.html
BEAUTIFY
p58
c__builtin__
object
p59
NtRp60
(dp61
S'attributes'
p62
(dp63
sS'components'
p64
(lp65
g57
(cgluon.html
TABLE
p66
g59
NtRp67
(dp68
g62
(dp69
S'level'
p70
I5
ssS'parent'
p71
Nsg64
(lp72
g57
(cgluon.html
TR
p73
g59
NtRp74
(dp75
g62
(dp76
sg71
g67
sg64
(lp77
g57
(cgluon.html
TD
p78
g59
NtRp79
(dp80
g62
(dp81
S'_style'
p82
S'font-weight:bold;vertical-align:top'
p83
ssg71
g74
sg64
(lp84
S'ajax'
p85
asbag57
(g78
g59
NtRp86
(dp87
g62
(dp88
S'_valign'
p89
S'top'
p90
ssg71
g74
sg64
(lp91
S':'
asbag57
(g78
g59
NtRp92
(dp93
g62
(dp94
sg71
g74
sg64
(lp95
g57
(g58
g59
NtRp96
(dp97
g62
(dp98
g70
I5
ssg71
g92
sg64
(lp99
S'False'
p100
asbasbasbag57
(g73
g59
NtRp101
(dp102
g62
(dp103
sg71
g67
sg64
(lp104
g57
(g78
g59
NtRp105
(dp106
g62
(dp107
g82
g83
ssg71
g101
sg64
(lp108
S'application'
p109
asbag57
(g78
g59
NtRp110
(dp111
g62
(dp112
g89
g90
ssg71
g101
sg64
(lp113
S':'
asbag57
(g78
g59
NtRp114
(dp115
g62
(dp116
sg71
g101
sg64
(lp117
g57
(g58
g59
NtRp118
(dp119
g62
(dp120
g70
I5
ssg71
g114
sg64
(lp121
S'igor'
p122
asbasbasbag57
(g73
g59
NtRp123
(dp124
g62
(dp125
sg71
g67
sg64
(lp126
g57
(g78
g59
NtRp127
(dp128
g62
(dp129
g82
g83
ssg71
g123
sg64
(lp130
g44
asbag57
(g78
g59
NtRp131
(dp132
g62
(dp133
g89
g90
ssg71
g123
sg64
(lp134
S':'
asbag57
(g78
g59
NtRp135
(dp136
g62
(dp137
sg71
g123
sg64
(lp138
g57
(g58
g59
NtRp139
(dp140
g62
(dp141
g70
I5
ssg71
g135
sg64
(lp142
g57
(g66
g59
NtRp143
(dp144
g62
(dp145
g70
I4
ssg71
Nsg64
(lp146
g57
(g73
g59
NtRp147
(dp148
g62
(dp149
sg71
g143
sg64
(lp150
g57
(g78
g59
NtRp151
(dp152
g62
(dp153
sg71
g147
sg64
(lp154
g57
(g58
g59
NtRp155
(dp156
g62
(dp157
g70
I4
ssg71
g151
sg64
(lp158
S'2'
asbasbasbag57
(g73
g59
NtRp159
(dp160
g62
(dp161
sg71
g143
sg64
(lp162
g57
(g78
g59
NtRp163
(dp164
g62
(dp165
sg71
g159
sg64
(lp166
g57
(g58
g59
NtRp167
(dp168
g62
(dp169
g70
I4
ssg71
g163
sg64
(lp170
S'2'
asbasbasbasbasbasbasbag57
(g73
g59
NtRp171
(dp172
g62
(dp173
sg71
g67
sg64
(lp174
g57
(g78
g59
NtRp175
(dp176
g62
(dp177
g82
g83
ssg71
g171
sg64
(lp178
S'body'
p179
asbag57
(g78
g59
NtRp180
(dp181
g62
(dp182
g89
g90
ssg71
g171
sg64
(lp183
S':'
asbag57
(g78
g59
NtRp184
(dp185
g62
(dp186
sg71
g171
sg64
(lp187
g57
(g58
g59
NtRp188
(dp189
g62
(dp190
g70
I5
ssg71
g184
sg64
(lp191
S'<cStringIO.StringO object at 0x00000000050B1618>'
p192
asbasbasbag57
(g73
g59
NtRp193
(dp194
g62
(dp195
sg71
g67
sg64
(lp196
g57
(g78
g59
NtRp197
(dp198
g62
(dp199
g82
g83
ssg71
g193
sg64
(lp200
S'client'
p201
asbag57
(g78
g59
NtRp202
(dp203
g62
(dp204
g89
g90
ssg71
g193
sg64
(lp205
S':'
asbag57
(g78
g59
NtRp206
(dp207
g62
(dp208
sg71
g193
sg64
(lp209
g57
(g58
g59
NtRp210
(dp211
g62
(dp212
g70
I5
ssg71
g206
sg64
(lp213
S'127.0.0.1'
p214
asbasbasbag57
(g73
g59
NtRp215
(dp216
g62
(dp217
sg71
g67
sg64
(lp218
g57
(g78
g59
NtRp219
(dp220
g62
(dp221
g82
g83
ssg71
g215
sg64
(lp222
S'controller'
p223
asbag57
(g78
g59
NtRp224
(dp225
g62
(dp226
g89
g90
ssg71
g215
sg64
(lp227
S':'
asbag57
(g78
g59
NtRp228
(dp229
g62
(dp230
sg71
g215
sg64
(lp231
g57
(g58
g59
NtRp232
(dp233
g62
(dp234
g70
I5
ssg71
g228
sg64
(lp235
S'class_subject'
p236
asbasbasbag57
(g73
g59
NtRp237
(dp238
g62
(dp239
sg71
g67
sg64
(lp240
g57
(g78
g59
NtRp241
(dp242
g62
(dp243
g82
g83
ssg71
g237
sg64
(lp244
S'cookies'
p245
asbag57
(g78
g59
NtRp246
(dp247
g62
(dp248
g89
g90
ssg71
g237
sg64
(lp249
S':'
asbag57
(g78
g59
NtRp250
(dp251
g62
(dp252
sg71
g237
sg64
(lp253
g57
(g58
g59
NtRp254
(dp255
g62
(dp256
g70
I5
ssg71
g250
sg64
(lp257
g57
(g66
g59
NtRp258
(dp259
g62
(dp260
g70
I4
ssg71
Nsg64
(lp261
g57
(g73
g59
NtRp262
(dp263
g62
(dp264
sg71
g258
sg64
(lp265
g57
(g78
g59
NtRp266
(dp267
g62
(dp268
g82
g83
ssg71
g262
sg64
(lp269
S'session_id_admin'
p270
asbag57
(g78
g59
NtRp271
(dp272
g62
(dp273
g89
g90
ssg71
g262
sg64
(lp274
S':'
asbag57
(g78
g59
NtRp275
(dp276
g62
(dp277
sg71
g262
sg64
(lp278
g57
(g58
g59
NtRp279
(dp280
g62
(dp281
g70
I4
ssg71
g275
sg64
(lp282
g57
(g66
g59
NtRp283
(dp284
g62
(dp285
g70
I3
ssg71
Nsg64
(lp286
g57
(g73
g59
NtRp287
(dp288
g62
(dp289
sg71
g283
sg64
(lp290
g57
(g78
g59
NtRp291
(dp292
g62
(dp293
g82
g83
ssg71
g287
sg64
(lp294
S'comment'
p295
asbag57
(g78
g59
NtRp296
(dp297
g62
(dp298
g89
g90
ssg71
g287
sg64
(lp299
S':'
asbag57
(g78
g59
NtRp300
(dp301
g62
(dp302
sg71
g287
sg64
(lp303
g57
(g58
g59
NtRp304
(dp305
g62
(dp306
g70
I3
ssg71
g300
sg64
(lp307
S''
asbasbasbag57
(g73
g59
NtRp308
(dp309
g62
(dp310
sg71
g283
sg64
(lp311
g57
(g78
g59
NtRp312
(dp313
g62
(dp314
g82
g83
ssg71
g308
sg64
(lp315
S'domain'
p316
asbag57
(g78
g59
NtRp317
(dp318
g62
(dp319
g89
g90
ssg71
g308
sg64
(lp320
S':'
asbag57
(g78
g59
NtRp321
(dp322
g62
(dp323
sg71
g308
sg64
(lp324
g57
(g58
g59
NtRp325
(dp326
g62
(dp327
g70
I3
ssg71
g321
sg64
(lp328
S''
asbasbasbag57
(g73
g59
NtRp329
(dp330
g62
(dp331
sg71
g283
sg64
(lp332
g57
(g78
g59
NtRp333
(dp334
g62
(dp335
g82
g83
ssg71
g329
sg64
(lp336
S'expires'
p337
asbag57
(g78
g59
NtRp338
(dp339
g62
(dp340
g89
g90
ssg71
g329
sg64
(lp341
S':'
asbag57
(g78
g59
NtRp342
(dp343
g62
(dp344
sg71
g329
sg64
(lp345
g57
(g58
g59
NtRp346
(dp347
g62
(dp348
g70
I3
ssg71
g342
sg64
(lp349
S''
asbasbasbag57
(g73
g59
NtRp350
(dp351
g62
(dp352
sg71
g283
sg64
(lp353
g57
(g78
g59
NtRp354
(dp355
g62
(dp356
g82
g83
ssg71
g350
sg64
(lp357
S'httponly'
p358
asbag57
(g78
g59
NtRp359
(dp360
g62
(dp361
g89
g90
ssg71
g350
sg64
(lp362
S':'
asbag57
(g78
g59
NtRp363
(dp364
g62
(dp365
sg71
g350
sg64
(lp366
g57
(g58
g59
NtRp367
(dp368
g62
(dp369
g70
I3
ssg71
g363
sg64
(lp370
S''
asbasbasbag57
(g73
g59
NtRp371
(dp372
g62
(dp373
sg71
g283
sg64
(lp374
g57
(g78
g59
NtRp375
(dp376
g62
(dp377
g82
g83
ssg71
g371
sg64
(lp378
S'max-age'
p379
asbag57
(g78
g59
NtRp380
(dp381
g62
(dp382
g89
g90
ssg71
g371
sg64
(lp383
S':'
asbag57
(g78
g59
NtRp384
(dp385
g62
(dp386
sg71
g371
sg64
(lp387
g57
(g58
g59
NtRp388
(dp389
g62
(dp390
g70
I3
ssg71
g384
sg64
(lp391
S''
asbasbasbag57
(g73
g59
NtRp392
(dp393
g62
(dp394
sg71
g283
sg64
(lp395
g57
(g78
g59
NtRp396
(dp397
g62
(dp398
g82
g83
ssg71
g392
sg64
(lp399
S'path'
p400
asbag57
(g78
g59
NtRp401
(dp402
g62
(dp403
g89
g90
ssg71
g392
sg64
(lp404
S':'
asbag57
(g78
g59
NtRp405
(dp406
g62
(dp407
sg71
g392
sg64
(lp408
g57
(g58
g59
NtRp409
(dp410
g62
(dp411
g70
I3
ssg71
g405
sg64
(lp412
S''
asbasbasbag57
(g73
g59
NtRp413
(dp414
g62
(dp415
sg71
g283
sg64
(lp416
g57
(g78
g59
NtRp417
(dp418
g62
(dp419
g82
g83
ssg71
g413
sg64
(lp420
S'secure'
p421
asbag57
(g78
g59
NtRp422
(dp423
g62
(dp424
g89
g90
ssg71
g413
sg64
(lp425
S':'
asbag57
(g78
g59
NtRp426
(dp427
g62
(dp428
sg71
g413
sg64
(lp429
g57
(g58
g59
NtRp430
(dp431
g62
(dp432
g70
I3
ssg71
g426
sg64
(lp433
S''
asbasbasbag57
(g73
g59
NtRp434
(dp435
g62
(dp436
sg71
g283
sg64
(lp437
g57
(g78
g59
NtRp438
(dp439
g62
(dp440
g82
g83
ssg71
g434
sg64
(lp441
S'version'
p442
asbag57
(g78
g59
NtRp443
(dp444
g62
(dp445
g89
g90
ssg71
g434
sg64
(lp446
S':'
asbag57
(g78
g59
NtRp447
(dp448
g62
(dp449
sg71
g434
sg64
(lp450
g57
(g58
g59
NtRp451
(dp452
g62
(dp453
g70
I3
ssg71
g447
sg64
(lp454
S''
asbasbasbasbasbasbasbag57
(g73
g59
NtRp455
(dp456
g62
(dp457
sg71
g258
sg64
(lp458
g57
(g78
g59
NtRp459
(dp460
g62
(dp461
g82
g83
ssg71
g455
sg64
(lp462
S'session_id_igor'
p463
asbag57
(g78
g59
NtRp464
(dp465
g62
(dp466
g89
g90
ssg71
g455
sg64
(lp467
S':'
asbag57
(g78
g59
NtRp468
(dp469
g62
(dp470
sg71
g455
sg64
(lp471
g57
(g58
g59
NtRp472
(dp473
g62
(dp474
g70
I4
ssg71
g468
sg64
(lp475
g57
(g66
g59
NtRp476
(dp477
g62
(dp478
g70
I3
ssg71
Nsg64
(lp479
g57
(g73
g59
NtRp480
(dp481
g62
(dp482
sg71
g476
sg64
(lp483
g57
(g78
g59
NtRp484
(dp485
g62
(dp486
g82
g83
ssg71
g480
sg64
(lp487
g295
asbag57
(g78
g59
NtRp488
(dp489
g62
(dp490
g89
g90
ssg71
g480
sg64
(lp491
S':'
asbag57
(g78
g59
NtRp492
(dp493
g62
(dp494
sg71
g480
sg64
(lp495
g57
(g58
g59
NtRp496
(dp497
g62
(dp498
g70
I3
ssg71
g492
sg64
(lp499
S''
asbasbasbag57
(g73
g59
NtRp500
(dp501
g62
(dp502
sg71
g476
sg64
(lp503
g57
(g78
g59
NtRp504
(dp505
g62
(dp506
g82
g83
ssg71
g500
sg64
(lp507
g316
asbag57
(g78
g59
NtRp508
(dp509
g62
(dp510
g89
g90
ssg71
g500
sg64
(lp511
S':'
asbag57
(g78
g59
NtRp512
(dp513
g62
(dp514
sg71
g500
sg64
(lp515
g57
(g58
g59
NtRp516
(dp517
g62
(dp518
g70
I3
ssg71
g512
sg64
(lp519
S''
asbasbasbag57
(g73
g59
NtRp520
(dp521
g62
(dp522
sg71
g476
sg64
(lp523
g57
(g78
g59
NtRp524
(dp525
g62
(dp526
g82
g83
ssg71
g520
sg64
(lp527
g337
asbag57
(g78
g59
NtRp528
(dp529
g62
(dp530
g89
g90
ssg71
g520
sg64
(lp531
S':'
asbag57
(g78
g59
NtRp532
(dp533
g62
(dp534
sg71
g520
sg64
(lp535
g57
(g58
g59
NtRp536
(dp537
g62
(dp538
g70
I3
ssg71
g532
sg64
(lp539
S''
asbasbasbag57
(g73
g59
NtRp540
(dp541
g62
(dp542
sg71
g476
sg64
(lp543
g57
(g78
g59
NtRp544
(dp545
g62
(dp546
g82
g83
ssg71
g540
sg64
(lp547
g358
asbag57
(g78
g59
NtRp548
(dp549
g62
(dp550
g89
g90
ssg71
g540
sg64
(lp551
S':'
asbag57
(g78
g59
NtRp552
(dp553
g62
(dp554
sg71
g540
sg64
(lp555
g57
(g58
g59
NtRp556
(dp557
g62
(dp558
g70
I3
ssg71
g552
sg64
(lp559
S''
asbasbasbag57
(g73
g59
NtRp560
(dp561
g62
(dp562
sg71
g476
sg64
(lp563
g57
(g78
g59
NtRp564
(dp565
g62
(dp566
g82
g83
ssg71
g560
sg64
(lp567
g379
asbag57
(g78
g59
NtRp568
(dp569
g62
(dp570
g89
g90
ssg71
g560
sg64
(lp571
S':'
asbag57
(g78
g59
NtRp572
(dp573
g62
(dp574
sg71
g560
sg64
(lp575
g57
(g58
g59
NtRp576
(dp577
g62
(dp578
g70
I3
ssg71
g572
sg64
(lp579
S''
asbasbasbag57
(g73
g59
NtRp580
(dp581
g62
(dp582
sg71
g476
sg64
(lp583
g57
(g78
g59
NtRp584
(dp585
g62
(dp586
g82
g83
ssg71
g580
sg64
(lp587
g400
asbag57
(g78
g59
NtRp588
(dp589
g62
(dp590
g89
g90
ssg71
g580
sg64
(lp591
S':'
asbag57
(g78
g59
NtRp592
(dp593
g62
(dp594
sg71
g580
sg64
(lp595
g57
(g58
g59
NtRp596
(dp597
g62
(dp598
g70
I3
ssg71
g592
sg64
(lp599
S''
asbasbasbag57
(g73
g59
NtRp600
(dp601
g62
(dp602
sg71
g476
sg64
(lp603
g57
(g78
g59
NtRp604
(dp605
g62
(dp606
g82
g83
ssg71
g600
sg64
(lp607
g421
asbag57
(g78
g59
NtRp608
(dp609
g62
(dp610
g89
g90
ssg71
g600
sg64
(lp611
S':'
asbag57
(g78
g59
NtRp612
(dp613
g62
(dp614
sg71
g600
sg64
(lp615
g57
(g58
g59
NtRp616
(dp617
g62
(dp618
g70
I3
ssg71
g612
sg64
(lp619
S''
asbasbasbag57
(g73
g59
NtRp620
(dp621
g62
(dp622
sg71
g476
sg64
(lp623
g57
(g78
g59
NtRp624
(dp625
g62
(dp626
g82
g83
ssg71
g620
sg64
(lp627
g442
asbag57
(g78
g59
NtRp628
(dp629
g62
(dp630
g89
g90
ssg71
g620
sg64
(lp631
S':'
asbag57
(g78
g59
NtRp632
(dp633
g62
(dp634
sg71
g620
sg64
(lp635
g57
(g58
g59
NtRp636
(dp637
g62
(dp638
g70
I3
ssg71
g632
sg64
(lp639
S''
asbasbasbasbasbasbasbag57
(g73
g59
NtRp640
(dp641
g62
(dp642
sg71
g258
sg64
(lp643
g57
(g78
g59
NtRp644
(dp645
g62
(dp646
g82
g83
ssg71
g640
sg64
(lp647
S'session_id_welcome'
p648
asbag57
(g78
g59
NtRp649
(dp650
g62
(dp651
g89
g90
ssg71
g640
sg64
(lp652
S':'
asbag57
(g78
g59
NtRp653
(dp654
g62
(dp655
sg71
g640
sg64
(lp656
g57
(g58
g59
NtRp657
(dp658
g62
(dp659
g70
I4
ssg71
g653
sg64
(lp660
g57
(g66
g59
NtRp661
(dp662
g62
(dp663
g70
I3
ssg71
Nsg64
(lp664
g57
(g73
g59
NtRp665
(dp666
g62
(dp667
sg71
g661
sg64
(lp668
g57
(g78
g59
NtRp669
(dp670
g62
(dp671
g82
g83
ssg71
g665
sg64
(lp672
g295
asbag57
(g78
g59
NtRp673
(dp674
g62
(dp675
g89
g90
ssg71
g665
sg64
(lp676
S':'
asbag57
(g78
g59
NtRp677
(dp678
g62
(dp679
sg71
g665
sg64
(lp680
g57
(g58
g59
NtRp681
(dp682
g62
(dp683
g70
I3
ssg71
g677
sg64
(lp684
S''
asbasbasbag57
(g73
g59
NtRp685
(dp686
g62
(dp687
sg71
g661
sg64
(lp688
g57
(g78
g59
NtRp689
(dp690
g62
(dp691
g82
g83
ssg71
g685
sg64
(lp692
g316
asbag57
(g78
g59
NtRp693
(dp694
g62
(dp695
g89
g90
ssg71
g685
sg64
(lp696
S':'
asbag57
(g78
g59
NtRp697
(dp698
g62
(dp699
sg71
g685
sg64
(lp700
g57
(g58
g59
NtRp701
(dp702
g62
(dp703
g70
I3
ssg71
g697
sg64
(lp704
S''
asbasbasbag57
(g73
g59
NtRp705
(dp706
g62
(dp707
sg71
g661
sg64
(lp708
g57
(g78
g59
NtRp709
(dp710
g62
(dp711
g82
g83
ssg71
g705
sg64
(lp712
g337
asbag57
(g78
g59
NtRp713
(dp714
g62
(dp715
g89
g90
ssg71
g705
sg64
(lp716
S':'
asbag57
(g78
g59
NtRp717
(dp718
g62
(dp719
sg71
g705
sg64
(lp720
g57
(g58
g59
NtRp721
(dp722
g62
(dp723
g70
I3
ssg71
g717
sg64
(lp724
S''
asbasbasbag57
(g73
g59
NtRp725
(dp726
g62
(dp727
sg71
g661
sg64
(lp728
g57
(g78
g59
NtRp729
(dp730
g62
(dp731
g82
g83
ssg71
g725
sg64
(lp732
g358
asbag57
(g78
g59
NtRp733
(dp734
g62
(dp735
g89
g90
ssg71
g725
sg64
(lp736
S':'
asbag57
(g78
g59
NtRp737
(dp738
g62
(dp739
sg71
g725
sg64
(lp740
g57
(g58
g59
NtRp741
(dp742
g62
(dp743
g70
I3
ssg71
g737
sg64
(lp744
S''
asbasbasbag57
(g73
g59
NtRp745
(dp746
g62
(dp747
sg71
g661
sg64
(lp748
g57
(g78
g59
NtRp749
(dp750
g62
(dp751
g82
g83
ssg71
g745
sg64
(lp752
g379
asbag57
(g78
g59
NtRp753
(dp754
g62
(dp755
g89
g90
ssg71
g745
sg64
(lp756
S':'
asbag57
(g78
g59
NtRp757
(dp758
g62
(dp759
sg71
g745
sg64
(lp760
g57
(g58
g59
NtRp761
(dp762
g62
(dp763
g70
I3
ssg71
g757
sg64
(lp764
S''
asbasbasbag57
(g73
g59
NtRp765
(dp766
g62
(dp767
sg71
g661
sg64
(lp768
g57
(g78
g59
NtRp769
(dp770
g62
(dp771
g82
g83
ssg71
g765
sg64
(lp772
g400
asbag57
(g78
g59
NtRp773
(dp774
g62
(dp775
g89
g90
ssg71
g765
sg64
(lp776
S':'
asbag57
(g78
g59
NtRp777
(dp778
g62
(dp779
sg71
g765
sg64
(lp780
g57
(g58
g59
NtRp781
(dp782
g62
(dp783
g70
I3
ssg71
g777
sg64
(lp784
S''
asbasbasbag57
(g73
g59
NtRp785
(dp786
g62
(dp787
sg71
g661
sg64
(lp788
g57
(g78
g59
NtRp789
(dp790
g62
(dp791
g82
g83
ssg71
g785
sg64
(lp792
g421
asbag57
(g78
g59
NtRp793
(dp794
g62
(dp795
g89
g90
ssg71
g785
sg64
(lp796
S':'
asbag57
(g78
g59
NtRp797
(dp798
g62
(dp799
sg71
g785
sg64
(lp800
g57
(g58
g59
NtRp801
(dp802
g62
(dp803
g70
I3
ssg71
g797
sg64
(lp804
S''
asbasbasbag57
(g73
g59
NtRp805
(dp806
g62
(dp807
sg71
g661
sg64
(lp808
g57
(g78
g59
NtRp809
(dp810
g62
(dp811
g82
g83
ssg71
g805
sg64
(lp812
g442
asbag57
(g78
g59
NtRp813
(dp814
g62
(dp815
g89
g90
ssg71
g805
sg64
(lp816
S':'
asbag57
(g78
g59
NtRp817
(dp818
g62
(dp819
sg71
g805
sg64
(lp820
g57
(g58
g59
NtRp821
(dp822
g62
(dp823
g70
I3
ssg71
g817
sg64
(lp824
S''
asbasbasbasbasbasbasbasbasbasbasbag57
(g73
g59
NtRp825
(dp826
g62
(dp827
sg71
g67
sg64
(lp828
g57
(g78
g59
NtRp829
(dp830
g62
(dp831
g82
g83
ssg71
g825
sg64
(lp832
S'env'
p833
asbag57
(g78
g59
NtRp834
(dp835
g62
(dp836
g89
g90
ssg71
g825
sg64
(lp837
S':'
asbag57
(g78
g59
NtRp838
(dp839
g62
(dp840
sg71
g825
sg64
(lp841
g57
(g58
g59
NtRp842
(dp843
g62
(dp844
g70
I5
ssg71
g838
sg64
(lp845
g57
(g66
g59
NtRp846
(dp847
g62
(dp848
g70
I4
ssg71
Nsg64
(lp849
g57
(g73
g59
NtRp850
(dp851
g62
(dp852
sg71
g846
sg64
(lp853
g57
(g78
g59
NtRp854
(dp855
g62
(dp856
g82
g83
ssg71
g850
sg64
(lp857
S'app_folders'
p858
asbag57
(g78
g59
NtRp859
(dp860
g62
(dp861
g89
g90
ssg71
g850
sg64
(lp862
S':'
asbag57
(g78
g59
NtRp863
(dp864
g62
(dp865
sg71
g850
sg64
(lp866
g57
(g58
g59
NtRp867
(dp868
g62
(dp869
g70
I4
ssg71
g863
sg64
(lp870
S"set(['D:\\\\workspace\\\\CA\\\\IgoR\\\\C_Sources\\\\Server\\\\igor-assistant-ca-2012\\\\applications\\\\admin\\\\', 'D:\\\\workspace\\\\CA\\\\IgoR\\\\C_Sources\\\\Server\\\\igor-assistant-ca-2012\\\\applications\\\\igor\\\\', 'D:\\\\workspace\\\\CA\\\\IgoR\\\\C_Sources\\\\Server\\\\igor-assistant-ca-2012\\\\applications\\\\welcome\\\\'])"
p871
asbasbasbag57
(g73
g59
NtRp872
(dp873
g62
(dp874
sg71
g846
sg64
(lp875
g57
(g78
g59
NtRp876
(dp877
g62
(dp878
g82
g83
ssg71
g872
sg64
(lp879
S'applications_parent'
p880
asbag57
(g78
g59
NtRp881
(dp882
g62
(dp883
g89
g90
ssg71
g872
sg64
(lp884
S':'
asbag57
(g78
g59
NtRp885
(dp886
g62
(dp887
sg71
g872
sg64
(lp888
g57
(g58
g59
NtRp889
(dp890
g62
(dp891
g70
I4
ssg71
g885
sg64
(lp892
S'D:\\workspace\\CA\\IgoR\\C_Sources\\Server\\igor-assistant-ca-2012'
p893
asbasbasbag57
(g73
g59
NtRp894
(dp895
g62
(dp896
sg71
g846
sg64
(lp897
g57
(g78
g59
NtRp898
(dp899
g62
(dp900
g82
g83
ssg71
g894
sg64
(lp901
S'cmd_args'
p902
asbag57
(g78
g59
NtRp903
(dp904
g62
(dp905
g89
g90
ssg71
g894
sg64
(lp906
S':'
asbag57
(g78
g59
NtRp907
(dp908
g62
(dp909
sg71
g894
sg64
(lp910
g57
(g58
g59
NtRp911
(dp912
g62
(dp913
g70
I4
ssg71
g907
sg64
(lp914
g57
(g66
g59
NtRp915
(dp916
g62
(dp917
g70
I3
ssg71
Nsg64
(lp918
g57
(g73
g59
NtRp919
(dp920
g62
(dp921
sg71
g915
sg64
(lp922
g57
(g78
g59
NtRp923
(dp924
g62
(dp925
sg71
g919
sg64
(lp926
g57
(g58
g59
NtRp927
(dp928
g62
(dp929
g70
I3
ssg71
g923
sg64
(lp930
S'startserver'
p931
asbasbasbasbasbasbasbag57
(g73
g59
NtRp932
(dp933
g62
(dp934
sg71
g846
sg64
(lp935
g57
(g78
g59
NtRp936
(dp937
g62
(dp938
g82
g83
ssg71
g932
sg64
(lp939
S'cmd_options'
p940
asbag57
(g78
g59
NtRp941
(dp942
g62
(dp943
g89
g90
ssg71
g932
sg64
(lp944
S':'
asbag57
(g78
g59
NtRp945
(dp946
g62
(dp947
sg71
g932
sg64
(lp948
g57
(g58
g59
NtRp949
(dp950
g62
(dp951
g70
I4
ssg71
g945
sg64
(lp952
S"<Values at 0x3807d88: {'verbose': False, 'ip': '127.0.0.1', 'shutdown_timeout': 5, 'taskbar': False, 'nocron': False, 'pid_filename': 'httpserver.pid', 'maxthreads': None, 'softcron': False, 'server_name': 'PHUCNH-PC', 'bpython': False, 'nogui': False, 'port': 8000, 'extcron': False, 'debuglevel': 30, 'test': None, 'folder': 'D:\\\\workspace\\\\CA\\\\IgoR\\\\C_Sources\\\\Server\\\\igor-assistant-ca-2012', 'config': '', 'import_models': False, 'winservice': '', 'shell': None, 'run': '', 'log_filename': 'httpserver.log', 'args': [''], 'socket_timeout': 5, 'ssl_ca_certificate': None, 'scheduler': None, 'profiler_filename': None, 'ssl_private_key': '', 'password': '<ask>', 'request_queue_size': 5, 'ssl_certificate': '', 'cronjob': False, 'numthreads': None, 'quiet': False, 'interfaces': None, 'minthreads': None, 'timeout': 10, 'plain': False, 'nobanner': False}>"
p953
asbasbasbag57
(g73
g59
NtRp954
(dp955
g62
(dp956
sg71
g846
sg64
(lp957
g57
(g78
g59
NtRp958
(dp959
g62
(dp960
g82
g83
ssg71
g954
sg64
(lp961
S'db_sessions'
p962
asbag57
(g78
g59
NtRp963
(dp964
g62
(dp965
g89
g90
ssg71
g954
sg64
(lp966
S':'
asbag57
(g78
g59
NtRp967
(dp968
g62
(dp969
sg71
g954
sg64
(lp970
g57
(g58
g59
NtRp971
(dp972
g62
(dp973
g70
I4
ssg71
g967
sg64
(lp974
S'set([])'
p975
asbasbasbag57
(g73
g59
NtRp976
(dp977
g62
(dp978
sg71
g846
sg64
(lp979
g57
(g78
g59
NtRp980
(dp981
g62
(dp982
g82
g83
ssg71
g976
sg64
(lp983
S'debugging'
p984
asbag57
(g78
g59
NtRp985
(dp986
g62
(dp987
g89
g90
ssg71
g976
sg64
(lp988
S':'
asbag57
(g78
g59
NtRp989
(dp990
g62
(dp991
sg71
g976
sg64
(lp992
g57
(g58
g59
NtRp993
(dp994
g62
(dp995
g70
I4
ssg71
g989
sg64
(lp996
g100
asbasbasbag57
(g73
g59
NtRp997
(dp998
g62
(dp999
sg71
g846
sg64
(lp1000
g57
(g78
g59
NtRp1001
(dp1002
g62
(dp1003
g82
g83
ssg71
g997
sg64
(lp1004
S'gluon_parent'
p1005
asbag57
(g78
g59
NtRp1006
(dp1007
g62
(dp1008
g89
g90
ssg71
g997
sg64
(lp1009
S':'
asbag57
(g78
g59
NtRp1010
(dp1011
g62
(dp1012
sg71
g997
sg64
(lp1013
g57
(g58
g59
NtRp1014
(dp1015
g62
(dp1016
g70
I4
ssg71
g1010
sg64
(lp1017
S'D:\\workspace\\CA\\IgoR\\C_Sources\\Server\\igor-assistant-ca-2012'
p1018
asbasbasbag57
(g73
g59
NtRp1019
(dp1020
g62
(dp1021
sg71
g846
sg64
(lp1022
g57
(g78
g59
NtRp1023
(dp1024
g62
(dp1025
g82
g83
ssg71
g1019
sg64
(lp1026
S'http_accept'
p1027
asbag57
(g78
g59
NtRp1028
(dp1029
g62
(dp1030
g89
g90
ssg71
g1019
sg64
(lp1031
S':'
asbag57
(g78
g59
NtRp1032
(dp1033
g62
(dp1034
sg71
g1019
sg64
(lp1035
g57
(g58
g59
NtRp1036
(dp1037
g62
(dp1038
g70
I4
ssg71
g1032
sg64
(lp1039
S'text/html,application/xhtml+xml,application/xml;q=0.9,*/*;q=0.8'
p1040
asbasbasbag57
(g73
g59
NtRp1041
(dp1042
g62
(dp1043
sg71
g846
sg64
(lp1044
g57
(g78
g59
NtRp1045
(dp1046
g62
(dp1047
g82
g83
ssg71
g1041
sg64
(lp1048
S'http_accept_charset'
p1049
asbag57
(g78
g59
NtRp1050
(dp1051
g62
(dp1052
g89
g90
ssg71
g1041
sg64
(lp1053
S':'
asbag57
(g78
g59
NtRp1054
(dp1055
g62
(dp1056
sg71
g1041
sg64
(lp1057
g57
(g58
g59
NtRp1058
(dp1059
g62
(dp1060
g70
I4
ssg71
g1054
sg64
(lp1061
S'UTF-8,*;q=0.5'
p1062
asbasbasbag57
(g73
g59
NtRp1063
(dp1064
g62
(dp1065
sg71
g846
sg64
(lp1066
g57
(g78
g59
NtRp1067
(dp1068
g62
(dp1069
g82
g83
ssg71
g1063
sg64
(lp1070
S'http_accept_encoding'
p1071
asbag57
(g78
g59
NtRp1072
(dp1073
g62
(dp1074
g89
g90
ssg71
g1063
sg64
(lp1075
S':'
asbag57
(g78
g59
NtRp1076
(dp1077
g62
(dp1078
sg71
g1063
sg64
(lp1079
g57
(g58
g59
NtRp1080
(dp1081
g62
(dp1082
g70
I4
ssg71
g1076
sg64
(lp1083
S'gzip,deflate,sdch'
p1084
asbasbasbag57
(g73
g59
NtRp1085
(dp1086
g62
(dp1087
sg71
g846
sg64
(lp1088
g57
(g78
g59
NtRp1089
(dp1090
g62
(dp1091
g82
g83
ssg71
g1085
sg64
(lp1092
S'http_accept_language'
p1093
asbag57
(g78
g59
NtRp1094
(dp1095
g62
(dp1096
g89
g90
ssg71
g1085
sg64
(lp1097
S':'
asbag57
(g78
g59
NtRp1098
(dp1099
g62
(dp1100
sg71
g1085
sg64
(lp1101
g57
(g58
g59
NtRp1102
(dp1103
g62
(dp1104
g70
I4
ssg71
g1098
sg64
(lp1105
S'en-US,en;q=0.8,vi;q=0.6,fr-FR;q=0.4,fr;q=0.2'
p1106
asbasbasbag57
(g73
g59
NtRp1107
(dp1108
g62
(dp1109
sg71
g846
sg64
(lp1110
g57
(g78
g59
NtRp1111
(dp1112
g62
(dp1113
g82
g83
ssg71
g1107
sg64
(lp1114
S'http_cache_control'
p1115
asbag57
(g78
g59
NtRp1116
(dp1117
g62
(dp1118
g89
g90
ssg71
g1107
sg64
(lp1119
S':'
asbag57
(g78
g59
NtRp1120
(dp1121
g62
(dp1122
sg71
g1107
sg64
(lp1123
g57
(g58
g59
NtRp1124
(dp1125
g62
(dp1126
g70
I4
ssg71
g1120
sg64
(lp1127
S'max-age=0'
p1128
asbasbasbag57
(g73
g59
NtRp1129
(dp1130
g62
(dp1131
sg71
g846
sg64
(lp1132
g57
(g78
g59
NtRp1133
(dp1134
g62
(dp1135
g82
g83
ssg71
g1129
sg64
(lp1136
S'http_connection'
p1137
asbag57
(g78
g59
NtRp1138
(dp1139
g62
(dp1140
g89
g90
ssg71
g1129
sg64
(lp1141
S':'
asbag57
(g78
g59
NtRp1142
(dp1143
g62
(dp1144
sg71
g1129
sg64
(lp1145
g57
(g58
g59
NtRp1146
(dp1147
g62
(dp1148
g70
I4
ssg71
g1142
sg64
(lp1149
S'keep-alive'
p1150
asbasbasbag57
(g73
g59
NtRp1151
(dp1152
g62
(dp1153
sg71
g846
sg64
(lp1154
g57
(g78
g59
NtRp1155
(dp1156
g62
(dp1157
g82
g83
ssg71
g1151
sg64
(lp1158
S'http_cookie'
p1159
asbag57
(g78
g59
NtRp1160
(dp1161
g62
(dp1162
g89
g90
ssg71
g1151
sg64
(lp1163
S':'
asbag57
(g78
g59
NtRp1164
(dp1165
g62
(dp1166
sg71
g1151
sg64
(lp1167
g57
(g58
g59
NtRp1168
(dp1169
g62
(dp1170
g70
I4
ssg71
g1164
sg64
(lp1171
S'session_id_welcome=127.0.0.1-0d6fd9f4-2bbb-44cf-935b-dc9638f0b08d; session_id_igor=127.0.0.1-2ea2e6e1-1a4a-478b-90e2-9c588ec46c22; session_id_admin=127.0.0.1-04ca2b37-bf25-4b66-a32f-836e2273654c'
p1172
asbasbasbag57
(g73
g59
NtRp1173
(dp1174
g62
(dp1175
sg71
g846
sg64
(lp1176
g57
(g78
g59
NtRp1177
(dp1178
g62
(dp1179
g82
g83
ssg71
g1173
sg64
(lp1180
S'http_host'
p1181
asbag57
(g78
g59
NtRp1182
(dp1183
g62
(dp1184
g89
g90
ssg71
g1173
sg64
(lp1185
S':'
asbag57
(g78
g59
NtRp1186
(dp1187
g62
(dp1188
sg71
g1173
sg64
(lp1189
g57
(g58
g59
NtRp1190
(dp1191
g62
(dp1192
g70
I4
ssg71
g1186
sg64
(lp1193
S'127.0.0.1:8000'
p1194
asbasbasbag57
(g73
g59
NtRp1195
(dp1196
g62
(dp1197
sg71
g846
sg64
(lp1198
g57
(g78
g59
NtRp1199
(dp1200
g62
(dp1201
g82
g83
ssg71
g1195
sg64
(lp1202
S'http_user_agent'
p1203
asbag57
(g78
g59
NtRp1204
(dp1205
g62
(dp1206
g89
g90
ssg71
g1195
sg64
(lp1207
S':'
asbag57
(g78
g59
NtRp1208
(dp1209
g62
(dp1210
sg71
g1195
sg64
(lp1211
g57
(g58
g59
NtRp1212
(dp1213
g62
(dp1214
g70
I4
ssg71
g1208
sg64
(lp1215
S'Mozilla/5.0 (Windows NT 6.1; WOW64) AppleWebKit/536.11 (KHTML, like Gecko) Chrome/20.0.1132.57 Safari/536.11'
p1216
asbasbasbag57
(g73
g59
NtRp1217
(dp1218
g62
(dp1219
sg71
g846
sg64
(lp1220
g57
(g78
g59
NtRp1221
(dp1222
g62
(dp1223
g82
g83
ssg71
g1217
sg64
(lp1224
S'is_jython'
p1225
asbag57
(g78
g59
NtRp1226
(dp1227
g62
(dp1228
g89
g90
ssg71
g1217
sg64
(lp1229
S':'
asbag57
(g78
g59
NtRp1230
(dp1231
g62
(dp1232
sg71
g1217
sg64
(lp1233
g57
(g58
g59
NtRp1234
(dp1235
g62
(dp1236
g70
I4
ssg71
g1230
sg64
(lp1237
g100
asbasbasbag57
(g73
g59
NtRp1238
(dp1239
g62
(dp1240
sg71
g846
sg64
(lp1241
g57
(g78
g59
NtRp1242
(dp1243
g62
(dp1244
g82
g83
ssg71
g1238
sg64
(lp1245
S'is_pypy'
p1246
asbag57
(g78
g59
NtRp1247
(dp1248
g62
(dp1249
g89
g90
ssg71
g1238
sg64
(lp1250
S':'
asbag57
(g78
g59
NtRp1251
(dp1252
g62
(dp1253
sg71
g1238
sg64
(lp1254
g57
(g58
g59
NtRp1255
(dp1256
g62
(dp1257
g70
I4
ssg71
g1251
sg64
(lp1258
g100
asbasbasbag57
(g73
g59
NtRp1259
(dp1260
g62
(dp1261
sg71
g846
sg64
(lp1262
g57
(g78
g59
NtRp1263
(dp1264
g62
(dp1265
g82
g83
ssg71
g1259
sg64
(lp1266
S'path_info'
p1267
asbag57
(g78
g59
NtRp1268
(dp1269
g62
(dp1270
g89
g90
ssg71
g1259
sg64
(lp1271
S':'
asbag57
(g78
g59
NtRp1272
(dp1273
g62
(dp1274
sg71
g1259
sg64
(lp1275
g57
(g58
g59
NtRp1276
(dp1277
g62
(dp1278
g70
I4
ssg71
g1272
sg64
(lp1279
S'/igor/class_subject/delete_class/2/2'
p1280
asbasbasbag57
(g73
g59
NtRp1281
(dp1282
g62
(dp1283
sg71
g846
sg64
(lp1284
g57
(g78
g59
NtRp1285
(dp1286
g62
(dp1287
g82
g83
ssg71
g1281
sg64
(lp1288
S'query_string'
p1289
asbag57
(g78
g59
NtRp1290
(dp1291
g62
(dp1292
g89
g90
ssg71
g1281
sg64
(lp1293
S':'
asbag57
(g78
g59
NtRp1294
(dp1295
g62
(dp1296
sg71
g1281
sg64
(lp1297
g57
(g58
g59
NtRp1298
(dp1299
g62
(dp1300
g70
I4
ssg71
g1294
sg64
(lp1301
S''
asbasbasbag57
(g73
g59
NtRp1302
(dp1303
g62
(dp1304
sg71
g846
sg64
(lp1305
g57
(g78
g59
NtRp1306
(dp1307
g62
(dp1308
g82
g83
ssg71
g1302
sg64
(lp1309
S'remote_addr'
p1310
asbag57
(g78
g59
NtRp1311
(dp1312
g62
(dp1313
g89
g90
ssg71
g1302
sg64
(lp1314
S':'
asbag57
(g78
g59
NtRp1315
(dp1316
g62
(dp1317
sg71
g1302
sg64
(lp1318
g57
(g58
g59
NtRp1319
(dp1320
g62
(dp1321
g70
I4
ssg71
g1315
sg64
(lp1322
g214
asbasbasbag57
(g73
g59
NtRp1323
(dp1324
g62
(dp1325
sg71
g846
sg64
(lp1326
g57
(g78
g59
NtRp1327
(dp1328
g62
(dp1329
g82
g83
ssg71
g1323
sg64
(lp1330
S'remote_port'
p1331
asbag57
(g78
g59
NtRp1332
(dp1333
g62
(dp1334
g89
g90
ssg71
g1323
sg64
(lp1335
S':'
asbag57
(g78
g59
NtRp1336
(dp1337
g62
(dp1338
sg71
g1323
sg64
(lp1339
g57
(g58
g59
NtRp1340
(dp1341
g62
(dp1342
g70
I4
ssg71
g1336
sg64
(lp1343
S'4924'
p1344
asbasbasbag57
(g73
g59
NtRp1345
(dp1346
g62
(dp1347
sg71
g846
sg64
(lp1348
g57
(g78
g59
NtRp1349
(dp1350
g62
(dp1351
g82
g83
ssg71
g1345
sg64
(lp1352
S'request_method'
p1353
asbag57
(g78
g59
NtRp1354
(dp1355
g62
(dp1356
g89
g90
ssg71
g1345
sg64
(lp1357
S':'
asbag57
(g78
g59
NtRp1358
(dp1359
g62
(dp1360
sg71
g1345
sg64
(lp1361
g57
(g58
g59
NtRp1362
(dp1363
g62
(dp1364
g70
I4
ssg71
g1358
sg64
(lp1365
S'GET'
p1366
asbasbasbag57
(g73
g59
NtRp1367
(dp1368
g62
(dp1369
sg71
g846
sg64
(lp1370
g57
(g78
g59
NtRp1371
(dp1372
g62
(dp1373
g82
g83
ssg71
g1367
sg64
(lp1374
S'script_name'
p1375
asbag57
(g78
g59
NtRp1376
(dp1377
g62
(dp1378
g89
g90
ssg71
g1367
sg64
(lp1379
S':'
asbag57
(g78
g59
NtRp1380
(dp1381
g62
(dp1382
sg71
g1367
sg64
(lp1383
g57
(g58
g59
NtRp1384
(dp1385
g62
(dp1386
g70
I4
ssg71
g1380
sg64
(lp1387
S''
asbasbasbag57
(g73
g59
NtRp1388
(dp1389
g62
(dp1390
sg71
g846
sg64
(lp1391
g57
(g78
g59
NtRp1392
(dp1393
g62
(dp1394
g82
g83
ssg71
g1388
sg64
(lp1395
S'server_name'
p1396
asbag57
(g78
g59
NtRp1397
(dp1398
g62
(dp1399
g89
g90
ssg71
g1388
sg64
(lp1400
S':'
asbag57
(g78
g59
NtRp1401
(dp1402
g62
(dp1403
sg71
g1388
sg64
(lp1404
g57
(g58
g59
NtRp1405
(dp1406
g62
(dp1407
g70
I4
ssg71
g1401
sg64
(lp1408
S'PHUCNH-PC'
p1409
asbasbasbag57
(g73
g59
NtRp1410
(dp1411
g62
(dp1412
sg71
g846
sg64
(lp1413
g57
(g78
g59
NtRp1414
(dp1415
g62
(dp1416
g82
g83
ssg71
g1410
sg64
(lp1417
S'server_port'
p1418
asbag57
(g78
g59
NtRp1419
(dp1420
g62
(dp1421
g89
g90
ssg71
g1410
sg64
(lp1422
S':'
asbag57
(g78
g59
NtRp1423
(dp1424
g62
(dp1425
sg71
g1410
sg64
(lp1426
g57
(g58
g59
NtRp1427
(dp1428
g62
(dp1429
g70
I4
ssg71
g1423
sg64
(lp1430
S'8000'
p1431
asbasbasbag57
(g73
g59
NtRp1432
(dp1433
g62
(dp1434
sg71
g846
sg64
(lp1435
g57
(g78
g59
NtRp1436
(dp1437
g62
(dp1438
g82
g83
ssg71
g1432
sg64
(lp1439
S'server_protocol'
p1440
asbag57
(g78
g59
NtRp1441
(dp1442
g62
(dp1443
g89
g90
ssg71
g1432
sg64
(lp1444
S':'
asbag57
(g78
g59
NtRp1445
(dp1446
g62
(dp1447
sg71
g1432
sg64
(lp1448
g57
(g58
g59
NtRp1449
(dp1450
g62
(dp1451
g70
I4
ssg71
g1445
sg64
(lp1452
S'HTTP/1.1'
p1453
asbasbasbag57
(g73
g59
NtRp1454
(dp1455
g62
(dp1456
sg71
g846
sg64
(lp1457
g57
(g78
g59
NtRp1458
(dp1459
g62
(dp1460
g82
g83
ssg71
g1454
sg64
(lp1461
S'server_software'
p1462
asbag57
(g78
g59
NtRp1463
(dp1464
g62
(dp1465
g89
g90
ssg71
g1454
sg64
(lp1466
S':'
asbag57
(g78
g59
NtRp1467
(dp1468
g62
(dp1469
sg71
g1454
sg64
(lp1470
g57
(g58
g59
NtRp1471
(dp1472
g62
(dp1473
g70
I4
ssg71
g1467
sg64
(lp1474
S'Rocket 1.2.4'
p1475
asbasbasbag57
(g73
g59
NtRp1476
(dp1477
g62
(dp1478
sg71
g846
sg64
(lp1479
g57
(g78
g59
NtRp1480
(dp1481
g62
(dp1482
g82
g83
ssg71
g1476
sg64
(lp1483
S'web2py_crontype'
p1484
asbag57
(g78
g59
NtRp1485
(dp1486
g62
(dp1487
g89
g90
ssg71
g1476
sg64
(lp1488
S':'
asbag57
(g78
g59
NtRp1489
(dp1490
g62
(dp1491
sg71
g1476
sg64
(lp1492
g57
(g58
g59
NtRp1493
(dp1494
g62
(dp1495
g70
I4
ssg71
g1489
sg64
(lp1496
S'hard'
p1497
asbasbasbag57
(g73
g59
NtRp1498
(dp1499
g62
(dp1500
sg71
g846
sg64
(lp1501
g57
(g78
g59
NtRp1502
(dp1503
g62
(dp1504
g82
g83
ssg71
g1498
sg64
(lp1505
S'web2py_path'
p1506
asbag57
(g78
g59
NtRp1507
(dp1508
g62
(dp1509
g89
g90
ssg71
g1498
sg64
(lp1510
S':'
asbag57
(g78
g59
NtRp1511
(dp1512
g62
(dp1513
sg71
g1498
sg64
(lp1514
g57
(g58
g59
NtRp1515
(dp1516
g62
(dp1517
g70
I4
ssg71
g1511
sg64
(lp1518
g893
asbasbasbag57
(g73
g59
NtRp1519
(dp1520
g62
(dp1521
sg71
g846
sg64
(lp1522
g57
(g78
g59
NtRp1523
(dp1524
g62
(dp1525
g82
g83
ssg71
g1519
sg64
(lp1526
S'web2py_version'
p1527
asbag57
(g78
g59
NtRp1528
(dp1529
g62
(dp1530
g89
g90
ssg71
g1519
sg64
(lp1531
S':'
asbag57
(g78
g59
NtRp1532
(dp1533
g62
(dp1534
sg71
g1519
sg64
(lp1535
g57
(g58
g59
NtRp1536
(dp1537
g62
(dp1538
g70
I4
ssg71
g1532
sg64
(lp1539
g57
(g66
g59
NtRp1540
(dp1541
g62
(dp1542
g70
I3
ssg71
Nsg64
(lp1543
g57
(g73
g59
NtRp1544
(dp1545
g62
(dp1546
sg71
g1540
sg64
(lp1547
g57
(g78
g59
NtRp1548
(dp1549
g62
(dp1550
sg71
g1544
sg64
(lp1551
g57
(g58
g59
NtRp1552
(dp1553
g62
(dp1554
g70
I3
ssg71
g1548
sg64
(lp1555
S'1'
asbasbasbag57
(g73
g59
NtRp1556
(dp1557
g62
(dp1558
sg71
g1540
sg64
(lp1559
g57
(g78
g59
NtRp1560
(dp1561
g62
(dp1562
sg71
g1556
sg64
(lp1563
g57
(g58
g59
NtRp1564
(dp1565
g62
(dp1566
g70
I3
ssg71
g1560
sg64
(lp1567
S'99'
p1568
asbasbasbag57
(g73
g59
NtRp1569
(dp1570
g62
(dp1571
sg71
g1540
sg64
(lp1572
g57
(g78
g59
NtRp1573
(dp1574
g62
(dp1575
sg71
g1569
sg64
(lp1576
g57
(g58
g59
NtRp1577
(dp1578
g62
(dp1579
g70
I3
ssg71
g1573
sg64
(lp1580
S'7'
asbasbasbag57
(g73
g59
NtRp1581
(dp1582
g62
(dp1583
sg71
g1540
sg64
(lp1584
g57
(g78
g59
NtRp1585
(dp1586
g62
(dp1587
sg71
g1581
sg64
(lp1588
g57
(g58
g59
NtRp1589
(dp1590
g62
(dp1591
g70
I3
ssg71
g1585
sg64
(lp1592
S'datetime.datetime(2012, 3, 4, 22, 12, 8)'
p1593
asbasbasbag57
(g73
g59
NtRp1594
(dp1595
g62
(dp1596
sg71
g1540
sg64
(lp1597
g57
(g78
g59
NtRp1598
(dp1599
g62
(dp1600
sg71
g1594
sg64
(lp1601
g57
(g58
g59
NtRp1602
(dp1603
g62
(dp1604
g70
I3
ssg71
g1598
sg64
(lp1605
S'stable'
p1606
asbasbasbasbasbasbasbag57
(g73
g59
NtRp1607
(dp1608
g62
(dp1609
sg71
g846
sg64
(lp1610
g57
(g78
g59
NtRp1611
(dp1612
g62
(dp1613
g82
g83
ssg71
g1607
sg64
(lp1614
S'wsgi_errors'
p1615
asbag57
(g78
g59
NtRp1616
(dp1617
g62
(dp1618
g89
g90
ssg71
g1607
sg64
(lp1619
S':'
asbag57
(g78
g59
NtRp1620
(dp1621
g62
(dp1622
sg71
g1607
sg64
(lp1623
g57
(g58
g59
NtRp1624
(dp1625
g62
(dp1626
g70
I4
ssg71
g1620
sg64
(lp1627
S"<open file '<stderr>', mode 'w' at 0x0000000001DEE1E0>"
p1628
asbasbasbag57
(g73
g59
NtRp1629
(dp1630
g62
(dp1631
sg71
g846
sg64
(lp1632
g57
(g78
g59
NtRp1633
(dp1634
g62
(dp1635
g82
g83
ssg71
g1629
sg64
(lp1636
S'wsgi_file_wrapper'
p1637
asbag57
(g78
g59
NtRp1638
(dp1639
g62
(dp1640
g89
g90
ssg71
g1629
sg64
(lp1641
S':'
asbag57
(g78
g59
NtRp1642
(dp1643
g62
(dp1644
sg71
g1629
sg64
(lp1645
g57
(g58
g59
NtRp1646
(dp1647
g62
(dp1648
g70
I4
ssg71
g1642
sg64
(lp1649
S'<class wsgiref.util.FileWrapper at 0x00000000036DCAC8>'
p1650
asbasbasbag57
(g73
g59
NtRp1651
(dp1652
g62
(dp1653
sg71
g846
sg64
(lp1654
g57
(g78
g59
NtRp1655
(dp1656
g62
(dp1657
g82
g83
ssg71
g1651
sg64
(lp1658
S'wsgi_input'
p1659
asbag57
(g78
g59
NtRp1660
(dp1661
g62
(dp1662
g89
g90
ssg71
g1651
sg64
(lp1663
S':'
asbag57
(g78
g59
NtRp1664
(dp1665
g62
(dp1666
sg71
g1651
sg64
(lp1667
g57
(g58
g59
NtRp1668
(dp1669
g62
(dp1670
g70
I4
ssg71
g1664
sg64
(lp1671
S'<socket._fileobject object at 0x0000000004C48138>'
p1672
asbasbasbag57
(g73
g59
NtRp1673
(dp1674
g62
(dp1675
sg71
g846
sg64
(lp1676
g57
(g78
g59
NtRp1677
(dp1678
g62
(dp1679
g82
g83
ssg71
g1673
sg64
(lp1680
S'wsgi_multiprocess'
p1681
asbag57
(g78
g59
NtRp1682
(dp1683
g62
(dp1684
g89
g90
ssg71
g1673
sg64
(lp1685
S':'
asbag57
(g78
g59
NtRp1686
(dp1687
g62
(dp1688
sg71
g1673
sg64
(lp1689
g57
(g58
g59
NtRp1690
(dp1691
g62
(dp1692
g70
I4
ssg71
g1686
sg64
(lp1693
g100
asbasbasbag57
(g73
g59
NtRp1694
(dp1695
g62
(dp1696
sg71
g846
sg64
(lp1697
g57
(g78
g59
NtRp1698
(dp1699
g62
(dp1700
g82
g83
ssg71
g1694
sg64
(lp1701
S'wsgi_multithread'
p1702
asbag57
(g78
g59
NtRp1703
(dp1704
g62
(dp1705
g89
g90
ssg71
g1694
sg64
(lp1706
S':'
asbag57
(g78
g59
NtRp1707
(dp1708
g62
(dp1709
sg71
g1694
sg64
(lp1710
g57
(g58
g59
NtRp1711
(dp1712
g62
(dp1713
g70
I4
ssg71
g1707
sg64
(lp1714
S'True'
p1715
asbasbasbag57
(g73
g59
NtRp1716
(dp1717
g62
(dp1718
sg71
g846
sg64
(lp1719
g57
(g78
g59
NtRp1720
(dp1721
g62
(dp1722
g82
g83
ssg71
g1716
sg64
(lp1723
S'wsgi_run_once'
p1724
asbag57
(g78
g59
NtRp1725
(dp1726
g62
(dp1727
g89
g90
ssg71
g1716
sg64
(lp1728
S':'
asbag57
(g78
g59
NtRp1729
(dp1730
g62
(dp1731
sg71
g1716
sg64
(lp1732
g57
(g58
g59
NtRp1733
(dp1734
g62
(dp1735
g70
I4
ssg71
g1729
sg64
(lp1736
g100
asbasbasbag57
(g73
g59
NtRp1737
(dp1738
g62
(dp1739
sg71
g846
sg64
(lp1740
g57
(g78
g59
NtRp1741
(dp1742
g62
(dp1743
g82
g83
ssg71
g1737
sg64
(lp1744
S'wsgi_url_scheme'
p1745
asbag57
(g78
g59
NtRp1746
(dp1747
g62
(dp1748
g89
g90
ssg71
g1737
sg64
(lp1749
S':'
asbag57
(g78
g59
NtRp1750
(dp1751
g62
(dp1752
sg71
g1737
sg64
(lp1753
g57
(g58
g59
NtRp1754
(dp1755
g62
(dp1756
g70
I4
ssg71
g1750
sg64
(lp1757
S'http'
p1758
asbasbasbag57
(g73
g59
NtRp1759
(dp1760
g62
(dp1761
sg71
g846
sg64
(lp1762
g57
(g78
g59
NtRp1763
(dp1764
g62
(dp1765
g82
g83
ssg71
g1759
sg64
(lp1766
S'wsgi_version'
p1767
asbag57
(g78
g59
NtRp1768
(dp1769
g62
(dp1770
g89
g90
ssg71
g1759
sg64
(lp1771
S':'
asbag57
(g78
g59
NtRp1772
(dp1773
g62
(dp1774
sg71
g1759
sg64
(lp1775
g57
(g58
g59
NtRp1776
(dp1777
g62
(dp1778
g70
I4
ssg71
g1772
sg64
(lp1779
g57
(g66
g59
NtRp1780
(dp1781
g62
(dp1782
g70
I3
ssg71
Nsg64
(lp1783
g57
(g73
g59
NtRp1784
(dp1785
g62
(dp1786
sg71
g1780
sg64
(lp1787
g57
(g78
g59
NtRp1788
(dp1789
g62
(dp1790
sg71
g1784
sg64
(lp1791
g57
(g58
g59
NtRp1792
(dp1793
g62
(dp1794
g70
I3
ssg71
g1788
sg64
(lp1795
S'1'
asbasbasbag57
(g73
g59
NtRp1796
(dp1797
g62
(dp1798
sg71
g1780
sg64
(lp1799
g57
(g78
g59
NtRp1800
(dp1801
g62
(dp1802
sg71
g1796
sg64
(lp1803
g57
(g58
g59
NtRp1804
(dp1805
g62
(dp1806
g70
I3
ssg71
g1800
sg64
(lp1807
S'0'
asbasbasbasbasbasbasbasbasbasbasbag57
(g73
g59
NtRp1808
(dp1809
g62
(dp1810
sg71
g67
sg64
(lp1811
g57
(g78
g59
NtRp1812
(dp1813
g62
(dp1814
g82
g83
ssg71
g1808
sg64
(lp1815
S'extension'
p1816
asbag57
(g78
g59
NtRp1817
(dp1818
g62
(dp1819
g89
g90
ssg71
g1808
sg64
(lp1820
S':'
asbag57
(g78
g59
NtRp1821
(dp1822
g62
(dp1823
sg71
g1808
sg64
(lp1824
g57
(g58
g59
NtRp1825
(dp1826
g62
(dp1827
g70
I5
ssg71
g1821
sg64
(lp1828
S'html'
p1829
asbasbasbag57
(g73
g59
NtRp1830
(dp1831
g62
(dp1832
sg71
g67
sg64
(lp1833
g57
(g78
g59
NtRp1834
(dp1835
g62
(dp1836
g82
g83
ssg71
g1830
sg64
(lp1837
S'folder'
p1838
asbag57
(g78
g59
NtRp1839
(dp1840
g62
(dp1841
g89
g90
ssg71
g1830
sg64
(lp1842
S':'
asbag57
(g78
g59
NtRp1843
(dp1844
g62
(dp1845
sg71
g1830
sg64
(lp1846
g57
(g58
g59
NtRp1847
(dp1848
g62
(dp1849
g70
I5
ssg71
g1843
sg64
(lp1850
S'D:\\workspace\\CA\\IgoR\\C_Sources\\Server\\igor-assistant-ca-2012\\applications\\igor\\'
p1851
asbasbasbag57
(g73
g59
NtRp1852
(dp1853
g62
(dp1854
sg71
g67
sg64
(lp1855
g57
(g78
g59
NtRp1856
(dp1857
g62
(dp1858
g82
g83
ssg71
g1852
sg64
(lp1859
S'function'
p1860
asbag57
(g78
g59
NtRp1861
(dp1862
g62
(dp1863
g89
g90
ssg71
g1852
sg64
(lp1864
S':'
asbag57
(g78
g59
NtRp1865
(dp1866
g62
(dp1867
sg71
g1852
sg64
(lp1868
g57
(g58
g59
NtRp1869
(dp1870
g62
(dp1871
g70
I5
ssg71
g1865
sg64
(lp1872
S'delete_class'
p1873
asbasbasbag57
(g73
g59
NtRp1874
(dp1875
g62
(dp1876
sg71
g67
sg64
(lp1877
g57
(g78
g59
NtRp1878
(dp1879
g62
(dp1880
g82
g83
ssg71
g1874
sg64
(lp1881
S'get_vars'
p1882
asbag57
(g78
g59
NtRp1883
(dp1884
g62
(dp1885
g89
g90
ssg71
g1874
sg64
(lp1886
S':'
asbag57
(g78
g59
NtRp1887
(dp1888
g62
(dp1889
sg71
g1874
sg64
(lp1890
g57
(g58
g59
NtRp1891
(dp1892
g62
(dp1893
g70
I5
ssg71
g1887
sg64
(lp1894
g57
(g66
g59
NtRp1895
(dp1896
g62
(dp1897
g70
I4
ssg71
Nsg64
(lp1898
sbasbasbasbag57
(g73
g59
NtRp1899
(dp1900
g62
(dp1901
sg71
g67
sg64
(lp1902
g57
(g78
g59
NtRp1903
(dp1904
g62
(dp1905
g82
g83
ssg71
g1899
sg64
(lp1906
S'global_settings'
p1907
asbag57
(g78
g59
NtRp1908
(dp1909
g62
(dp1910
g89
g90
ssg71
g1899
sg64
(lp1911
S':'
asbag57
(g78
g59
NtRp1912
(dp1913
g62
(dp1914
sg71
g1899
sg64
(lp1915
g57
(g58
g59
NtRp1916
(dp1917
g62
(dp1918
g70
I5
ssg71
g1912
sg64
(lp1919
g57
(g66
g59
NtRp1920
(dp1921
g62
(dp1922
g70
I4
ssg71
Nsg64
(lp1923
g57
(g73
g59
NtRp1924
(dp1925
g62
(dp1926
sg71
g1920
sg64
(lp1927
g57
(g78
g59
NtRp1928
(dp1929
g62
(dp1930
g82
g83
ssg71
g1924
sg64
(lp1931
g858
asbag57
(g78
g59
NtRp1932
(dp1933
g62
(dp1934
g89
g90
ssg71
g1924
sg64
(lp1935
S':'
asbag57
(g78
g59
NtRp1936
(dp1937
g62
(dp1938
sg71
g1924
sg64
(lp1939
g57
(g58
g59
NtRp1940
(dp1941
g62
(dp1942
g70
I4
ssg71
g1936
sg64
(lp1943
S"set(['D:\\\\workspace\\\\CA\\\\IgoR\\\\C_Sources\\\\Server\\\\igor-assistant-ca-2012\\\\applications\\\\admin\\\\', 'D:\\\\workspace\\\\CA\\\\IgoR\\\\C_Sources\\\\Server\\\\igor-assistant-ca-2012\\\\applications\\\\igor\\\\', 'D:\\\\workspace\\\\CA\\\\IgoR\\\\C_Sources\\\\Server\\\\igor-assistant-ca-2012\\\\applications\\\\welcome\\\\'])"
p1944
asbasbasbag57
(g73
g59
NtRp1945
(dp1946
g62
(dp1947
sg71
g1920
sg64
(lp1948
g57
(g78
g59
NtRp1949
(dp1950
g62
(dp1951
g82
g83
ssg71
g1945
sg64
(lp1952
g880
asbag57
(g78
g59
NtRp1953
(dp1954
g62
(dp1955
g89
g90
ssg71
g1945
sg64
(lp1956
S':'
asbag57
(g78
g59
NtRp1957
(dp1958
g62
(dp1959
sg71
g1945
sg64
(lp1960
g57
(g58
g59
NtRp1961
(dp1962
g62
(dp1963
g70
I4
ssg71
g1957
sg64
(lp1964
g893
asbasbasbag57
(g73
g59
NtRp1965
(dp1966
g62
(dp1967
sg71
g1920
sg64
(lp1968
g57
(g78
g59
NtRp1969
(dp1970
g62
(dp1971
g82
g83
ssg71
g1965
sg64
(lp1972
g902
asbag57
(g78
g59
NtRp1973
(dp1974
g62
(dp1975
g89
g90
ssg71
g1965
sg64
(lp1976
S':'
asbag57
(g78
g59
NtRp1977
(dp1978
g62
(dp1979
sg71
g1965
sg64
(lp1980
g57
(g58
g59
NtRp1981
(dp1982
g62
(dp1983
g70
I4
ssg71
g1977
sg64
(lp1984
g57
(g66
g59
NtRp1985
(dp1986
g62
(dp1987
g70
I3
ssg71
Nsg64
(lp1988
g57
(g73
g59
NtRp1989
(dp1990
g62
(dp1991
sg71
g1985
sg64
(lp1992
g57
(g78
g59
NtRp1993
(dp1994
g62
(dp1995
sg71
g1989
sg64
(lp1996
g57
(g58
g59
NtRp1997
(dp1998
g62
(dp1999
g70
I3
ssg71
g1993
sg64
(lp2000
g931
asbasbasbasbasbasbasbag57
(g73
g59
NtRp2001
(dp2002
g62
(dp2003
sg71
g1920
sg64
(lp2004
g57
(g78
g59
NtRp2005
(dp2006
g62
(dp2007
g82
g83
ssg71
g2001
sg64
(lp2008
g940
asbag57
(g78
g59
NtRp2009
(dp2010
g62
(dp2011
g89
g90
ssg71
g2001
sg64
(lp2012
S':'
asbag57
(g78
g59
NtRp2013
(dp2014
g62
(dp2015
sg71
g2001
sg64
(lp2016
g57
(g58
g59
NtRp2017
(dp2018
g62
(dp2019
g70
I4
ssg71
g2013
sg64
(lp2020
S"<Values at 0x3807d88: {'verbose': False, 'ip': '127.0.0.1', 'shutdown_timeout': 5, 'taskbar': False, 'nocron': False, 'pid_filename': 'httpserver.pid', 'maxthreads': None, 'softcron': False, 'server_name': 'PHUCNH-PC', 'bpython': False, 'nogui': False, 'port': 8000, 'extcron': False, 'debuglevel': 30, 'test': None, 'folder': 'D:\\\\workspace\\\\CA\\\\IgoR\\\\C_Sources\\\\Server\\\\igor-assistant-ca-2012', 'config': '', 'import_models': False, 'winservice': '', 'shell': None, 'run': '', 'log_filename': 'httpserver.log', 'args': [''], 'socket_timeout': 5, 'ssl_ca_certificate': None, 'scheduler': None, 'profiler_filename': None, 'ssl_private_key': '', 'password': '<ask>', 'request_queue_size': 5, 'ssl_certificate': '', 'cronjob': False, 'numthreads': None, 'quiet': False, 'interfaces': None, 'minthreads': None, 'timeout': 10, 'plain': False, 'nobanner': False}>"
p2021
asbasbasbag57
(g73
g59
NtRp2022
(dp2023
g62
(dp2024
sg71
g1920
sg64
(lp2025
g57
(g78
g59
NtRp2026
(dp2027
g62
(dp2028
g82
g83
ssg71
g2022
sg64
(lp2029
g962
asbag57
(g78
g59
NtRp2030
(dp2031
g62
(dp2032
g89
g90
ssg71
g2022
sg64
(lp2033
S':'
asbag57
(g78
g59
NtRp2034
(dp2035
g62
(dp2036
sg71
g2022
sg64
(lp2037
g57
(g58
g59
NtRp2038
(dp2039
g62
(dp2040
g70
I4
ssg71
g2034
sg64
(lp2041
S'set([])'
p2042
asbasbasbag57
(g73
g59
NtRp2043
(dp2044
g62
(dp2045
sg71
g1920
sg64
(lp2046
g57
(g78
g59
NtRp2047
(dp2048
g62
(dp2049
g82
g83
ssg71
g2043
sg64
(lp2050
g984
asbag57
(g78
g59
NtRp2051
(dp2052
g62
(dp2053
g89
g90
ssg71
g2043
sg64
(lp2054
S':'
asbag57
(g78
g59
NtRp2055
(dp2056
g62
(dp2057
sg71
g2043
sg64
(lp2058
g57
(g58
g59
NtRp2059
(dp2060
g62
(dp2061
g70
I4
ssg71
g2055
sg64
(lp2062
g100
asbasbasbag57
(g73
g59
NtRp2063
(dp2064
g62
(dp2065
sg71
g1920
sg64
(lp2066
g57
(g78
g59
NtRp2067
(dp2068
g62
(dp2069
g82
g83
ssg71
g2063
sg64
(lp2070
g1005
asbag57
(g78
g59
NtRp2071
(dp2072
g62
(dp2073
g89
g90
ssg71
g2063
sg64
(lp2074
S':'
asbag57
(g78
g59
NtRp2075
(dp2076
g62
(dp2077
sg71
g2063
sg64
(lp2078
g57
(g58
g59
NtRp2079
(dp2080
g62
(dp2081
g70
I4
ssg71
g2075
sg64
(lp2082
g1018
asbasbasbag57
(g73
g59
NtRp2083
(dp2084
g62
(dp2085
sg71
g1920
sg64
(lp2086
g57
(g78
g59
NtRp2087
(dp2088
g62
(dp2089
g82
g83
ssg71
g2083
sg64
(lp2090
g1225
asbag57
(g78
g59
NtRp2091
(dp2092
g62
(dp2093
g89
g90
ssg71
g2083
sg64
(lp2094
S':'
asbag57
(g78
g59
NtRp2095
(dp2096
g62
(dp2097
sg71
g2083
sg64
(lp2098
g57
(g58
g59
NtRp2099
(dp2100
g62
(dp2101
g70
I4
ssg71
g2095
sg64
(lp2102
g100
asbasbasbag57
(g73
g59
NtRp2103
(dp2104
g62
(dp2105
sg71
g1920
sg64
(lp2106
g57
(g78
g59
NtRp2107
(dp2108
g62
(dp2109
g82
g83
ssg71
g2103
sg64
(lp2110
g1246
asbag57
(g78
g59
NtRp2111
(dp2112
g62
(dp2113
g89
g90
ssg71
g2103
sg64
(lp2114
S':'
asbag57
(g78
g59
NtRp2115
(dp2116
g62
(dp2117
sg71
g2103
sg64
(lp2118
g57
(g58
g59
NtRp2119
(dp2120
g62
(dp2121
g70
I4
ssg71
g2115
sg64
(lp2122
g100
asbasbasbag57
(g73
g59
NtRp2123
(dp2124
g62
(dp2125
sg71
g1920
sg64
(lp2126
g57
(g78
g59
NtRp2127
(dp2128
g62
(dp2129
g82
g83
ssg71
g2123
sg64
(lp2130
g1484
asbag57
(g78
g59
NtRp2131
(dp2132
g62
(dp2133
g89
g90
ssg71
g2123
sg64
(lp2134
S':'
asbag57
(g78
g59
NtRp2135
(dp2136
g62
(dp2137
sg71
g2123
sg64
(lp2138
g57
(g58
g59
NtRp2139
(dp2140
g62
(dp2141
g70
I4
ssg71
g2135
sg64
(lp2142
g1497
asbasbasbag57
(g73
g59
NtRp2143
(dp2144
g62
(dp2145
sg71
g1920
sg64
(lp2146
g57
(g78
g59
NtRp2147
(dp2148
g62
(dp2149
g82
g83
ssg71
g2143
sg64
(lp2150
g1527
asbag57
(g78
g59
NtRp2151
(dp2152
g62
(dp2153
g89
g90
ssg71
g2143
sg64
(lp2154
S':'
asbag57
(g78
g59
NtRp2155
(dp2156
g62
(dp2157
sg71
g2143
sg64
(lp2158
g57
(g58
g59
NtRp2159
(dp2160
g62
(dp2161
g70
I4
ssg71
g2155
sg64
(lp2162
g57
(g66
g59
NtRp2163
(dp2164
g62
(dp2165
g70
I3
ssg71
Nsg64
(lp2166
g57
(g73
g59
NtRp2167
(dp2168
g62
(dp2169
sg71
g2163
sg64
(lp2170
g57
(g78
g59
NtRp2171
(dp2172
g62
(dp2173
sg71
g2167
sg64
(lp2174
g57
(g58
g59
NtRp2175
(dp2176
g62
(dp2177
g70
I3
ssg71
g2171
sg64
(lp2178
S'1'
asbasbasbag57
(g73
g59
NtRp2179
(dp2180
g62
(dp2181
sg71
g2163
sg64
(lp2182
g57
(g78
g59
NtRp2183
(dp2184
g62
(dp2185
sg71
g2179
sg64
(lp2186
g57
(g58
g59
NtRp2187
(dp2188
g62
(dp2189
g70
I3
ssg71
g2183
sg64
(lp2190
S'99'
p2191
asbasbasbag57
(g73
g59
NtRp2192
(dp2193
g62
(dp2194
sg71
g2163
sg64
(lp2195
g57
(g78
g59
NtRp2196
(dp2197
g62
(dp2198
sg71
g2192
sg64
(lp2199
g57
(g58
g59
NtRp2200
(dp2201
g62
(dp2202
g70
I3
ssg71
g2196
sg64
(lp2203
S'7'
asbasbasbag57
(g73
g59
NtRp2204
(dp2205
g62
(dp2206
sg71
g2163
sg64
(lp2207
g57
(g78
g59
NtRp2208
(dp2209
g62
(dp2210
sg71
g2204
sg64
(lp2211
g57
(g58
g59
NtRp2212
(dp2213
g62
(dp2214
g70
I3
ssg71
g2208
sg64
(lp2215
S'datetime.datetime(2012, 3, 4, 22, 12, 8)'
p2216
asbasbasbag57
(g73
g59
NtRp2217
(dp2218
g62
(dp2219
sg71
g2163
sg64
(lp2220
g57
(g78
g59
NtRp2221
(dp2222
g62
(dp2223
sg71
g2217
sg64
(lp2224
g57
(g58
g59
NtRp2225
(dp2226
g62
(dp2227
g70
I3
ssg71
g2221
sg64
(lp2228
g1606
asbasbasbasbasbasbasbasbasbasbasbag57
(g73
g59
NtRp2229
(dp2230
g62
(dp2231
sg71
g67
sg64
(lp2232
g57
(g78
g59
NtRp2233
(dp2234
g62
(dp2235
g82
g83
ssg71
g2229
sg64
(lp2236
S'is_https'
p2237
asbag57
(g78
g59
NtRp2238
(dp2239
g62
(dp2240
g89
g90
ssg71
g2229
sg64
(lp2241
S':'
asbag57
(g78
g59
NtRp2242
(dp2243
g62
(dp2244
sg71
g2229
sg64
(lp2245
g57
(g58
g59
NtRp2246
(dp2247
g62
(dp2248
g70
I5
ssg71
g2242
sg64
(lp2249
g100
asbasbasbag57
(g73
g59
NtRp2250
(dp2251
g62
(dp2252
sg71
g67
sg64
(lp2253
g57
(g78
g59
NtRp2254
(dp2255
g62
(dp2256
g82
g83
ssg71
g2250
sg64
(lp2257
S'is_local'
p2258
asbag57
(g78
g59
NtRp2259
(dp2260
g62
(dp2261
g89
g90
ssg71
g2250
sg64
(lp2262
S':'
asbag57
(g78
g59
NtRp2263
(dp2264
g62
(dp2265
sg71
g2250
sg64
(lp2266
g57
(g58
g59
NtRp2267
(dp2268
g62
(dp2269
g70
I5
ssg71
g2263
sg64
(lp2270
g1715
asbasbasbag57
(g73
g59
NtRp2271
(dp2272
g62
(dp2273
sg71
g67
sg64
(lp2274
g57
(g78
g59
NtRp2275
(dp2276
g62
(dp2277
g82
g83
ssg71
g2271
sg64
(lp2278
S'is_restful'
p2279
asbag57
(g78
g59
NtRp2280
(dp2281
g62
(dp2282
g89
g90
ssg71
g2271
sg64
(lp2283
S':'
asbag57
(g78
g59
NtRp2284
(dp2285
g62
(dp2286
sg71
g2271
sg64
(lp2287
g57
(g58
g59
NtRp2288
(dp2289
g62
(dp2290
g70
I5
ssg71
g2284
sg64
(lp2291
g1715
asbasbasbag57
(g73
g59
NtRp2292
(dp2293
g62
(dp2294
sg71
g67
sg64
(lp2295
g57
(g78
g59
NtRp2296
(dp2297
g62
(dp2298
g82
g83
ssg71
g2292
sg64
(lp2299
S'now'
p2300
asbag57
(g78
g59
NtRp2301
(dp2302
g62
(dp2303
g89
g90
ssg71
g2292
sg64
(lp2304
S':'
asbag57
(g78
g59
NtRp2305
(dp2306
g62
(dp2307
sg71
g2292
sg64
(lp2308
g57
(g58
g59
NtRp2309
(dp2310
g62
(dp2311
g70
I5
ssg71
g2305
sg64
(lp2312
S'datetime.datetime(2012, 7, 30, 10, 29, 8, 217000)'
p2313
asbasbasbag57
(g73
g59
NtRp2314
(dp2315
g62
(dp2316
sg71
g67
sg64
(lp2317
g57
(g78
g59
NtRp2318
(dp2319
g62
(dp2320
g82
g83
ssg71
g2314
sg64
(lp2321
S'post_vars'
p2322
asbag57
(g78
g59
NtRp2323
(dp2324
g62
(dp2325
g89
g90
ssg71
g2314
sg64
(lp2326
S':'
asbag57
(g78
g59
NtRp2327
(dp2328
g62
(dp2329
sg71
g2314
sg64
(lp2330
g57
(g58
g59
NtRp2331
(dp2332
g62
(dp2333
g70
I5
ssg71
g2327
sg64
(lp2334
g57
(g66
g59
NtRp2335
(dp2336
g62
(dp2337
g70
I4
ssg71
Nsg64
(lp2338
sbasbasbasbag57
(g73
g59
NtRp2339
(dp2340
g62
(dp2341
sg71
g67
sg64
(lp2342
g57
(g78
g59
NtRp2343
(dp2344
g62
(dp2345
g82
g83
ssg71
g2339
sg64
(lp2346
S'raw_args'
p2347
asbag57
(g78
g59
NtRp2348
(dp2349
g62
(dp2350
g89
g90
ssg71
g2339
sg64
(lp2351
S':'
asbag57
(g78
g59
NtRp2352
(dp2353
g62
(dp2354
sg71
g2339
sg64
(lp2355
g57
(g58
g59
NtRp2356
(dp2357
g62
(dp2358
g70
I5
ssg71
g2352
sg64
(lp2359
S'2/2'
p2360
asbasbasbag57
(g73
g59
NtRp2361
(dp2362
g62
(dp2363
sg71
g67
sg64
(lp2364
g57
(g78
g59
NtRp2365
(dp2366
g62
(dp2367
g82
g83
ssg71
g2361
sg64
(lp2368
S'url'
p2369
asbag57
(g78
g59
NtRp2370
(dp2371
g62
(dp2372
g89
g90
ssg71
g2361
sg64
(lp2373
S':'
asbag57
(g78
g59
NtRp2374
(dp2375
g62
(dp2376
sg71
g2361
sg64
(lp2377
g57
(g58
g59
NtRp2378
(dp2379
g62
(dp2380
g70
I5
ssg71
g2374
sg64
(lp2381
S'/igor/class_subject/delete_class/2/2'
p2382
asbasbasbag57
(g73
g59
NtRp2383
(dp2384
g62
(dp2385
sg71
g67
sg64
(lp2386
g57
(g78
g59
NtRp2387
(dp2388
g62
(dp2389
g82
g83
ssg71
g2383
sg64
(lp2390
S'utcnow'
p2391
asbag57
(g78
g59
NtRp2392
(dp2393
g62
(dp2394
g89
g90
ssg71
g2383
sg64
(lp2395
S':'
asbag57
(g78
g59
NtRp2396
(dp2397
g62
(dp2398
sg71
g2383
sg64
(lp2399
g57
(g58
g59
NtRp2400
(dp2401
g62
(dp2402
g70
I5
ssg71
g2396
sg64
(lp2403
S'datetime.datetime(2012, 7, 30, 3, 29, 8, 217000)'
p2404
asbasbasbag57
(g73
g59
NtRp2405
(dp2406
g62
(dp2407
sg71
g67
sg64
(lp2408
g57
(g78
g59
NtRp2409
(dp2410
g62
(dp2411
g82
g83
ssg71
g2405
sg64
(lp2412
S'uuid'
p2413
asbag57
(g78
g59
NtRp2414
(dp2415
g62
(dp2416
g89
g90
ssg71
g2405
sg64
(lp2417
S':'
asbag57
(g78
g59
NtRp2418
(dp2419
g62
(dp2420
sg71
g2405
sg64
(lp2421
g57
(g58
g59
NtRp2422
(dp2423
g62
(dp2424
g70
I5
ssg71
g2418
sg64
(lp2425
S'igor/127.0.0.1.2012-07-30.10-29-08.d6dbb73a-4513-4c6f-a955-329a110306f1'
p2426
asbasbasbag57
(g73
g59
NtRp2427
(dp2428
g62
(dp2429
sg71
g67
sg64
(lp2430
g57
(g78
g59
NtRp2431
(dp2432
g62
(dp2433
g82
g83
ssg71
g2427
sg64
(lp2434
S'vars'
p2435
asbag57
(g78
g59
NtRp2436
(dp2437
g62
(dp2438
g89
g90
ssg71
g2427
sg64
(lp2439
S':'
asbag57
(g78
g59
NtRp2440
(dp2441
g62
(dp2442
sg71
g2427
sg64
(lp2443
g57
(g58
g59
NtRp2444
(dp2445
g62
(dp2446
g70
I5
ssg71
g2440
sg64
(lp2447
g57
(g66
g59
NtRp2448
(dp2449
g62
(dp2450
g70
I4
ssg71
Nsg64
(lp2451
sbasbasbasbag57
(g73
g59
NtRp2452
(dp2453
g62
(dp2454
sg71
g67
sg64
(lp2455
g57
(g78
g59
NtRp2456
(dp2457
g62
(dp2458
g82
g83
ssg71
g2452
sg64
(lp2459
S'wsgi'
p2460
asbag57
(g78
g59
NtRp2461
(dp2462
g62
(dp2463
g89
g90
ssg71
g2452
sg64
(lp2464
S':'
asbag57
(g78
g59
NtRp2465
(dp2466
g62
(dp2467
sg71
g2452
sg64
(lp2468
g57
(g58
g59
NtRp2469
(dp2470
g62
(dp2471
g70
I5
ssg71
g2465
sg64
(lp2472
g57
(g66
g59
NtRp2473
(dp2474
g62
(dp2475
g70
I4
ssg71
Nsg64
(lp2476
g57
(g73
g59
NtRp2477
(dp2478
g62
(dp2479
sg71
g2473
sg64
(lp2480
g57
(g78
g59
NtRp2481
(dp2482
g62
(dp2483
g82
g83
ssg71
g2477
sg64
(lp2484
S'environ'
p2485
asbag57
(g78
g59
NtRp2486
(dp2487
g62
(dp2488
g89
g90
ssg71
g2477
sg64
(lp2489
S':'
asbag57
(g78
g59
NtRp2490
(dp2491
g62
(dp2492
sg71
g2477
sg64
(lp2493
g57
(g58
g59
NtRp2494
(dp2495
g62
(dp2496
g70
I4
ssg71
g2490
sg64
(lp2497
g57
(g66
g59
NtRp2498
(dp2499
g62
(dp2500
g70
I3
ssg71
Nsg64
(lp2501
g57
(g73
g59
NtRp2502
(dp2503
g62
(dp2504
sg71
g2498
sg64
(lp2505
g57
(g78
g59
NtRp2506
(dp2507
g62
(dp2508
g82
g83
ssg71
g2502
sg64
(lp2509
S'HTTP_ACCEPT'
p2510
asbag57
(g78
g59
NtRp2511
(dp2512
g62
(dp2513
g89
g90
ssg71
g2502
sg64
(lp2514
S':'
asbag57
(g78
g59
NtRp2515
(dp2516
g62
(dp2517
sg71
g2502
sg64
(lp2518
g57
(g58
g59
NtRp2519
(dp2520
g62
(dp2521
g70
I3
ssg71
g2515
sg64
(lp2522
g1040
asbasbasbag57
(g73
g59
NtRp2523
(dp2524
g62
(dp2525
sg71
g2498
sg64
(lp2526
g57
(g78
g59
NtRp2527
(dp2528
g62
(dp2529
g82
g83
ssg71
g2523
sg64
(lp2530
S'HTTP_ACCEPT_CHARSET'
p2531
asbag57
(g78
g59
NtRp2532
(dp2533
g62
(dp2534
g89
g90
ssg71
g2523
sg64
(lp2535
S':'
asbag57
(g78
g59
NtRp2536
(dp2537
g62
(dp2538
sg71
g2523
sg64
(lp2539
g57
(g58
g59
NtRp2540
(dp2541
g62
(dp2542
g70
I3
ssg71
g2536
sg64
(lp2543
g1062
asbasbasbag57
(g73
g59
NtRp2544
(dp2545
g62
(dp2546
sg71
g2498
sg64
(lp2547
g57
(g78
g59
NtRp2548
(dp2549
g62
(dp2550
g82
g83
ssg71
g2544
sg64
(lp2551
S'HTTP_ACCEPT_ENCODING'
p2552
asbag57
(g78
g59
NtRp2553
(dp2554
g62
(dp2555
g89
g90
ssg71
g2544
sg64
(lp2556
S':'
asbag57
(g78
g59
NtRp2557
(dp2558
g62
(dp2559
sg71
g2544
sg64
(lp2560
g57
(g58
g59
NtRp2561
(dp2562
g62
(dp2563
g70
I3
ssg71
g2557
sg64
(lp2564
g1084
asbasbasbag57
(g73
g59
NtRp2565
(dp2566
g62
(dp2567
sg71
g2498
sg64
(lp2568
g57
(g78
g59
NtRp2569
(dp2570
g62
(dp2571
g82
g83
ssg71
g2565
sg64
(lp2572
S'HTTP_ACCEPT_LANGUAGE'
p2573
asbag57
(g78
g59
NtRp2574
(dp2575
g62
(dp2576
g89
g90
ssg71
g2565
sg64
(lp2577
S':'
asbag57
(g78
g59
NtRp2578
(dp2579
g62
(dp2580
sg71
g2565
sg64
(lp2581
g57
(g58
g59
NtRp2582
(dp2583
g62
(dp2584
g70
I3
ssg71
g2578
sg64
(lp2585
g1106
asbasbasbag57
(g73
g59
NtRp2586
(dp2587
g62
(dp2588
sg71
g2498
sg64
(lp2589
g57
(g78
g59
NtRp2590
(dp2591
g62
(dp2592
g82
g83
ssg71
g2586
sg64
(lp2593
S'HTTP_CACHE_CONTROL'
p2594
asbag57
(g78
g59
NtRp2595
(dp2596
g62
(dp2597
g89
g90
ssg71
g2586
sg64
(lp2598
S':'
asbag57
(g78
g59
NtRp2599
(dp2600
g62
(dp2601
sg71
g2586
sg64
(lp2602
g57
(g58
g59
NtRp2603
(dp2604
g62
(dp2605
g70
I3
ssg71
g2599
sg64
(lp2606
g1128
asbasbasbag57
(g73
g59
NtRp2607
(dp2608
g62
(dp2609
sg71
g2498
sg64
(lp2610
g57
(g78
g59
NtRp2611
(dp2612
g62
(dp2613
g82
g83
ssg71
g2607
sg64
(lp2614
S'HTTP_CONNECTION'
p2615
asbag57
(g78
g59
NtRp2616
(dp2617
g62
(dp2618
g89
g90
ssg71
g2607
sg64
(lp2619
S':'
asbag57
(g78
g59
NtRp2620
(dp2621
g62
(dp2622
sg71
g2607
sg64
(lp2623
g57
(g58
g59
NtRp2624
(dp2625
g62
(dp2626
g70
I3
ssg71
g2620
sg64
(lp2627
g1150
asbasbasbag57
(g73
g59
NtRp2628
(dp2629
g62
(dp2630
sg71
g2498
sg64
(lp2631
g57
(g78
g59
NtRp2632
(dp2633
g62
(dp2634
g82
g83
ssg71
g2628
sg64
(lp2635
S'HTTP_COOKIE'
p2636
asbag57
(g78
g59
NtRp2637
(dp2638
g62
(dp2639
g89
g90
ssg71
g2628
sg64
(lp2640
S':'
asbag57
(g78
g59
NtRp2641
(dp2642
g62
(dp2643
sg71
g2628
sg64
(lp2644
g57
(g58
g59
NtRp2645
(dp2646
g62
(dp2647
g70
I3
ssg71
g2641
sg64
(lp2648
g1172
asbasbasbag57
(g73
g59
NtRp2649
(dp2650
g62
(dp2651
sg71
g2498
sg64
(lp2652
g57
(g78
g59
NtRp2653
(dp2654
g62
(dp2655
g82
g83
ssg71
g2649
sg64
(lp2656
S'HTTP_HOST'
p2657
asbag57
(g78
g59
NtRp2658
(dp2659
g62
(dp2660
g89
g90
ssg71
g2649
sg64
(lp2661
S':'
asbag57
(g78
g59
NtRp2662
(dp2663
g62
(dp2664
sg71
g2649
sg64
(lp2665
g57
(g58
g59
NtRp2666
(dp2667
g62
(dp2668
g70
I3
ssg71
g2662
sg64
(lp2669
g1194
asbasbasbag57
(g73
g59
NtRp2670
(dp2671
g62
(dp2672
sg71
g2498
sg64
(lp2673
g57
(g78
g59
NtRp2674
(dp2675
g62
(dp2676
g82
g83
ssg71
g2670
sg64
(lp2677
S'HTTP_USER_AGENT'
p2678
asbag57
(g78
g59
NtRp2679
(dp2680
g62
(dp2681
g89
g90
ssg71
g2670
sg64
(lp2682
S':'
asbag57
(g78
g59
NtRp2683
(dp2684
g62
(dp2685
sg71
g2670
sg64
(lp2686
g57
(g58
g59
NtRp2687
(dp2688
g62
(dp2689
g70
I3
ssg71
g2683
sg64
(lp2690
g1216
asbasbasbag57
(g73
g59
NtRp2691
(dp2692
g62
(dp2693
sg71
g2498
sg64
(lp2694
g57
(g78
g59
NtRp2695
(dp2696
g62
(dp2697
g82
g83
ssg71
g2691
sg64
(lp2698
S'PATH_INFO'
p2699
asbag57
(g78
g59
NtRp2700
(dp2701
g62
(dp2702
g89
g90
ssg71
g2691
sg64
(lp2703
S':'
asbag57
(g78
g59
NtRp2704
(dp2705
g62
(dp2706
sg71
g2691
sg64
(lp2707
g57
(g58
g59
NtRp2708
(dp2709
g62
(dp2710
g70
I3
ssg71
g2704
sg64
(lp2711
g1280
asbasbasbag57
(g73
g59
NtRp2712
(dp2713
g62
(dp2714
sg71
g2498
sg64
(lp2715
g57
(g78
g59
NtRp2716
(dp2717
g62
(dp2718
g82
g83
ssg71
g2712
sg64
(lp2719
S'QUERY_STRING'
p2720
asbag57
(g78
g59
NtRp2721
(dp2722
g62
(dp2723
g89
g90
ssg71
g2712
sg64
(lp2724
S':'
asbag57
(g78
g59
NtRp2725
(dp2726
g62
(dp2727
sg71
g2712
sg64
(lp2728
g57
(g58
g59
NtRp2729
(dp2730
g62
(dp2731
g70
I3
ssg71
g2725
sg64
(lp2732
S''
asbasbasbag57
(g73
g59
NtRp2733
(dp2734
g62
(dp2735
sg71
g2498
sg64
(lp2736
g57
(g78
g59
NtRp2737
(dp2738
g62
(dp2739
g82
g83
ssg71
g2733
sg64
(lp2740
S'REMOTE_ADDR'
p2741
asbag57
(g78
g59
NtRp2742
(dp2743
g62
(dp2744
g89
g90
ssg71
g2733
sg64
(lp2745
S':'
asbag57
(g78
g59
NtRp2746
(dp2747
g62
(dp2748
sg71
g2733
sg64
(lp2749
g57
(g58
g59
NtRp2750
(dp2751
g62
(dp2752
g70
I3
ssg71
g2746
sg64
(lp2753
g214
asbasbasbag57
(g73
g59
NtRp2754
(dp2755
g62
(dp2756
sg71
g2498
sg64
(lp2757
g57
(g78
g59
NtRp2758
(dp2759
g62
(dp2760
g82
g83
ssg71
g2754
sg64
(lp2761
S'REMOTE_PORT'
p2762
asbag57
(g78
g59
NtRp2763
(dp2764
g62
(dp2765
g89
g90
ssg71
g2754
sg64
(lp2766
S':'
asbag57
(g78
g59
NtRp2767
(dp2768
g62
(dp2769
sg71
g2754
sg64
(lp2770
g57
(g58
g59
NtRp2771
(dp2772
g62
(dp2773
g70
I3
ssg71
g2767
sg64
(lp2774
g1344
asbasbasbag57
(g73
g59
NtRp2775
(dp2776
g62
(dp2777
sg71
g2498
sg64
(lp2778
g57
(g78
g59
NtRp2779
(dp2780
g62
(dp2781
g82
g83
ssg71
g2775
sg64
(lp2782
S'REQUEST_METHOD'
p2783
asbag57
(g78
g59
NtRp2784
(dp2785
g62
(dp2786
g89
g90
ssg71
g2775
sg64
(lp2787
S':'
asbag57
(g78
g59
NtRp2788
(dp2789
g62
(dp2790
sg71
g2775
sg64
(lp2791
g57
(g58
g59
NtRp2792
(dp2793
g62
(dp2794
g70
I3
ssg71
g2788
sg64
(lp2795
g1366
asbasbasbag57
(g73
g59
NtRp2796
(dp2797
g62
(dp2798
sg71
g2498
sg64
(lp2799
g57
(g78
g59
NtRp2800
(dp2801
g62
(dp2802
g82
g83
ssg71
g2796
sg64
(lp2803
S'SCRIPT_NAME'
p2804
asbag57
(g78
g59
NtRp2805
(dp2806
g62
(dp2807
g89
g90
ssg71
g2796
sg64
(lp2808
S':'
asbag57
(g78
g59
NtRp2809
(dp2810
g62
(dp2811
sg71
g2796
sg64
(lp2812
g57
(g58
g59
NtRp2813
(dp2814
g62
(dp2815
g70
I3
ssg71
g2809
sg64
(lp2816
S''
asbasbasbag57
(g73
g59
NtRp2817
(dp2818
g62
(dp2819
sg71
g2498
sg64
(lp2820
g57
(g78
g59
NtRp2821
(dp2822
g62
(dp2823
g82
g83
ssg71
g2817
sg64
(lp2824
S'SERVER_NAME'
p2825
asbag57
(g78
g59
NtRp2826
(dp2827
g62
(dp2828
g89
g90
ssg71
g2817
sg64
(lp2829
S':'
asbag57
(g78
g59
NtRp2830
(dp2831
g62
(dp2832
sg71
g2817
sg64
(lp2833
g57
(g58
g59
NtRp2834
(dp2835
g62
(dp2836
g70
I3
ssg71
g2830
sg64
(lp2837
g1409
asbasbasbag57
(g73
g59
NtRp2838
(dp2839
g62
(dp2840
sg71
g2498
sg64
(lp2841
g57
(g78
g59
NtRp2842
(dp2843
g62
(dp2844
g82
g83
ssg71
g2838
sg64
(lp2845
S'SERVER_PORT'
p2846
asbag57
(g78
g59
NtRp2847
(dp2848
g62
(dp2849
g89
g90
ssg71
g2838
sg64
(lp2850
S':'
asbag57
(g78
g59
NtRp2851
(dp2852
g62
(dp2853
sg71
g2838
sg64
(lp2854
g57
(g58
g59
NtRp2855
(dp2856
g62
(dp2857
g70
I3
ssg71
g2851
sg64
(lp2858
g1431
asbasbasbag57
(g73
g59
NtRp2859
(dp2860
g62
(dp2861
sg71
g2498
sg64
(lp2862
g57
(g78
g59
NtRp2863
(dp2864
g62
(dp2865
g82
g83
ssg71
g2859
sg64
(lp2866
S'SERVER_PROTOCOL'
p2867
asbag57
(g78
g59
NtRp2868
(dp2869
g62
(dp2870
g89
g90
ssg71
g2859
sg64
(lp2871
S':'
asbag57
(g78
g59
NtRp2872
(dp2873
g62
(dp2874
sg71
g2859
sg64
(lp2875
g57
(g58
g59
NtRp2876
(dp2877
g62
(dp2878
g70
I3
ssg71
g2872
sg64
(lp2879
g1453
asbasbasbag57
(g73
g59
NtRp2880
(dp2881
g62
(dp2882
sg71
g2498
sg64
(lp2883
g57
(g78
g59
NtRp2884
(dp2885
g62
(dp2886
g82
g83
ssg71
g2880
sg64
(lp2887
S'SERVER_SOFTWARE'
p2888
asbag57
(g78
g59
NtRp2889
(dp2890
g62
(dp2891
g89
g90
ssg71
g2880
sg64
(lp2892
S':'
asbag57
(g78
g59
NtRp2893
(dp2894
g62
(dp2895
sg71
g2880
sg64
(lp2896
g57
(g58
g59
NtRp2897
(dp2898
g62
(dp2899
g70
I3
ssg71
g2893
sg64
(lp2900
g1475
asbasbasbag57
(g73
g59
NtRp2901
(dp2902
g62
(dp2903
sg71
g2498
sg64
(lp2904
g57
(g78
g59
NtRp2905
(dp2906
g62
(dp2907
g82
g83
ssg71
g2901
sg64
(lp2908
S'wsgi.errors'
p2909
asbag57
(g78
g59
NtRp2910
(dp2911
g62
(dp2912
g89
g90
ssg71
g2901
sg64
(lp2913
S':'
asbag57
(g78
g59
NtRp2914
(dp2915
g62
(dp2916
sg71
g2901
sg64
(lp2917
g57
(g58
g59
NtRp2918
(dp2919
g62
(dp2920
g70
I3
ssg71
g2914
sg64
(lp2921
S"<open file '<stderr>', mode 'w' at 0x0000000001DEE1E0>"
p2922
asbasbasbag57
(g73
g59
NtRp2923
(dp2924
g62
(dp2925
sg71
g2498
sg64
(lp2926
g57
(g78
g59
NtRp2927
(dp2928
g62
(dp2929
g82
g83
ssg71
g2923
sg64
(lp2930
S'wsgi.file_wrapper'
p2931
asbag57
(g78
g59
NtRp2932
(dp2933
g62
(dp2934
g89
g90
ssg71
g2923
sg64
(lp2935
S':'
asbag57
(g78
g59
NtRp2936
(dp2937
g62
(dp2938
sg71
g2923
sg64
(lp2939
g57
(g58
g59
NtRp2940
(dp2941
g62
(dp2942
g70
I3
ssg71
g2936
sg64
(lp2943
S'<class wsgiref.util.FileWrapper at 0x00000000036DCAC8>'
p2944
asbasbasbag57
(g73
g59
NtRp2945
(dp2946
g62
(dp2947
sg71
g2498
sg64
(lp2948
g57
(g78
g59
NtRp2949
(dp2950
g62
(dp2951
g82
g83
ssg71
g2945
sg64
(lp2952
S'wsgi.input'
p2953
asbag57
(g78
g59
NtRp2954
(dp2955
g62
(dp2956
g89
g90
ssg71
g2945
sg64
(lp2957
S':'
asbag57
(g78
g59
NtRp2958
(dp2959
g62
(dp2960
sg71
g2945
sg64
(lp2961
g57
(g58
g59
NtRp2962
(dp2963
g62
(dp2964
g70
I3
ssg71
g2958
sg64
(lp2965
S'<cStringIO.StringO object at 0x00000000050B1618>'
p2966
asbasbasbag57
(g73
g59
NtRp2967
(dp2968
g62
(dp2969
sg71
g2498
sg64
(lp2970
g57
(g78
g59
NtRp2971
(dp2972
g62
(dp2973
g82
g83
ssg71
g2967
sg64
(lp2974
S'wsgi.multiprocess'
p2975
asbag57
(g78
g59
NtRp2976
(dp2977
g62
(dp2978
g89
g90
ssg71
g2967
sg64
(lp2979
S':'
asbag57
(g78
g59
NtRp2980
(dp2981
g62
(dp2982
sg71
g2967
sg64
(lp2983
g57
(g58
g59
NtRp2984
(dp2985
g62
(dp2986
g70
I3
ssg71
g2980
sg64
(lp2987
g100
asbasbasbag57
(g73
g59
NtRp2988
(dp2989
g62
(dp2990
sg71
g2498
sg64
(lp2991
g57
(g78
g59
NtRp2992
(dp2993
g62
(dp2994
g82
g83
ssg71
g2988
sg64
(lp2995
S'wsgi.multithread'
p2996
asbag57
(g78
g59
NtRp2997
(dp2998
g62
(dp2999
g89
g90
ssg71
g2988
sg64
(lp3000
S':'
asbag57
(g78
g59
NtRp3001
(dp3002
g62
(dp3003
sg71
g2988
sg64
(lp3004
g57
(g58
g59
NtRp3005
(dp3006
g62
(dp3007
g70
I3
ssg71
g3001
sg64
(lp3008
g1715
asbasbasbag57
(g73
g59
NtRp3009
(dp3010
g62
(dp3011
sg71
g2498
sg64
(lp3012
g57
(g78
g59
NtRp3013
(dp3014
g62
(dp3015
g82
g83
ssg71
g3009
sg64
(lp3016
S'wsgi.run_once'
p3017
asbag57
(g78
g59
NtRp3018
(dp3019
g62
(dp3020
g89
g90
ssg71
g3009
sg64
(lp3021
S':'
asbag57
(g78
g59
NtRp3022
(dp3023
g62
(dp3024
sg71
g3009
sg64
(lp3025
g57
(g58
g59
NtRp3026
(dp3027
g62
(dp3028
g70
I3
ssg71
g3022
sg64
(lp3029
g100
asbasbasbag57
(g73
g59
NtRp3030
(dp3031
g62
(dp3032
sg71
g2498
sg64
(lp3033
g57
(g78
g59
NtRp3034
(dp3035
g62
(dp3036
g82
g83
ssg71
g3030
sg64
(lp3037
S'wsgi.url_scheme'
p3038
asbag57
(g78
g59
NtRp3039
(dp3040
g62
(dp3041
g89
g90
ssg71
g3030
sg64
(lp3042
S':'
asbag57
(g78
g59
NtRp3043
(dp3044
g62
(dp3045
sg71
g3030
sg64
(lp3046
g57
(g58
g59
NtRp3047
(dp3048
g62
(dp3049
g70
I3
ssg71
g3043
sg64
(lp3050
g1758
asbasbasbag57
(g73
g59
NtRp3051
(dp3052
g62
(dp3053
sg71
g2498
sg64
(lp3054
g57
(g78
g59
NtRp3055
(dp3056
g62
(dp3057
g82
g83
ssg71
g3051
sg64
(lp3058
S'wsgi.version'
p3059
asbag57
(g78
g59
NtRp3060
(dp3061
g62
(dp3062
g89
g90
ssg71
g3051
sg64
(lp3063
S':'
asbag57
(g78
g59
NtRp3064
(dp3065
g62
(dp3066
sg71
g3051
sg64
(lp3067
g57
(g58
g59
NtRp3068
(dp3069
g62
(dp3070
g70
I3
ssg71
g3064
sg64
(lp3071
S'1'
asbasbasbasbasbasbasbasbasbasbasbasbasbsS'frames'
p3072
(lp3073
(dp3074
S'file'
p3075
S'D:\\workspace\\CA\\IgoR\\C_Sources\\Server\\igor-assistant-ca-2012\\gluon\\restricted.py'
p3076
sS'dump'
p3077
(dp3078
S'environment'
p3079
S"{'A': <class 'gluon.html.A'>, 'Auth': <class 'gluon.tools.Auth'>, 'B': <class 'gluon.html.B'>, 'BEAUTIFY': <class 'gluon.html.BEAUTIFY'>, 'BODY': <class 'gluon.html.BODY'>, 'BR': <class 'gluon.html.BR'>, 'BUTTON': <class 'gluon.html.BUTTON'>, 'CAT': <class 'gluon.html.CAT'>, 'CENTER': <class 'gluon.html.CENTER'>, 'CLEANUP': <class 'gluon.validators.CLEANUP'>, ...}"
p3080
sS'ccode'
p3081
S'<code object <module> at 00000000053B28B0, file ...tions\\igor\\controllers/class_subject.py", line 9>'
p3082
ssS'lnum'
p3083
I205
sS'lines'
p3084
(dp3085
I200
S'    try:'
p3086
sI201
S'        if type(code) == types.CodeType:'
p3087
sI202
S'            ccode = code'
p3088
sI203
S'        else:'
p3089
sI204
S'            ccode = compile2(code,layer)'
p3090
sI205
S'        exec ccode in environment'
p3091
sI206
S'    except HTTP:'
p3092
sI207
S'        raise'
p3093
sI208
S'    except RestrictedError:'
p3094
sI209
S'        # do not encapsulate (obfuscate) the original RestrictedError'
p3095
ssS'call'
p3096
S"(code='# -*- coding: utf-8 -*-\\n# this file is released ...nt\\nresponse._vars=response._caller(delete_class)\\n', environment={'A': <class 'gluon.html.A'>, 'Auth': <class 'gluon.tools.Auth'>, 'B': <class 'gluon.html.B'>, 'BEAUTIFY': <class 'gluon.html.BEAUTIFY'>, 'BODY': <class 'gluon.html.BODY'>, 'BR': <class 'gluon.html.BR'>, 'BUTTON': <class 'gluon.html.BUTTON'>, 'CAT': <class 'gluon.html.CAT'>, 'CENTER': <class 'gluon.html.CENTER'>, 'CLEANUP': <class 'gluon.validators.CLEANUP'>, ...}, layer=r'D:\\workspace\\CA\\IgoR\\C_Sources\\Server\\igor-assis...12\\applications\\igor\\controllers/class_subject.py')"
p3097
sS'func'
p3098
S'restricted'
p3099
sa(dp3100
g3075
S'D:\\workspace\\CA\\IgoR\\C_Sources\\Server\\igor-assistant-ca-2012\\applications\\igor\\controllers\\class_subject.py'
p3101
sg3077
(dp3102
sg3083
I201
sg3084
(dp3103
I192
S'\t\tnum_of_day   = class_scheduler.day_of_week,'
p3104
sI193
S'        #"total_session": "Session 1-2-3",'
p3105
sI194
S'        teacher_name = class_subject.teacher,'
p3106
sI195
S'        location     = class_subject.location,'
p3107
sI196
S'        period = period,'
p3108
sI197
S'\t\tsession_start = str(session[0]),'
p3109
sI198
S'\t\t)'
p3110
sI199
S''
sI200
S'\treturn client'
p3111
sI191
S'\t\tsubject_code = subject.subject_code,'
p3112
ssg3096
S'()'
p3113
sg3098
S'<module>'
p3114
sa(dp3115
g3075
S'D:\\workspace\\CA\\IgoR\\C_Sources\\Server\\igor-assistant-ca-2012\\gluon\\globals.py'
p3116
sg3077
(dp3117
S'self'
p3118
S'undefined'
p3119
sS'f'
S'<function delete_class>'
p3120
ssg3083
I173
sg3084
(dp3121
I168
S'        self.menu = []             # used by the default view layout'
p3122
sI169
S'        self.files = []            # used by web2py_ajax.html'
p3123
sI170
S'        self.generic_patterns = [] # patterns to allow generic views'
p3124
sI171
S"        self.delimiters = ('{{','}}')"
p3125
sI172
S'        self._vars = None'
p3126
sI173
S'        self._caller = lambda f: f()'
p3127
sI174
S'        self._view_environment = None'
p3128
sI175
S'        self._custom_commit = None'
p3129
sI176
S'        self._custom_rollback = None'
p3130
sI177
S''
ssg3096
S'(f=<function delete_class>)'
p3131
sg3098
S'<lambda>'
p3132
sa(dp3133
g3075
S'D:\\workspace\\CA\\IgoR\\C_Sources\\Server\\igor-assistant-ca-2012\\gluon\\globals.py'
p3134
sg3077
(dp3135
S'rest_action'
p3136
S'<function GET>'
p3137
sS'_self'
p3138
S"<Storage {'body': <cStringIO.StringO object at 0..._vars': <Storage {}>, 'post_vars': <Storage {}>}>"
p3139
sS'_self.args'
p3140
S"['2', '2']"
p3141
sS'_self.vars'
p3142
S'<Storage {}>'
p3143
ssg3083
I138
sg3084
(dp3144
I133
S'                    raise HTTP(400,"invalid method")'
p3145
sI134
S'                rest_action = _action().get(method,None)'
p3146
sI135
S'                if not rest_action:'
p3147
sI136
S'                    raise HTTP(400,"method not supported")'
p3148
sI137
S'                try:'
p3149
sI138
S'                    return rest_action(*_self.args,**_self.vars)'
p3150
sI139
S'                except TypeError, e:'
p3151
sI140
S'                    exc_type, exc_value, exc_traceback = sys.exc_info()'
p3152
sI141
S'                    if len(traceback.extract_tb(exc_traceback))==1:'
p3153
sI142
S'                        raise HTTP(400,"invalid arguments")'
p3154
ssg3096
S"(_action=<function delete_class>, _self=<Storage {'body': <cStringIO.StringO object at 0..._vars': <Storage {}>, 'post_vars': <Storage {}>}>, *a=(), **b={})"
p3155
sg3098
S'f'
sa(dp3156
g3075
S'D:\\workspace\\CA\\IgoR\\C_Sources\\Server\\igor-assistant-ca-2012\\applications\\igor\\controllers\\class_subject.py'
p3157
sg3077
(dp3158
S'e.errno'
p3159
g3119
sS'MessageStatus.ERROR'
p3160
S'2'
sS'e'
S'AttributeError("\'Rows\' object has no attribute \'delete\'",)'
p3161
sS'global MessagePackager'
p3162
S'<class applications.igor.modules.message_packager.MessagePackager>'
p3163
sS'e.strerror'
p3164
g3119
sS'MessagePackager.get_packaged_message'
p3165
S'<function get_packaged_message>'
p3166
sS'global MessageStatus'
p3167
S'<class applications.igor.modules.message_packager.MessageStatus>'
p3168
ssg3083
I139
sg3084
(dp3169
I134
S'\tdef GET(user_id, class_id):'
p3170
sI135
S''
sI136
S'\t\ttry:'
p3171
sI137
S'\t\t\tscheduler = delete_scheduler(user_id, class_id);'
p3172
sI138
S'\t\texcept Exception as e:'
p3173
sI139
S"\t\t\treturn MessagePackager.get_packaged_message(MessageStatus.ERROR, e.errno + ': ' + e.strerror )"
p3174
sI140
S''
sI141
S'\t\treturn MessagePackager.get_packaged_message(MessageStatus.OK, scheduler)'
p3175
sI142
S''
sI143
S'\treturn locals()'
p3176
ssg3096
S"(user_id='2', class_id='2')"
p3177
sg3098
S'GET'
p3178
sasS'pyver'
p3179
S'Python 2.7.3: C:\\Python27\\python.exe'
p3180
sS'session'
p3181
g57
(g58
g59
NtRp3182
(dp3183
g62
(dp3184
sg64
(lp3185
g57
(g66
g59
NtRp3186
(dp3187
g62
(dp3188
g70
I5
ssg71
Nsg64
(lp3189
sbasbsS'etype'
p3190
S"<type 'exceptions.AttributeError'>"
p3191
sS'date'
p3192
S'Mon Jul 30 10:29:08 2012'
p3193
sS'response'
p3194
g57
(g58
g59
NtRp3195
(dp3196
g62
(dp3197
sg64
(lp3198
g57
(g66
g59
NtRp3199
(dp3200
g62
(dp3201
g70
I5
ssg71
Nsg64
(lp3202
g57
(g73
g59
NtRp3203
(dp3204
g62
(dp3205
sg71
g3199
sg64
(lp3206
g57
(g78
g59
NtRp3207
(dp3208
g62
(dp3209
g82
g83
ssg71
g3203
sg64
(lp3210
g179
asbag57
(g78
g59
NtRp3211
(dp3212
g62
(dp3213
g89
g90
ssg71
g3203
sg64
(lp3214
S':'
asbag57
(g78
g59
NtRp3215
(dp3216
g62
(dp3217
sg71
g3203
sg64
(lp3218
g57
(g58
g59
NtRp3219
(dp3220
g62
(dp3221
g70
I5
ssg71
g3215
sg64
(lp3222
S'<cStringIO.StringO object at 0x00000000050B1538>'
p3223
asbasbasbag57
(g73
g59
NtRp3224
(dp3225
g62
(dp3226
sg71
g3199
sg64
(lp3227
g57
(g78
g59
NtRp3228
(dp3229
g62
(dp3230
g82
g83
ssg71
g3224
sg64
(lp3231
g245
asbag57
(g78
g59
NtRp3232
(dp3233
g62
(dp3234
g89
g90
ssg71
g3224
sg64
(lp3235
S':'
asbag57
(g78
g59
NtRp3236
(dp3237
g62
(dp3238
sg71
g3224
sg64
(lp3239
g57
(g58
g59
NtRp3240
(dp3241
g62
(dp3242
g70
I5
ssg71
g3236
sg64
(lp3243
g57
(g66
g59
NtRp3244
(dp3245
g62
(dp3246
g70
I4
ssg71
Nsg64
(lp3247
g57
(g73
g59
NtRp3248
(dp3249
g62
(dp3250
sg71
g3244
sg64
(lp3251
g57
(g78
g59
NtRp3252
(dp3253
g62
(dp3254
g82
g83
ssg71
g3248
sg64
(lp3255
S'session_id_igor'
p3256
asbag57
(g78
g59
NtRp3257
(dp3258
g62
(dp3259
g89
g90
ssg71
g3248
sg64
(lp3260
S':'
asbag57
(g78
g59
NtRp3261
(dp3262
g62
(dp3263
sg71
g3248
sg64
(lp3264
g57
(g58
g59
NtRp3265
(dp3266
g62
(dp3267
g70
I4
ssg71
g3261
sg64
(lp3268
g57
(g66
g59
NtRp3269
(dp3270
g62
(dp3271
g70
I3
ssg71
Nsg64
(lp3272
g57
(g73
g59
NtRp3273
(dp3274
g62
(dp3275
sg71
g3269
sg64
(lp3276
g57
(g78
g59
NtRp3277
(dp3278
g62
(dp3279
g82
g83
ssg71
g3273
sg64
(lp3280
g295
asbag57
(g78
g59
NtRp3281
(dp3282
g62
(dp3283
g89
g90
ssg71
g3273
sg64
(lp3284
S':'
asbag57
(g78
g59
NtRp3285
(dp3286
g62
(dp3287
sg71
g3273
sg64
(lp3288
g57
(g58
g59
NtRp3289
(dp3290
g62
(dp3291
g70
I3
ssg71
g3285
sg64
(lp3292
S''
asbasbasbag57
(g73
g59
NtRp3293
(dp3294
g62
(dp3295
sg71
g3269
sg64
(lp3296
g57
(g78
g59
NtRp3297
(dp3298
g62
(dp3299
g82
g83
ssg71
g3293
sg64
(lp3300
g316
asbag57
(g78
g59
NtRp3301
(dp3302
g62
(dp3303
g89
g90
ssg71
g3293
sg64
(lp3304
S':'
asbag57
(g78
g59
NtRp3305
(dp3306
g62
(dp3307
sg71
g3293
sg64
(lp3308
g57
(g58
g59
NtRp3309
(dp3310
g62
(dp3311
g70
I3
ssg71
g3305
sg64
(lp3312
S''
asbasbasbag57
(g73
g59
NtRp3313
(dp3314
g62
(dp3315
sg71
g3269
sg64
(lp3316
g57
(g78
g59
NtRp3317
(dp3318
g62
(dp3319
g82
g83
ssg71
g3313
sg64
(lp3320
g337
asbag57
(g78
g59
NtRp3321
(dp3322
g62
(dp3323
g89
g90
ssg71
g3313
sg64
(lp3324
S':'
asbag57
(g78
g59
NtRp3325
(dp3326
g62
(dp3327
sg71
g3313
sg64
(lp3328
g57
(g58
g59
NtRp3329
(dp3330
g62
(dp3331
g70
I3
ssg71
g3325
sg64
(lp3332
S''
asbasbasbag57
(g73
g59
NtRp3333
(dp3334
g62
(dp3335
sg71
g3269
sg64
(lp3336
g57
(g78
g59
NtRp3337
(dp3338
g62
(dp3339
g82
g83
ssg71
g3333
sg64
(lp3340
g358
asbag57
(g78
g59
NtRp3341
(dp3342
g62
(dp3343
g89
g90
ssg71
g3333
sg64
(lp3344
S':'
asbag57
(g78
g59
NtRp3345
(dp3346
g62
(dp3347
sg71
g3333
sg64
(lp3348
g57
(g58
g59
NtRp3349
(dp3350
g62
(dp3351
g70
I3
ssg71
g3345
sg64
(lp3352
S''
asbasbasbag57
(g73
g59
NtRp3353
(dp3354
g62
(dp3355
sg71
g3269
sg64
(lp3356
g57
(g78
g59
NtRp3357
(dp3358
g62
(dp3359
g82
g83
ssg71
g3353
sg64
(lp3360
g379
asbag57
(g78
g59
NtRp3361
(dp3362
g62
(dp3363
g89
g90
ssg71
g3353
sg64
(lp3364
S':'
asbag57
(g78
g59
NtRp3365
(dp3366
g62
(dp3367
sg71
g3353
sg64
(lp3368
g57
(g58
g59
NtRp3369
(dp3370
g62
(dp3371
g70
I3
ssg71
g3365
sg64
(lp3372
S''
asbasbasbag57
(g73
g59
NtRp3373
(dp3374
g62
(dp3375
sg71
g3269
sg64
(lp3376
g57
(g78
g59
NtRp3377
(dp3378
g62
(dp3379
g82
g83
ssg71
g3373
sg64
(lp3380
g400
asbag57
(g78
g59
NtRp3381
(dp3382
g62
(dp3383
g89
g90
ssg71
g3373
sg64
(lp3384
S':'
asbag57
(g78
g59
NtRp3385
(dp3386
g62
(dp3387
sg71
g3373
sg64
(lp3388
g57
(g58
g59
NtRp3389
(dp3390
g62
(dp3391
g70
I3
ssg71
g3385
sg64
(lp3392
S'/'
asbasbasbag57
(g73
g59
NtRp3393
(dp3394
g62
(dp3395
sg71
g3269
sg64
(lp3396
g57
(g78
g59
NtRp3397
(dp3398
g62
(dp3399
g82
g83
ssg71
g3393
sg64
(lp3400
g421
asbag57
(g78
g59
NtRp3401
(dp3402
g62
(dp3403
g89
g90
ssg71
g3393
sg64
(lp3404
S':'
asbag57
(g78
g59
NtRp3405
(dp3406
g62
(dp3407
sg71
g3393
sg64
(lp3408
g57
(g58
g59
NtRp3409
(dp3410
g62
(dp3411
g70
I3
ssg71
g3405
sg64
(lp3412
S''
asbasbasbag57
(g73
g59
NtRp3413
(dp3414
g62
(dp3415
sg71
g3269
sg64
(lp3416
g57
(g78
g59
NtRp3417
(dp3418
g62
(dp3419
g82
g83
ssg71
g3413
sg64
(lp3420
g442
asbag57
(g78
g59
NtRp3421
(dp3422
g62
(dp3423
g89
g90
ssg71
g3413
sg64
(lp3424
S':'
asbag57
(g78
g59
NtRp3425
(dp3426
g62
(dp3427
sg71
g3413
sg64
(lp3428
g57
(g58
g59
NtRp3429
(dp3430
g62
(dp3431
g70
I3
ssg71
g3425
sg64
(lp3432
S''
asbasbasbasbasbasbasbasbasbasbasbag57
(g73
g59
NtRp3433
(dp3434
g62
(dp3435
sg71
g3199
sg64
(lp3436
g57
(g78
g59
NtRp3437
(dp3438
g62
(dp3439
g82
g83
ssg71
g3433
sg64
(lp3440
S'delimiters'
p3441
asbag57
(g78
g59
NtRp3442
(dp3443
g62
(dp3444
g89
g90
ssg71
g3433
sg64
(lp3445
S':'
asbag57
(g78
g59
NtRp3446
(dp3447
g62
(dp3448
sg71
g3433
sg64
(lp3449
g57
(g58
g59
NtRp3450
(dp3451
g62
(dp3452
g70
I5
ssg71
g3446
sg64
(lp3453
g57
(g66
g59
NtRp3454
(dp3455
g62
(dp3456
g70
I4
ssg71
Nsg64
(lp3457
g57
(g73
g59
NtRp3458
(dp3459
g62
(dp3460
sg71
g3454
sg64
(lp3461
g57
(g78
g59
NtRp3462
(dp3463
g62
(dp3464
sg71
g3458
sg64
(lp3465
g57
(g58
g59
NtRp3466
(dp3467
g62
(dp3468
g70
I4
ssg71
g3462
sg64
(lp3469
S'{{'
p3470
asbasbasbag57
(g73
g59
NtRp3471
(dp3472
g62
(dp3473
sg71
g3454
sg64
(lp3474
g57
(g78
g59
NtRp3475
(dp3476
g62
(dp3477
sg71
g3471
sg64
(lp3478
g57
(g58
g59
NtRp3479
(dp3480
g62
(dp3481
g70
I4
ssg71
g3475
sg64
(lp3482
S'}}'
p3483
asbasbasbasbasbasbasbag57
(g73
g59
NtRp3484
(dp3485
g62
(dp3486
sg71
g3199
sg64
(lp3487
g57
(g78
g59
NtRp3488
(dp3489
g62
(dp3490
g82
g83
ssg71
g3484
sg64
(lp3491
S'files'
p3492
asbag57
(g78
g59
NtRp3493
(dp3494
g62
(dp3495
g89
g90
ssg71
g3484
sg64
(lp3496
S':'
asbag57
(g78
g59
NtRp3497
(dp3498
g62
(dp3499
sg71
g3484
sg64
(lp3500
g57
(g58
g59
NtRp3501
(dp3502
g62
(dp3503
g70
I5
ssg71
g3497
sg64
(lp3504
g57
(g66
g59
NtRp3505
(dp3506
g62
(dp3507
g70
I4
ssg71
Nsg64
(lp3508
sbasbasbasbag57
(g73
g59
NtRp3509
(dp3510
g62
(dp3511
sg71
g3199
sg64
(lp3512
g57
(g78
g59
NtRp3513
(dp3514
g62
(dp3515
g82
g83
ssg71
g3509
sg64
(lp3516
S'flash'
p3517
asbag57
(g78
g59
NtRp3518
(dp3519
g62
(dp3520
g89
g90
ssg71
g3509
sg64
(lp3521
S':'
asbag57
(g78
g59
NtRp3522
(dp3523
g62
(dp3524
sg71
g3509
sg64
(lp3525
g57
(g58
g59
NtRp3526
(dp3527
g62
(dp3528
g70
I5
ssg71
g3522
sg64
(lp3529
S''
asbasbasbag57
(g73
g59
NtRp3530
(dp3531
g62
(dp3532
sg71
g3199
sg64
(lp3533
g57
(g78
g59
NtRp3534
(dp3535
g62
(dp3536
g82
g83
ssg71
g3530
sg64
(lp3537
S'generic_patterns'
p3538
asbag57
(g78
g59
NtRp3539
(dp3540
g62
(dp3541
g89
g90
ssg71
g3530
sg64
(lp3542
S':'
asbag57
(g78
g59
NtRp3543
(dp3544
g62
(dp3545
sg71
g3530
sg64
(lp3546
g57
(g58
g59
NtRp3547
(dp3548
g62
(dp3549
g70
I5
ssg71
g3543
sg64
(lp3550
g57
(g66
g59
NtRp3551
(dp3552
g62
(dp3553
g70
I4
ssg71
Nsg64
(lp3554
g57
(g73
g59
NtRp3555
(dp3556
g62
(dp3557
sg71
g3551
sg64
(lp3558
g57
(g78
g59
NtRp3559
(dp3560
g62
(dp3561
sg71
g3555
sg64
(lp3562
g57
(g58
g59
NtRp3563
(dp3564
g62
(dp3565
g70
I4
ssg71
g3559
sg64
(lp3566
S'*'
asbasbasbasbasbasbasbag57
(g73
g59
NtRp3567
(dp3568
g62
(dp3569
sg71
g3199
sg64
(lp3570
g57
(g78
g59
NtRp3571
(dp3572
g62
(dp3573
g82
g83
ssg71
g3567
sg64
(lp3574
S'headers'
p3575
asbag57
(g78
g59
NtRp3576
(dp3577
g62
(dp3578
g89
g90
ssg71
g3567
sg64
(lp3579
S':'
asbag57
(g78
g59
NtRp3580
(dp3581
g62
(dp3582
sg71
g3567
sg64
(lp3583
g57
(g58
g59
NtRp3584
(dp3585
g62
(dp3586
g70
I5
ssg71
g3580
sg64
(lp3587
g57
(g66
g59
NtRp3588
(dp3589
g62
(dp3590
g70
I4
ssg71
Nsg64
(lp3591
g57
(g73
g59
NtRp3592
(dp3593
g62
(dp3594
sg71
g3588
sg64
(lp3595
g57
(g78
g59
NtRp3596
(dp3597
g62
(dp3598
g82
g83
ssg71
g3592
sg64
(lp3599
S'Cache-Control'
p3600
asbag57
(g78
g59
NtRp3601
(dp3602
g62
(dp3603
g89
g90
ssg71
g3592
sg64
(lp3604
S':'
asbag57
(g78
g59
NtRp3605
(dp3606
g62
(dp3607
sg71
g3592
sg64
(lp3608
g57
(g58
g59
NtRp3609
(dp3610
g62
(dp3611
g70
I4
ssg71
g3605
sg64
(lp3612
S'no-store, no-cache, must-revalidate, post-check=0, pre-check=0'
p3613
asbasbasbag57
(g73
g59
NtRp3614
(dp3615
g62
(dp3616
sg71
g3588
sg64
(lp3617
g57
(g78
g59
NtRp3618
(dp3619
g62
(dp3620
g82
g83
ssg71
g3614
sg64
(lp3621
S'Content-Type'
p3622
asbag57
(g78
g59
NtRp3623
(dp3624
g62
(dp3625
g89
g90
ssg71
g3614
sg64
(lp3626
S':'
asbag57
(g78
g59
NtRp3627
(dp3628
g62
(dp3629
sg71
g3614
sg64
(lp3630
g57
(g58
g59
NtRp3631
(dp3632
g62
(dp3633
g70
I4
ssg71
g3627
sg64
(lp3634
S'text/html; charset=utf-8'
p3635
asbasbasbag57
(g73
g59
NtRp3636
(dp3637
g62
(dp3638
sg71
g3588
sg64
(lp3639
g57
(g78
g59
NtRp3640
(dp3641
g62
(dp3642
g82
g83
ssg71
g3636
sg64
(lp3643
S'Expires'
p3644
asbag57
(g78
g59
NtRp3645
(dp3646
g62
(dp3647
g89
g90
ssg71
g3636
sg64
(lp3648
S':'
asbag57
(g78
g59
NtRp3649
(dp3650
g62
(dp3651
sg71
g3636
sg64
(lp3652
g57
(g58
g59
NtRp3653
(dp3654
g62
(dp3655
g70
I4
ssg71
g3649
sg64
(lp3656
S'Mon, 30 Jul 2012 03:29:08 GMT'
p3657
asbasbasbag57
(g73
g59
NtRp3658
(dp3659
g62
(dp3660
sg71
g3588
sg64
(lp3661
g57
(g78
g59
NtRp3662
(dp3663
g62
(dp3664
g82
g83
ssg71
g3658
sg64
(lp3665
S'Pragma'
p3666
asbag57
(g78
g59
NtRp3667
(dp3668
g62
(dp3669
g89
g90
ssg71
g3658
sg64
(lp3670
S':'
asbag57
(g78
g59
NtRp3671
(dp3672
g62
(dp3673
sg71
g3658
sg64
(lp3674
g57
(g58
g59
NtRp3675
(dp3676
g62
(dp3677
g70
I4
ssg71
g3671
sg64
(lp3678
S'no-cache'
p3679
asbasbasbag57
(g73
g59
NtRp3680
(dp3681
g62
(dp3682
sg71
g3588
sg64
(lp3683
g57
(g78
g59
NtRp3684
(dp3685
g62
(dp3686
g82
g83
ssg71
g3680
sg64
(lp3687
S'X-Powered-By'
p3688
asbag57
(g78
g59
NtRp3689
(dp3690
g62
(dp3691
g89
g90
ssg71
g3680
sg64
(lp3692
S':'
asbag57
(g78
g59
NtRp3693
(dp3694
g62
(dp3695
sg71
g3680
sg64
(lp3696
g57
(g58
g59
NtRp3697
(dp3698
g62
(dp3699
g70
I4
ssg71
g3693
sg64
(lp3700
S'web2py'
p3701
asbasbasbasbasbasbasbag57
(g73
g59
NtRp3702
(dp3703
g62
(dp3704
sg71
g3199
sg64
(lp3705
g57
(g78
g59
NtRp3706
(dp3707
g62
(dp3708
g82
g83
ssg71
g3702
sg64
(lp3709
S'menu'
p3710
asbag57
(g78
g59
NtRp3711
(dp3712
g62
(dp3713
g89
g90
ssg71
g3702
sg64
(lp3714
S':'
asbag57
(g78
g59
NtRp3715
(dp3716
g62
(dp3717
sg71
g3702
sg64
(lp3718
g57
(g58
g59
NtRp3719
(dp3720
g62
(dp3721
g70
I5
ssg71
g3715
sg64
(lp3722
g57
(g66
g59
NtRp3723
(dp3724
g62
(dp3725
g70
I4
ssg71
Nsg64
(lp3726
g57
(g73
g59
NtRp3727
(dp3728
g62
(dp3729
sg71
g3723
sg64
(lp3730
g57
(g78
g59
NtRp3731
(dp3732
g62
(dp3733
sg71
g3727
sg64
(lp3734
g57
(g58
g59
NtRp3735
(dp3736
g62
(dp3737
g70
I4
ssg71
g3731
sg64
(lp3738
g57
(g66
g59
NtRp3739
(dp3740
g62
(dp3741
g70
I3
ssg71
Nsg64
(lp3742
g57
(g73
g59
NtRp3743
(dp3744
g62
(dp3745
sg71
g3739
sg64
(lp3746
g57
(g78
g59
NtRp3747
(dp3748
g62
(dp3749
sg71
g3743
sg64
(lp3750
g57
(g58
g59
NtRp3751
(dp3752
g62
(dp3753
g70
I3
ssg71
g3747
sg64
(lp3754
cgluon.languages
lazyT_unpickle
p3755
(S't\x04\x00\x00\x00Home'
tRp3756
asbasbasbag57
(g73
g59
NtRp3757
(dp3758
g62
(dp3759
sg71
g3739
sg64
(lp3760
g57
(g78
g59
NtRp3761
(dp3762
g62
(dp3763
sg71
g3757
sg64
(lp3764
g57
(g58
g59
NtRp3765
(dp3766
g62
(dp3767
g70
I3
ssg71
g3761
sg64
(lp3768
g100
asbasbasbag57
(g73
g59
NtRp3769
(dp3770
g62
(dp3771
sg71
g3739
sg64
(lp3772
g57
(g78
g59
NtRp3773
(dp3774
g62
(dp3775
sg71
g3769
sg64
(lp3776
g57
(g58
g59
NtRp3777
(dp3778
g62
(dp3779
g70
I3
ssg71
g3773
sg64
(lp3780
S'/igor/default/index'
p3781
asbasbasbag57
(g73
g59
NtRp3782
(dp3783
g62
(dp3784
sg71
g3739
sg64
(lp3785
g57
(g78
g59
NtRp3786
(dp3787
g62
(dp3788
sg71
g3782
sg64
(lp3789
g57
(g58
g59
NtRp3790
(dp3791
g62
(dp3792
g70
I3
ssg71
g3786
sg64
(lp3793
g57
(g66
g59
NtRp3794
(dp3795
g62
(dp3796
g70
I2
ssg71
Nsg64
(lp3797
sbasbasbasbasbasbasbasbag57
(g73
g59
NtRp3798
(dp3799
g62
(dp3800
sg71
g3723
sg64
(lp3801
g57
(g78
g59
NtRp3802
(dp3803
g62
(dp3804
sg71
g3798
sg64
(lp3805
g57
(g58
g59
NtRp3806
(dp3807
g62
(dp3808
g70
I4
ssg71
g3802
sg64
(lp3809
g57
(g66
g59
NtRp3810
(dp3811
g62
(dp3812
g70
I3
ssg71
Nsg64
(lp3813
g57
(g73
g59
NtRp3814
(dp3815
g62
(dp3816
sg71
g3810
sg64
(lp3817
g57
(g78
g59
NtRp3818
(dp3819
g62
(dp3820
sg71
g3814
sg64
(lp3821
g57
(g58
g59
NtRp3822
(dp3823
g62
(dp3824
g70
I3
ssg71
g3818
sg64
(lp3825
g57
(cgluon.html
SPAN
p3826
g59
NtRp3827
(dp3828
g62
(dp3829
g82
S'color:yellow'
p3830
ssg71
Nsg64
(lp3831
g3701
asbasbasbasbag57
(g73
g59
NtRp3832
(dp3833
g62
(dp3834
sg71
g3810
sg64
(lp3835
g57
(g78
g59
NtRp3836
(dp3837
g62
(dp3838
sg71
g3832
sg64
(lp3839
g57
(g58
g59
NtRp3840
(dp3841
g62
(dp3842
g70
I3
ssg71
g3836
sg64
(lp3843
g100
asbasbasbag57
(g73
g59
NtRp3844
(dp3845
g62
(dp3846
sg71
g3810
sg64
(lp3847
g57
(g78
g59
NtRp3848
(dp3849
g62
(dp3850
sg71
g3844
sg64
(lp3851
g57
(g58
g59
NtRp3852
(dp3853
g62
(dp3854
g70
I3
ssg71
g3848
sg64
(lp3855
S'None'
p3856
asbasbasbag57
(g73
g59
NtRp3857
(dp3858
g62
(dp3859
sg71
g3810
sg64
(lp3860
g57
(g78
g59
NtRp3861
(dp3862
g62
(dp3863
sg71
g3857
sg64
(lp3864
g57
(g58
g59
NtRp3865
(dp3866
g62
(dp3867
g70
I3
ssg71
g3861
sg64
(lp3868
g57
(g66
g59
NtRp3869
(dp3870
g62
(dp3871
g70
I2
ssg71
Nsg64
(lp3872
g57
(g73
g59
NtRp3873
(dp3874
g62
(dp3875
sg71
g3869
sg64
(lp3876
g57
(g78
g59
NtRp3877
(dp3878
g62
(dp3879
sg71
g3873
sg64
(lp3880
g57
(g58
g59
NtRp3881
(dp3882
g62
(dp3883
g70
I2
ssg71
g3877
sg64
(lp3884
g57
(g66
g59
NtRp3885
(dp3886
g62
(dp3887
g70
I1
ssg71
Nsg64
(lp3888
g57
(g73
g59
NtRp3889
(dp3890
g62
(dp3891
sg71
g3885
sg64
(lp3892
g57
(g78
g59
NtRp3893
(dp3894
g62
(dp3895
sg71
g3889
sg64
(lp3896
g57
(g58
g59
NtRp3897
(dp3898
g62
(dp3899
g70
I1
ssg71
g3893
sg64
(lp3900
g3755
(S's\x08\x00\x00\x00My Sites'
tRp3901
asbasbasbag57
(g73
g59
NtRp3902
(dp3903
g62
(dp3904
sg71
g3885
sg64
(lp3905
g57
(g78
g59
NtRp3906
(dp3907
g62
(dp3908
sg71
g3902
sg64
(lp3909
g57
(g58
g59
NtRp3910
(dp3911
g62
(dp3912
g70
I1
ssg71
g3906
sg64
(lp3913
I00
asbasbasbag57
(g73
g59
NtRp3914
(dp3915
g62
(dp3916
sg71
g3885
sg64
(lp3917
g57
(g78
g59
NtRp3918
(dp3919
g62
(dp3920
sg71
g3914
sg64
(lp3921
g57
(g58
g59
NtRp3922
(dp3923
g62
(dp3924
g70
I1
ssg71
g3918
sg64
(lp3925
S'/admin/default/site'
p3926
asbasbasbasbasbasbasbag57
(g73
g59
NtRp3927
(dp3928
g62
(dp3929
sg71
g3869
sg64
(lp3930
g57
(g78
g59
NtRp3931
(dp3932
g62
(dp3933
sg71
g3927
sg64
(lp3934
g57
(g58
g59
NtRp3935
(dp3936
g62
(dp3937
g70
I2
ssg71
g3931
sg64
(lp3938
g57
(g66
g59
NtRp3939
(dp3940
g62
(dp3941
g70
I1
ssg71
Nsg64
(lp3942
g57
(g73
g59
NtRp3943
(dp3944
g62
(dp3945
sg71
g3939
sg64
(lp3946
g57
(g78
g59
NtRp3947
(dp3948
g62
(dp3949
sg71
g3943
sg64
(lp3950
g57
(g58
g59
NtRp3951
(dp3952
g62
(dp3953
g70
I1
ssg71
g3947
sg64
(lp3954
g3755
(S's\x08\x00\x00\x00This App'
tRp3955
asbasbasbag57
(g73
g59
NtRp3956
(dp3957
g62
(dp3958
sg71
g3939
sg64
(lp3959
g57
(g78
g59
NtRp3960
(dp3961
g62
(dp3962
sg71
g3956
sg64
(lp3963
g57
(g58
g59
NtRp3964
(dp3965
g62
(dp3966
g70
I1
ssg71
g3960
sg64
(lp3967
I00
asbasbasbag57
(g73
g59
NtRp3968
(dp3969
g62
(dp3970
sg71
g3939
sg64
(lp3971
g57
(g78
g59
NtRp3972
(dp3973
g62
(dp3974
sg71
g3968
sg64
(lp3975
g57
(g58
g59
NtRp3976
(dp3977
g62
(dp3978
g70
I1
ssg71
g3972
sg64
(lp3979
S'/admin/default/design/igor'
p3980
asbasbasbag57
(g73
g59
NtRp3981
(dp3982
g62
(dp3983
sg71
g3939
sg64
(lp3984
g57
(g78
g59
NtRp3985
(dp3986
g62
(dp3987
sg71
g3981
sg64
(lp3988
g57
(g58
g59
NtRp3989
(dp3990
g62
(dp3991
g70
I1
ssg71
g3985
sg64
(lp3992
(lp3993
(g3755
(S't\n\x00\x00\x00Controller'
tRp3994
I00
S'/admin/default/edit/igor/controllers/class_subject.py'
tp3995
a(g3755
(S't\x04\x00\x00\x00View'
tRp3996
I00
S'/admin/default/edit/igor/views/class_subject/delete_class.html'
tp3997
a(g3755
(S't\x06\x00\x00\x00Layout'
tRp3998
I00
S'/admin/default/edit/igor/views/layout.html'
tp3999
a(g3755
(S't\n\x00\x00\x00Stylesheet'
tRp4000
I00
S'/admin/default/edit/igor/static/css/web2py.css'
tp4001
a(g3755
(S's\x08\x00\x00\x00DB Model'
tRp4002
I00
S'/admin/default/edit/igor/models/db.py'
tp4003
a(g3755
(S's\n\x00\x00\x00Menu Model'
tRp4004
I00
S'/admin/default/edit/igor/models/menu.py'
tp4005
a(g3755
(S't\x08\x00\x00\x00Database'
tRp4006
I00
S'/igor/appadmin/index'
tp4007
a(g3755
(S't\x06\x00\x00\x00Errors'
tRp4008
I00
S'/admin/default/errors/igor'
tp4009
a(g3755
(S't\x05\x00\x00\x00About'
tRp4010
I00
S'/admin/default/about/igor'
tp4011
aasbasbasbasbasbasbasbag57
(g73
g59
NtRp4012
(dp4013
g62
(dp4014
sg71
g3869
sg64
(lp4015
g57
(g78
g59
NtRp4016
(dp4017
g62
(dp4018
sg71
g4012
sg64
(lp4019
g57
(g58
g59
NtRp4020
(dp4021
g62
(dp4022
g70
I2
ssg71
g4016
sg64
(lp4023
g57
(g66
g59
NtRp4024
(dp4025
g62
(dp4026
g70
I1
ssg71
Nsg64
(lp4027
g57
(g73
g59
NtRp4028
(dp4029
g62
(dp4030
sg71
g4024
sg64
(lp4031
g57
(g78
g59
NtRp4032
(dp4033
g62
(dp4034
sg71
g4028
sg64
(lp4035
g57
(g58
g59
NtRp4036
(dp4037
g62
(dp4038
g70
I1
ssg71
g4032
sg64
(lp4039
S'web2py.com'
p4040
asbasbasbag57
(g73
g59
NtRp4041
(dp4042
g62
(dp4043
sg71
g4024
sg64
(lp4044
g57
(g78
g59
NtRp4045
(dp4046
g62
(dp4047
sg71
g4041
sg64
(lp4048
g57
(g58
g59
NtRp4049
(dp4050
g62
(dp4051
g70
I1
ssg71
g4045
sg64
(lp4052
I00
asbasbasbag57
(g73
g59
NtRp4053
(dp4054
g62
(dp4055
sg71
g4024
sg64
(lp4056
g57
(g78
g59
NtRp4057
(dp4058
g62
(dp4059
sg71
g4053
sg64
(lp4060
g57
(g58
g59
NtRp4061
(dp4062
g62
(dp4063
g70
I1
ssg71
g4057
sg64
(lp4064
S'http://www.web2py.com'
p4065
asbasbasbag57
(g73
g59
NtRp4066
(dp4067
g62
(dp4068
sg71
g4024
sg64
(lp4069
g57
(g78
g59
NtRp4070
(dp4071
g62
(dp4072
sg71
g4066
sg64
(lp4073
g57
(g58
g59
NtRp4074
(dp4075
g62
(dp4076
g70
I1
ssg71
g4070
sg64
(lp4077
(lp4078
(g3755
(S't\x08\x00\x00\x00Download'
tRp4079
I00
S'http://www.web2py.com/examples/default/download'
p4080
tp4081
a(g3755
(S't\x07\x00\x00\x00Support'
tRp4082
I00
S'http://www.web2py.com/examples/default/support'
p4083
tp4084
a(g3755
(S't\x04\x00\x00\x00Demo'
tRp4085
I00
S'http://web2py.com/demo_admin'
p4086
tp4087
a(g3755
(S's\x0e\x00\x00\x00Quick Examples'
tRp4088
I00
S'http://web2py.com/examples/default/examples'
p4089
tp4090
a(g3755
(S't\x03\x00\x00\x00FAQ'
tRp4091
I00
S'http://web2py.com/AlterEgo'
p4092
tp4093
a(g3755
(S't\x06\x00\x00\x00Videos'
tRp4094
I00
S'http://www.web2py.com/examples/default/videos/'
p4095
tp4096
a(g3755
(S's\x11\x00\x00\x00Free Applications'
tRp4097
I00
S'http://web2py.com/appliances'
p4098
tp4099
a(g3755
(S't\x07\x00\x00\x00Plugins'
tRp4100
I00
S'http://web2py.com/plugins'
p4101
tp4102
a(g3755
(S't\x07\x00\x00\x00Layouts'
tRp4103
I00
S'http://web2py.com/layouts'
p4104
tp4105
a(g3755
(S't\x07\x00\x00\x00Recipes'
tRp4106
I00
S'http://web2pyslices.com/'
p4107
tp4108
a(g3755
(S't\x08\x00\x00\x00Semantic'
tRp4109
I00
S'http://web2py.com/semantic'
p4110
tp4111
aasbasbasbasbasbasbasbag57
(g73
g59
NtRp4112
(dp4113
g62
(dp4114
sg71
g3869
sg64
(lp4115
g57
(g78
g59
NtRp4116
(dp4117
g62
(dp4118
sg71
g4112
sg64
(lp4119
g57
(g58
g59
NtRp4120
(dp4121
g62
(dp4122
g70
I2
ssg71
g4116
sg64
(lp4123
g57
(g66
g59
NtRp4124
(dp4125
g62
(dp4126
g70
I1
ssg71
Nsg64
(lp4127
g57
(g73
g59
NtRp4128
(dp4129
g62
(dp4130
sg71
g4124
sg64
(lp4131
g57
(g78
g59
NtRp4132
(dp4133
g62
(dp4134
sg71
g4128
sg64
(lp4135
g57
(g58
g59
NtRp4136
(dp4137
g62
(dp4138
g70
I1
ssg71
g4132
sg64
(lp4139
g3755
(S't\r\x00\x00\x00Documentation'
tRp4140
asbasbasbag57
(g73
g59
NtRp4141
(dp4142
g62
(dp4143
sg71
g4124
sg64
(lp4144
g57
(g78
g59
NtRp4145
(dp4146
g62
(dp4147
sg71
g4141
sg64
(lp4148
g57
(g58
g59
NtRp4149
(dp4150
g62
(dp4151
g70
I1
ssg71
g4145
sg64
(lp4152
I00
asbasbasbag57
(g73
g59
NtRp4153
(dp4154
g62
(dp4155
sg71
g4124
sg64
(lp4156
g57
(g78
g59
NtRp4157
(dp4158
g62
(dp4159
sg71
g4153
sg64
(lp4160
g57
(g58
g59
NtRp4161
(dp4162
g62
(dp4163
g70
I1
ssg71
g4157
sg64
(lp4164
S'http://www.web2py.com/book'
p4165
asbasbasbag57
(g73
g59
NtRp4166
(dp4167
g62
(dp4168
sg71
g4124
sg64
(lp4169
g57
(g78
g59
NtRp4170
(dp4171
g62
(dp4172
sg71
g4166
sg64
(lp4173
g57
(g58
g59
NtRp4174
(dp4175
g62
(dp4176
g70
I1
ssg71
g4170
sg64
(lp4177
(lp4178
(g3755
(S't\x07\x00\x00\x00Preface'
tRp4179
I00
S'http://www.web2py.com/book/default/chapter/00'
p4180
tp4181
a(g3755
(S't\x0c\x00\x00\x00Introduction'
tRp4182
I00
S'http://www.web2py.com/book/default/chapter/01'
p4183
tp4184
a(g3755
(S't\x06\x00\x00\x00Python'
tRp4185
I00
S'http://www.web2py.com/book/default/chapter/02'
p4186
tp4187
a(g3755
(S't\x08\x00\x00\x00Overview'
tRp4188
I00
S'http://www.web2py.com/book/default/chapter/03'
p4189
tp4190
a(g3755
(S's\x08\x00\x00\x00The Core'
tRp4191
I00
S'http://www.web2py.com/book/default/chapter/04'
p4192
tp4193
a(g3755
(S's\t\x00\x00\x00The Views'
tRp4194
I00
S'http://www.web2py.com/book/default/chapter/05'
p4195
tp4196
a(g3755
(S't\x08\x00\x00\x00Database'
tRp4197
I00
S'http://www.web2py.com/book/default/chapter/06'
p4198
tp4199
a(g3755
(S's\x14\x00\x00\x00Forms and Validators'
tRp4200
I00
S'http://www.web2py.com/book/default/chapter/07'
p4201
tp4202
a(g3755
(S's\r\x00\x00\x00Email and SMS'
tRp4203
I00
S'http://www.web2py.com/book/default/chapter/08'
p4204
tp4205
a(g3755
(S's\x0e\x00\x00\x00Access Control'
tRp4206
I00
S'http://www.web2py.com/book/default/chapter/09'
p4207
tp4208
a(g3755
(S't\x08\x00\x00\x00Services'
tRp4209
I00
S'http://www.web2py.com/book/default/chapter/10'
p4210
tp4211
a(g3755
(S's\x0c\x00\x00\x00Ajax Recipes'
tRp4212
I00
S'http://www.web2py.com/book/default/chapter/11'
p4213
tp4214
a(g3755
(S's\x16\x00\x00\x00Components and Plugins'
tRp4215
I00
S'http://www.web2py.com/book/default/chapter/12'
p4216
tp4217
a(g3755
(S's\x12\x00\x00\x00Deployment Recipes'
tRp4218
I00
S'http://www.web2py.com/book/default/chapter/13'
p4219
tp4220
a(g3755
(S's\r\x00\x00\x00Other Recipes'
tRp4221
I00
S'http://www.web2py.com/book/default/chapter/14'
p4222
tp4223
a(g3755
(S's\r\x00\x00\x00Buy this book'
tRp4224
I00
S'http://stores.lulu.com/web2py'
p4225
tp4226
aasbasbasbasbasbasbasbag57
(g73
g59
NtRp4227
(dp4228
g62
(dp4229
sg71
g3869
sg64
(lp4230
g57
(g78
g59
NtRp4231
(dp4232
g62
(dp4233
sg71
g4227
sg64
(lp4234
g57
(g58
g59
NtRp4235
(dp4236
g62
(dp4237
g70
I2
ssg71
g4231
sg64
(lp4238
g57
(g66
g59
NtRp4239
(dp4240
g62
(dp4241
g70
I1
ssg71
Nsg64
(lp4242
g57
(g73
g59
NtRp4243
(dp4244
g62
(dp4245
sg71
g4239
sg64
(lp4246
g57
(g78
g59
NtRp4247
(dp4248
g62
(dp4249
sg71
g4243
sg64
(lp4250
g57
(g58
g59
NtRp4251
(dp4252
g62
(dp4253
g70
I1
ssg71
g4247
sg64
(lp4254
g3755
(S't\t\x00\x00\x00Community'
tRp4255
asbasbasbag57
(g73
g59
NtRp4256
(dp4257
g62
(dp4258
sg71
g4239
sg64
(lp4259
g57
(g78
g59
NtRp4260
(dp4261
g62
(dp4262
sg71
g4256
sg64
(lp4263
g57
(g58
g59
NtRp4264
(dp4265
g62
(dp4266
g70
I1
ssg71
g4260
sg64
(lp4267
I00
asbasbasbag57
(g73
g59
NtRp4268
(dp4269
g62
(dp4270
sg71
g4239
sg64
(lp4271
g57
(g78
g59
NtRp4272
(dp4273
g62
(dp4274
sg71
g4268
sg64
(lp4275
g57
(g58
g59
NtRp4276
(dp4277
g62
(dp4278
g70
I1
ssg71
g4272
sg64
(lp4279
Nasbasbasbag57
(g73
g59
NtRp4280
(dp4281
g62
(dp4282
sg71
g4239
sg64
(lp4283
g57
(g78
g59
NtRp4284
(dp4285
g62
(dp4286
sg71
g4280
sg64
(lp4287
g57
(g58
g59
NtRp4288
(dp4289
g62
(dp4290
g70
I1
ssg71
g4284
sg64
(lp4291
(lp4292
(g3755
(S't\x06\x00\x00\x00Groups'
tRp4293
I00
S'http://www.web2py.com/examples/default/usergroups'
p4294
tp4295
a(g3755
(S't\x07\x00\x00\x00Twitter'
tRp4296
I00
S'http://twitter.com/web2py'
p4297
tp4298
a(g3755
(S's\t\x00\x00\x00Live Chat'
tRp4299
I00
S'http://webchat.freenode.net/?channels=web2py'
p4300
tp4301
aasbasbasbasbasbasbasbag57
(g73
g59
NtRp4302
(dp4303
g62
(dp4304
sg71
g3869
sg64
(lp4305
g57
(g78
g59
NtRp4306
(dp4307
g62
(dp4308
sg71
g4302
sg64
(lp4309
g57
(g58
g59
NtRp4310
(dp4311
g62
(dp4312
g70
I2
ssg71
g4306
sg64
(lp4313
g57
(g66
g59
NtRp4314
(dp4315
g62
(dp4316
g70
I1
ssg71
Nsg64
(lp4317
g57
(g73
g59
NtRp4318
(dp4319
g62
(dp4320
sg71
g4314
sg64
(lp4321
g57
(g78
g59
NtRp4322
(dp4323
g62
(dp4324
sg71
g4318
sg64
(lp4325
g57
(g58
g59
NtRp4326
(dp4327
g62
(dp4328
g70
I1
ssg71
g4322
sg64
(lp4329
g3755
(S't\x07\x00\x00\x00Plugins'
tRp4330
asbasbasbag57
(g73
g59
NtRp4331
(dp4332
g62
(dp4333
sg71
g4314
sg64
(lp4334
g57
(g78
g59
NtRp4335
(dp4336
g62
(dp4337
sg71
g4331
sg64
(lp4338
g57
(g58
g59
NtRp4339
(dp4340
g62
(dp4341
g70
I1
ssg71
g4335
sg64
(lp4342
I00
asbasbasbag57
(g73
g59
NtRp4343
(dp4344
g62
(dp4345
sg71
g4314
sg64
(lp4346
g57
(g78
g59
NtRp4347
(dp4348
g62
(dp4349
sg71
g4343
sg64
(lp4350
g57
(g58
g59
NtRp4351
(dp4352
g62
(dp4353
g70
I1
ssg71
g4347
sg64
(lp4354
Nasbasbasbag57
(g73
g59
NtRp4355
(dp4356
g62
(dp4357
sg71
g4314
sg64
(lp4358
g57
(g78
g59
NtRp4359
(dp4360
g62
(dp4361
sg71
g4355
sg64
(lp4362
g57
(g58
g59
NtRp4363
(dp4364
g62
(dp4365
g70
I1
ssg71
g4359
sg64
(lp4366
(lp4367
(S'plugin_wiki'
p4368
I00
S'http://web2py.com/examples/default/download'
p4369
tp4370
a(g3755
(S's\r\x00\x00\x00Other Plugins'
tRp4371
I00
g4101
tp4372
a(g3755
(S's\x0e\x00\x00\x00Layout Plugins'
tRp4373
I00
g4104
tp4374
aasbasbasbasbasbasbasbasbasbasbasbasbasbasbasbasbasbasbasbag57
(g73
g59
NtRp4375
(dp4376
g62
(dp4377
sg71
g3199
sg64
(lp4378
g57
(g78
g59
NtRp4379
(dp4380
g62
(dp4381
g82
g83
ssg71
g4375
sg64
(lp4382
S'meta'
p4383
asbag57
(g78
g59
NtRp4384
(dp4385
g62
(dp4386
g89
g90
ssg71
g4375
sg64
(lp4387
S':'
asbag57
(g78
g59
NtRp4388
(dp4389
g62
(dp4390
sg71
g4375
sg64
(lp4391
g57
(g58
g59
NtRp4392
(dp4393
g62
(dp4394
g70
I5
ssg71
g4388
sg64
(lp4395
g57
(g66
g59
NtRp4396
(dp4397
g62
(dp4398
g70
I4
ssg71
Nsg64
(lp4399
g57
(g73
g59
NtRp4400
(dp4401
g62
(dp4402
sg71
g4396
sg64
(lp4403
g57
(g78
g59
NtRp4404
(dp4405
g62
(dp4406
g82
g83
ssg71
g4400
sg64
(lp4407
S'author'
p4408
asbag57
(g78
g59
NtRp4409
(dp4410
g62
(dp4411
g89
g90
ssg71
g4400
sg64
(lp4412
S':'
asbag57
(g78
g59
NtRp4413
(dp4414
g62
(dp4415
sg71
g4400
sg64
(lp4416
g57
(g58
g59
NtRp4417
(dp4418
g62
(dp4419
g70
I4
ssg71
g4413
sg64
(lp4420
S'Your Name <you@example.com>'
p4421
asbasbasbag57
(g73
g59
NtRp4422
(dp4423
g62
(dp4424
sg71
g4396
sg64
(lp4425
g57
(g78
g59
NtRp4426
(dp4427
g62
(dp4428
g82
g83
ssg71
g4422
sg64
(lp4429
S'copyright'
p4430
asbag57
(g78
g59
NtRp4431
(dp4432
g62
(dp4433
g89
g90
ssg71
g4422
sg64
(lp4434
S':'
asbag57
(g78
g59
NtRp4435
(dp4436
g62
(dp4437
sg71
g4422
sg64
(lp4438
g57
(g58
g59
NtRp4439
(dp4440
g62
(dp4441
g70
I4
ssg71
g4435
sg64
(lp4442
S'Copyright 2011'
p4443
asbasbasbag57
(g73
g59
NtRp4444
(dp4445
g62
(dp4446
sg71
g4396
sg64
(lp4447
g57
(g78
g59
NtRp4448
(dp4449
g62
(dp4450
g82
g83
ssg71
g4444
sg64
(lp4451
S'description'
p4452
asbag57
(g78
g59
NtRp4453
(dp4454
g62
(dp4455
g89
g90
ssg71
g4444
sg64
(lp4456
S':'
asbag57
(g78
g59
NtRp4457
(dp4458
g62
(dp4459
sg71
g4444
sg64
(lp4460
g57
(g58
g59
NtRp4461
(dp4462
g62
(dp4463
g70
I4
ssg71
g4457
sg64
(lp4464
S'a cool new app'
p4465
asbasbasbag57
(g73
g59
NtRp4466
(dp4467
g62
(dp4468
sg71
g4396
sg64
(lp4469
g57
(g78
g59
NtRp4470
(dp4471
g62
(dp4472
g82
g83
ssg71
g4466
sg64
(lp4473
S'generator'
p4474
asbag57
(g78
g59
NtRp4475
(dp4476
g62
(dp4477
g89
g90
ssg71
g4466
sg64
(lp4478
S':'
asbag57
(g78
g59
NtRp4479
(dp4480
g62
(dp4481
sg71
g4466
sg64
(lp4482
g57
(g58
g59
NtRp4483
(dp4484
g62
(dp4485
g70
I4
ssg71
g4479
sg64
(lp4486
S'Web2py Web Framework'
p4487
asbasbasbag57
(g73
g59
NtRp4488
(dp4489
g62
(dp4490
sg71
g4396
sg64
(lp4491
g57
(g78
g59
NtRp4492
(dp4493
g62
(dp4494
g82
g83
ssg71
g4488
sg64
(lp4495
S'keywords'
p4496
asbag57
(g78
g59
NtRp4497
(dp4498
g62
(dp4499
g89
g90
ssg71
g4488
sg64
(lp4500
S':'
asbag57
(g78
g59
NtRp4501
(dp4502
g62
(dp4503
sg71
g4488
sg64
(lp4504
g57
(g58
g59
NtRp4505
(dp4506
g62
(dp4507
g70
I4
ssg71
g4501
sg64
(lp4508
S'web2py, python, framework'
p4509
asbasbasbasbasbasbasbag57
(g73
g59
NtRp4510
(dp4511
g62
(dp4512
sg71
g3199
sg64
(lp4513
g57
(g78
g59
NtRp4514
(dp4515
g62
(dp4516
g82
g83
ssg71
g4510
sg64
(lp4517
S'postprocessing'
p4518
asbag57
(g78
g59
NtRp4519
(dp4520
g62
(dp4521
g89
g90
ssg71
g4510
sg64
(lp4522
S':'
asbag57
(g78
g59
NtRp4523
(dp4524
g62
(dp4525
sg71
g4510
sg64
(lp4526
g57
(g58
g59
NtRp4527
(dp4528
g62
(dp4529
g70
I5
ssg71
g4523
sg64
(lp4530
g57
(g66
g59
NtRp4531
(dp4532
g62
(dp4533
g70
I4
ssg71
Nsg64
(lp4534
sbasbasbasbag57
(g73
g59
NtRp4535
(dp4536
g62
(dp4537
sg71
g3199
sg64
(lp4538
g57
(g78
g59
NtRp4539
(dp4540
g62
(dp4541
g82
g83
ssg71
g4535
sg64
(lp4542
S'session_filename'
p4543
asbag57
(g78
g59
NtRp4544
(dp4545
g62
(dp4546
g89
g90
ssg71
g4535
sg64
(lp4547
S':'
asbag57
(g78
g59
NtRp4548
(dp4549
g62
(dp4550
sg71
g4535
sg64
(lp4551
g57
(g58
g59
NtRp4552
(dp4553
g62
(dp4554
g70
I5
ssg71
g4548
sg64
(lp4555
S'D:\\workspace\\CA\\IgoR\\C_Sources\\Server\\igor-assistant-ca-2012\\applications\\igor\\sessions\\127.0.0.1-c5c88ede-c49c-4b05-a5a8-3dc9b5eeccb1'
p4556
asbasbasbag57
(g73
g59
NtRp4557
(dp4558
g62
(dp4559
sg71
g3199
sg64
(lp4560
g57
(g78
g59
NtRp4561
(dp4562
g62
(dp4563
g82
g83
ssg71
g4557
sg64
(lp4564
S'session_id'
p4565
asbag57
(g78
g59
NtRp4566
(dp4567
g62
(dp4568
g89
g90
ssg71
g4557
sg64
(lp4569
S':'
asbag57
(g78
g59
NtRp4570
(dp4571
g62
(dp4572
sg71
g4557
sg64
(lp4573
g57
(g58
g59
NtRp4574
(dp4575
g62
(dp4576
g70
I5
ssg71
g4570
sg64
(lp4577
S'127.0.0.1-c5c88ede-c49c-4b05-a5a8-3dc9b5eeccb1'
p4578
asbasbasbag57
(g73
g59
NtRp4579
(dp4580
g62
(dp4581
sg71
g3199
sg64
(lp4582
g57
(g78
g59
NtRp4583
(dp4584
g62
(dp4585
g82
g83
ssg71
g4579
sg64
(lp4586
S'session_id_name'
p4587
asbag57
(g78
g59
NtRp4588
(dp4589
g62
(dp4590
g89
g90
ssg71
g4579
sg64
(lp4591
S':'
asbag57
(g78
g59
NtRp4592
(dp4593
g62
(dp4594
sg71
g4579
sg64
(lp4595
g57
(g58
g59
NtRp4596
(dp4597
g62
(dp4598
g70
I5
ssg71
g4592
sg64
(lp4599
g3256
asbasbasbag57
(g73
g59
NtRp4600
(dp4601
g62
(dp4602
sg71
g3199
sg64
(lp4603
g57
(g78
g59
NtRp4604
(dp4605
g62
(dp4606
g82
g83
ssg71
g4600
sg64
(lp4607
S'session_new'
p4608
asbag57
(g78
g59
NtRp4609
(dp4610
g62
(dp4611
g89
g90
ssg71
g4600
sg64
(lp4612
S':'
asbag57
(g78
g59
NtRp4613
(dp4614
g62
(dp4615
sg71
g4600
sg64
(lp4616
g57
(g58
g59
NtRp4617
(dp4618
g62
(dp4619
g70
I5
ssg71
g4613
sg64
(lp4620
g1715
asbasbasbag57
(g73
g59
NtRp4621
(dp4622
g62
(dp4623
sg71
g3199
sg64
(lp4624
g57
(g78
g59
NtRp4625
(dp4626
g62
(dp4627
g82
g83
ssg71
g4621
sg64
(lp4628
S'status'
p4629
asbag57
(g78
g59
NtRp4630
(dp4631
g62
(dp4632
g89
g90
ssg71
g4621
sg64
(lp4633
S':'
asbag57
(g78
g59
NtRp4634
(dp4635
g62
(dp4636
sg71
g4621
sg64
(lp4637
g57
(g58
g59
NtRp4638
(dp4639
g62
(dp4640
g70
I5
ssg71
g4634
sg64
(lp4641
S'200'
p4642
asbasbasbag57
(g73
g59
NtRp4643
(dp4644
g62
(dp4645
sg71
g3199
sg64
(lp4646
g57
(g78
g59
NtRp4647
(dp4648
g62
(dp4649
g82
g83
ssg71
g4643
sg64
(lp4650
S'subtitle'
p4651
asbag57
(g78
g59
NtRp4652
(dp4653
g62
(dp4654
g89
g90
ssg71
g4643
sg64
(lp4655
S':'
asbag57
(g78
g59
NtRp4656
(dp4657
g62
(dp4658
sg71
g4643
sg64
(lp4659
g57
(g58
g59
NtRp4660
(dp4661
g62
(dp4662
g70
I5
ssg71
g4656
sg64
(lp4663
g3755
(S's\r\x00\x00\x00customize me!'
tRp4664
asbasbasbag57
(g73
g59
NtRp4665
(dp4666
g62
(dp4667
sg71
g3199
sg64
(lp4668
g57
(g78
g59
NtRp4669
(dp4670
g62
(dp4671
g82
g83
ssg71
g4665
sg64
(lp4672
S'title'
p4673
asbag57
(g78
g59
NtRp4674
(dp4675
g62
(dp4676
g89
g90
ssg71
g4665
sg64
(lp4677
S':'
asbag57
(g78
g59
NtRp4678
(dp4679
g62
(dp4680
sg71
g4665
sg64
(lp4681
g57
(g58
g59
NtRp4682
(dp4683
g62
(dp4684
g70
I5
ssg71
g4678
sg64
(lp4685
S'Igor'
p4686
asbasbasbag57
(g73
g59
NtRp4687
(dp4688
g62
(dp4689
sg71
g3199
sg64
(lp4690
g57
(g78
g59
NtRp4691
(dp4692
g62
(dp4693
g82
g83
ssg71
g4687
sg64
(lp4694
g2413
asbag57
(g78
g59
NtRp4695
(dp4696
g62
(dp4697
g89
g90
ssg71
g4687
sg64
(lp4698
S':'
asbag57
(g78
g59
NtRp4699
(dp4700
g62
(dp4701
sg71
g4687
sg64
(lp4702
g57
(g58
g59
NtRp4703
(dp4704
g62
(dp4705
g70
I5
ssg71
g4699
sg64
(lp4706
g2426
asbasbasbag57
(g73
g59
NtRp4707
(dp4708
g62
(dp4709
sg71
g3199
sg64
(lp4710
g57
(g78
g59
NtRp4711
(dp4712
g62
(dp4713
g82
g83
ssg71
g4707
sg64
(lp4714
S'view'
p4715
asbag57
(g78
g59
NtRp4716
(dp4717
g62
(dp4718
g89
g90
ssg71
g4707
sg64
(lp4719
S':'
asbag57
(g78
g59
NtRp4720
(dp4721
g62
(dp4722
sg71
g4707
sg64
(lp4723
g57
(g58
g59
NtRp4724
(dp4725
g62
(dp4726
g70
I5
ssg71
g4720
sg64
(lp4727
S'generic.json'
p4728
asbasbasbasbasbsS'locals'
p4729
(dp4730
S'class_id'
p4731
S"'2'"
p4732
sS'e'
S'AttributeError("\'Rows\' object has no attribute \'delete\'",)'
p4733
sS'user_id'
p4734
S"'2'"
p4735
sssS'traceback'
p4736
S'Traceback (most recent call last):\n  File "D:\\workspace\\CA\\IgoR\\C_Sources\\Server\\igor-assistant-ca-2012\\gluon\\restricted.py", line 205, in restricted\n    exec ccode in environment\n  File "D:\\workspace\\CA\\IgoR\\C_Sources\\Server\\igor-assistant-ca-2012\\applications\\igor\\controllers/class_subject.py", line 201, in <module>\n  File "D:\\workspace\\CA\\IgoR\\C_Sources\\Server\\igor-assistant-ca-2012\\gluon\\globals.py", line 173, in <lambda>\n    self._caller = lambda f: f()\n  File "D:\\workspace\\CA\\IgoR\\C_Sources\\Server\\igor-assistant-ca-2012\\gluon\\globals.py", line 138, in f\n    return rest_action(*_self.args,**_self.vars)\n  File "D:\\workspace\\CA\\IgoR\\C_Sources\\Server\\igor-assistant-ca-2012\\applications\\igor\\controllers/class_subject.py", line 139, in GET\n    return MessagePackager.get_packaged_message(MessageStatus.ERROR, e.errno + \': \' + e.strerror )\nAttributeError: \'exceptions.AttributeError\' object has no attribute \'errno\'\n'
p4737
s.