(dp1
S'output'
p2
S"<type 'exceptions.NameError'> global name 'note' is not defined"
p3
sS'layer'
p4
S'D:\\workspace\\CA\\IgoR\\C_Sources\\Server\\igor-assistant-ca-2012\\applications\\igor\\controllers/subject.py'
p5
sS'code'
p6
S'# -*- coding: utf-8 -*-\n# this file is released under public domain and you can use without limitations\n\n#########################################################################\n## This is subject controller\n## Author: phucnh, tuna\n#########################################################################\n\nfrom message_packager import *\nfrom gluon.dal import Rows\nfrom gluon.tools import Service\nimport gluon.contenttype\n\nservice = Service()\n\n\ndef call():\n\tsession.forget()\n\n\treturn service()\n\n# Get all subject\n\n@service.jsonp\n@service.json\ndef get_all_subjects():\n\t\n\tsubjects = db(db.subject).select()\n\n\tsubjects = format_client_data(subjects)\n\t\t\t\t\n\treturn MessagePackager.get_packaged_message(MessageStatus.OK, subjects)\n\n@service.jsonp\n@service.json\ndef get_subject_detail(id):\n\n\t# Validate input\n\tif (not id.isdigit()):\n\t\treturn MessagePackager.get_packaged_message (\n\t\t\tMessageStatus.ERROR, \n\t\t\t"subject id must be numberic")\n\n\tif (int (id) < 0):\n\t\treturn MessagePackager.get_packaged_message (\n\t\t\tMessageStatus.ERROR, \n\t\t\t"subject id can not less than 1")\n\n\t# Get data\n\tsubject = db(db.subject.id == id).select()\n\n\tsubject = format_client_data(subject)\n\n\treturn MessagePackager.get_packaged_message(MessageStatus.OK, subject)\n\n\n# Format subject data, include class count in current term\ndef format_client_data(subjects):\n\tif subjects == None:\n\t\treturn\n\n\tclient_data = list()\n\tterm = get_current_term()\n\n\tfor subject in subjects:\n\n\t\tclasses = db(\n\t\t\t(db.class_subject.subject == subject.id) &\n\t\t\t(db.class_subject.term == term)).count()\n\n\t\tclient = dict(\n\t\t\tsubject_name = subject.name,\n\t\t\tsubject_code = subject.subject_code,\n\t\t\tnote = note,\n\t\t\tclass_count = classes\n\t\t\t)\n\n\t\tclient_data.append (client)\n\n\treturn client_data\nresponse._vars=response._caller(call)\n'
p7
sS'snapshot'
p8
(dp9
S'exception'
p10
(dp11
S'__hash__'
p12
S"<method-wrapper '__hash__' of exceptions.NameError object>"
p13
sS'__setattr__'
p14
S"<method-wrapper '__setattr__' of exceptions.NameError object>"
p15
sS'__reduce_ex__'
p16
S'<built-in method __reduce_ex__ of exceptions.NameError object>'
p17
sS'__getslice__'
p18
S"<method-wrapper '__getslice__' of exceptions.NameError object>"
p19
sS'__getitem__'
p20
S"<method-wrapper '__getitem__' of exceptions.NameError object>"
p21
sS'__setstate__'
p22
S'<built-in method __setstate__ of exceptions.NameError object>'
p23
sS'__reduce__'
p24
S'<built-in method __reduce__ of exceptions.NameError object>'
p25
sS'__str__'
p26
S"<method-wrapper '__str__' of exceptions.NameError object>"
p27
sS'__format__'
p28
S'<built-in method __format__ of exceptions.NameError object>'
p29
sS'__getattribute__'
p30
S"<method-wrapper '__getattribute__' of exceptions.NameError object>"
p31
sS'__class__'
p32
S"<type 'exceptions.NameError'>"
p33
sS'__unicode__'
p34
S'<built-in method __unicode__ of exceptions.NameError object>'
p35
sS'__delattr__'
p36
S"<method-wrapper '__delattr__' of exceptions.NameError object>"
p37
sS'__subclasshook__'
p38
S'<built-in method __subclasshook__ of type object>'
p39
sS'__repr__'
p40
S"<method-wrapper '__repr__' of exceptions.NameError object>"
p41
sS'__dict__'
p42
S'{}'
p43
sS'args'
p44
S'("global name \'note\' is not defined",)'
p45
sS'__sizeof__'
p46
S'<built-in method __sizeof__ of exceptions.NameError object>'
p47
sS'__doc__'
p48
S"'Name not found globally.'"
p49
sS'__init__'
p50
S"<method-wrapper '__init__' of exceptions.NameError object>"
p51
sS'__new__'
p52
S'<built-in method __new__ of type object>'
p53
ssS'evalue'
p54
S"global name 'note' is not defined"
p55
sS'request'
p56
ccopy_reg
_reconstructor
p57
(cgluon.html
BEAUTIFY
p58
c__builtin__
object
p59
NtRp60
(dp61
S'attributes'
p62
(dp63
sS'components'
p64
(lp65
g57
(cgluon.html
TABLE
p66
g59
NtRp67
(dp68
g62
(dp69
S'level'
p70
I5
ssS'parent'
p71
Nsg64
(lp72
g57
(cgluon.html
TR
p73
g59
NtRp74
(dp75
g62
(dp76
sg71
g67
sg64
(lp77
g57
(cgluon.html
TD
p78
g59
NtRp79
(dp80
g62
(dp81
S'_style'
p82
S'font-weight:bold;vertical-align:top'
p83
ssg71
g74
sg64
(lp84
S'ajax'
p85
asbag57
(g78
g59
NtRp86
(dp87
g62
(dp88
S'_valign'
p89
S'top'
p90
ssg71
g74
sg64
(lp91
S':'
asbag57
(g78
g59
NtRp92
(dp93
g62
(dp94
sg71
g74
sg64
(lp95
g57
(g58
g59
NtRp96
(dp97
g62
(dp98
g70
I5
ssg71
g92
sg64
(lp99
S'False'
p100
asbasbasbag57
(g73
g59
NtRp101
(dp102
g62
(dp103
sg71
g67
sg64
(lp104
g57
(g78
g59
NtRp105
(dp106
g62
(dp107
g82
g83
ssg71
g101
sg64
(lp108
S'application'
p109
asbag57
(g78
g59
NtRp110
(dp111
g62
(dp112
g89
g90
ssg71
g101
sg64
(lp113
S':'
asbag57
(g78
g59
NtRp114
(dp115
g62
(dp116
sg71
g101
sg64
(lp117
g57
(g58
g59
NtRp118
(dp119
g62
(dp120
g70
I5
ssg71
g114
sg64
(lp121
S'igor'
p122
asbasbasbag57
(g73
g59
NtRp123
(dp124
g62
(dp125
sg71
g67
sg64
(lp126
g57
(g78
g59
NtRp127
(dp128
g62
(dp129
g82
g83
ssg71
g123
sg64
(lp130
g44
asbag57
(g78
g59
NtRp131
(dp132
g62
(dp133
g89
g90
ssg71
g123
sg64
(lp134
S':'
asbag57
(g78
g59
NtRp135
(dp136
g62
(dp137
sg71
g123
sg64
(lp138
g57
(g58
g59
NtRp139
(dp140
g62
(dp141
g70
I5
ssg71
g135
sg64
(lp142
g57
(g66
g59
NtRp143
(dp144
g62
(dp145
g70
I4
ssg71
Nsg64
(lp146
g57
(g73
g59
NtRp147
(dp148
g62
(dp149
sg71
g143
sg64
(lp150
g57
(g78
g59
NtRp151
(dp152
g62
(dp153
sg71
g147
sg64
(lp154
g57
(g58
g59
NtRp155
(dp156
g62
(dp157
g70
I4
ssg71
g151
sg64
(lp158
S'json'
p159
asbasbasbag57
(g73
g59
NtRp160
(dp161
g62
(dp162
sg71
g143
sg64
(lp163
g57
(g78
g59
NtRp164
(dp165
g62
(dp166
sg71
g160
sg64
(lp167
g57
(g58
g59
NtRp168
(dp169
g62
(dp170
g70
I4
ssg71
g164
sg64
(lp171
S'get_all_subjects'
p172
asbasbasbasbasbasbasbag57
(g73
g59
NtRp173
(dp174
g62
(dp175
sg71
g67
sg64
(lp176
g57
(g78
g59
NtRp177
(dp178
g62
(dp179
g82
g83
ssg71
g173
sg64
(lp180
S'body'
p181
asbag57
(g78
g59
NtRp182
(dp183
g62
(dp184
g89
g90
ssg71
g173
sg64
(lp185
S':'
asbag57
(g78
g59
NtRp186
(dp187
g62
(dp188
sg71
g173
sg64
(lp189
g57
(g58
g59
NtRp190
(dp191
g62
(dp192
g70
I5
ssg71
g186
sg64
(lp193
S'<cStringIO.StringO object at 0x0000000005F66A78>'
p194
asbasbasbag57
(g73
g59
NtRp195
(dp196
g62
(dp197
sg71
g67
sg64
(lp198
g57
(g78
g59
NtRp199
(dp200
g62
(dp201
g82
g83
ssg71
g195
sg64
(lp202
S'client'
p203
asbag57
(g78
g59
NtRp204
(dp205
g62
(dp206
g89
g90
ssg71
g195
sg64
(lp207
S':'
asbag57
(g78
g59
NtRp208
(dp209
g62
(dp210
sg71
g195
sg64
(lp211
g57
(g58
g59
NtRp212
(dp213
g62
(dp214
g70
I5
ssg71
g208
sg64
(lp215
S'127.0.0.1'
p216
asbasbasbag57
(g73
g59
NtRp217
(dp218
g62
(dp219
sg71
g67
sg64
(lp220
g57
(g78
g59
NtRp221
(dp222
g62
(dp223
g82
g83
ssg71
g217
sg64
(lp224
S'controller'
p225
asbag57
(g78
g59
NtRp226
(dp227
g62
(dp228
g89
g90
ssg71
g217
sg64
(lp229
S':'
asbag57
(g78
g59
NtRp230
(dp231
g62
(dp232
sg71
g217
sg64
(lp233
g57
(g58
g59
NtRp234
(dp235
g62
(dp236
g70
I5
ssg71
g230
sg64
(lp237
S'subject'
p238
asbasbasbag57
(g73
g59
NtRp239
(dp240
g62
(dp241
sg71
g67
sg64
(lp242
g57
(g78
g59
NtRp243
(dp244
g62
(dp245
g82
g83
ssg71
g239
sg64
(lp246
S'cookies'
p247
asbag57
(g78
g59
NtRp248
(dp249
g62
(dp250
g89
g90
ssg71
g239
sg64
(lp251
S':'
asbag57
(g78
g59
NtRp252
(dp253
g62
(dp254
sg71
g239
sg64
(lp255
g57
(g58
g59
NtRp256
(dp257
g62
(dp258
g70
I5
ssg71
g252
sg64
(lp259
g57
(g66
g59
NtRp260
(dp261
g62
(dp262
g70
I4
ssg71
Nsg64
(lp263
g57
(g73
g59
NtRp264
(dp265
g62
(dp266
sg71
g260
sg64
(lp267
g57
(g78
g59
NtRp268
(dp269
g62
(dp270
g82
g83
ssg71
g264
sg64
(lp271
S'session_id_admin'
p272
asbag57
(g78
g59
NtRp273
(dp274
g62
(dp275
g89
g90
ssg71
g264
sg64
(lp276
S':'
asbag57
(g78
g59
NtRp277
(dp278
g62
(dp279
sg71
g264
sg64
(lp280
g57
(g58
g59
NtRp281
(dp282
g62
(dp283
g70
I4
ssg71
g277
sg64
(lp284
g57
(g66
g59
NtRp285
(dp286
g62
(dp287
g70
I3
ssg71
Nsg64
(lp288
g57
(g73
g59
NtRp289
(dp290
g62
(dp291
sg71
g285
sg64
(lp292
g57
(g78
g59
NtRp293
(dp294
g62
(dp295
g82
g83
ssg71
g289
sg64
(lp296
S'comment'
p297
asbag57
(g78
g59
NtRp298
(dp299
g62
(dp300
g89
g90
ssg71
g289
sg64
(lp301
S':'
asbag57
(g78
g59
NtRp302
(dp303
g62
(dp304
sg71
g289
sg64
(lp305
g57
(g58
g59
NtRp306
(dp307
g62
(dp308
g70
I3
ssg71
g302
sg64
(lp309
S''
asbasbasbag57
(g73
g59
NtRp310
(dp311
g62
(dp312
sg71
g285
sg64
(lp313
g57
(g78
g59
NtRp314
(dp315
g62
(dp316
g82
g83
ssg71
g310
sg64
(lp317
S'domain'
p318
asbag57
(g78
g59
NtRp319
(dp320
g62
(dp321
g89
g90
ssg71
g310
sg64
(lp322
S':'
asbag57
(g78
g59
NtRp323
(dp324
g62
(dp325
sg71
g310
sg64
(lp326
g57
(g58
g59
NtRp327
(dp328
g62
(dp329
g70
I3
ssg71
g323
sg64
(lp330
S''
asbasbasbag57
(g73
g59
NtRp331
(dp332
g62
(dp333
sg71
g285
sg64
(lp334
g57
(g78
g59
NtRp335
(dp336
g62
(dp337
g82
g83
ssg71
g331
sg64
(lp338
S'expires'
p339
asbag57
(g78
g59
NtRp340
(dp341
g62
(dp342
g89
g90
ssg71
g331
sg64
(lp343
S':'
asbag57
(g78
g59
NtRp344
(dp345
g62
(dp346
sg71
g331
sg64
(lp347
g57
(g58
g59
NtRp348
(dp349
g62
(dp350
g70
I3
ssg71
g344
sg64
(lp351
S''
asbasbasbag57
(g73
g59
NtRp352
(dp353
g62
(dp354
sg71
g285
sg64
(lp355
g57
(g78
g59
NtRp356
(dp357
g62
(dp358
g82
g83
ssg71
g352
sg64
(lp359
S'httponly'
p360
asbag57
(g78
g59
NtRp361
(dp362
g62
(dp363
g89
g90
ssg71
g352
sg64
(lp364
S':'
asbag57
(g78
g59
NtRp365
(dp366
g62
(dp367
sg71
g352
sg64
(lp368
g57
(g58
g59
NtRp369
(dp370
g62
(dp371
g70
I3
ssg71
g365
sg64
(lp372
S''
asbasbasbag57
(g73
g59
NtRp373
(dp374
g62
(dp375
sg71
g285
sg64
(lp376
g57
(g78
g59
NtRp377
(dp378
g62
(dp379
g82
g83
ssg71
g373
sg64
(lp380
S'max-age'
p381
asbag57
(g78
g59
NtRp382
(dp383
g62
(dp384
g89
g90
ssg71
g373
sg64
(lp385
S':'
asbag57
(g78
g59
NtRp386
(dp387
g62
(dp388
sg71
g373
sg64
(lp389
g57
(g58
g59
NtRp390
(dp391
g62
(dp392
g70
I3
ssg71
g386
sg64
(lp393
S''
asbasbasbag57
(g73
g59
NtRp394
(dp395
g62
(dp396
sg71
g285
sg64
(lp397
g57
(g78
g59
NtRp398
(dp399
g62
(dp400
g82
g83
ssg71
g394
sg64
(lp401
S'path'
p402
asbag57
(g78
g59
NtRp403
(dp404
g62
(dp405
g89
g90
ssg71
g394
sg64
(lp406
S':'
asbag57
(g78
g59
NtRp407
(dp408
g62
(dp409
sg71
g394
sg64
(lp410
g57
(g58
g59
NtRp411
(dp412
g62
(dp413
g70
I3
ssg71
g407
sg64
(lp414
S''
asbasbasbag57
(g73
g59
NtRp415
(dp416
g62
(dp417
sg71
g285
sg64
(lp418
g57
(g78
g59
NtRp419
(dp420
g62
(dp421
g82
g83
ssg71
g415
sg64
(lp422
S'secure'
p423
asbag57
(g78
g59
NtRp424
(dp425
g62
(dp426
g89
g90
ssg71
g415
sg64
(lp427
S':'
asbag57
(g78
g59
NtRp428
(dp429
g62
(dp430
sg71
g415
sg64
(lp431
g57
(g58
g59
NtRp432
(dp433
g62
(dp434
g70
I3
ssg71
g428
sg64
(lp435
S''
asbasbasbag57
(g73
g59
NtRp436
(dp437
g62
(dp438
sg71
g285
sg64
(lp439
g57
(g78
g59
NtRp440
(dp441
g62
(dp442
g82
g83
ssg71
g436
sg64
(lp443
S'version'
p444
asbag57
(g78
g59
NtRp445
(dp446
g62
(dp447
g89
g90
ssg71
g436
sg64
(lp448
S':'
asbag57
(g78
g59
NtRp449
(dp450
g62
(dp451
sg71
g436
sg64
(lp452
g57
(g58
g59
NtRp453
(dp454
g62
(dp455
g70
I3
ssg71
g449
sg64
(lp456
S''
asbasbasbasbasbasbasbag57
(g73
g59
NtRp457
(dp458
g62
(dp459
sg71
g260
sg64
(lp460
g57
(g78
g59
NtRp461
(dp462
g62
(dp463
g82
g83
ssg71
g457
sg64
(lp464
S'session_id_welcome'
p465
asbag57
(g78
g59
NtRp466
(dp467
g62
(dp468
g89
g90
ssg71
g457
sg64
(lp469
S':'
asbag57
(g78
g59
NtRp470
(dp471
g62
(dp472
sg71
g457
sg64
(lp473
g57
(g58
g59
NtRp474
(dp475
g62
(dp476
g70
I4
ssg71
g470
sg64
(lp477
g57
(g66
g59
NtRp478
(dp479
g62
(dp480
g70
I3
ssg71
Nsg64
(lp481
g57
(g73
g59
NtRp482
(dp483
g62
(dp484
sg71
g478
sg64
(lp485
g57
(g78
g59
NtRp486
(dp487
g62
(dp488
g82
g83
ssg71
g482
sg64
(lp489
g297
asbag57
(g78
g59
NtRp490
(dp491
g62
(dp492
g89
g90
ssg71
g482
sg64
(lp493
S':'
asbag57
(g78
g59
NtRp494
(dp495
g62
(dp496
sg71
g482
sg64
(lp497
g57
(g58
g59
NtRp498
(dp499
g62
(dp500
g70
I3
ssg71
g494
sg64
(lp501
S''
asbasbasbag57
(g73
g59
NtRp502
(dp503
g62
(dp504
sg71
g478
sg64
(lp505
g57
(g78
g59
NtRp506
(dp507
g62
(dp508
g82
g83
ssg71
g502
sg64
(lp509
g318
asbag57
(g78
g59
NtRp510
(dp511
g62
(dp512
g89
g90
ssg71
g502
sg64
(lp513
S':'
asbag57
(g78
g59
NtRp514
(dp515
g62
(dp516
sg71
g502
sg64
(lp517
g57
(g58
g59
NtRp518
(dp519
g62
(dp520
g70
I3
ssg71
g514
sg64
(lp521
S''
asbasbasbag57
(g73
g59
NtRp522
(dp523
g62
(dp524
sg71
g478
sg64
(lp525
g57
(g78
g59
NtRp526
(dp527
g62
(dp528
g82
g83
ssg71
g522
sg64
(lp529
g339
asbag57
(g78
g59
NtRp530
(dp531
g62
(dp532
g89
g90
ssg71
g522
sg64
(lp533
S':'
asbag57
(g78
g59
NtRp534
(dp535
g62
(dp536
sg71
g522
sg64
(lp537
g57
(g58
g59
NtRp538
(dp539
g62
(dp540
g70
I3
ssg71
g534
sg64
(lp541
S''
asbasbasbag57
(g73
g59
NtRp542
(dp543
g62
(dp544
sg71
g478
sg64
(lp545
g57
(g78
g59
NtRp546
(dp547
g62
(dp548
g82
g83
ssg71
g542
sg64
(lp549
g360
asbag57
(g78
g59
NtRp550
(dp551
g62
(dp552
g89
g90
ssg71
g542
sg64
(lp553
S':'
asbag57
(g78
g59
NtRp554
(dp555
g62
(dp556
sg71
g542
sg64
(lp557
g57
(g58
g59
NtRp558
(dp559
g62
(dp560
g70
I3
ssg71
g554
sg64
(lp561
S''
asbasbasbag57
(g73
g59
NtRp562
(dp563
g62
(dp564
sg71
g478
sg64
(lp565
g57
(g78
g59
NtRp566
(dp567
g62
(dp568
g82
g83
ssg71
g562
sg64
(lp569
g381
asbag57
(g78
g59
NtRp570
(dp571
g62
(dp572
g89
g90
ssg71
g562
sg64
(lp573
S':'
asbag57
(g78
g59
NtRp574
(dp575
g62
(dp576
sg71
g562
sg64
(lp577
g57
(g58
g59
NtRp578
(dp579
g62
(dp580
g70
I3
ssg71
g574
sg64
(lp581
S''
asbasbasbag57
(g73
g59
NtRp582
(dp583
g62
(dp584
sg71
g478
sg64
(lp585
g57
(g78
g59
NtRp586
(dp587
g62
(dp588
g82
g83
ssg71
g582
sg64
(lp589
g402
asbag57
(g78
g59
NtRp590
(dp591
g62
(dp592
g89
g90
ssg71
g582
sg64
(lp593
S':'
asbag57
(g78
g59
NtRp594
(dp595
g62
(dp596
sg71
g582
sg64
(lp597
g57
(g58
g59
NtRp598
(dp599
g62
(dp600
g70
I3
ssg71
g594
sg64
(lp601
S''
asbasbasbag57
(g73
g59
NtRp602
(dp603
g62
(dp604
sg71
g478
sg64
(lp605
g57
(g78
g59
NtRp606
(dp607
g62
(dp608
g82
g83
ssg71
g602
sg64
(lp609
g423
asbag57
(g78
g59
NtRp610
(dp611
g62
(dp612
g89
g90
ssg71
g602
sg64
(lp613
S':'
asbag57
(g78
g59
NtRp614
(dp615
g62
(dp616
sg71
g602
sg64
(lp617
g57
(g58
g59
NtRp618
(dp619
g62
(dp620
g70
I3
ssg71
g614
sg64
(lp621
S''
asbasbasbag57
(g73
g59
NtRp622
(dp623
g62
(dp624
sg71
g478
sg64
(lp625
g57
(g78
g59
NtRp626
(dp627
g62
(dp628
g82
g83
ssg71
g622
sg64
(lp629
g444
asbag57
(g78
g59
NtRp630
(dp631
g62
(dp632
g89
g90
ssg71
g622
sg64
(lp633
S':'
asbag57
(g78
g59
NtRp634
(dp635
g62
(dp636
sg71
g622
sg64
(lp637
g57
(g58
g59
NtRp638
(dp639
g62
(dp640
g70
I3
ssg71
g634
sg64
(lp641
S''
asbasbasbasbasbasbasbasbasbasbasbag57
(g73
g59
NtRp642
(dp643
g62
(dp644
sg71
g67
sg64
(lp645
g57
(g78
g59
NtRp646
(dp647
g62
(dp648
g82
g83
ssg71
g642
sg64
(lp649
S'env'
p650
asbag57
(g78
g59
NtRp651
(dp652
g62
(dp653
g89
g90
ssg71
g642
sg64
(lp654
S':'
asbag57
(g78
g59
NtRp655
(dp656
g62
(dp657
sg71
g642
sg64
(lp658
g57
(g58
g59
NtRp659
(dp660
g62
(dp661
g70
I5
ssg71
g655
sg64
(lp662
g57
(g66
g59
NtRp663
(dp664
g62
(dp665
g70
I4
ssg71
Nsg64
(lp666
g57
(g73
g59
NtRp667
(dp668
g62
(dp669
sg71
g663
sg64
(lp670
g57
(g78
g59
NtRp671
(dp672
g62
(dp673
g82
g83
ssg71
g667
sg64
(lp674
S'app_folders'
p675
asbag57
(g78
g59
NtRp676
(dp677
g62
(dp678
g89
g90
ssg71
g667
sg64
(lp679
S':'
asbag57
(g78
g59
NtRp680
(dp681
g62
(dp682
sg71
g667
sg64
(lp683
g57
(g58
g59
NtRp684
(dp685
g62
(dp686
g70
I4
ssg71
g680
sg64
(lp687
S"set(['D:\\\\workspace\\\\CA\\\\IgoR\\\\C_Sources\\\\Server\\\\igor-assistant-ca-2012\\\\applications\\\\admin\\\\', 'D:\\\\workspace\\\\CA\\\\IgoR\\\\C_Sources\\\\Server\\\\igor-assistant-ca-2012\\\\applications\\\\igor\\\\', 'D:\\\\workspace\\\\CA\\\\IgoR\\\\C_Sources\\\\Server\\\\igor-assistant-ca-2012\\\\applications\\\\welcome\\\\'])"
p688
asbasbasbag57
(g73
g59
NtRp689
(dp690
g62
(dp691
sg71
g663
sg64
(lp692
g57
(g78
g59
NtRp693
(dp694
g62
(dp695
g82
g83
ssg71
g689
sg64
(lp696
S'applications_parent'
p697
asbag57
(g78
g59
NtRp698
(dp699
g62
(dp700
g89
g90
ssg71
g689
sg64
(lp701
S':'
asbag57
(g78
g59
NtRp702
(dp703
g62
(dp704
sg71
g689
sg64
(lp705
g57
(g58
g59
NtRp706
(dp707
g62
(dp708
g70
I4
ssg71
g702
sg64
(lp709
S'D:\\workspace\\CA\\IgoR\\C_Sources\\Server\\igor-assistant-ca-2012'
p710
asbasbasbag57
(g73
g59
NtRp711
(dp712
g62
(dp713
sg71
g663
sg64
(lp714
g57
(g78
g59
NtRp715
(dp716
g62
(dp717
g82
g83
ssg71
g711
sg64
(lp718
S'cmd_args'
p719
asbag57
(g78
g59
NtRp720
(dp721
g62
(dp722
g89
g90
ssg71
g711
sg64
(lp723
S':'
asbag57
(g78
g59
NtRp724
(dp725
g62
(dp726
sg71
g711
sg64
(lp727
g57
(g58
g59
NtRp728
(dp729
g62
(dp730
g70
I4
ssg71
g724
sg64
(lp731
g57
(g66
g59
NtRp732
(dp733
g62
(dp734
g70
I3
ssg71
Nsg64
(lp735
g57
(g73
g59
NtRp736
(dp737
g62
(dp738
sg71
g732
sg64
(lp739
g57
(g78
g59
NtRp740
(dp741
g62
(dp742
sg71
g736
sg64
(lp743
g57
(g58
g59
NtRp744
(dp745
g62
(dp746
g70
I3
ssg71
g740
sg64
(lp747
S'startserver'
p748
asbasbasbasbasbasbasbag57
(g73
g59
NtRp749
(dp750
g62
(dp751
sg71
g663
sg64
(lp752
g57
(g78
g59
NtRp753
(dp754
g62
(dp755
g82
g83
ssg71
g749
sg64
(lp756
S'cmd_options'
p757
asbag57
(g78
g59
NtRp758
(dp759
g62
(dp760
g89
g90
ssg71
g749
sg64
(lp761
S':'
asbag57
(g78
g59
NtRp762
(dp763
g62
(dp764
sg71
g749
sg64
(lp765
g57
(g58
g59
NtRp766
(dp767
g62
(dp768
g70
I4
ssg71
g762
sg64
(lp769
S"<Values at 0x3764d88: {'verbose': False, 'ip': '127.0.0.1', 'shutdown_timeout': 5, 'taskbar': False, 'nocron': False, 'pid_filename': 'httpserver.pid', 'maxthreads': None, 'softcron': False, 'server_name': 'PHUCNH-PC', 'bpython': False, 'nogui': False, 'port': 8000, 'extcron': False, 'debuglevel': 30, 'test': None, 'folder': 'D:\\\\workspace\\\\CA\\\\IgoR\\\\C_Sources\\\\Server\\\\igor-assistant-ca-2012', 'config': '', 'import_models': False, 'winservice': '', 'shell': None, 'run': '', 'log_filename': 'httpserver.log', 'args': [''], 'socket_timeout': 5, 'ssl_ca_certificate': None, 'scheduler': None, 'profiler_filename': None, 'ssl_private_key': '', 'password': '<ask>', 'request_queue_size': 5, 'ssl_certificate': '', 'cronjob': False, 'numthreads': None, 'quiet': False, 'interfaces': None, 'minthreads': None, 'timeout': 10, 'plain': False, 'nobanner': False}>"
p770
asbasbasbag57
(g73
g59
NtRp771
(dp772
g62
(dp773
sg71
g663
sg64
(lp774
g57
(g78
g59
NtRp775
(dp776
g62
(dp777
g82
g83
ssg71
g771
sg64
(lp778
S'db_sessions'
p779
asbag57
(g78
g59
NtRp780
(dp781
g62
(dp782
g89
g90
ssg71
g771
sg64
(lp783
S':'
asbag57
(g78
g59
NtRp784
(dp785
g62
(dp786
sg71
g771
sg64
(lp787
g57
(g58
g59
NtRp788
(dp789
g62
(dp790
g70
I4
ssg71
g784
sg64
(lp791
S'set([])'
p792
asbasbasbag57
(g73
g59
NtRp793
(dp794
g62
(dp795
sg71
g663
sg64
(lp796
g57
(g78
g59
NtRp797
(dp798
g62
(dp799
g82
g83
ssg71
g793
sg64
(lp800
S'debugging'
p801
asbag57
(g78
g59
NtRp802
(dp803
g62
(dp804
g89
g90
ssg71
g793
sg64
(lp805
S':'
asbag57
(g78
g59
NtRp806
(dp807
g62
(dp808
sg71
g793
sg64
(lp809
g57
(g58
g59
NtRp810
(dp811
g62
(dp812
g70
I4
ssg71
g806
sg64
(lp813
g100
asbasbasbag57
(g73
g59
NtRp814
(dp815
g62
(dp816
sg71
g663
sg64
(lp817
g57
(g78
g59
NtRp818
(dp819
g62
(dp820
g82
g83
ssg71
g814
sg64
(lp821
S'gluon_parent'
p822
asbag57
(g78
g59
NtRp823
(dp824
g62
(dp825
g89
g90
ssg71
g814
sg64
(lp826
S':'
asbag57
(g78
g59
NtRp827
(dp828
g62
(dp829
sg71
g814
sg64
(lp830
g57
(g58
g59
NtRp831
(dp832
g62
(dp833
g70
I4
ssg71
g827
sg64
(lp834
S'D:\\workspace\\CA\\IgoR\\C_Sources\\Server\\igor-assistant-ca-2012'
p835
asbasbasbag57
(g73
g59
NtRp836
(dp837
g62
(dp838
sg71
g663
sg64
(lp839
g57
(g78
g59
NtRp840
(dp841
g62
(dp842
g82
g83
ssg71
g836
sg64
(lp843
S'http_accept'
p844
asbag57
(g78
g59
NtRp845
(dp846
g62
(dp847
g89
g90
ssg71
g836
sg64
(lp848
S':'
asbag57
(g78
g59
NtRp849
(dp850
g62
(dp851
sg71
g836
sg64
(lp852
g57
(g58
g59
NtRp853
(dp854
g62
(dp855
g70
I4
ssg71
g849
sg64
(lp856
S'text/html,application/xhtml+xml,application/xml;q=0.9,*/*;q=0.8'
p857
asbasbasbag57
(g73
g59
NtRp858
(dp859
g62
(dp860
sg71
g663
sg64
(lp861
g57
(g78
g59
NtRp862
(dp863
g62
(dp864
g82
g83
ssg71
g858
sg64
(lp865
S'http_accept_charset'
p866
asbag57
(g78
g59
NtRp867
(dp868
g62
(dp869
g89
g90
ssg71
g858
sg64
(lp870
S':'
asbag57
(g78
g59
NtRp871
(dp872
g62
(dp873
sg71
g858
sg64
(lp874
g57
(g58
g59
NtRp875
(dp876
g62
(dp877
g70
I4
ssg71
g871
sg64
(lp878
S'UTF-8,*;q=0.5'
p879
asbasbasbag57
(g73
g59
NtRp880
(dp881
g62
(dp882
sg71
g663
sg64
(lp883
g57
(g78
g59
NtRp884
(dp885
g62
(dp886
g82
g83
ssg71
g880
sg64
(lp887
S'http_accept_encoding'
p888
asbag57
(g78
g59
NtRp889
(dp890
g62
(dp891
g89
g90
ssg71
g880
sg64
(lp892
S':'
asbag57
(g78
g59
NtRp893
(dp894
g62
(dp895
sg71
g880
sg64
(lp896
g57
(g58
g59
NtRp897
(dp898
g62
(dp899
g70
I4
ssg71
g893
sg64
(lp900
S'gzip,deflate,sdch'
p901
asbasbasbag57
(g73
g59
NtRp902
(dp903
g62
(dp904
sg71
g663
sg64
(lp905
g57
(g78
g59
NtRp906
(dp907
g62
(dp908
g82
g83
ssg71
g902
sg64
(lp909
S'http_accept_language'
p910
asbag57
(g78
g59
NtRp911
(dp912
g62
(dp913
g89
g90
ssg71
g902
sg64
(lp914
S':'
asbag57
(g78
g59
NtRp915
(dp916
g62
(dp917
sg71
g902
sg64
(lp918
g57
(g58
g59
NtRp919
(dp920
g62
(dp921
g70
I4
ssg71
g915
sg64
(lp922
S'en-US,en;q=0.8,vi;q=0.6,fr-FR;q=0.4,fr;q=0.2'
p923
asbasbasbag57
(g73
g59
NtRp924
(dp925
g62
(dp926
sg71
g663
sg64
(lp927
g57
(g78
g59
NtRp928
(dp929
g62
(dp930
g82
g83
ssg71
g924
sg64
(lp931
S'http_cache_control'
p932
asbag57
(g78
g59
NtRp933
(dp934
g62
(dp935
g89
g90
ssg71
g924
sg64
(lp936
S':'
asbag57
(g78
g59
NtRp937
(dp938
g62
(dp939
sg71
g924
sg64
(lp940
g57
(g58
g59
NtRp941
(dp942
g62
(dp943
g70
I4
ssg71
g937
sg64
(lp944
S'max-age=0'
p945
asbasbasbag57
(g73
g59
NtRp946
(dp947
g62
(dp948
sg71
g663
sg64
(lp949
g57
(g78
g59
NtRp950
(dp951
g62
(dp952
g82
g83
ssg71
g946
sg64
(lp953
S'http_connection'
p954
asbag57
(g78
g59
NtRp955
(dp956
g62
(dp957
g89
g90
ssg71
g946
sg64
(lp958
S':'
asbag57
(g78
g59
NtRp959
(dp960
g62
(dp961
sg71
g946
sg64
(lp962
g57
(g58
g59
NtRp963
(dp964
g62
(dp965
g70
I4
ssg71
g959
sg64
(lp966
S'keep-alive'
p967
asbasbasbag57
(g73
g59
NtRp968
(dp969
g62
(dp970
sg71
g663
sg64
(lp971
g57
(g78
g59
NtRp972
(dp973
g62
(dp974
g82
g83
ssg71
g968
sg64
(lp975
S'http_cookie'
p976
asbag57
(g78
g59
NtRp977
(dp978
g62
(dp979
g89
g90
ssg71
g968
sg64
(lp980
S':'
asbag57
(g78
g59
NtRp981
(dp982
g62
(dp983
sg71
g968
sg64
(lp984
g57
(g58
g59
NtRp985
(dp986
g62
(dp987
g70
I4
ssg71
g981
sg64
(lp988
S'session_id_welcome=127.0.0.1-5107e31c-3492-4466-a95c-060cd9959c78; session_id_admin=127.0.0.1-fe2f6735-9941-4023-a4c8-a0e2ae66ca23'
p989
asbasbasbag57
(g73
g59
NtRp990
(dp991
g62
(dp992
sg71
g663
sg64
(lp993
g57
(g78
g59
NtRp994
(dp995
g62
(dp996
g82
g83
ssg71
g990
sg64
(lp997
S'http_host'
p998
asbag57
(g78
g59
NtRp999
(dp1000
g62
(dp1001
g89
g90
ssg71
g990
sg64
(lp1002
S':'
asbag57
(g78
g59
NtRp1003
(dp1004
g62
(dp1005
sg71
g990
sg64
(lp1006
g57
(g58
g59
NtRp1007
(dp1008
g62
(dp1009
g70
I4
ssg71
g1003
sg64
(lp1010
S'127.0.0.1:8000'
p1011
asbasbasbag57
(g73
g59
NtRp1012
(dp1013
g62
(dp1014
sg71
g663
sg64
(lp1015
g57
(g78
g59
NtRp1016
(dp1017
g62
(dp1018
g82
g83
ssg71
g1012
sg64
(lp1019
S'http_user_agent'
p1020
asbag57
(g78
g59
NtRp1021
(dp1022
g62
(dp1023
g89
g90
ssg71
g1012
sg64
(lp1024
S':'
asbag57
(g78
g59
NtRp1025
(dp1026
g62
(dp1027
sg71
g1012
sg64
(lp1028
g57
(g58
g59
NtRp1029
(dp1030
g62
(dp1031
g70
I4
ssg71
g1025
sg64
(lp1032
S'Mozilla/5.0 (Windows NT 6.1; WOW64) AppleWebKit/537.1 (KHTML, like Gecko) Chrome/21.0.1180.60 Safari/537.1'
p1033
asbasbasbag57
(g73
g59
NtRp1034
(dp1035
g62
(dp1036
sg71
g663
sg64
(lp1037
g57
(g78
g59
NtRp1038
(dp1039
g62
(dp1040
g82
g83
ssg71
g1034
sg64
(lp1041
S'is_jython'
p1042
asbag57
(g78
g59
NtRp1043
(dp1044
g62
(dp1045
g89
g90
ssg71
g1034
sg64
(lp1046
S':'
asbag57
(g78
g59
NtRp1047
(dp1048
g62
(dp1049
sg71
g1034
sg64
(lp1050
g57
(g58
g59
NtRp1051
(dp1052
g62
(dp1053
g70
I4
ssg71
g1047
sg64
(lp1054
g100
asbasbasbag57
(g73
g59
NtRp1055
(dp1056
g62
(dp1057
sg71
g663
sg64
(lp1058
g57
(g78
g59
NtRp1059
(dp1060
g62
(dp1061
g82
g83
ssg71
g1055
sg64
(lp1062
S'is_pypy'
p1063
asbag57
(g78
g59
NtRp1064
(dp1065
g62
(dp1066
g89
g90
ssg71
g1055
sg64
(lp1067
S':'
asbag57
(g78
g59
NtRp1068
(dp1069
g62
(dp1070
sg71
g1055
sg64
(lp1071
g57
(g58
g59
NtRp1072
(dp1073
g62
(dp1074
g70
I4
ssg71
g1068
sg64
(lp1075
g100
asbasbasbag57
(g73
g59
NtRp1076
(dp1077
g62
(dp1078
sg71
g663
sg64
(lp1079
g57
(g78
g59
NtRp1080
(dp1081
g62
(dp1082
g82
g83
ssg71
g1076
sg64
(lp1083
S'path_info'
p1084
asbag57
(g78
g59
NtRp1085
(dp1086
g62
(dp1087
g89
g90
ssg71
g1076
sg64
(lp1088
S':'
asbag57
(g78
g59
NtRp1089
(dp1090
g62
(dp1091
sg71
g1076
sg64
(lp1092
g57
(g58
g59
NtRp1093
(dp1094
g62
(dp1095
g70
I4
ssg71
g1089
sg64
(lp1096
S'/igor/subject/call/json/get_all_subjects'
p1097
asbasbasbag57
(g73
g59
NtRp1098
(dp1099
g62
(dp1100
sg71
g663
sg64
(lp1101
g57
(g78
g59
NtRp1102
(dp1103
g62
(dp1104
g82
g83
ssg71
g1098
sg64
(lp1105
S'query_string'
p1106
asbag57
(g78
g59
NtRp1107
(dp1108
g62
(dp1109
g89
g90
ssg71
g1098
sg64
(lp1110
S':'
asbag57
(g78
g59
NtRp1111
(dp1112
g62
(dp1113
sg71
g1098
sg64
(lp1114
g57
(g58
g59
NtRp1115
(dp1116
g62
(dp1117
g70
I4
ssg71
g1111
sg64
(lp1118
S''
asbasbasbag57
(g73
g59
NtRp1119
(dp1120
g62
(dp1121
sg71
g663
sg64
(lp1122
g57
(g78
g59
NtRp1123
(dp1124
g62
(dp1125
g82
g83
ssg71
g1119
sg64
(lp1126
S'remote_addr'
p1127
asbag57
(g78
g59
NtRp1128
(dp1129
g62
(dp1130
g89
g90
ssg71
g1119
sg64
(lp1131
S':'
asbag57
(g78
g59
NtRp1132
(dp1133
g62
(dp1134
sg71
g1119
sg64
(lp1135
g57
(g58
g59
NtRp1136
(dp1137
g62
(dp1138
g70
I4
ssg71
g1132
sg64
(lp1139
g216
asbasbasbag57
(g73
g59
NtRp1140
(dp1141
g62
(dp1142
sg71
g663
sg64
(lp1143
g57
(g78
g59
NtRp1144
(dp1145
g62
(dp1146
g82
g83
ssg71
g1140
sg64
(lp1147
S'remote_port'
p1148
asbag57
(g78
g59
NtRp1149
(dp1150
g62
(dp1151
g89
g90
ssg71
g1140
sg64
(lp1152
S':'
asbag57
(g78
g59
NtRp1153
(dp1154
g62
(dp1155
sg71
g1140
sg64
(lp1156
g57
(g58
g59
NtRp1157
(dp1158
g62
(dp1159
g70
I4
ssg71
g1153
sg64
(lp1160
S'45442'
p1161
asbasbasbag57
(g73
g59
NtRp1162
(dp1163
g62
(dp1164
sg71
g663
sg64
(lp1165
g57
(g78
g59
NtRp1166
(dp1167
g62
(dp1168
g82
g83
ssg71
g1162
sg64
(lp1169
S'request_method'
p1170
asbag57
(g78
g59
NtRp1171
(dp1172
g62
(dp1173
g89
g90
ssg71
g1162
sg64
(lp1174
S':'
asbag57
(g78
g59
NtRp1175
(dp1176
g62
(dp1177
sg71
g1162
sg64
(lp1178
g57
(g58
g59
NtRp1179
(dp1180
g62
(dp1181
g70
I4
ssg71
g1175
sg64
(lp1182
S'GET'
p1183
asbasbasbag57
(g73
g59
NtRp1184
(dp1185
g62
(dp1186
sg71
g663
sg64
(lp1187
g57
(g78
g59
NtRp1188
(dp1189
g62
(dp1190
g82
g83
ssg71
g1184
sg64
(lp1191
S'script_name'
p1192
asbag57
(g78
g59
NtRp1193
(dp1194
g62
(dp1195
g89
g90
ssg71
g1184
sg64
(lp1196
S':'
asbag57
(g78
g59
NtRp1197
(dp1198
g62
(dp1199
sg71
g1184
sg64
(lp1200
g57
(g58
g59
NtRp1201
(dp1202
g62
(dp1203
g70
I4
ssg71
g1197
sg64
(lp1204
S''
asbasbasbag57
(g73
g59
NtRp1205
(dp1206
g62
(dp1207
sg71
g663
sg64
(lp1208
g57
(g78
g59
NtRp1209
(dp1210
g62
(dp1211
g82
g83
ssg71
g1205
sg64
(lp1212
S'server_name'
p1213
asbag57
(g78
g59
NtRp1214
(dp1215
g62
(dp1216
g89
g90
ssg71
g1205
sg64
(lp1217
S':'
asbag57
(g78
g59
NtRp1218
(dp1219
g62
(dp1220
sg71
g1205
sg64
(lp1221
g57
(g58
g59
NtRp1222
(dp1223
g62
(dp1224
g70
I4
ssg71
g1218
sg64
(lp1225
S'PHUCNH-PC'
p1226
asbasbasbag57
(g73
g59
NtRp1227
(dp1228
g62
(dp1229
sg71
g663
sg64
(lp1230
g57
(g78
g59
NtRp1231
(dp1232
g62
(dp1233
g82
g83
ssg71
g1227
sg64
(lp1234
S'server_port'
p1235
asbag57
(g78
g59
NtRp1236
(dp1237
g62
(dp1238
g89
g90
ssg71
g1227
sg64
(lp1239
S':'
asbag57
(g78
g59
NtRp1240
(dp1241
g62
(dp1242
sg71
g1227
sg64
(lp1243
g57
(g58
g59
NtRp1244
(dp1245
g62
(dp1246
g70
I4
ssg71
g1240
sg64
(lp1247
S'8000'
p1248
asbasbasbag57
(g73
g59
NtRp1249
(dp1250
g62
(dp1251
sg71
g663
sg64
(lp1252
g57
(g78
g59
NtRp1253
(dp1254
g62
(dp1255
g82
g83
ssg71
g1249
sg64
(lp1256
S'server_protocol'
p1257
asbag57
(g78
g59
NtRp1258
(dp1259
g62
(dp1260
g89
g90
ssg71
g1249
sg64
(lp1261
S':'
asbag57
(g78
g59
NtRp1262
(dp1263
g62
(dp1264
sg71
g1249
sg64
(lp1265
g57
(g58
g59
NtRp1266
(dp1267
g62
(dp1268
g70
I4
ssg71
g1262
sg64
(lp1269
S'HTTP/1.1'
p1270
asbasbasbag57
(g73
g59
NtRp1271
(dp1272
g62
(dp1273
sg71
g663
sg64
(lp1274
g57
(g78
g59
NtRp1275
(dp1276
g62
(dp1277
g82
g83
ssg71
g1271
sg64
(lp1278
S'server_software'
p1279
asbag57
(g78
g59
NtRp1280
(dp1281
g62
(dp1282
g89
g90
ssg71
g1271
sg64
(lp1283
S':'
asbag57
(g78
g59
NtRp1284
(dp1285
g62
(dp1286
sg71
g1271
sg64
(lp1287
g57
(g58
g59
NtRp1288
(dp1289
g62
(dp1290
g70
I4
ssg71
g1284
sg64
(lp1291
S'Rocket 1.2.4'
p1292
asbasbasbag57
(g73
g59
NtRp1293
(dp1294
g62
(dp1295
sg71
g663
sg64
(lp1296
g57
(g78
g59
NtRp1297
(dp1298
g62
(dp1299
g82
g83
ssg71
g1293
sg64
(lp1300
S'web2py_crontype'
p1301
asbag57
(g78
g59
NtRp1302
(dp1303
g62
(dp1304
g89
g90
ssg71
g1293
sg64
(lp1305
S':'
asbag57
(g78
g59
NtRp1306
(dp1307
g62
(dp1308
sg71
g1293
sg64
(lp1309
g57
(g58
g59
NtRp1310
(dp1311
g62
(dp1312
g70
I4
ssg71
g1306
sg64
(lp1313
S'hard'
p1314
asbasbasbag57
(g73
g59
NtRp1315
(dp1316
g62
(dp1317
sg71
g663
sg64
(lp1318
g57
(g78
g59
NtRp1319
(dp1320
g62
(dp1321
g82
g83
ssg71
g1315
sg64
(lp1322
S'web2py_path'
p1323
asbag57
(g78
g59
NtRp1324
(dp1325
g62
(dp1326
g89
g90
ssg71
g1315
sg64
(lp1327
S':'
asbag57
(g78
g59
NtRp1328
(dp1329
g62
(dp1330
sg71
g1315
sg64
(lp1331
g57
(g58
g59
NtRp1332
(dp1333
g62
(dp1334
g70
I4
ssg71
g1328
sg64
(lp1335
g710
asbasbasbag57
(g73
g59
NtRp1336
(dp1337
g62
(dp1338
sg71
g663
sg64
(lp1339
g57
(g78
g59
NtRp1340
(dp1341
g62
(dp1342
g82
g83
ssg71
g1336
sg64
(lp1343
S'web2py_version'
p1344
asbag57
(g78
g59
NtRp1345
(dp1346
g62
(dp1347
g89
g90
ssg71
g1336
sg64
(lp1348
S':'
asbag57
(g78
g59
NtRp1349
(dp1350
g62
(dp1351
sg71
g1336
sg64
(lp1352
g57
(g58
g59
NtRp1353
(dp1354
g62
(dp1355
g70
I4
ssg71
g1349
sg64
(lp1356
g57
(g66
g59
NtRp1357
(dp1358
g62
(dp1359
g70
I3
ssg71
Nsg64
(lp1360
g57
(g73
g59
NtRp1361
(dp1362
g62
(dp1363
sg71
g1357
sg64
(lp1364
g57
(g78
g59
NtRp1365
(dp1366
g62
(dp1367
sg71
g1361
sg64
(lp1368
g57
(g58
g59
NtRp1369
(dp1370
g62
(dp1371
g70
I3
ssg71
g1365
sg64
(lp1372
S'1'
asbasbasbag57
(g73
g59
NtRp1373
(dp1374
g62
(dp1375
sg71
g1357
sg64
(lp1376
g57
(g78
g59
NtRp1377
(dp1378
g62
(dp1379
sg71
g1373
sg64
(lp1380
g57
(g58
g59
NtRp1381
(dp1382
g62
(dp1383
g70
I3
ssg71
g1377
sg64
(lp1384
S'99'
p1385
asbasbasbag57
(g73
g59
NtRp1386
(dp1387
g62
(dp1388
sg71
g1357
sg64
(lp1389
g57
(g78
g59
NtRp1390
(dp1391
g62
(dp1392
sg71
g1386
sg64
(lp1393
g57
(g58
g59
NtRp1394
(dp1395
g62
(dp1396
g70
I3
ssg71
g1390
sg64
(lp1397
S'7'
asbasbasbag57
(g73
g59
NtRp1398
(dp1399
g62
(dp1400
sg71
g1357
sg64
(lp1401
g57
(g78
g59
NtRp1402
(dp1403
g62
(dp1404
sg71
g1398
sg64
(lp1405
g57
(g58
g59
NtRp1406
(dp1407
g62
(dp1408
g70
I3
ssg71
g1402
sg64
(lp1409
S'datetime.datetime(2012, 3, 4, 22, 12, 8)'
p1410
asbasbasbag57
(g73
g59
NtRp1411
(dp1412
g62
(dp1413
sg71
g1357
sg64
(lp1414
g57
(g78
g59
NtRp1415
(dp1416
g62
(dp1417
sg71
g1411
sg64
(lp1418
g57
(g58
g59
NtRp1419
(dp1420
g62
(dp1421
g70
I3
ssg71
g1415
sg64
(lp1422
S'stable'
p1423
asbasbasbasbasbasbasbag57
(g73
g59
NtRp1424
(dp1425
g62
(dp1426
sg71
g663
sg64
(lp1427
g57
(g78
g59
NtRp1428
(dp1429
g62
(dp1430
g82
g83
ssg71
g1424
sg64
(lp1431
S'wsgi_errors'
p1432
asbag57
(g78
g59
NtRp1433
(dp1434
g62
(dp1435
g89
g90
ssg71
g1424
sg64
(lp1436
S':'
asbag57
(g78
g59
NtRp1437
(dp1438
g62
(dp1439
sg71
g1424
sg64
(lp1440
g57
(g58
g59
NtRp1441
(dp1442
g62
(dp1443
g70
I4
ssg71
g1437
sg64
(lp1444
S"<open file '<stderr>', mode 'w' at 0x0000000001CCE1E0>"
p1445
asbasbasbag57
(g73
g59
NtRp1446
(dp1447
g62
(dp1448
sg71
g663
sg64
(lp1449
g57
(g78
g59
NtRp1450
(dp1451
g62
(dp1452
g82
g83
ssg71
g1446
sg64
(lp1453
S'wsgi_file_wrapper'
p1454
asbag57
(g78
g59
NtRp1455
(dp1456
g62
(dp1457
g89
g90
ssg71
g1446
sg64
(lp1458
S':'
asbag57
(g78
g59
NtRp1459
(dp1460
g62
(dp1461
sg71
g1446
sg64
(lp1462
g57
(g58
g59
NtRp1463
(dp1464
g62
(dp1465
g70
I4
ssg71
g1459
sg64
(lp1466
S'<class wsgiref.util.FileWrapper at 0x0000000003648AC8>'
p1467
asbasbasbag57
(g73
g59
NtRp1468
(dp1469
g62
(dp1470
sg71
g663
sg64
(lp1471
g57
(g78
g59
NtRp1472
(dp1473
g62
(dp1474
g82
g83
ssg71
g1468
sg64
(lp1475
S'wsgi_input'
p1476
asbag57
(g78
g59
NtRp1477
(dp1478
g62
(dp1479
g89
g90
ssg71
g1468
sg64
(lp1480
S':'
asbag57
(g78
g59
NtRp1481
(dp1482
g62
(dp1483
sg71
g1468
sg64
(lp1484
g57
(g58
g59
NtRp1485
(dp1486
g62
(dp1487
g70
I4
ssg71
g1481
sg64
(lp1488
S'<socket._fileobject object at 0x00000000056B2318>'
p1489
asbasbasbag57
(g73
g59
NtRp1490
(dp1491
g62
(dp1492
sg71
g663
sg64
(lp1493
g57
(g78
g59
NtRp1494
(dp1495
g62
(dp1496
g82
g83
ssg71
g1490
sg64
(lp1497
S'wsgi_multiprocess'
p1498
asbag57
(g78
g59
NtRp1499
(dp1500
g62
(dp1501
g89
g90
ssg71
g1490
sg64
(lp1502
S':'
asbag57
(g78
g59
NtRp1503
(dp1504
g62
(dp1505
sg71
g1490
sg64
(lp1506
g57
(g58
g59
NtRp1507
(dp1508
g62
(dp1509
g70
I4
ssg71
g1503
sg64
(lp1510
g100
asbasbasbag57
(g73
g59
NtRp1511
(dp1512
g62
(dp1513
sg71
g663
sg64
(lp1514
g57
(g78
g59
NtRp1515
(dp1516
g62
(dp1517
g82
g83
ssg71
g1511
sg64
(lp1518
S'wsgi_multithread'
p1519
asbag57
(g78
g59
NtRp1520
(dp1521
g62
(dp1522
g89
g90
ssg71
g1511
sg64
(lp1523
S':'
asbag57
(g78
g59
NtRp1524
(dp1525
g62
(dp1526
sg71
g1511
sg64
(lp1527
g57
(g58
g59
NtRp1528
(dp1529
g62
(dp1530
g70
I4
ssg71
g1524
sg64
(lp1531
S'True'
p1532
asbasbasbag57
(g73
g59
NtRp1533
(dp1534
g62
(dp1535
sg71
g663
sg64
(lp1536
g57
(g78
g59
NtRp1537
(dp1538
g62
(dp1539
g82
g83
ssg71
g1533
sg64
(lp1540
S'wsgi_run_once'
p1541
asbag57
(g78
g59
NtRp1542
(dp1543
g62
(dp1544
g89
g90
ssg71
g1533
sg64
(lp1545
S':'
asbag57
(g78
g59
NtRp1546
(dp1547
g62
(dp1548
sg71
g1533
sg64
(lp1549
g57
(g58
g59
NtRp1550
(dp1551
g62
(dp1552
g70
I4
ssg71
g1546
sg64
(lp1553
g100
asbasbasbag57
(g73
g59
NtRp1554
(dp1555
g62
(dp1556
sg71
g663
sg64
(lp1557
g57
(g78
g59
NtRp1558
(dp1559
g62
(dp1560
g82
g83
ssg71
g1554
sg64
(lp1561
S'wsgi_url_scheme'
p1562
asbag57
(g78
g59
NtRp1563
(dp1564
g62
(dp1565
g89
g90
ssg71
g1554
sg64
(lp1566
S':'
asbag57
(g78
g59
NtRp1567
(dp1568
g62
(dp1569
sg71
g1554
sg64
(lp1570
g57
(g58
g59
NtRp1571
(dp1572
g62
(dp1573
g70
I4
ssg71
g1567
sg64
(lp1574
S'http'
p1575
asbasbasbag57
(g73
g59
NtRp1576
(dp1577
g62
(dp1578
sg71
g663
sg64
(lp1579
g57
(g78
g59
NtRp1580
(dp1581
g62
(dp1582
g82
g83
ssg71
g1576
sg64
(lp1583
S'wsgi_version'
p1584
asbag57
(g78
g59
NtRp1585
(dp1586
g62
(dp1587
g89
g90
ssg71
g1576
sg64
(lp1588
S':'
asbag57
(g78
g59
NtRp1589
(dp1590
g62
(dp1591
sg71
g1576
sg64
(lp1592
g57
(g58
g59
NtRp1593
(dp1594
g62
(dp1595
g70
I4
ssg71
g1589
sg64
(lp1596
g57
(g66
g59
NtRp1597
(dp1598
g62
(dp1599
g70
I3
ssg71
Nsg64
(lp1600
g57
(g73
g59
NtRp1601
(dp1602
g62
(dp1603
sg71
g1597
sg64
(lp1604
g57
(g78
g59
NtRp1605
(dp1606
g62
(dp1607
sg71
g1601
sg64
(lp1608
g57
(g58
g59
NtRp1609
(dp1610
g62
(dp1611
g70
I3
ssg71
g1605
sg64
(lp1612
S'1'
asbasbasbag57
(g73
g59
NtRp1613
(dp1614
g62
(dp1615
sg71
g1597
sg64
(lp1616
g57
(g78
g59
NtRp1617
(dp1618
g62
(dp1619
sg71
g1613
sg64
(lp1620
g57
(g58
g59
NtRp1621
(dp1622
g62
(dp1623
g70
I3
ssg71
g1617
sg64
(lp1624
S'0'
asbasbasbasbasbasbasbasbasbasbasbag57
(g73
g59
NtRp1625
(dp1626
g62
(dp1627
sg71
g67
sg64
(lp1628
g57
(g78
g59
NtRp1629
(dp1630
g62
(dp1631
g82
g83
ssg71
g1625
sg64
(lp1632
S'extension'
p1633
asbag57
(g78
g59
NtRp1634
(dp1635
g62
(dp1636
g89
g90
ssg71
g1625
sg64
(lp1637
S':'
asbag57
(g78
g59
NtRp1638
(dp1639
g62
(dp1640
sg71
g1625
sg64
(lp1641
g57
(g58
g59
NtRp1642
(dp1643
g62
(dp1644
g70
I5
ssg71
g1638
sg64
(lp1645
S'html'
p1646
asbasbasbag57
(g73
g59
NtRp1647
(dp1648
g62
(dp1649
sg71
g67
sg64
(lp1650
g57
(g78
g59
NtRp1651
(dp1652
g62
(dp1653
g82
g83
ssg71
g1647
sg64
(lp1654
S'folder'
p1655
asbag57
(g78
g59
NtRp1656
(dp1657
g62
(dp1658
g89
g90
ssg71
g1647
sg64
(lp1659
S':'
asbag57
(g78
g59
NtRp1660
(dp1661
g62
(dp1662
sg71
g1647
sg64
(lp1663
g57
(g58
g59
NtRp1664
(dp1665
g62
(dp1666
g70
I5
ssg71
g1660
sg64
(lp1667
S'D:\\workspace\\CA\\IgoR\\C_Sources\\Server\\igor-assistant-ca-2012\\applications\\igor\\'
p1668
asbasbasbag57
(g73
g59
NtRp1669
(dp1670
g62
(dp1671
sg71
g67
sg64
(lp1672
g57
(g78
g59
NtRp1673
(dp1674
g62
(dp1675
g82
g83
ssg71
g1669
sg64
(lp1676
S'function'
p1677
asbag57
(g78
g59
NtRp1678
(dp1679
g62
(dp1680
g89
g90
ssg71
g1669
sg64
(lp1681
S':'
asbag57
(g78
g59
NtRp1682
(dp1683
g62
(dp1684
sg71
g1669
sg64
(lp1685
g57
(g58
g59
NtRp1686
(dp1687
g62
(dp1688
g70
I5
ssg71
g1682
sg64
(lp1689
S'call'
p1690
asbasbasbag57
(g73
g59
NtRp1691
(dp1692
g62
(dp1693
sg71
g67
sg64
(lp1694
g57
(g78
g59
NtRp1695
(dp1696
g62
(dp1697
g82
g83
ssg71
g1691
sg64
(lp1698
S'get_vars'
p1699
asbag57
(g78
g59
NtRp1700
(dp1701
g62
(dp1702
g89
g90
ssg71
g1691
sg64
(lp1703
S':'
asbag57
(g78
g59
NtRp1704
(dp1705
g62
(dp1706
sg71
g1691
sg64
(lp1707
g57
(g58
g59
NtRp1708
(dp1709
g62
(dp1710
g70
I5
ssg71
g1704
sg64
(lp1711
g57
(g66
g59
NtRp1712
(dp1713
g62
(dp1714
g70
I4
ssg71
Nsg64
(lp1715
sbasbasbasbag57
(g73
g59
NtRp1716
(dp1717
g62
(dp1718
sg71
g67
sg64
(lp1719
g57
(g78
g59
NtRp1720
(dp1721
g62
(dp1722
g82
g83
ssg71
g1716
sg64
(lp1723
S'global_settings'
p1724
asbag57
(g78
g59
NtRp1725
(dp1726
g62
(dp1727
g89
g90
ssg71
g1716
sg64
(lp1728
S':'
asbag57
(g78
g59
NtRp1729
(dp1730
g62
(dp1731
sg71
g1716
sg64
(lp1732
g57
(g58
g59
NtRp1733
(dp1734
g62
(dp1735
g70
I5
ssg71
g1729
sg64
(lp1736
g57
(g66
g59
NtRp1737
(dp1738
g62
(dp1739
g70
I4
ssg71
Nsg64
(lp1740
g57
(g73
g59
NtRp1741
(dp1742
g62
(dp1743
sg71
g1737
sg64
(lp1744
g57
(g78
g59
NtRp1745
(dp1746
g62
(dp1747
g82
g83
ssg71
g1741
sg64
(lp1748
g675
asbag57
(g78
g59
NtRp1749
(dp1750
g62
(dp1751
g89
g90
ssg71
g1741
sg64
(lp1752
S':'
asbag57
(g78
g59
NtRp1753
(dp1754
g62
(dp1755
sg71
g1741
sg64
(lp1756
g57
(g58
g59
NtRp1757
(dp1758
g62
(dp1759
g70
I4
ssg71
g1753
sg64
(lp1760
S"set(['D:\\\\workspace\\\\CA\\\\IgoR\\\\C_Sources\\\\Server\\\\igor-assistant-ca-2012\\\\applications\\\\admin\\\\', 'D:\\\\workspace\\\\CA\\\\IgoR\\\\C_Sources\\\\Server\\\\igor-assistant-ca-2012\\\\applications\\\\igor\\\\', 'D:\\\\workspace\\\\CA\\\\IgoR\\\\C_Sources\\\\Server\\\\igor-assistant-ca-2012\\\\applications\\\\welcome\\\\'])"
p1761
asbasbasbag57
(g73
g59
NtRp1762
(dp1763
g62
(dp1764
sg71
g1737
sg64
(lp1765
g57
(g78
g59
NtRp1766
(dp1767
g62
(dp1768
g82
g83
ssg71
g1762
sg64
(lp1769
g697
asbag57
(g78
g59
NtRp1770
(dp1771
g62
(dp1772
g89
g90
ssg71
g1762
sg64
(lp1773
S':'
asbag57
(g78
g59
NtRp1774
(dp1775
g62
(dp1776
sg71
g1762
sg64
(lp1777
g57
(g58
g59
NtRp1778
(dp1779
g62
(dp1780
g70
I4
ssg71
g1774
sg64
(lp1781
g710
asbasbasbag57
(g73
g59
NtRp1782
(dp1783
g62
(dp1784
sg71
g1737
sg64
(lp1785
g57
(g78
g59
NtRp1786
(dp1787
g62
(dp1788
g82
g83
ssg71
g1782
sg64
(lp1789
g719
asbag57
(g78
g59
NtRp1790
(dp1791
g62
(dp1792
g89
g90
ssg71
g1782
sg64
(lp1793
S':'
asbag57
(g78
g59
NtRp1794
(dp1795
g62
(dp1796
sg71
g1782
sg64
(lp1797
g57
(g58
g59
NtRp1798
(dp1799
g62
(dp1800
g70
I4
ssg71
g1794
sg64
(lp1801
g57
(g66
g59
NtRp1802
(dp1803
g62
(dp1804
g70
I3
ssg71
Nsg64
(lp1805
g57
(g73
g59
NtRp1806
(dp1807
g62
(dp1808
sg71
g1802
sg64
(lp1809
g57
(g78
g59
NtRp1810
(dp1811
g62
(dp1812
sg71
g1806
sg64
(lp1813
g57
(g58
g59
NtRp1814
(dp1815
g62
(dp1816
g70
I3
ssg71
g1810
sg64
(lp1817
g748
asbasbasbasbasbasbasbag57
(g73
g59
NtRp1818
(dp1819
g62
(dp1820
sg71
g1737
sg64
(lp1821
g57
(g78
g59
NtRp1822
(dp1823
g62
(dp1824
g82
g83
ssg71
g1818
sg64
(lp1825
g757
asbag57
(g78
g59
NtRp1826
(dp1827
g62
(dp1828
g89
g90
ssg71
g1818
sg64
(lp1829
S':'
asbag57
(g78
g59
NtRp1830
(dp1831
g62
(dp1832
sg71
g1818
sg64
(lp1833
g57
(g58
g59
NtRp1834
(dp1835
g62
(dp1836
g70
I4
ssg71
g1830
sg64
(lp1837
S"<Values at 0x3764d88: {'verbose': False, 'ip': '127.0.0.1', 'shutdown_timeout': 5, 'taskbar': False, 'nocron': False, 'pid_filename': 'httpserver.pid', 'maxthreads': None, 'softcron': False, 'server_name': 'PHUCNH-PC', 'bpython': False, 'nogui': False, 'port': 8000, 'extcron': False, 'debuglevel': 30, 'test': None, 'folder': 'D:\\\\workspace\\\\CA\\\\IgoR\\\\C_Sources\\\\Server\\\\igor-assistant-ca-2012', 'config': '', 'import_models': False, 'winservice': '', 'shell': None, 'run': '', 'log_filename': 'httpserver.log', 'args': [''], 'socket_timeout': 5, 'ssl_ca_certificate': None, 'scheduler': None, 'profiler_filename': None, 'ssl_private_key': '', 'password': '<ask>', 'request_queue_size': 5, 'ssl_certificate': '', 'cronjob': False, 'numthreads': None, 'quiet': False, 'interfaces': None, 'minthreads': None, 'timeout': 10, 'plain': False, 'nobanner': False}>"
p1838
asbasbasbag57
(g73
g59
NtRp1839
(dp1840
g62
(dp1841
sg71
g1737
sg64
(lp1842
g57
(g78
g59
NtRp1843
(dp1844
g62
(dp1845
g82
g83
ssg71
g1839
sg64
(lp1846
g779
asbag57
(g78
g59
NtRp1847
(dp1848
g62
(dp1849
g89
g90
ssg71
g1839
sg64
(lp1850
S':'
asbag57
(g78
g59
NtRp1851
(dp1852
g62
(dp1853
sg71
g1839
sg64
(lp1854
g57
(g58
g59
NtRp1855
(dp1856
g62
(dp1857
g70
I4
ssg71
g1851
sg64
(lp1858
S'set([])'
p1859
asbasbasbag57
(g73
g59
NtRp1860
(dp1861
g62
(dp1862
sg71
g1737
sg64
(lp1863
g57
(g78
g59
NtRp1864
(dp1865
g62
(dp1866
g82
g83
ssg71
g1860
sg64
(lp1867
g801
asbag57
(g78
g59
NtRp1868
(dp1869
g62
(dp1870
g89
g90
ssg71
g1860
sg64
(lp1871
S':'
asbag57
(g78
g59
NtRp1872
(dp1873
g62
(dp1874
sg71
g1860
sg64
(lp1875
g57
(g58
g59
NtRp1876
(dp1877
g62
(dp1878
g70
I4
ssg71
g1872
sg64
(lp1879
g100
asbasbasbag57
(g73
g59
NtRp1880
(dp1881
g62
(dp1882
sg71
g1737
sg64
(lp1883
g57
(g78
g59
NtRp1884
(dp1885
g62
(dp1886
g82
g83
ssg71
g1880
sg64
(lp1887
g822
asbag57
(g78
g59
NtRp1888
(dp1889
g62
(dp1890
g89
g90
ssg71
g1880
sg64
(lp1891
S':'
asbag57
(g78
g59
NtRp1892
(dp1893
g62
(dp1894
sg71
g1880
sg64
(lp1895
g57
(g58
g59
NtRp1896
(dp1897
g62
(dp1898
g70
I4
ssg71
g1892
sg64
(lp1899
g835
asbasbasbag57
(g73
g59
NtRp1900
(dp1901
g62
(dp1902
sg71
g1737
sg64
(lp1903
g57
(g78
g59
NtRp1904
(dp1905
g62
(dp1906
g82
g83
ssg71
g1900
sg64
(lp1907
g1042
asbag57
(g78
g59
NtRp1908
(dp1909
g62
(dp1910
g89
g90
ssg71
g1900
sg64
(lp1911
S':'
asbag57
(g78
g59
NtRp1912
(dp1913
g62
(dp1914
sg71
g1900
sg64
(lp1915
g57
(g58
g59
NtRp1916
(dp1917
g62
(dp1918
g70
I4
ssg71
g1912
sg64
(lp1919
g100
asbasbasbag57
(g73
g59
NtRp1920
(dp1921
g62
(dp1922
sg71
g1737
sg64
(lp1923
g57
(g78
g59
NtRp1924
(dp1925
g62
(dp1926
g82
g83
ssg71
g1920
sg64
(lp1927
g1063
asbag57
(g78
g59
NtRp1928
(dp1929
g62
(dp1930
g89
g90
ssg71
g1920
sg64
(lp1931
S':'
asbag57
(g78
g59
NtRp1932
(dp1933
g62
(dp1934
sg71
g1920
sg64
(lp1935
g57
(g58
g59
NtRp1936
(dp1937
g62
(dp1938
g70
I4
ssg71
g1932
sg64
(lp1939
g100
asbasbasbag57
(g73
g59
NtRp1940
(dp1941
g62
(dp1942
sg71
g1737
sg64
(lp1943
g57
(g78
g59
NtRp1944
(dp1945
g62
(dp1946
g82
g83
ssg71
g1940
sg64
(lp1947
g1301
asbag57
(g78
g59
NtRp1948
(dp1949
g62
(dp1950
g89
g90
ssg71
g1940
sg64
(lp1951
S':'
asbag57
(g78
g59
NtRp1952
(dp1953
g62
(dp1954
sg71
g1940
sg64
(lp1955
g57
(g58
g59
NtRp1956
(dp1957
g62
(dp1958
g70
I4
ssg71
g1952
sg64
(lp1959
g1314
asbasbasbag57
(g73
g59
NtRp1960
(dp1961
g62
(dp1962
sg71
g1737
sg64
(lp1963
g57
(g78
g59
NtRp1964
(dp1965
g62
(dp1966
g82
g83
ssg71
g1960
sg64
(lp1967
g1344
asbag57
(g78
g59
NtRp1968
(dp1969
g62
(dp1970
g89
g90
ssg71
g1960
sg64
(lp1971
S':'
asbag57
(g78
g59
NtRp1972
(dp1973
g62
(dp1974
sg71
g1960
sg64
(lp1975
g57
(g58
g59
NtRp1976
(dp1977
g62
(dp1978
g70
I4
ssg71
g1972
sg64
(lp1979
g57
(g66
g59
NtRp1980
(dp1981
g62
(dp1982
g70
I3
ssg71
Nsg64
(lp1983
g57
(g73
g59
NtRp1984
(dp1985
g62
(dp1986
sg71
g1980
sg64
(lp1987
g57
(g78
g59
NtRp1988
(dp1989
g62
(dp1990
sg71
g1984
sg64
(lp1991
g57
(g58
g59
NtRp1992
(dp1993
g62
(dp1994
g70
I3
ssg71
g1988
sg64
(lp1995
S'1'
asbasbasbag57
(g73
g59
NtRp1996
(dp1997
g62
(dp1998
sg71
g1980
sg64
(lp1999
g57
(g78
g59
NtRp2000
(dp2001
g62
(dp2002
sg71
g1996
sg64
(lp2003
g57
(g58
g59
NtRp2004
(dp2005
g62
(dp2006
g70
I3
ssg71
g2000
sg64
(lp2007
S'99'
p2008
asbasbasbag57
(g73
g59
NtRp2009
(dp2010
g62
(dp2011
sg71
g1980
sg64
(lp2012
g57
(g78
g59
NtRp2013
(dp2014
g62
(dp2015
sg71
g2009
sg64
(lp2016
g57
(g58
g59
NtRp2017
(dp2018
g62
(dp2019
g70
I3
ssg71
g2013
sg64
(lp2020
S'7'
asbasbasbag57
(g73
g59
NtRp2021
(dp2022
g62
(dp2023
sg71
g1980
sg64
(lp2024
g57
(g78
g59
NtRp2025
(dp2026
g62
(dp2027
sg71
g2021
sg64
(lp2028
g57
(g58
g59
NtRp2029
(dp2030
g62
(dp2031
g70
I3
ssg71
g2025
sg64
(lp2032
S'datetime.datetime(2012, 3, 4, 22, 12, 8)'
p2033
asbasbasbag57
(g73
g59
NtRp2034
(dp2035
g62
(dp2036
sg71
g1980
sg64
(lp2037
g57
(g78
g59
NtRp2038
(dp2039
g62
(dp2040
sg71
g2034
sg64
(lp2041
g57
(g58
g59
NtRp2042
(dp2043
g62
(dp2044
g70
I3
ssg71
g2038
sg64
(lp2045
g1423
asbasbasbasbasbasbasbasbasbasbasbag57
(g73
g59
NtRp2046
(dp2047
g62
(dp2048
sg71
g67
sg64
(lp2049
g57
(g78
g59
NtRp2050
(dp2051
g62
(dp2052
g82
g83
ssg71
g2046
sg64
(lp2053
S'is_https'
p2054
asbag57
(g78
g59
NtRp2055
(dp2056
g62
(dp2057
g89
g90
ssg71
g2046
sg64
(lp2058
S':'
asbag57
(g78
g59
NtRp2059
(dp2060
g62
(dp2061
sg71
g2046
sg64
(lp2062
g57
(g58
g59
NtRp2063
(dp2064
g62
(dp2065
g70
I5
ssg71
g2059
sg64
(lp2066
g100
asbasbasbag57
(g73
g59
NtRp2067
(dp2068
g62
(dp2069
sg71
g67
sg64
(lp2070
g57
(g78
g59
NtRp2071
(dp2072
g62
(dp2073
g82
g83
ssg71
g2067
sg64
(lp2074
S'is_local'
p2075
asbag57
(g78
g59
NtRp2076
(dp2077
g62
(dp2078
g89
g90
ssg71
g2067
sg64
(lp2079
S':'
asbag57
(g78
g59
NtRp2080
(dp2081
g62
(dp2082
sg71
g2067
sg64
(lp2083
g57
(g58
g59
NtRp2084
(dp2085
g62
(dp2086
g70
I5
ssg71
g2080
sg64
(lp2087
g1532
asbasbasbag57
(g73
g59
NtRp2088
(dp2089
g62
(dp2090
sg71
g67
sg64
(lp2091
g57
(g78
g59
NtRp2092
(dp2093
g62
(dp2094
g82
g83
ssg71
g2088
sg64
(lp2095
S'is_restful'
p2096
asbag57
(g78
g59
NtRp2097
(dp2098
g62
(dp2099
g89
g90
ssg71
g2088
sg64
(lp2100
S':'
asbag57
(g78
g59
NtRp2101
(dp2102
g62
(dp2103
sg71
g2088
sg64
(lp2104
g57
(g58
g59
NtRp2105
(dp2106
g62
(dp2107
g70
I5
ssg71
g2101
sg64
(lp2108
g100
asbasbasbag57
(g73
g59
NtRp2109
(dp2110
g62
(dp2111
sg71
g67
sg64
(lp2112
g57
(g78
g59
NtRp2113
(dp2114
g62
(dp2115
g82
g83
ssg71
g2109
sg64
(lp2116
S'now'
p2117
asbag57
(g78
g59
NtRp2118
(dp2119
g62
(dp2120
g89
g90
ssg71
g2109
sg64
(lp2121
S':'
asbag57
(g78
g59
NtRp2122
(dp2123
g62
(dp2124
sg71
g2109
sg64
(lp2125
g57
(g58
g59
NtRp2126
(dp2127
g62
(dp2128
g70
I5
ssg71
g2122
sg64
(lp2129
S'datetime.datetime(2012, 8, 4, 21, 59, 44, 180000)'
p2130
asbasbasbag57
(g73
g59
NtRp2131
(dp2132
g62
(dp2133
sg71
g67
sg64
(lp2134
g57
(g78
g59
NtRp2135
(dp2136
g62
(dp2137
g82
g83
ssg71
g2131
sg64
(lp2138
S'post_vars'
p2139
asbag57
(g78
g59
NtRp2140
(dp2141
g62
(dp2142
g89
g90
ssg71
g2131
sg64
(lp2143
S':'
asbag57
(g78
g59
NtRp2144
(dp2145
g62
(dp2146
sg71
g2131
sg64
(lp2147
g57
(g58
g59
NtRp2148
(dp2149
g62
(dp2150
g70
I5
ssg71
g2144
sg64
(lp2151
g57
(g66
g59
NtRp2152
(dp2153
g62
(dp2154
g70
I4
ssg71
Nsg64
(lp2155
sbasbasbasbag57
(g73
g59
NtRp2156
(dp2157
g62
(dp2158
sg71
g67
sg64
(lp2159
g57
(g78
g59
NtRp2160
(dp2161
g62
(dp2162
g82
g83
ssg71
g2156
sg64
(lp2163
S'raw_args'
p2164
asbag57
(g78
g59
NtRp2165
(dp2166
g62
(dp2167
g89
g90
ssg71
g2156
sg64
(lp2168
S':'
asbag57
(g78
g59
NtRp2169
(dp2170
g62
(dp2171
sg71
g2156
sg64
(lp2172
g57
(g58
g59
NtRp2173
(dp2174
g62
(dp2175
g70
I5
ssg71
g2169
sg64
(lp2176
S'json/get_all_subjects'
p2177
asbasbasbag57
(g73
g59
NtRp2178
(dp2179
g62
(dp2180
sg71
g67
sg64
(lp2181
g57
(g78
g59
NtRp2182
(dp2183
g62
(dp2184
g82
g83
ssg71
g2178
sg64
(lp2185
S'url'
p2186
asbag57
(g78
g59
NtRp2187
(dp2188
g62
(dp2189
g89
g90
ssg71
g2178
sg64
(lp2190
S':'
asbag57
(g78
g59
NtRp2191
(dp2192
g62
(dp2193
sg71
g2178
sg64
(lp2194
g57
(g58
g59
NtRp2195
(dp2196
g62
(dp2197
g70
I5
ssg71
g2191
sg64
(lp2198
S'/igor/subject/call/json/get_all_subjects'
p2199
asbasbasbag57
(g73
g59
NtRp2200
(dp2201
g62
(dp2202
sg71
g67
sg64
(lp2203
g57
(g78
g59
NtRp2204
(dp2205
g62
(dp2206
g82
g83
ssg71
g2200
sg64
(lp2207
S'utcnow'
p2208
asbag57
(g78
g59
NtRp2209
(dp2210
g62
(dp2211
g89
g90
ssg71
g2200
sg64
(lp2212
S':'
asbag57
(g78
g59
NtRp2213
(dp2214
g62
(dp2215
sg71
g2200
sg64
(lp2216
g57
(g58
g59
NtRp2217
(dp2218
g62
(dp2219
g70
I5
ssg71
g2213
sg64
(lp2220
S'datetime.datetime(2012, 8, 4, 14, 59, 44, 180000)'
p2221
asbasbasbag57
(g73
g59
NtRp2222
(dp2223
g62
(dp2224
sg71
g67
sg64
(lp2225
g57
(g78
g59
NtRp2226
(dp2227
g62
(dp2228
g82
g83
ssg71
g2222
sg64
(lp2229
S'uuid'
p2230
asbag57
(g78
g59
NtRp2231
(dp2232
g62
(dp2233
g89
g90
ssg71
g2222
sg64
(lp2234
S':'
asbag57
(g78
g59
NtRp2235
(dp2236
g62
(dp2237
sg71
g2222
sg64
(lp2238
g57
(g58
g59
NtRp2239
(dp2240
g62
(dp2241
g70
I5
ssg71
g2235
sg64
(lp2242
S'igor/127.0.0.1.2012-08-04.21-59-44.cc91d4a4-36c0-42ba-a378-0b3c7aff6e8f'
p2243
asbasbasbag57
(g73
g59
NtRp2244
(dp2245
g62
(dp2246
sg71
g67
sg64
(lp2247
g57
(g78
g59
NtRp2248
(dp2249
g62
(dp2250
g82
g83
ssg71
g2244
sg64
(lp2251
S'vars'
p2252
asbag57
(g78
g59
NtRp2253
(dp2254
g62
(dp2255
g89
g90
ssg71
g2244
sg64
(lp2256
S':'
asbag57
(g78
g59
NtRp2257
(dp2258
g62
(dp2259
sg71
g2244
sg64
(lp2260
g57
(g58
g59
NtRp2261
(dp2262
g62
(dp2263
g70
I5
ssg71
g2257
sg64
(lp2264
g57
(g66
g59
NtRp2265
(dp2266
g62
(dp2267
g70
I4
ssg71
Nsg64
(lp2268
sbasbasbasbag57
(g73
g59
NtRp2269
(dp2270
g62
(dp2271
sg71
g67
sg64
(lp2272
g57
(g78
g59
NtRp2273
(dp2274
g62
(dp2275
g82
g83
ssg71
g2269
sg64
(lp2276
S'wsgi'
p2277
asbag57
(g78
g59
NtRp2278
(dp2279
g62
(dp2280
g89
g90
ssg71
g2269
sg64
(lp2281
S':'
asbag57
(g78
g59
NtRp2282
(dp2283
g62
(dp2284
sg71
g2269
sg64
(lp2285
g57
(g58
g59
NtRp2286
(dp2287
g62
(dp2288
g70
I5
ssg71
g2282
sg64
(lp2289
g57
(g66
g59
NtRp2290
(dp2291
g62
(dp2292
g70
I4
ssg71
Nsg64
(lp2293
g57
(g73
g59
NtRp2294
(dp2295
g62
(dp2296
sg71
g2290
sg64
(lp2297
g57
(g78
g59
NtRp2298
(dp2299
g62
(dp2300
g82
g83
ssg71
g2294
sg64
(lp2301
S'environ'
p2302
asbag57
(g78
g59
NtRp2303
(dp2304
g62
(dp2305
g89
g90
ssg71
g2294
sg64
(lp2306
S':'
asbag57
(g78
g59
NtRp2307
(dp2308
g62
(dp2309
sg71
g2294
sg64
(lp2310
g57
(g58
g59
NtRp2311
(dp2312
g62
(dp2313
g70
I4
ssg71
g2307
sg64
(lp2314
g57
(g66
g59
NtRp2315
(dp2316
g62
(dp2317
g70
I3
ssg71
Nsg64
(lp2318
g57
(g73
g59
NtRp2319
(dp2320
g62
(dp2321
sg71
g2315
sg64
(lp2322
g57
(g78
g59
NtRp2323
(dp2324
g62
(dp2325
g82
g83
ssg71
g2319
sg64
(lp2326
S'HTTP_ACCEPT'
p2327
asbag57
(g78
g59
NtRp2328
(dp2329
g62
(dp2330
g89
g90
ssg71
g2319
sg64
(lp2331
S':'
asbag57
(g78
g59
NtRp2332
(dp2333
g62
(dp2334
sg71
g2319
sg64
(lp2335
g57
(g58
g59
NtRp2336
(dp2337
g62
(dp2338
g70
I3
ssg71
g2332
sg64
(lp2339
g857
asbasbasbag57
(g73
g59
NtRp2340
(dp2341
g62
(dp2342
sg71
g2315
sg64
(lp2343
g57
(g78
g59
NtRp2344
(dp2345
g62
(dp2346
g82
g83
ssg71
g2340
sg64
(lp2347
S'HTTP_ACCEPT_CHARSET'
p2348
asbag57
(g78
g59
NtRp2349
(dp2350
g62
(dp2351
g89
g90
ssg71
g2340
sg64
(lp2352
S':'
asbag57
(g78
g59
NtRp2353
(dp2354
g62
(dp2355
sg71
g2340
sg64
(lp2356
g57
(g58
g59
NtRp2357
(dp2358
g62
(dp2359
g70
I3
ssg71
g2353
sg64
(lp2360
g879
asbasbasbag57
(g73
g59
NtRp2361
(dp2362
g62
(dp2363
sg71
g2315
sg64
(lp2364
g57
(g78
g59
NtRp2365
(dp2366
g62
(dp2367
g82
g83
ssg71
g2361
sg64
(lp2368
S'HTTP_ACCEPT_ENCODING'
p2369
asbag57
(g78
g59
NtRp2370
(dp2371
g62
(dp2372
g89
g90
ssg71
g2361
sg64
(lp2373
S':'
asbag57
(g78
g59
NtRp2374
(dp2375
g62
(dp2376
sg71
g2361
sg64
(lp2377
g57
(g58
g59
NtRp2378
(dp2379
g62
(dp2380
g70
I3
ssg71
g2374
sg64
(lp2381
g901
asbasbasbag57
(g73
g59
NtRp2382
(dp2383
g62
(dp2384
sg71
g2315
sg64
(lp2385
g57
(g78
g59
NtRp2386
(dp2387
g62
(dp2388
g82
g83
ssg71
g2382
sg64
(lp2389
S'HTTP_ACCEPT_LANGUAGE'
p2390
asbag57
(g78
g59
NtRp2391
(dp2392
g62
(dp2393
g89
g90
ssg71
g2382
sg64
(lp2394
S':'
asbag57
(g78
g59
NtRp2395
(dp2396
g62
(dp2397
sg71
g2382
sg64
(lp2398
g57
(g58
g59
NtRp2399
(dp2400
g62
(dp2401
g70
I3
ssg71
g2395
sg64
(lp2402
g923
asbasbasbag57
(g73
g59
NtRp2403
(dp2404
g62
(dp2405
sg71
g2315
sg64
(lp2406
g57
(g78
g59
NtRp2407
(dp2408
g62
(dp2409
g82
g83
ssg71
g2403
sg64
(lp2410
S'HTTP_CACHE_CONTROL'
p2411
asbag57
(g78
g59
NtRp2412
(dp2413
g62
(dp2414
g89
g90
ssg71
g2403
sg64
(lp2415
S':'
asbag57
(g78
g59
NtRp2416
(dp2417
g62
(dp2418
sg71
g2403
sg64
(lp2419
g57
(g58
g59
NtRp2420
(dp2421
g62
(dp2422
g70
I3
ssg71
g2416
sg64
(lp2423
g945
asbasbasbag57
(g73
g59
NtRp2424
(dp2425
g62
(dp2426
sg71
g2315
sg64
(lp2427
g57
(g78
g59
NtRp2428
(dp2429
g62
(dp2430
g82
g83
ssg71
g2424
sg64
(lp2431
S'HTTP_CONNECTION'
p2432
asbag57
(g78
g59
NtRp2433
(dp2434
g62
(dp2435
g89
g90
ssg71
g2424
sg64
(lp2436
S':'
asbag57
(g78
g59
NtRp2437
(dp2438
g62
(dp2439
sg71
g2424
sg64
(lp2440
g57
(g58
g59
NtRp2441
(dp2442
g62
(dp2443
g70
I3
ssg71
g2437
sg64
(lp2444
g967
asbasbasbag57
(g73
g59
NtRp2445
(dp2446
g62
(dp2447
sg71
g2315
sg64
(lp2448
g57
(g78
g59
NtRp2449
(dp2450
g62
(dp2451
g82
g83
ssg71
g2445
sg64
(lp2452
S'HTTP_COOKIE'
p2453
asbag57
(g78
g59
NtRp2454
(dp2455
g62
(dp2456
g89
g90
ssg71
g2445
sg64
(lp2457
S':'
asbag57
(g78
g59
NtRp2458
(dp2459
g62
(dp2460
sg71
g2445
sg64
(lp2461
g57
(g58
g59
NtRp2462
(dp2463
g62
(dp2464
g70
I3
ssg71
g2458
sg64
(lp2465
g989
asbasbasbag57
(g73
g59
NtRp2466
(dp2467
g62
(dp2468
sg71
g2315
sg64
(lp2469
g57
(g78
g59
NtRp2470
(dp2471
g62
(dp2472
g82
g83
ssg71
g2466
sg64
(lp2473
S'HTTP_HOST'
p2474
asbag57
(g78
g59
NtRp2475
(dp2476
g62
(dp2477
g89
g90
ssg71
g2466
sg64
(lp2478
S':'
asbag57
(g78
g59
NtRp2479
(dp2480
g62
(dp2481
sg71
g2466
sg64
(lp2482
g57
(g58
g59
NtRp2483
(dp2484
g62
(dp2485
g70
I3
ssg71
g2479
sg64
(lp2486
g1011
asbasbasbag57
(g73
g59
NtRp2487
(dp2488
g62
(dp2489
sg71
g2315
sg64
(lp2490
g57
(g78
g59
NtRp2491
(dp2492
g62
(dp2493
g82
g83
ssg71
g2487
sg64
(lp2494
S'HTTP_USER_AGENT'
p2495
asbag57
(g78
g59
NtRp2496
(dp2497
g62
(dp2498
g89
g90
ssg71
g2487
sg64
(lp2499
S':'
asbag57
(g78
g59
NtRp2500
(dp2501
g62
(dp2502
sg71
g2487
sg64
(lp2503
g57
(g58
g59
NtRp2504
(dp2505
g62
(dp2506
g70
I3
ssg71
g2500
sg64
(lp2507
g1033
asbasbasbag57
(g73
g59
NtRp2508
(dp2509
g62
(dp2510
sg71
g2315
sg64
(lp2511
g57
(g78
g59
NtRp2512
(dp2513
g62
(dp2514
g82
g83
ssg71
g2508
sg64
(lp2515
S'PATH_INFO'
p2516
asbag57
(g78
g59
NtRp2517
(dp2518
g62
(dp2519
g89
g90
ssg71
g2508
sg64
(lp2520
S':'
asbag57
(g78
g59
NtRp2521
(dp2522
g62
(dp2523
sg71
g2508
sg64
(lp2524
g57
(g58
g59
NtRp2525
(dp2526
g62
(dp2527
g70
I3
ssg71
g2521
sg64
(lp2528
g1097
asbasbasbag57
(g73
g59
NtRp2529
(dp2530
g62
(dp2531
sg71
g2315
sg64
(lp2532
g57
(g78
g59
NtRp2533
(dp2534
g62
(dp2535
g82
g83
ssg71
g2529
sg64
(lp2536
S'QUERY_STRING'
p2537
asbag57
(g78
g59
NtRp2538
(dp2539
g62
(dp2540
g89
g90
ssg71
g2529
sg64
(lp2541
S':'
asbag57
(g78
g59
NtRp2542
(dp2543
g62
(dp2544
sg71
g2529
sg64
(lp2545
g57
(g58
g59
NtRp2546
(dp2547
g62
(dp2548
g70
I3
ssg71
g2542
sg64
(lp2549
S''
asbasbasbag57
(g73
g59
NtRp2550
(dp2551
g62
(dp2552
sg71
g2315
sg64
(lp2553
g57
(g78
g59
NtRp2554
(dp2555
g62
(dp2556
g82
g83
ssg71
g2550
sg64
(lp2557
S'REMOTE_ADDR'
p2558
asbag57
(g78
g59
NtRp2559
(dp2560
g62
(dp2561
g89
g90
ssg71
g2550
sg64
(lp2562
S':'
asbag57
(g78
g59
NtRp2563
(dp2564
g62
(dp2565
sg71
g2550
sg64
(lp2566
g57
(g58
g59
NtRp2567
(dp2568
g62
(dp2569
g70
I3
ssg71
g2563
sg64
(lp2570
g216
asbasbasbag57
(g73
g59
NtRp2571
(dp2572
g62
(dp2573
sg71
g2315
sg64
(lp2574
g57
(g78
g59
NtRp2575
(dp2576
g62
(dp2577
g82
g83
ssg71
g2571
sg64
(lp2578
S'REMOTE_PORT'
p2579
asbag57
(g78
g59
NtRp2580
(dp2581
g62
(dp2582
g89
g90
ssg71
g2571
sg64
(lp2583
S':'
asbag57
(g78
g59
NtRp2584
(dp2585
g62
(dp2586
sg71
g2571
sg64
(lp2587
g57
(g58
g59
NtRp2588
(dp2589
g62
(dp2590
g70
I3
ssg71
g2584
sg64
(lp2591
g1161
asbasbasbag57
(g73
g59
NtRp2592
(dp2593
g62
(dp2594
sg71
g2315
sg64
(lp2595
g57
(g78
g59
NtRp2596
(dp2597
g62
(dp2598
g82
g83
ssg71
g2592
sg64
(lp2599
S'REQUEST_METHOD'
p2600
asbag57
(g78
g59
NtRp2601
(dp2602
g62
(dp2603
g89
g90
ssg71
g2592
sg64
(lp2604
S':'
asbag57
(g78
g59
NtRp2605
(dp2606
g62
(dp2607
sg71
g2592
sg64
(lp2608
g57
(g58
g59
NtRp2609
(dp2610
g62
(dp2611
g70
I3
ssg71
g2605
sg64
(lp2612
g1183
asbasbasbag57
(g73
g59
NtRp2613
(dp2614
g62
(dp2615
sg71
g2315
sg64
(lp2616
g57
(g78
g59
NtRp2617
(dp2618
g62
(dp2619
g82
g83
ssg71
g2613
sg64
(lp2620
S'SCRIPT_NAME'
p2621
asbag57
(g78
g59
NtRp2622
(dp2623
g62
(dp2624
g89
g90
ssg71
g2613
sg64
(lp2625
S':'
asbag57
(g78
g59
NtRp2626
(dp2627
g62
(dp2628
sg71
g2613
sg64
(lp2629
g57
(g58
g59
NtRp2630
(dp2631
g62
(dp2632
g70
I3
ssg71
g2626
sg64
(lp2633
S''
asbasbasbag57
(g73
g59
NtRp2634
(dp2635
g62
(dp2636
sg71
g2315
sg64
(lp2637
g57
(g78
g59
NtRp2638
(dp2639
g62
(dp2640
g82
g83
ssg71
g2634
sg64
(lp2641
S'SERVER_NAME'
p2642
asbag57
(g78
g59
NtRp2643
(dp2644
g62
(dp2645
g89
g90
ssg71
g2634
sg64
(lp2646
S':'
asbag57
(g78
g59
NtRp2647
(dp2648
g62
(dp2649
sg71
g2634
sg64
(lp2650
g57
(g58
g59
NtRp2651
(dp2652
g62
(dp2653
g70
I3
ssg71
g2647
sg64
(lp2654
g1226
asbasbasbag57
(g73
g59
NtRp2655
(dp2656
g62
(dp2657
sg71
g2315
sg64
(lp2658
g57
(g78
g59
NtRp2659
(dp2660
g62
(dp2661
g82
g83
ssg71
g2655
sg64
(lp2662
S'SERVER_PORT'
p2663
asbag57
(g78
g59
NtRp2664
(dp2665
g62
(dp2666
g89
g90
ssg71
g2655
sg64
(lp2667
S':'
asbag57
(g78
g59
NtRp2668
(dp2669
g62
(dp2670
sg71
g2655
sg64
(lp2671
g57
(g58
g59
NtRp2672
(dp2673
g62
(dp2674
g70
I3
ssg71
g2668
sg64
(lp2675
g1248
asbasbasbag57
(g73
g59
NtRp2676
(dp2677
g62
(dp2678
sg71
g2315
sg64
(lp2679
g57
(g78
g59
NtRp2680
(dp2681
g62
(dp2682
g82
g83
ssg71
g2676
sg64
(lp2683
S'SERVER_PROTOCOL'
p2684
asbag57
(g78
g59
NtRp2685
(dp2686
g62
(dp2687
g89
g90
ssg71
g2676
sg64
(lp2688
S':'
asbag57
(g78
g59
NtRp2689
(dp2690
g62
(dp2691
sg71
g2676
sg64
(lp2692
g57
(g58
g59
NtRp2693
(dp2694
g62
(dp2695
g70
I3
ssg71
g2689
sg64
(lp2696
g1270
asbasbasbag57
(g73
g59
NtRp2697
(dp2698
g62
(dp2699
sg71
g2315
sg64
(lp2700
g57
(g78
g59
NtRp2701
(dp2702
g62
(dp2703
g82
g83
ssg71
g2697
sg64
(lp2704
S'SERVER_SOFTWARE'
p2705
asbag57
(g78
g59
NtRp2706
(dp2707
g62
(dp2708
g89
g90
ssg71
g2697
sg64
(lp2709
S':'
asbag57
(g78
g59
NtRp2710
(dp2711
g62
(dp2712
sg71
g2697
sg64
(lp2713
g57
(g58
g59
NtRp2714
(dp2715
g62
(dp2716
g70
I3
ssg71
g2710
sg64
(lp2717
g1292
asbasbasbag57
(g73
g59
NtRp2718
(dp2719
g62
(dp2720
sg71
g2315
sg64
(lp2721
g57
(g78
g59
NtRp2722
(dp2723
g62
(dp2724
g82
g83
ssg71
g2718
sg64
(lp2725
S'wsgi.errors'
p2726
asbag57
(g78
g59
NtRp2727
(dp2728
g62
(dp2729
g89
g90
ssg71
g2718
sg64
(lp2730
S':'
asbag57
(g78
g59
NtRp2731
(dp2732
g62
(dp2733
sg71
g2718
sg64
(lp2734
g57
(g58
g59
NtRp2735
(dp2736
g62
(dp2737
g70
I3
ssg71
g2731
sg64
(lp2738
S"<open file '<stderr>', mode 'w' at 0x0000000001CCE1E0>"
p2739
asbasbasbag57
(g73
g59
NtRp2740
(dp2741
g62
(dp2742
sg71
g2315
sg64
(lp2743
g57
(g78
g59
NtRp2744
(dp2745
g62
(dp2746
g82
g83
ssg71
g2740
sg64
(lp2747
S'wsgi.file_wrapper'
p2748
asbag57
(g78
g59
NtRp2749
(dp2750
g62
(dp2751
g89
g90
ssg71
g2740
sg64
(lp2752
S':'
asbag57
(g78
g59
NtRp2753
(dp2754
g62
(dp2755
sg71
g2740
sg64
(lp2756
g57
(g58
g59
NtRp2757
(dp2758
g62
(dp2759
g70
I3
ssg71
g2753
sg64
(lp2760
S'<class wsgiref.util.FileWrapper at 0x0000000003648AC8>'
p2761
asbasbasbag57
(g73
g59
NtRp2762
(dp2763
g62
(dp2764
sg71
g2315
sg64
(lp2765
g57
(g78
g59
NtRp2766
(dp2767
g62
(dp2768
g82
g83
ssg71
g2762
sg64
(lp2769
S'wsgi.input'
p2770
asbag57
(g78
g59
NtRp2771
(dp2772
g62
(dp2773
g89
g90
ssg71
g2762
sg64
(lp2774
S':'
asbag57
(g78
g59
NtRp2775
(dp2776
g62
(dp2777
sg71
g2762
sg64
(lp2778
g57
(g58
g59
NtRp2779
(dp2780
g62
(dp2781
g70
I3
ssg71
g2775
sg64
(lp2782
S'<cStringIO.StringO object at 0x0000000005F66A78>'
p2783
asbasbasbag57
(g73
g59
NtRp2784
(dp2785
g62
(dp2786
sg71
g2315
sg64
(lp2787
g57
(g78
g59
NtRp2788
(dp2789
g62
(dp2790
g82
g83
ssg71
g2784
sg64
(lp2791
S'wsgi.multiprocess'
p2792
asbag57
(g78
g59
NtRp2793
(dp2794
g62
(dp2795
g89
g90
ssg71
g2784
sg64
(lp2796
S':'
asbag57
(g78
g59
NtRp2797
(dp2798
g62
(dp2799
sg71
g2784
sg64
(lp2800
g57
(g58
g59
NtRp2801
(dp2802
g62
(dp2803
g70
I3
ssg71
g2797
sg64
(lp2804
g100
asbasbasbag57
(g73
g59
NtRp2805
(dp2806
g62
(dp2807
sg71
g2315
sg64
(lp2808
g57
(g78
g59
NtRp2809
(dp2810
g62
(dp2811
g82
g83
ssg71
g2805
sg64
(lp2812
S'wsgi.multithread'
p2813
asbag57
(g78
g59
NtRp2814
(dp2815
g62
(dp2816
g89
g90
ssg71
g2805
sg64
(lp2817
S':'
asbag57
(g78
g59
NtRp2818
(dp2819
g62
(dp2820
sg71
g2805
sg64
(lp2821
g57
(g58
g59
NtRp2822
(dp2823
g62
(dp2824
g70
I3
ssg71
g2818
sg64
(lp2825
g1532
asbasbasbag57
(g73
g59
NtRp2826
(dp2827
g62
(dp2828
sg71
g2315
sg64
(lp2829
g57
(g78
g59
NtRp2830
(dp2831
g62
(dp2832
g82
g83
ssg71
g2826
sg64
(lp2833
S'wsgi.run_once'
p2834
asbag57
(g78
g59
NtRp2835
(dp2836
g62
(dp2837
g89
g90
ssg71
g2826
sg64
(lp2838
S':'
asbag57
(g78
g59
NtRp2839
(dp2840
g62
(dp2841
sg71
g2826
sg64
(lp2842
g57
(g58
g59
NtRp2843
(dp2844
g62
(dp2845
g70
I3
ssg71
g2839
sg64
(lp2846
g100
asbasbasbag57
(g73
g59
NtRp2847
(dp2848
g62
(dp2849
sg71
g2315
sg64
(lp2850
g57
(g78
g59
NtRp2851
(dp2852
g62
(dp2853
g82
g83
ssg71
g2847
sg64
(lp2854
S'wsgi.url_scheme'
p2855
asbag57
(g78
g59
NtRp2856
(dp2857
g62
(dp2858
g89
g90
ssg71
g2847
sg64
(lp2859
S':'
asbag57
(g78
g59
NtRp2860
(dp2861
g62
(dp2862
sg71
g2847
sg64
(lp2863
g57
(g58
g59
NtRp2864
(dp2865
g62
(dp2866
g70
I3
ssg71
g2860
sg64
(lp2867
g1575
asbasbasbag57
(g73
g59
NtRp2868
(dp2869
g62
(dp2870
sg71
g2315
sg64
(lp2871
g57
(g78
g59
NtRp2872
(dp2873
g62
(dp2874
g82
g83
ssg71
g2868
sg64
(lp2875
S'wsgi.version'
p2876
asbag57
(g78
g59
NtRp2877
(dp2878
g62
(dp2879
g89
g90
ssg71
g2868
sg64
(lp2880
S':'
asbag57
(g78
g59
NtRp2881
(dp2882
g62
(dp2883
sg71
g2868
sg64
(lp2884
g57
(g58
g59
NtRp2885
(dp2886
g62
(dp2887
g70
I3
ssg71
g2881
sg64
(lp2888
S'1'
asbasbasbasbasbasbasbasbasbasbasbasbasbsS'frames'
p2889
(lp2890
(dp2891
S'file'
p2892
S'D:\\workspace\\CA\\IgoR\\C_Sources\\Server\\igor-assistant-ca-2012\\gluon\\restricted.py'
p2893
sS'dump'
p2894
(dp2895
S'environment'
p2896
S"{'A': <class 'gluon.html.A'>, 'Auth': <class 'gluon.tools.Auth'>, 'B': <class 'gluon.html.B'>, 'BEAUTIFY': <class 'gluon.html.BEAUTIFY'>, 'BODY': <class 'gluon.html.BODY'>, 'BR': <class 'gluon.html.BR'>, 'BUTTON': <class 'gluon.html.BUTTON'>, 'CAT': <class 'gluon.html.CAT'>, 'CENTER': <class 'gluon.html.CENTER'>, 'CLEANUP': <class 'gluon.validators.CLEANUP'>, ...}"
p2897
sS'ccode'
p2898
S'<code object <module> at 00000000059B2130, file ...pplications\\igor\\controllers/subject.py", line 9>'
p2899
ssS'lnum'
p2900
I205
sS'lines'
p2901
(dp2902
I200
S'    try:'
p2903
sI201
S'        if type(code) == types.CodeType:'
p2904
sI202
S'            ccode = code'
p2905
sI203
S'        else:'
p2906
sI204
S'            ccode = compile2(code,layer)'
p2907
sI205
S'        exec ccode in environment'
p2908
sI206
S'    except HTTP:'
p2909
sI207
S'        raise'
p2910
sI208
S'    except RestrictedError:'
p2911
sI209
S'        # do not encapsulate (obfuscate) the original RestrictedError'
p2912
ssS'call'
p2913
S"(code='# -*- coding: utf-8 -*-\\n# this file is released ...lient_data\\nresponse._vars=response._caller(call)\\n', environment={'A': <class 'gluon.html.A'>, 'Auth': <class 'gluon.tools.Auth'>, 'B': <class 'gluon.html.B'>, 'BEAUTIFY': <class 'gluon.html.BEAUTIFY'>, 'BODY': <class 'gluon.html.BODY'>, 'BR': <class 'gluon.html.BR'>, 'BUTTON': <class 'gluon.html.BUTTON'>, 'CAT': <class 'gluon.html.CAT'>, 'CENTER': <class 'gluon.html.CENTER'>, 'CLEANUP': <class 'gluon.validators.CLEANUP'>, ...}, layer=r'D:\\workspace\\CA\\IgoR\\C_Sources\\Server\\igor-assis...-ca-2012\\applications\\igor\\controllers/subject.py')"
p2914
sS'func'
p2915
S'restricted'
p2916
sa(dp2917
g2892
S'D:\\workspace\\CA\\IgoR\\C_Sources\\Server\\igor-assistant-ca-2012\\applications\\igor\\controllers\\subject.py'
p2918
sg2894
(dp2919
sg2900
I81
sg2901
(dp2920
I71
S'\t\tclient = dict('
p2921
sI72
S'\t\t\tsubject_name = subject.name,'
p2922
sI73
S'\t\t\tsubject_code = subject.subject_code,'
p2923
sI74
S'\t\t\tnote = note,'
p2924
sI75
S'\t\t\tclass_count = classes'
p2925
sI76
S'\t\t\t)'
p2926
sI77
S''
sI78
S'\t\tclient_data.append (client)'
p2927
sI79
S''
sI80
S'\treturn client_data'
p2928
ssg2913
S'()'
p2929
sg2915
S'<module>'
p2930
sa(dp2931
g2892
S'D:\\workspace\\CA\\IgoR\\C_Sources\\Server\\igor-assistant-ca-2012\\gluon\\globals.py'
p2932
sg2894
(dp2933
S'self'
p2934
S'undefined'
p2935
sS'f'
S'<function call>'
p2936
ssg2900
I173
sg2901
(dp2937
I168
S'        self.menu = []             # used by the default view layout'
p2938
sI169
S'        self.files = []            # used by web2py_ajax.html'
p2939
sI170
S'        self.generic_patterns = [] # patterns to allow generic views'
p2940
sI171
S"        self.delimiters = ('{{','}}')"
p2941
sI172
S'        self._vars = None'
p2942
sI173
S'        self._caller = lambda f: f()'
p2943
sI174
S'        self._view_environment = None'
p2944
sI175
S'        self._custom_commit = None'
p2945
sI176
S'        self._custom_rollback = None'
p2946
sI177
S''
ssg2913
S'(f=<function call>)'
p2947
sg2915
S'<lambda>'
p2948
sa(dp2949
g2892
S'D:\\workspace\\CA\\IgoR\\C_Sources\\Server\\igor-assistant-ca-2012\\applications\\igor\\controllers\\subject.py'
p2950
sg2894
(dp2951
S'global service'
p2952
S'<gluon.tools.Service object>'
p2953
ssg2900
I20
sg2901
(dp2954
I15
S''
sI16
S''
sI17
S'def call():'
p2955
sI18
S'\tsession.forget()'
p2956
sI19
S''
sI20
S'\treturn service()'
p2957
sI21
S''
sI22
S'# Get all subject'
p2958
sI23
S''
sI24
S'@service.jsonp'
p2959
ssg2913
S'()'
p2960
sg2915
g2913
sa(dp2961
g2892
S'D:\\workspace\\CA\\IgoR\\C_Sources\\Server\\igor-assistant-ca-2012\\gluon\\tools.py'
p2962
sg2894
(dp2963
S'request.args'
p2964
S"['json', 'get_all_subjects']"
p2965
sS'self.serve_json'
p2966
S'<bound method Service.serve_json of <gluon.tools.Service object>>'
p2967
sS'self'
p2968
S'<gluon.tools.Service object>'
p2969
sS'request'
p2970
S"<Storage {'body': <cStringIO.StringO object at 0..._vars': <Storage {}>, 'post_vars': <Storage {}>}>"
p2971
ssg2900
I4015
sg2901
(dp2972
I4010
S"        elif arg0 == 'csv':"
p2973
sI4011
S'            return self.serve_csv(request.args[1:])'
p2974
sI4012
S"        elif arg0 == 'xml':"
p2975
sI4013
S'            return self.serve_xml(request.args[1:])'
p2976
sI4014
S"        elif arg0 == 'json':"
p2977
sI4015
S'            return self.serve_json(request.args[1:])'
p2978
sI4016
S'        # phucnh add 20120730'
p2979
sI4017
S"        elif arg0 == 'jsonp':"
p2980
sI4018
S'            return self.serve_jsonp(request.args[1:])'
p2981
sI4019
S'        # end phucnh add 20120730'
p2982
ssg2913
S'(self=<gluon.tools.Service object>)'
p2983
sg2915
S'__call__'
p2984
sa(dp2985
g2892
S'D:\\workspace\\CA\\IgoR\\C_Sources\\Server\\igor-assistant-ca-2012\\gluon\\tools.py'
p2986
sg2894
(dp2987
S'args'
p2988
S"['get_all_subjects']"
p2989
sS'd'
g43
sS'self'
p2990
S'<gluon.tools.Service object>'
p2991
sS'global universal_caller'
p2992
S'<function universal_caller>'
p2993
sS'self.json_procedures'
p2994
S"{'get_all_subjects': <function get_all_subjects>, 'get_subject_detail': <function get_subject_detail>}"
p2995
sS's'
g2935
ssg2900
I3808
sg2901
(dp2996
I3808
S'            s = universal_caller(self.json_procedures[args[0]],*args[1:],**d)'
p2997
sI3809
S"            if hasattr(s, 'as_list'):"
p2998
sI3810
S'                s = s.as_list()'
p2999
sI3811
S'            return response.json(s)'
p3000
sI3812
S'        self.error()'
p3001
sI3803
S"        response.headers['Content-Type'] = 'application/json; charset=utf-8'"
p3002
sI3804
S'        if not args:'
p3003
sI3805
S'            args = request.args'
p3004
sI3806
S'        d = dict(request.vars)'
p3005
sI3807
S'        if args and args[0] in self.json_procedures:'
p3006
ssg2913
S"(self=<gluon.tools.Service object>, args=['get_all_subjects'])"
p3007
sg2915
S'serve_json'
p3008
sa(dp3009
g2892
S'D:\\workspace\\CA\\IgoR\\C_Sources\\Server\\igor-assistant-ca-2012\\gluon\\tools.py'
p3010
sg2894
(dp3011
S'arg_dict'
p3012
g43
sS'f'
S'<function get_all_subjects>'
p3013
ssg2900
I3490
sg2901
(dp3014
I3488
S'                arg_dict[arg_name] = b[arg_name]'
p3015
sI3489
S''
sI3490
S'        return f(**arg_dict)'
p3016
sI3491
S''
sI3492
S'    # Raise an error, the function cannot be called.'
p3017
sI3493
S'    raise HTTP(404, "Object does not exist")'
p3018
sI3494
S''
sI3485
S'        # However, we need to update the arg_dict with the values from the named arguments as well.'
p3019
sI3486
S'        for arg_name in named_args:'
p3020
sI3487
S'            if b.has_key(arg_name):'
p3021
ssg2913
S'(f=<function get_all_subjects>, *a=(), **b={})'
p3022
sg2915
S'universal_caller'
p3023
sa(dp3024
g2892
S'D:\\workspace\\CA\\IgoR\\C_Sources\\Server\\igor-assistant-ca-2012\\applications\\igor\\controllers\\subject.py'
p3025
sg2894
(dp3026
S'subjects'
p3027
S'<gluon.dal.Rows object>'
p3028
sS'global format_client_data'
p3029
S'<function format_client_data>'
p3030
ssg2900
I30
sg2901
(dp3031
I32
S'\treturn MessagePackager.get_packaged_message(MessageStatus.OK, subjects)'
p3032
sI33
S''
sI34
S'@service.jsonp'
p3033
sI25
S'@service.json'
p3034
sI26
S'def get_all_subjects():'
p3035
sI27
S''
sI28
S'\tsubjects = db(db.subject).select()'
p3036
sI29
S''
sI30
S'\tsubjects = format_client_data(subjects)'
p3037
sI31
S''
ssg2913
S'()'
p3038
sg2915
S'get_all_subjects'
p3039
sa(dp3040
g2892
S'D:\\workspace\\CA\\IgoR\\C_Sources\\Server\\igor-assistant-ca-2012\\applications\\igor\\controllers\\subject.py'
p3041
sg2894
(dp3042
S'note'
p3043
g2935
ssg2900
I74
sg2901
(dp3044
I69
S'\t\t\t(db.class_subject.term == term)).count()'
p3045
sI70
S''
sI71
S'\t\tclient = dict('
p3046
sI72
S'\t\t\tsubject_name = subject.name,'
p3047
sI73
S'\t\t\tsubject_code = subject.subject_code,'
p3048
sI74
S'\t\t\tnote = note,'
p3049
sI75
S'\t\t\tclass_count = classes'
p3050
sI76
S'\t\t\t)'
p3051
sI77
S''
sI78
S'\t\tclient_data.append (client)'
p3052
ssg2913
S'(subjects=<gluon.dal.Rows object>)'
p3053
sg2915
S'format_client_data'
p3054
sasS'pyver'
p3055
S'Python 2.7.3: C:\\Python27\\python.exe'
p3056
sS'session'
p3057
g57
(g58
g59
NtRp3058
(dp3059
g62
(dp3060
sg64
(lp3061
g57
(g66
g59
NtRp3062
(dp3063
g62
(dp3064
g70
I5
ssg71
Nsg64
(lp3065
sbasbsS'etype'
p3066
S"<type 'exceptions.NameError'>"
p3067
sS'date'
p3068
S'Sat Aug 04 21:59:44 2012'
p3069
sS'response'
p3070
g57
(g58
g59
NtRp3071
(dp3072
g62
(dp3073
sg64
(lp3074
g57
(g66
g59
NtRp3075
(dp3076
g62
(dp3077
g70
I5
ssg71
Nsg64
(lp3078
g57
(g73
g59
NtRp3079
(dp3080
g62
(dp3081
sg71
g3075
sg64
(lp3082
g57
(g78
g59
NtRp3083
(dp3084
g62
(dp3085
g82
g83
ssg71
g3079
sg64
(lp3086
g181
asbag57
(g78
g59
NtRp3087
(dp3088
g62
(dp3089
g89
g90
ssg71
g3079
sg64
(lp3090
S':'
asbag57
(g78
g59
NtRp3091
(dp3092
g62
(dp3093
sg71
g3079
sg64
(lp3094
g57
(g58
g59
NtRp3095
(dp3096
g62
(dp3097
g70
I5
ssg71
g3091
sg64
(lp3098
S'<cStringIO.StringO object at 0x0000000005AA6DC0>'
p3099
asbasbasbag57
(g73
g59
NtRp3100
(dp3101
g62
(dp3102
sg71
g3075
sg64
(lp3103
g57
(g78
g59
NtRp3104
(dp3105
g62
(dp3106
g82
g83
ssg71
g3100
sg64
(lp3107
g247
asbag57
(g78
g59
NtRp3108
(dp3109
g62
(dp3110
g89
g90
ssg71
g3100
sg64
(lp3111
S':'
asbag57
(g78
g59
NtRp3112
(dp3113
g62
(dp3114
sg71
g3100
sg64
(lp3115
g57
(g58
g59
NtRp3116
(dp3117
g62
(dp3118
g70
I5
ssg71
g3112
sg64
(lp3119
g57
(g66
g59
NtRp3120
(dp3121
g62
(dp3122
g70
I4
ssg71
Nsg64
(lp3123
g57
(g73
g59
NtRp3124
(dp3125
g62
(dp3126
sg71
g3120
sg64
(lp3127
g57
(g78
g59
NtRp3128
(dp3129
g62
(dp3130
g82
g83
ssg71
g3124
sg64
(lp3131
S'session_id_igor'
p3132
asbag57
(g78
g59
NtRp3133
(dp3134
g62
(dp3135
g89
g90
ssg71
g3124
sg64
(lp3136
S':'
asbag57
(g78
g59
NtRp3137
(dp3138
g62
(dp3139
sg71
g3124
sg64
(lp3140
g57
(g58
g59
NtRp3141
(dp3142
g62
(dp3143
g70
I4
ssg71
g3137
sg64
(lp3144
g57
(g66
g59
NtRp3145
(dp3146
g62
(dp3147
g70
I3
ssg71
Nsg64
(lp3148
g57
(g73
g59
NtRp3149
(dp3150
g62
(dp3151
sg71
g3145
sg64
(lp3152
g57
(g78
g59
NtRp3153
(dp3154
g62
(dp3155
g82
g83
ssg71
g3149
sg64
(lp3156
g297
asbag57
(g78
g59
NtRp3157
(dp3158
g62
(dp3159
g89
g90
ssg71
g3149
sg64
(lp3160
S':'
asbag57
(g78
g59
NtRp3161
(dp3162
g62
(dp3163
sg71
g3149
sg64
(lp3164
g57
(g58
g59
NtRp3165
(dp3166
g62
(dp3167
g70
I3
ssg71
g3161
sg64
(lp3168
S''
asbasbasbag57
(g73
g59
NtRp3169
(dp3170
g62
(dp3171
sg71
g3145
sg64
(lp3172
g57
(g78
g59
NtRp3173
(dp3174
g62
(dp3175
g82
g83
ssg71
g3169
sg64
(lp3176
g318
asbag57
(g78
g59
NtRp3177
(dp3178
g62
(dp3179
g89
g90
ssg71
g3169
sg64
(lp3180
S':'
asbag57
(g78
g59
NtRp3181
(dp3182
g62
(dp3183
sg71
g3169
sg64
(lp3184
g57
(g58
g59
NtRp3185
(dp3186
g62
(dp3187
g70
I3
ssg71
g3181
sg64
(lp3188
S''
asbasbasbag57
(g73
g59
NtRp3189
(dp3190
g62
(dp3191
sg71
g3145
sg64
(lp3192
g57
(g78
g59
NtRp3193
(dp3194
g62
(dp3195
g82
g83
ssg71
g3189
sg64
(lp3196
g339
asbag57
(g78
g59
NtRp3197
(dp3198
g62
(dp3199
g89
g90
ssg71
g3189
sg64
(lp3200
S':'
asbag57
(g78
g59
NtRp3201
(dp3202
g62
(dp3203
sg71
g3189
sg64
(lp3204
g57
(g58
g59
NtRp3205
(dp3206
g62
(dp3207
g70
I3
ssg71
g3201
sg64
(lp3208
S''
asbasbasbag57
(g73
g59
NtRp3209
(dp3210
g62
(dp3211
sg71
g3145
sg64
(lp3212
g57
(g78
g59
NtRp3213
(dp3214
g62
(dp3215
g82
g83
ssg71
g3209
sg64
(lp3216
g360
asbag57
(g78
g59
NtRp3217
(dp3218
g62
(dp3219
g89
g90
ssg71
g3209
sg64
(lp3220
S':'
asbag57
(g78
g59
NtRp3221
(dp3222
g62
(dp3223
sg71
g3209
sg64
(lp3224
g57
(g58
g59
NtRp3225
(dp3226
g62
(dp3227
g70
I3
ssg71
g3221
sg64
(lp3228
S''
asbasbasbag57
(g73
g59
NtRp3229
(dp3230
g62
(dp3231
sg71
g3145
sg64
(lp3232
g57
(g78
g59
NtRp3233
(dp3234
g62
(dp3235
g82
g83
ssg71
g3229
sg64
(lp3236
g381
asbag57
(g78
g59
NtRp3237
(dp3238
g62
(dp3239
g89
g90
ssg71
g3229
sg64
(lp3240
S':'
asbag57
(g78
g59
NtRp3241
(dp3242
g62
(dp3243
sg71
g3229
sg64
(lp3244
g57
(g58
g59
NtRp3245
(dp3246
g62
(dp3247
g70
I3
ssg71
g3241
sg64
(lp3248
S''
asbasbasbag57
(g73
g59
NtRp3249
(dp3250
g62
(dp3251
sg71
g3145
sg64
(lp3252
g57
(g78
g59
NtRp3253
(dp3254
g62
(dp3255
g82
g83
ssg71
g3249
sg64
(lp3256
g402
asbag57
(g78
g59
NtRp3257
(dp3258
g62
(dp3259
g89
g90
ssg71
g3249
sg64
(lp3260
S':'
asbag57
(g78
g59
NtRp3261
(dp3262
g62
(dp3263
sg71
g3249
sg64
(lp3264
g57
(g58
g59
NtRp3265
(dp3266
g62
(dp3267
g70
I3
ssg71
g3261
sg64
(lp3268
S'/'
asbasbasbag57
(g73
g59
NtRp3269
(dp3270
g62
(dp3271
sg71
g3145
sg64
(lp3272
g57
(g78
g59
NtRp3273
(dp3274
g62
(dp3275
g82
g83
ssg71
g3269
sg64
(lp3276
g423
asbag57
(g78
g59
NtRp3277
(dp3278
g62
(dp3279
g89
g90
ssg71
g3269
sg64
(lp3280
S':'
asbag57
(g78
g59
NtRp3281
(dp3282
g62
(dp3283
sg71
g3269
sg64
(lp3284
g57
(g58
g59
NtRp3285
(dp3286
g62
(dp3287
g70
I3
ssg71
g3281
sg64
(lp3288
S''
asbasbasbag57
(g73
g59
NtRp3289
(dp3290
g62
(dp3291
sg71
g3145
sg64
(lp3292
g57
(g78
g59
NtRp3293
(dp3294
g62
(dp3295
g82
g83
ssg71
g3289
sg64
(lp3296
g444
asbag57
(g78
g59
NtRp3297
(dp3298
g62
(dp3299
g89
g90
ssg71
g3289
sg64
(lp3300
S':'
asbag57
(g78
g59
NtRp3301
(dp3302
g62
(dp3303
sg71
g3289
sg64
(lp3304
g57
(g58
g59
NtRp3305
(dp3306
g62
(dp3307
g70
I3
ssg71
g3301
sg64
(lp3308
S''
asbasbasbasbasbasbasbasbasbasbasbag57
(g73
g59
NtRp3309
(dp3310
g62
(dp3311
sg71
g3075
sg64
(lp3312
g57
(g78
g59
NtRp3313
(dp3314
g62
(dp3315
g82
g83
ssg71
g3309
sg64
(lp3316
S'delimiters'
p3317
asbag57
(g78
g59
NtRp3318
(dp3319
g62
(dp3320
g89
g90
ssg71
g3309
sg64
(lp3321
S':'
asbag57
(g78
g59
NtRp3322
(dp3323
g62
(dp3324
sg71
g3309
sg64
(lp3325
g57
(g58
g59
NtRp3326
(dp3327
g62
(dp3328
g70
I5
ssg71
g3322
sg64
(lp3329
g57
(g66
g59
NtRp3330
(dp3331
g62
(dp3332
g70
I4
ssg71
Nsg64
(lp3333
g57
(g73
g59
NtRp3334
(dp3335
g62
(dp3336
sg71
g3330
sg64
(lp3337
g57
(g78
g59
NtRp3338
(dp3339
g62
(dp3340
sg71
g3334
sg64
(lp3341
g57
(g58
g59
NtRp3342
(dp3343
g62
(dp3344
g70
I4
ssg71
g3338
sg64
(lp3345
S'{{'
p3346
asbasbasbag57
(g73
g59
NtRp3347
(dp3348
g62
(dp3349
sg71
g3330
sg64
(lp3350
g57
(g78
g59
NtRp3351
(dp3352
g62
(dp3353
sg71
g3347
sg64
(lp3354
g57
(g58
g59
NtRp3355
(dp3356
g62
(dp3357
g70
I4
ssg71
g3351
sg64
(lp3358
S'}}'
p3359
asbasbasbasbasbasbasbag57
(g73
g59
NtRp3360
(dp3361
g62
(dp3362
sg71
g3075
sg64
(lp3363
g57
(g78
g59
NtRp3364
(dp3365
g62
(dp3366
g82
g83
ssg71
g3360
sg64
(lp3367
S'files'
p3368
asbag57
(g78
g59
NtRp3369
(dp3370
g62
(dp3371
g89
g90
ssg71
g3360
sg64
(lp3372
S':'
asbag57
(g78
g59
NtRp3373
(dp3374
g62
(dp3375
sg71
g3360
sg64
(lp3376
g57
(g58
g59
NtRp3377
(dp3378
g62
(dp3379
g70
I5
ssg71
g3373
sg64
(lp3380
g57
(g66
g59
NtRp3381
(dp3382
g62
(dp3383
g70
I4
ssg71
Nsg64
(lp3384
sbasbasbasbag57
(g73
g59
NtRp3385
(dp3386
g62
(dp3387
sg71
g3075
sg64
(lp3388
g57
(g78
g59
NtRp3389
(dp3390
g62
(dp3391
g82
g83
ssg71
g3385
sg64
(lp3392
S'flash'
p3393
asbag57
(g78
g59
NtRp3394
(dp3395
g62
(dp3396
g89
g90
ssg71
g3385
sg64
(lp3397
S':'
asbag57
(g78
g59
NtRp3398
(dp3399
g62
(dp3400
sg71
g3385
sg64
(lp3401
g57
(g58
g59
NtRp3402
(dp3403
g62
(dp3404
g70
I5
ssg71
g3398
sg64
(lp3405
S''
asbasbasbag57
(g73
g59
NtRp3406
(dp3407
g62
(dp3408
sg71
g3075
sg64
(lp3409
g57
(g78
g59
NtRp3410
(dp3411
g62
(dp3412
g82
g83
ssg71
g3406
sg64
(lp3413
S'generic_patterns'
p3414
asbag57
(g78
g59
NtRp3415
(dp3416
g62
(dp3417
g89
g90
ssg71
g3406
sg64
(lp3418
S':'
asbag57
(g78
g59
NtRp3419
(dp3420
g62
(dp3421
sg71
g3406
sg64
(lp3422
g57
(g58
g59
NtRp3423
(dp3424
g62
(dp3425
g70
I5
ssg71
g3419
sg64
(lp3426
g57
(g66
g59
NtRp3427
(dp3428
g62
(dp3429
g70
I4
ssg71
Nsg64
(lp3430
g57
(g73
g59
NtRp3431
(dp3432
g62
(dp3433
sg71
g3427
sg64
(lp3434
g57
(g78
g59
NtRp3435
(dp3436
g62
(dp3437
sg71
g3431
sg64
(lp3438
g57
(g58
g59
NtRp3439
(dp3440
g62
(dp3441
g70
I4
ssg71
g3435
sg64
(lp3442
S'*'
asbasbasbasbasbasbasbag57
(g73
g59
NtRp3443
(dp3444
g62
(dp3445
sg71
g3075
sg64
(lp3446
g57
(g78
g59
NtRp3447
(dp3448
g62
(dp3449
g82
g83
ssg71
g3443
sg64
(lp3450
S'headers'
p3451
asbag57
(g78
g59
NtRp3452
(dp3453
g62
(dp3454
g89
g90
ssg71
g3443
sg64
(lp3455
S':'
asbag57
(g78
g59
NtRp3456
(dp3457
g62
(dp3458
sg71
g3443
sg64
(lp3459
g57
(g58
g59
NtRp3460
(dp3461
g62
(dp3462
g70
I5
ssg71
g3456
sg64
(lp3463
g57
(g66
g59
NtRp3464
(dp3465
g62
(dp3466
g70
I4
ssg71
Nsg64
(lp3467
g57
(g73
g59
NtRp3468
(dp3469
g62
(dp3470
sg71
g3464
sg64
(lp3471
g57
(g78
g59
NtRp3472
(dp3473
g62
(dp3474
g82
g83
ssg71
g3468
sg64
(lp3475
S'Cache-Control'
p3476
asbag57
(g78
g59
NtRp3477
(dp3478
g62
(dp3479
g89
g90
ssg71
g3468
sg64
(lp3480
S':'
asbag57
(g78
g59
NtRp3481
(dp3482
g62
(dp3483
sg71
g3468
sg64
(lp3484
g57
(g58
g59
NtRp3485
(dp3486
g62
(dp3487
g70
I4
ssg71
g3481
sg64
(lp3488
S'no-store, no-cache, must-revalidate, post-check=0, pre-check=0'
p3489
asbasbasbag57
(g73
g59
NtRp3490
(dp3491
g62
(dp3492
sg71
g3464
sg64
(lp3493
g57
(g78
g59
NtRp3494
(dp3495
g62
(dp3496
g82
g83
ssg71
g3490
sg64
(lp3497
S'Content-Type'
p3498
asbag57
(g78
g59
NtRp3499
(dp3500
g62
(dp3501
g89
g90
ssg71
g3490
sg64
(lp3502
S':'
asbag57
(g78
g59
NtRp3503
(dp3504
g62
(dp3505
sg71
g3490
sg64
(lp3506
g57
(g58
g59
NtRp3507
(dp3508
g62
(dp3509
g70
I4
ssg71
g3503
sg64
(lp3510
S'application/json; charset=utf-8'
p3511
asbasbasbag57
(g73
g59
NtRp3512
(dp3513
g62
(dp3514
sg71
g3464
sg64
(lp3515
g57
(g78
g59
NtRp3516
(dp3517
g62
(dp3518
g82
g83
ssg71
g3512
sg64
(lp3519
S'Expires'
p3520
asbag57
(g78
g59
NtRp3521
(dp3522
g62
(dp3523
g89
g90
ssg71
g3512
sg64
(lp3524
S':'
asbag57
(g78
g59
NtRp3525
(dp3526
g62
(dp3527
sg71
g3512
sg64
(lp3528
g57
(g58
g59
NtRp3529
(dp3530
g62
(dp3531
g70
I4
ssg71
g3525
sg64
(lp3532
S'Sat, 04 Aug 2012 14:59:44 GMT'
p3533
asbasbasbag57
(g73
g59
NtRp3534
(dp3535
g62
(dp3536
sg71
g3464
sg64
(lp3537
g57
(g78
g59
NtRp3538
(dp3539
g62
(dp3540
g82
g83
ssg71
g3534
sg64
(lp3541
S'Pragma'
p3542
asbag57
(g78
g59
NtRp3543
(dp3544
g62
(dp3545
g89
g90
ssg71
g3534
sg64
(lp3546
S':'
asbag57
(g78
g59
NtRp3547
(dp3548
g62
(dp3549
sg71
g3534
sg64
(lp3550
g57
(g58
g59
NtRp3551
(dp3552
g62
(dp3553
g70
I4
ssg71
g3547
sg64
(lp3554
S'no-cache'
p3555
asbasbasbag57
(g73
g59
NtRp3556
(dp3557
g62
(dp3558
sg71
g3464
sg64
(lp3559
g57
(g78
g59
NtRp3560
(dp3561
g62
(dp3562
g82
g83
ssg71
g3556
sg64
(lp3563
S'X-Powered-By'
p3564
asbag57
(g78
g59
NtRp3565
(dp3566
g62
(dp3567
g89
g90
ssg71
g3556
sg64
(lp3568
S':'
asbag57
(g78
g59
NtRp3569
(dp3570
g62
(dp3571
sg71
g3556
sg64
(lp3572
g57
(g58
g59
NtRp3573
(dp3574
g62
(dp3575
g70
I4
ssg71
g3569
sg64
(lp3576
S'web2py'
p3577
asbasbasbasbasbasbasbag57
(g73
g59
NtRp3578
(dp3579
g62
(dp3580
sg71
g3075
sg64
(lp3581
g57
(g78
g59
NtRp3582
(dp3583
g62
(dp3584
g82
g83
ssg71
g3578
sg64
(lp3585
S'menu'
p3586
asbag57
(g78
g59
NtRp3587
(dp3588
g62
(dp3589
g89
g90
ssg71
g3578
sg64
(lp3590
S':'
asbag57
(g78
g59
NtRp3591
(dp3592
g62
(dp3593
sg71
g3578
sg64
(lp3594
g57
(g58
g59
NtRp3595
(dp3596
g62
(dp3597
g70
I5
ssg71
g3591
sg64
(lp3598
g57
(g66
g59
NtRp3599
(dp3600
g62
(dp3601
g70
I4
ssg71
Nsg64
(lp3602
g57
(g73
g59
NtRp3603
(dp3604
g62
(dp3605
sg71
g3599
sg64
(lp3606
g57
(g78
g59
NtRp3607
(dp3608
g62
(dp3609
sg71
g3603
sg64
(lp3610
g57
(g58
g59
NtRp3611
(dp3612
g62
(dp3613
g70
I4
ssg71
g3607
sg64
(lp3614
g57
(g66
g59
NtRp3615
(dp3616
g62
(dp3617
g70
I3
ssg71
Nsg64
(lp3618
g57
(g73
g59
NtRp3619
(dp3620
g62
(dp3621
sg71
g3615
sg64
(lp3622
g57
(g78
g59
NtRp3623
(dp3624
g62
(dp3625
sg71
g3619
sg64
(lp3626
g57
(g58
g59
NtRp3627
(dp3628
g62
(dp3629
g70
I3
ssg71
g3623
sg64
(lp3630
cgluon.languages
lazyT_unpickle
p3631
(S't\x04\x00\x00\x00Home'
tRp3632
asbasbasbag57
(g73
g59
NtRp3633
(dp3634
g62
(dp3635
sg71
g3615
sg64
(lp3636
g57
(g78
g59
NtRp3637
(dp3638
g62
(dp3639
sg71
g3633
sg64
(lp3640
g57
(g58
g59
NtRp3641
(dp3642
g62
(dp3643
g70
I3
ssg71
g3637
sg64
(lp3644
g100
asbasbasbag57
(g73
g59
NtRp3645
(dp3646
g62
(dp3647
sg71
g3615
sg64
(lp3648
g57
(g78
g59
NtRp3649
(dp3650
g62
(dp3651
sg71
g3645
sg64
(lp3652
g57
(g58
g59
NtRp3653
(dp3654
g62
(dp3655
g70
I3
ssg71
g3649
sg64
(lp3656
S'/igor/default/index'
p3657
asbasbasbag57
(g73
g59
NtRp3658
(dp3659
g62
(dp3660
sg71
g3615
sg64
(lp3661
g57
(g78
g59
NtRp3662
(dp3663
g62
(dp3664
sg71
g3658
sg64
(lp3665
g57
(g58
g59
NtRp3666
(dp3667
g62
(dp3668
g70
I3
ssg71
g3662
sg64
(lp3669
g57
(g66
g59
NtRp3670
(dp3671
g62
(dp3672
g70
I2
ssg71
Nsg64
(lp3673
sbasbasbasbasbasbasbasbag57
(g73
g59
NtRp3674
(dp3675
g62
(dp3676
sg71
g3599
sg64
(lp3677
g57
(g78
g59
NtRp3678
(dp3679
g62
(dp3680
sg71
g3674
sg64
(lp3681
g57
(g58
g59
NtRp3682
(dp3683
g62
(dp3684
g70
I4
ssg71
g3678
sg64
(lp3685
g57
(g66
g59
NtRp3686
(dp3687
g62
(dp3688
g70
I3
ssg71
Nsg64
(lp3689
g57
(g73
g59
NtRp3690
(dp3691
g62
(dp3692
sg71
g3686
sg64
(lp3693
g57
(g78
g59
NtRp3694
(dp3695
g62
(dp3696
sg71
g3690
sg64
(lp3697
g57
(g58
g59
NtRp3698
(dp3699
g62
(dp3700
g70
I3
ssg71
g3694
sg64
(lp3701
g57
(cgluon.html
SPAN
p3702
g59
NtRp3703
(dp3704
g62
(dp3705
g82
S'color:yellow'
p3706
ssg71
Nsg64
(lp3707
g3577
asbasbasbasbag57
(g73
g59
NtRp3708
(dp3709
g62
(dp3710
sg71
g3686
sg64
(lp3711
g57
(g78
g59
NtRp3712
(dp3713
g62
(dp3714
sg71
g3708
sg64
(lp3715
g57
(g58
g59
NtRp3716
(dp3717
g62
(dp3718
g70
I3
ssg71
g3712
sg64
(lp3719
g100
asbasbasbag57
(g73
g59
NtRp3720
(dp3721
g62
(dp3722
sg71
g3686
sg64
(lp3723
g57
(g78
g59
NtRp3724
(dp3725
g62
(dp3726
sg71
g3720
sg64
(lp3727
g57
(g58
g59
NtRp3728
(dp3729
g62
(dp3730
g70
I3
ssg71
g3724
sg64
(lp3731
S'None'
p3732
asbasbasbag57
(g73
g59
NtRp3733
(dp3734
g62
(dp3735
sg71
g3686
sg64
(lp3736
g57
(g78
g59
NtRp3737
(dp3738
g62
(dp3739
sg71
g3733
sg64
(lp3740
g57
(g58
g59
NtRp3741
(dp3742
g62
(dp3743
g70
I3
ssg71
g3737
sg64
(lp3744
g57
(g66
g59
NtRp3745
(dp3746
g62
(dp3747
g70
I2
ssg71
Nsg64
(lp3748
g57
(g73
g59
NtRp3749
(dp3750
g62
(dp3751
sg71
g3745
sg64
(lp3752
g57
(g78
g59
NtRp3753
(dp3754
g62
(dp3755
sg71
g3749
sg64
(lp3756
g57
(g58
g59
NtRp3757
(dp3758
g62
(dp3759
g70
I2
ssg71
g3753
sg64
(lp3760
g57
(g66
g59
NtRp3761
(dp3762
g62
(dp3763
g70
I1
ssg71
Nsg64
(lp3764
g57
(g73
g59
NtRp3765
(dp3766
g62
(dp3767
sg71
g3761
sg64
(lp3768
g57
(g78
g59
NtRp3769
(dp3770
g62
(dp3771
sg71
g3765
sg64
(lp3772
g57
(g58
g59
NtRp3773
(dp3774
g62
(dp3775
g70
I1
ssg71
g3769
sg64
(lp3776
g3631
(S's\x08\x00\x00\x00My Sites'
tRp3777
asbasbasbag57
(g73
g59
NtRp3778
(dp3779
g62
(dp3780
sg71
g3761
sg64
(lp3781
g57
(g78
g59
NtRp3782
(dp3783
g62
(dp3784
sg71
g3778
sg64
(lp3785
g57
(g58
g59
NtRp3786
(dp3787
g62
(dp3788
g70
I1
ssg71
g3782
sg64
(lp3789
I00
asbasbasbag57
(g73
g59
NtRp3790
(dp3791
g62
(dp3792
sg71
g3761
sg64
(lp3793
g57
(g78
g59
NtRp3794
(dp3795
g62
(dp3796
sg71
g3790
sg64
(lp3797
g57
(g58
g59
NtRp3798
(dp3799
g62
(dp3800
g70
I1
ssg71
g3794
sg64
(lp3801
S'/admin/default/site'
p3802
asbasbasbasbasbasbasbag57
(g73
g59
NtRp3803
(dp3804
g62
(dp3805
sg71
g3745
sg64
(lp3806
g57
(g78
g59
NtRp3807
(dp3808
g62
(dp3809
sg71
g3803
sg64
(lp3810
g57
(g58
g59
NtRp3811
(dp3812
g62
(dp3813
g70
I2
ssg71
g3807
sg64
(lp3814
g57
(g66
g59
NtRp3815
(dp3816
g62
(dp3817
g70
I1
ssg71
Nsg64
(lp3818
g57
(g73
g59
NtRp3819
(dp3820
g62
(dp3821
sg71
g3815
sg64
(lp3822
g57
(g78
g59
NtRp3823
(dp3824
g62
(dp3825
sg71
g3819
sg64
(lp3826
g57
(g58
g59
NtRp3827
(dp3828
g62
(dp3829
g70
I1
ssg71
g3823
sg64
(lp3830
g3631
(S's\x08\x00\x00\x00This App'
tRp3831
asbasbasbag57
(g73
g59
NtRp3832
(dp3833
g62
(dp3834
sg71
g3815
sg64
(lp3835
g57
(g78
g59
NtRp3836
(dp3837
g62
(dp3838
sg71
g3832
sg64
(lp3839
g57
(g58
g59
NtRp3840
(dp3841
g62
(dp3842
g70
I1
ssg71
g3836
sg64
(lp3843
I00
asbasbasbag57
(g73
g59
NtRp3844
(dp3845
g62
(dp3846
sg71
g3815
sg64
(lp3847
g57
(g78
g59
NtRp3848
(dp3849
g62
(dp3850
sg71
g3844
sg64
(lp3851
g57
(g58
g59
NtRp3852
(dp3853
g62
(dp3854
g70
I1
ssg71
g3848
sg64
(lp3855
S'/admin/default/design/igor'
p3856
asbasbasbag57
(g73
g59
NtRp3857
(dp3858
g62
(dp3859
sg71
g3815
sg64
(lp3860
g57
(g78
g59
NtRp3861
(dp3862
g62
(dp3863
sg71
g3857
sg64
(lp3864
g57
(g58
g59
NtRp3865
(dp3866
g62
(dp3867
g70
I1
ssg71
g3861
sg64
(lp3868
(lp3869
(g3631
(S't\n\x00\x00\x00Controller'
tRp3870
I00
S'/admin/default/edit/igor/controllers/subject.py'
tp3871
a(g3631
(S't\x04\x00\x00\x00View'
tRp3872
I00
S'/admin/default/edit/igor/views/subject/call.html'
tp3873
a(g3631
(S't\x06\x00\x00\x00Layout'
tRp3874
I00
S'/admin/default/edit/igor/views/layout.html'
tp3875
a(g3631
(S't\n\x00\x00\x00Stylesheet'
tRp3876
I00
S'/admin/default/edit/igor/static/css/web2py.css'
tp3877
a(g3631
(S's\x08\x00\x00\x00DB Model'
tRp3878
I00
S'/admin/default/edit/igor/models/db.py'
tp3879
a(g3631
(S's\n\x00\x00\x00Menu Model'
tRp3880
I00
S'/admin/default/edit/igor/models/menu.py'
tp3881
a(g3631
(S't\x08\x00\x00\x00Database'
tRp3882
I00
S'/igor/appadmin/index'
tp3883
a(g3631
(S't\x06\x00\x00\x00Errors'
tRp3884
I00
S'/admin/default/errors/igor'
tp3885
a(g3631
(S't\x05\x00\x00\x00About'
tRp3886
I00
S'/admin/default/about/igor'
tp3887
aasbasbasbasbasbasbasbag57
(g73
g59
NtRp3888
(dp3889
g62
(dp3890
sg71
g3745
sg64
(lp3891
g57
(g78
g59
NtRp3892
(dp3893
g62
(dp3894
sg71
g3888
sg64
(lp3895
g57
(g58
g59
NtRp3896
(dp3897
g62
(dp3898
g70
I2
ssg71
g3892
sg64
(lp3899
g57
(g66
g59
NtRp3900
(dp3901
g62
(dp3902
g70
I1
ssg71
Nsg64
(lp3903
g57
(g73
g59
NtRp3904
(dp3905
g62
(dp3906
sg71
g3900
sg64
(lp3907
g57
(g78
g59
NtRp3908
(dp3909
g62
(dp3910
sg71
g3904
sg64
(lp3911
g57
(g58
g59
NtRp3912
(dp3913
g62
(dp3914
g70
I1
ssg71
g3908
sg64
(lp3915
S'web2py.com'
p3916
asbasbasbag57
(g73
g59
NtRp3917
(dp3918
g62
(dp3919
sg71
g3900
sg64
(lp3920
g57
(g78
g59
NtRp3921
(dp3922
g62
(dp3923
sg71
g3917
sg64
(lp3924
g57
(g58
g59
NtRp3925
(dp3926
g62
(dp3927
g70
I1
ssg71
g3921
sg64
(lp3928
I00
asbasbasbag57
(g73
g59
NtRp3929
(dp3930
g62
(dp3931
sg71
g3900
sg64
(lp3932
g57
(g78
g59
NtRp3933
(dp3934
g62
(dp3935
sg71
g3929
sg64
(lp3936
g57
(g58
g59
NtRp3937
(dp3938
g62
(dp3939
g70
I1
ssg71
g3933
sg64
(lp3940
S'http://www.web2py.com'
p3941
asbasbasbag57
(g73
g59
NtRp3942
(dp3943
g62
(dp3944
sg71
g3900
sg64
(lp3945
g57
(g78
g59
NtRp3946
(dp3947
g62
(dp3948
sg71
g3942
sg64
(lp3949
g57
(g58
g59
NtRp3950
(dp3951
g62
(dp3952
g70
I1
ssg71
g3946
sg64
(lp3953
(lp3954
(g3631
(S't\x08\x00\x00\x00Download'
tRp3955
I00
S'http://www.web2py.com/examples/default/download'
p3956
tp3957
a(g3631
(S't\x07\x00\x00\x00Support'
tRp3958
I00
S'http://www.web2py.com/examples/default/support'
p3959
tp3960
a(g3631
(S't\x04\x00\x00\x00Demo'
tRp3961
I00
S'http://web2py.com/demo_admin'
p3962
tp3963
a(g3631
(S's\x0e\x00\x00\x00Quick Examples'
tRp3964
I00
S'http://web2py.com/examples/default/examples'
p3965
tp3966
a(g3631
(S't\x03\x00\x00\x00FAQ'
tRp3967
I00
S'http://web2py.com/AlterEgo'
p3968
tp3969
a(g3631
(S't\x06\x00\x00\x00Videos'
tRp3970
I00
S'http://www.web2py.com/examples/default/videos/'
p3971
tp3972
a(g3631
(S's\x11\x00\x00\x00Free Applications'
tRp3973
I00
S'http://web2py.com/appliances'
p3974
tp3975
a(g3631
(S't\x07\x00\x00\x00Plugins'
tRp3976
I00
S'http://web2py.com/plugins'
p3977
tp3978
a(g3631
(S't\x07\x00\x00\x00Layouts'
tRp3979
I00
S'http://web2py.com/layouts'
p3980
tp3981
a(g3631
(S't\x07\x00\x00\x00Recipes'
tRp3982
I00
S'http://web2pyslices.com/'
p3983
tp3984
a(g3631
(S't\x08\x00\x00\x00Semantic'
tRp3985
I00
S'http://web2py.com/semantic'
p3986
tp3987
aasbasbasbasbasbasbasbag57
(g73
g59
NtRp3988
(dp3989
g62
(dp3990
sg71
g3745
sg64
(lp3991
g57
(g78
g59
NtRp3992
(dp3993
g62
(dp3994
sg71
g3988
sg64
(lp3995
g57
(g58
g59
NtRp3996
(dp3997
g62
(dp3998
g70
I2
ssg71
g3992
sg64
(lp3999
g57
(g66
g59
NtRp4000
(dp4001
g62
(dp4002
g70
I1
ssg71
Nsg64
(lp4003
g57
(g73
g59
NtRp4004
(dp4005
g62
(dp4006
sg71
g4000
sg64
(lp4007
g57
(g78
g59
NtRp4008
(dp4009
g62
(dp4010
sg71
g4004
sg64
(lp4011
g57
(g58
g59
NtRp4012
(dp4013
g62
(dp4014
g70
I1
ssg71
g4008
sg64
(lp4015
g3631
(S't\r\x00\x00\x00Documentation'
tRp4016
asbasbasbag57
(g73
g59
NtRp4017
(dp4018
g62
(dp4019
sg71
g4000
sg64
(lp4020
g57
(g78
g59
NtRp4021
(dp4022
g62
(dp4023
sg71
g4017
sg64
(lp4024
g57
(g58
g59
NtRp4025
(dp4026
g62
(dp4027
g70
I1
ssg71
g4021
sg64
(lp4028
I00
asbasbasbag57
(g73
g59
NtRp4029
(dp4030
g62
(dp4031
sg71
g4000
sg64
(lp4032
g57
(g78
g59
NtRp4033
(dp4034
g62
(dp4035
sg71
g4029
sg64
(lp4036
g57
(g58
g59
NtRp4037
(dp4038
g62
(dp4039
g70
I1
ssg71
g4033
sg64
(lp4040
S'http://www.web2py.com/book'
p4041
asbasbasbag57
(g73
g59
NtRp4042
(dp4043
g62
(dp4044
sg71
g4000
sg64
(lp4045
g57
(g78
g59
NtRp4046
(dp4047
g62
(dp4048
sg71
g4042
sg64
(lp4049
g57
(g58
g59
NtRp4050
(dp4051
g62
(dp4052
g70
I1
ssg71
g4046
sg64
(lp4053
(lp4054
(g3631
(S't\x07\x00\x00\x00Preface'
tRp4055
I00
S'http://www.web2py.com/book/default/chapter/00'
p4056
tp4057
a(g3631
(S't\x0c\x00\x00\x00Introduction'
tRp4058
I00
S'http://www.web2py.com/book/default/chapter/01'
p4059
tp4060
a(g3631
(S't\x06\x00\x00\x00Python'
tRp4061
I00
S'http://www.web2py.com/book/default/chapter/02'
p4062
tp4063
a(g3631
(S't\x08\x00\x00\x00Overview'
tRp4064
I00
S'http://www.web2py.com/book/default/chapter/03'
p4065
tp4066
a(g3631
(S's\x08\x00\x00\x00The Core'
tRp4067
I00
S'http://www.web2py.com/book/default/chapter/04'
p4068
tp4069
a(g3631
(S's\t\x00\x00\x00The Views'
tRp4070
I00
S'http://www.web2py.com/book/default/chapter/05'
p4071
tp4072
a(g3631
(S't\x08\x00\x00\x00Database'
tRp4073
I00
S'http://www.web2py.com/book/default/chapter/06'
p4074
tp4075
a(g3631
(S's\x14\x00\x00\x00Forms and Validators'
tRp4076
I00
S'http://www.web2py.com/book/default/chapter/07'
p4077
tp4078
a(g3631
(S's\r\x00\x00\x00Email and SMS'
tRp4079
I00
S'http://www.web2py.com/book/default/chapter/08'
p4080
tp4081
a(g3631
(S's\x0e\x00\x00\x00Access Control'
tRp4082
I00
S'http://www.web2py.com/book/default/chapter/09'
p4083
tp4084
a(g3631
(S't\x08\x00\x00\x00Services'
tRp4085
I00
S'http://www.web2py.com/book/default/chapter/10'
p4086
tp4087
a(g3631
(S's\x0c\x00\x00\x00Ajax Recipes'
tRp4088
I00
S'http://www.web2py.com/book/default/chapter/11'
p4089
tp4090
a(g3631
(S's\x16\x00\x00\x00Components and Plugins'
tRp4091
I00
S'http://www.web2py.com/book/default/chapter/12'
p4092
tp4093
a(g3631
(S's\x12\x00\x00\x00Deployment Recipes'
tRp4094
I00
S'http://www.web2py.com/book/default/chapter/13'
p4095
tp4096
a(g3631
(S's\r\x00\x00\x00Other Recipes'
tRp4097
I00
S'http://www.web2py.com/book/default/chapter/14'
p4098
tp4099
a(g3631
(S's\r\x00\x00\x00Buy this book'
tRp4100
I00
S'http://stores.lulu.com/web2py'
p4101
tp4102
aasbasbasbasbasbasbasbag57
(g73
g59
NtRp4103
(dp4104
g62
(dp4105
sg71
g3745
sg64
(lp4106
g57
(g78
g59
NtRp4107
(dp4108
g62
(dp4109
sg71
g4103
sg64
(lp4110
g57
(g58
g59
NtRp4111
(dp4112
g62
(dp4113
g70
I2
ssg71
g4107
sg64
(lp4114
g57
(g66
g59
NtRp4115
(dp4116
g62
(dp4117
g70
I1
ssg71
Nsg64
(lp4118
g57
(g73
g59
NtRp4119
(dp4120
g62
(dp4121
sg71
g4115
sg64
(lp4122
g57
(g78
g59
NtRp4123
(dp4124
g62
(dp4125
sg71
g4119
sg64
(lp4126
g57
(g58
g59
NtRp4127
(dp4128
g62
(dp4129
g70
I1
ssg71
g4123
sg64
(lp4130
g3631
(S't\t\x00\x00\x00Community'
tRp4131
asbasbasbag57
(g73
g59
NtRp4132
(dp4133
g62
(dp4134
sg71
g4115
sg64
(lp4135
g57
(g78
g59
NtRp4136
(dp4137
g62
(dp4138
sg71
g4132
sg64
(lp4139
g57
(g58
g59
NtRp4140
(dp4141
g62
(dp4142
g70
I1
ssg71
g4136
sg64
(lp4143
I00
asbasbasbag57
(g73
g59
NtRp4144
(dp4145
g62
(dp4146
sg71
g4115
sg64
(lp4147
g57
(g78
g59
NtRp4148
(dp4149
g62
(dp4150
sg71
g4144
sg64
(lp4151
g57
(g58
g59
NtRp4152
(dp4153
g62
(dp4154
g70
I1
ssg71
g4148
sg64
(lp4155
Nasbasbasbag57
(g73
g59
NtRp4156
(dp4157
g62
(dp4158
sg71
g4115
sg64
(lp4159
g57
(g78
g59
NtRp4160
(dp4161
g62
(dp4162
sg71
g4156
sg64
(lp4163
g57
(g58
g59
NtRp4164
(dp4165
g62
(dp4166
g70
I1
ssg71
g4160
sg64
(lp4167
(lp4168
(g3631
(S't\x06\x00\x00\x00Groups'
tRp4169
I00
S'http://www.web2py.com/examples/default/usergroups'
p4170
tp4171
a(g3631
(S't\x07\x00\x00\x00Twitter'
tRp4172
I00
S'http://twitter.com/web2py'
p4173
tp4174
a(g3631
(S's\t\x00\x00\x00Live Chat'
tRp4175
I00
S'http://webchat.freenode.net/?channels=web2py'
p4176
tp4177
aasbasbasbasbasbasbasbag57
(g73
g59
NtRp4178
(dp4179
g62
(dp4180
sg71
g3745
sg64
(lp4181
g57
(g78
g59
NtRp4182
(dp4183
g62
(dp4184
sg71
g4178
sg64
(lp4185
g57
(g58
g59
NtRp4186
(dp4187
g62
(dp4188
g70
I2
ssg71
g4182
sg64
(lp4189
g57
(g66
g59
NtRp4190
(dp4191
g62
(dp4192
g70
I1
ssg71
Nsg64
(lp4193
g57
(g73
g59
NtRp4194
(dp4195
g62
(dp4196
sg71
g4190
sg64
(lp4197
g57
(g78
g59
NtRp4198
(dp4199
g62
(dp4200
sg71
g4194
sg64
(lp4201
g57
(g58
g59
NtRp4202
(dp4203
g62
(dp4204
g70
I1
ssg71
g4198
sg64
(lp4205
g3631
(S't\x07\x00\x00\x00Plugins'
tRp4206
asbasbasbag57
(g73
g59
NtRp4207
(dp4208
g62
(dp4209
sg71
g4190
sg64
(lp4210
g57
(g78
g59
NtRp4211
(dp4212
g62
(dp4213
sg71
g4207
sg64
(lp4214
g57
(g58
g59
NtRp4215
(dp4216
g62
(dp4217
g70
I1
ssg71
g4211
sg64
(lp4218
I00
asbasbasbag57
(g73
g59
NtRp4219
(dp4220
g62
(dp4221
sg71
g4190
sg64
(lp4222
g57
(g78
g59
NtRp4223
(dp4224
g62
(dp4225
sg71
g4219
sg64
(lp4226
g57
(g58
g59
NtRp4227
(dp4228
g62
(dp4229
g70
I1
ssg71
g4223
sg64
(lp4230
Nasbasbasbag57
(g73
g59
NtRp4231
(dp4232
g62
(dp4233
sg71
g4190
sg64
(lp4234
g57
(g78
g59
NtRp4235
(dp4236
g62
(dp4237
sg71
g4231
sg64
(lp4238
g57
(g58
g59
NtRp4239
(dp4240
g62
(dp4241
g70
I1
ssg71
g4235
sg64
(lp4242
(lp4243
(S'plugin_wiki'
p4244
I00
S'http://web2py.com/examples/default/download'
p4245
tp4246
a(g3631
(S's\r\x00\x00\x00Other Plugins'
tRp4247
I00
g3977
tp4248
a(g3631
(S's\x0e\x00\x00\x00Layout Plugins'
tRp4249
I00
g3980
tp4250
aasbasbasbasbasbasbasbasbasbasbasbasbasbasbasbasbasbasbasbag57
(g73
g59
NtRp4251
(dp4252
g62
(dp4253
sg71
g3075
sg64
(lp4254
g57
(g78
g59
NtRp4255
(dp4256
g62
(dp4257
g82
g83
ssg71
g4251
sg64
(lp4258
S'meta'
p4259
asbag57
(g78
g59
NtRp4260
(dp4261
g62
(dp4262
g89
g90
ssg71
g4251
sg64
(lp4263
S':'
asbag57
(g78
g59
NtRp4264
(dp4265
g62
(dp4266
sg71
g4251
sg64
(lp4267
g57
(g58
g59
NtRp4268
(dp4269
g62
(dp4270
g70
I5
ssg71
g4264
sg64
(lp4271
g57
(g66
g59
NtRp4272
(dp4273
g62
(dp4274
g70
I4
ssg71
Nsg64
(lp4275
g57
(g73
g59
NtRp4276
(dp4277
g62
(dp4278
sg71
g4272
sg64
(lp4279
g57
(g78
g59
NtRp4280
(dp4281
g62
(dp4282
g82
g83
ssg71
g4276
sg64
(lp4283
S'author'
p4284
asbag57
(g78
g59
NtRp4285
(dp4286
g62
(dp4287
g89
g90
ssg71
g4276
sg64
(lp4288
S':'
asbag57
(g78
g59
NtRp4289
(dp4290
g62
(dp4291
sg71
g4276
sg64
(lp4292
g57
(g58
g59
NtRp4293
(dp4294
g62
(dp4295
g70
I4
ssg71
g4289
sg64
(lp4296
S'Your Name <you@example.com>'
p4297
asbasbasbag57
(g73
g59
NtRp4298
(dp4299
g62
(dp4300
sg71
g4272
sg64
(lp4301
g57
(g78
g59
NtRp4302
(dp4303
g62
(dp4304
g82
g83
ssg71
g4298
sg64
(lp4305
S'copyright'
p4306
asbag57
(g78
g59
NtRp4307
(dp4308
g62
(dp4309
g89
g90
ssg71
g4298
sg64
(lp4310
S':'
asbag57
(g78
g59
NtRp4311
(dp4312
g62
(dp4313
sg71
g4298
sg64
(lp4314
g57
(g58
g59
NtRp4315
(dp4316
g62
(dp4317
g70
I4
ssg71
g4311
sg64
(lp4318
S'Copyright 2011'
p4319
asbasbasbag57
(g73
g59
NtRp4320
(dp4321
g62
(dp4322
sg71
g4272
sg64
(lp4323
g57
(g78
g59
NtRp4324
(dp4325
g62
(dp4326
g82
g83
ssg71
g4320
sg64
(lp4327
S'description'
p4328
asbag57
(g78
g59
NtRp4329
(dp4330
g62
(dp4331
g89
g90
ssg71
g4320
sg64
(lp4332
S':'
asbag57
(g78
g59
NtRp4333
(dp4334
g62
(dp4335
sg71
g4320
sg64
(lp4336
g57
(g58
g59
NtRp4337
(dp4338
g62
(dp4339
g70
I4
ssg71
g4333
sg64
(lp4340
S'a cool new app'
p4341
asbasbasbag57
(g73
g59
NtRp4342
(dp4343
g62
(dp4344
sg71
g4272
sg64
(lp4345
g57
(g78
g59
NtRp4346
(dp4347
g62
(dp4348
g82
g83
ssg71
g4342
sg64
(lp4349
S'generator'
p4350
asbag57
(g78
g59
NtRp4351
(dp4352
g62
(dp4353
g89
g90
ssg71
g4342
sg64
(lp4354
S':'
asbag57
(g78
g59
NtRp4355
(dp4356
g62
(dp4357
sg71
g4342
sg64
(lp4358
g57
(g58
g59
NtRp4359
(dp4360
g62
(dp4361
g70
I4
ssg71
g4355
sg64
(lp4362
S'Web2py Web Framework'
p4363
asbasbasbag57
(g73
g59
NtRp4364
(dp4365
g62
(dp4366
sg71
g4272
sg64
(lp4367
g57
(g78
g59
NtRp4368
(dp4369
g62
(dp4370
g82
g83
ssg71
g4364
sg64
(lp4371
S'keywords'
p4372
asbag57
(g78
g59
NtRp4373
(dp4374
g62
(dp4375
g89
g90
ssg71
g4364
sg64
(lp4376
S':'
asbag57
(g78
g59
NtRp4377
(dp4378
g62
(dp4379
sg71
g4364
sg64
(lp4380
g57
(g58
g59
NtRp4381
(dp4382
g62
(dp4383
g70
I4
ssg71
g4377
sg64
(lp4384
S'web2py, python, framework'
p4385
asbasbasbasbasbasbasbag57
(g73
g59
NtRp4386
(dp4387
g62
(dp4388
sg71
g3075
sg64
(lp4389
g57
(g78
g59
NtRp4390
(dp4391
g62
(dp4392
g82
g83
ssg71
g4386
sg64
(lp4393
S'postprocessing'
p4394
asbag57
(g78
g59
NtRp4395
(dp4396
g62
(dp4397
g89
g90
ssg71
g4386
sg64
(lp4398
S':'
asbag57
(g78
g59
NtRp4399
(dp4400
g62
(dp4401
sg71
g4386
sg64
(lp4402
g57
(g58
g59
NtRp4403
(dp4404
g62
(dp4405
g70
I5
ssg71
g4399
sg64
(lp4406
g57
(g66
g59
NtRp4407
(dp4408
g62
(dp4409
g70
I4
ssg71
Nsg64
(lp4410
sbasbasbasbag57
(g73
g59
NtRp4411
(dp4412
g62
(dp4413
sg71
g3075
sg64
(lp4414
g57
(g78
g59
NtRp4415
(dp4416
g62
(dp4417
g82
g83
ssg71
g4411
sg64
(lp4418
S'session_filename'
p4419
asbag57
(g78
g59
NtRp4420
(dp4421
g62
(dp4422
g89
g90
ssg71
g4411
sg64
(lp4423
S':'
asbag57
(g78
g59
NtRp4424
(dp4425
g62
(dp4426
sg71
g4411
sg64
(lp4427
g57
(g58
g59
NtRp4428
(dp4429
g62
(dp4430
g70
I5
ssg71
g4424
sg64
(lp4431
S'D:\\workspace\\CA\\IgoR\\C_Sources\\Server\\igor-assistant-ca-2012\\applications\\igor\\sessions\\127.0.0.1-90f7387d-5345-40d4-9f13-37438a643689'
p4432
asbasbasbag57
(g73
g59
NtRp4433
(dp4434
g62
(dp4435
sg71
g3075
sg64
(lp4436
g57
(g78
g59
NtRp4437
(dp4438
g62
(dp4439
g82
g83
ssg71
g4433
sg64
(lp4440
S'session_id'
p4441
asbag57
(g78
g59
NtRp4442
(dp4443
g62
(dp4444
g89
g90
ssg71
g4433
sg64
(lp4445
S':'
asbag57
(g78
g59
NtRp4446
(dp4447
g62
(dp4448
sg71
g4433
sg64
(lp4449
g57
(g58
g59
NtRp4450
(dp4451
g62
(dp4452
g70
I5
ssg71
g4446
sg64
(lp4453
S'127.0.0.1-90f7387d-5345-40d4-9f13-37438a643689'
p4454
asbasbasbag57
(g73
g59
NtRp4455
(dp4456
g62
(dp4457
sg71
g3075
sg64
(lp4458
g57
(g78
g59
NtRp4459
(dp4460
g62
(dp4461
g82
g83
ssg71
g4455
sg64
(lp4462
S'session_id_name'
p4463
asbag57
(g78
g59
NtRp4464
(dp4465
g62
(dp4466
g89
g90
ssg71
g4455
sg64
(lp4467
S':'
asbag57
(g78
g59
NtRp4468
(dp4469
g62
(dp4470
sg71
g4455
sg64
(lp4471
g57
(g58
g59
NtRp4472
(dp4473
g62
(dp4474
g70
I5
ssg71
g4468
sg64
(lp4475
g3132
asbasbasbag57
(g73
g59
NtRp4476
(dp4477
g62
(dp4478
sg71
g3075
sg64
(lp4479
g57
(g78
g59
NtRp4480
(dp4481
g62
(dp4482
g82
g83
ssg71
g4476
sg64
(lp4483
S'session_new'
p4484
asbag57
(g78
g59
NtRp4485
(dp4486
g62
(dp4487
g89
g90
ssg71
g4476
sg64
(lp4488
S':'
asbag57
(g78
g59
NtRp4489
(dp4490
g62
(dp4491
sg71
g4476
sg64
(lp4492
g57
(g58
g59
NtRp4493
(dp4494
g62
(dp4495
g70
I5
ssg71
g4489
sg64
(lp4496
g1532
asbasbasbag57
(g73
g59
NtRp4497
(dp4498
g62
(dp4499
sg71
g3075
sg64
(lp4500
g57
(g78
g59
NtRp4501
(dp4502
g62
(dp4503
g82
g83
ssg71
g4497
sg64
(lp4504
S'status'
p4505
asbag57
(g78
g59
NtRp4506
(dp4507
g62
(dp4508
g89
g90
ssg71
g4497
sg64
(lp4509
S':'
asbag57
(g78
g59
NtRp4510
(dp4511
g62
(dp4512
sg71
g4497
sg64
(lp4513
g57
(g58
g59
NtRp4514
(dp4515
g62
(dp4516
g70
I5
ssg71
g4510
sg64
(lp4517
S'200'
p4518
asbasbasbag57
(g73
g59
NtRp4519
(dp4520
g62
(dp4521
sg71
g3075
sg64
(lp4522
g57
(g78
g59
NtRp4523
(dp4524
g62
(dp4525
g82
g83
ssg71
g4519
sg64
(lp4526
S'subtitle'
p4527
asbag57
(g78
g59
NtRp4528
(dp4529
g62
(dp4530
g89
g90
ssg71
g4519
sg64
(lp4531
S':'
asbag57
(g78
g59
NtRp4532
(dp4533
g62
(dp4534
sg71
g4519
sg64
(lp4535
g57
(g58
g59
NtRp4536
(dp4537
g62
(dp4538
g70
I5
ssg71
g4532
sg64
(lp4539
g3631
(S's\r\x00\x00\x00customize me!'
tRp4540
asbasbasbag57
(g73
g59
NtRp4541
(dp4542
g62
(dp4543
sg71
g3075
sg64
(lp4544
g57
(g78
g59
NtRp4545
(dp4546
g62
(dp4547
g82
g83
ssg71
g4541
sg64
(lp4548
S'title'
p4549
asbag57
(g78
g59
NtRp4550
(dp4551
g62
(dp4552
g89
g90
ssg71
g4541
sg64
(lp4553
S':'
asbag57
(g78
g59
NtRp4554
(dp4555
g62
(dp4556
sg71
g4541
sg64
(lp4557
g57
(g58
g59
NtRp4558
(dp4559
g62
(dp4560
g70
I5
ssg71
g4554
sg64
(lp4561
S'Igor'
p4562
asbasbasbag57
(g73
g59
NtRp4563
(dp4564
g62
(dp4565
sg71
g3075
sg64
(lp4566
g57
(g78
g59
NtRp4567
(dp4568
g62
(dp4569
g82
g83
ssg71
g4563
sg64
(lp4570
g2230
asbag57
(g78
g59
NtRp4571
(dp4572
g62
(dp4573
g89
g90
ssg71
g4563
sg64
(lp4574
S':'
asbag57
(g78
g59
NtRp4575
(dp4576
g62
(dp4577
sg71
g4563
sg64
(lp4578
g57
(g58
g59
NtRp4579
(dp4580
g62
(dp4581
g70
I5
ssg71
g4575
sg64
(lp4582
g2243
asbasbasbag57
(g73
g59
NtRp4583
(dp4584
g62
(dp4585
sg71
g3075
sg64
(lp4586
g57
(g78
g59
NtRp4587
(dp4588
g62
(dp4589
g82
g83
ssg71
g4583
sg64
(lp4590
S'view'
p4591
asbag57
(g78
g59
NtRp4592
(dp4593
g62
(dp4594
g89
g90
ssg71
g4583
sg64
(lp4595
S':'
asbag57
(g78
g59
NtRp4596
(dp4597
g62
(dp4598
sg71
g4583
sg64
(lp4599
g57
(g58
g59
NtRp4600
(dp4601
g62
(dp4602
g70
I5
ssg71
g4596
sg64
(lp4603
S'subject/call.html'
p4604
asbasbasbasbasbsS'locals'
p4605
(dp4606
S'classes'
p4607
S'0'
sS'term'
p4608
S'20113'
p4609
sS'client_data'
p4610
S'[]'
p4611
sS'subjects'
p4612
S'<gluon.dal.Rows object>'
p4613
sS'subject'
p4614
S"<Row {'subject_code': None, 'name': 'Introduce t...ord': <function <lambda> at 0x0000000005E72208>}>"
p4615
sssS'traceback'
p4616
S'Traceback (most recent call last):\n  File "D:\\workspace\\CA\\IgoR\\C_Sources\\Server\\igor-assistant-ca-2012\\gluon\\restricted.py", line 205, in restricted\n    exec ccode in environment\n  File "D:\\workspace\\CA\\IgoR\\C_Sources\\Server\\igor-assistant-ca-2012\\applications\\igor\\controllers/subject.py", line 81, in <module>\n  File "D:\\workspace\\CA\\IgoR\\C_Sources\\Server\\igor-assistant-ca-2012\\gluon\\globals.py", line 173, in <lambda>\n    self._caller = lambda f: f()\n  File "D:\\workspace\\CA\\IgoR\\C_Sources\\Server\\igor-assistant-ca-2012\\applications\\igor\\controllers/subject.py", line 20, in call\n    return service()\n  File "D:\\workspace\\CA\\IgoR\\C_Sources\\Server\\igor-assistant-ca-2012\\gluon\\tools.py", line 4015, in __call__\n    return self.serve_json(request.args[1:])\n  File "D:\\workspace\\CA\\IgoR\\C_Sources\\Server\\igor-assistant-ca-2012\\gluon\\tools.py", line 3808, in serve_json\n    s = universal_caller(self.json_procedures[args[0]],*args[1:],**d)\n  File "D:\\workspace\\CA\\IgoR\\C_Sources\\Server\\igor-assistant-ca-2012\\gluon\\tools.py", line 3490, in universal_caller\n    return f(**arg_dict)\n  File "D:\\workspace\\CA\\IgoR\\C_Sources\\Server\\igor-assistant-ca-2012\\applications\\igor\\controllers/subject.py", line 30, in get_all_subjects\n    subjects = format_client_data(subjects)\n  File "D:\\workspace\\CA\\IgoR\\C_Sources\\Server\\igor-assistant-ca-2012\\applications\\igor\\controllers/subject.py", line 74, in format_client_data\n    note = note,\nNameError: global name \'note\' is not defined\n'
p4617
s.