(dp1
S'output'
p2
S"<class 'sqlite3.OperationalError'> no such table: class_subject"
p3
sS'layer'
p4
S'D:\\workspace\\CA\\IgoR\\C_Sources\\Server\\igor-assistant-ca-2012\\applications\\igor\\controllers/class_subject.py'
p5
sS'code'
p6
S'# -*- coding: utf-8 -*-\n# this file is released under public domain and you can use without limitations\n\n#########################################################################\n## This is class_subject controller\n## Author: phucnh, tuna\n#########################################################################\n\nfrom message_packager import *\nfrom gluon.dal import Rows\n\n# Get all classes by specific subject\n@request.restful()\ndef get_classes_by_subject():\n\tresponse.view = \'generic.json\'\n\tdef GET(subject_id, term = 0):\n\n\t\t# Validate input \n\t\tif (not subject_id.isdigit()):\n\t\t\treturn MessagePackager.get_packaged_message (\n\t\t\t\tMessageStatus.ERROR, \n\t\t\t\t"subject id must be numberic")\n\n\t\tif (not (str (term)).isdigit()):\n\t\t\treturn MessagePackager.get_packaged_message(\n\t\t\t\tMessageStatus.ERROR,\n\t\t\t\t"term must be numberic")\n\n\t\tif (int (subject_id) < 0):\n\t\t\treturn MessagePackager.get_packaged_message (\n\t\t\t\tMessageStatus.ERROR, \n\t\t\t\t"subject id can not less than 1")\n\n\t\t# Get data\n\t\tif (term == 0):\n\t\t\tterm = get_current_term()\n\n\t\tclasses = db(\n\t\t\tdb.class_subject.subject == subject_id and \n\t\t\tdb.class_subject.term == term).select()\n\n\t\treturn MessagePackager.get_packaged_message(MessageStatus.OK, classes)\n\n\treturn locals()\n\n\n# Get class detail\n@request.restful()\ndef get_class_detail():\n\tresponse.view = \'generic.json\'\n\tdef GET(id):\n\n\t\t# Validate input \n\t\tif (not id.isdigit()):\n\t\t\treturn MessagePackager.get_packaged_message (\n\t\t\t\tMessageStatus.ERROR, \n\t\t\t\t"class id must be numberic")\n\n\t\tif (int (id) < 0):\n\t\t\treturn MessagePackager.get_packaged_message (\n\t\t\t\tMessageStatus.ERROR, \n\t\t\t\t"class id can not less than 1")\n\n\t\t# Get data\n\n\t\tclass_subject = db(db.class_subject.id == id).select()\n\n\t\tclass_subject = format_client_data(class_subject)\n\n\t\treturn MessagePackager.get_packaged_message(MessageStatus.OK, class_subject)\n\n\treturn locals()\n\n# Get all classes of user\n# Input:\n# \tinteger user_id\n# \tinteger term\n@request.restful()\ndef get_classes_by_user():\n\tresponse.view = \'generic.json\'\n\tdef GET(user_id, term = 0):\n\n\t\t# Get data\n\t\tterm = get_current_term()\n\t\tuser_schedulers = db(db.scheduler.owner == user_id).select()\n\t\t\n\t\tclasses = list()\n\n\t\tfor user_scheduler in user_schedulers:\n\t\t\tclasses.append(db(\n\t\t\t\tdb.class_subject.id == user_scheduler.class_subject and\n\t\t\t\tdb.class_subject.term == term))\n\n\t\tclasses = format_client_data(classes)\n\n\t\treturn MessagePackager.get_packaged_message(MessageStatus.OK, classes)\n\n\treturn locals()\n\n@request.restful()\ndef add_class_to_user():\n\tresponse.view = \'generic.json\'\n\tdef GET(class_id, user_id):\n\n\t\t# Validate input\n\t\tif (not class_id.isdigit()):\n\t\t\treturn MessagePackager.get_packaged_message (\n\t\t\t\tMessageStatus.ERROR, \n\t\t\t\t"class id must be numberic")\n\n\t\tif (not user_id.isdigit()):\n\t\t\treturn MessagePackager.get_packaged_message (\n\t\t\t\tMessageStatus.ERROR, \n\t\t\t\t"user id must be numberic")\n\n\t\t# Insert new data\n\t\t# TODO: add class\'s rule\n\n\t\ttry:\n\t\t\tscheduler_id = db.scheduer.insert(\n\t\t\tonwer = user_id,\n\t\t\tclass_subject = class_id,\n\t\t\tterm = get_current_term)\n\t\texcept Exception as e:\n\t\t\treturn MessagePackager.get_packaged_message(MessageStatus.ERROR, e.errno + \': \' + e.strerror )\n\n\t\treturn MessagePackager.get_packaged_message(MessageStatus.OK, scheduler_id)\n\n\treturn locals()\n\n# Format class data to client data\ndef format_client_data(classes):\n\tif (classes == None):\n\t\treturn\n\n\tclient_data = list()\n\n\tfor class_subject in classes:\n\n\t\tsubject = db(db.subject.id == class_subject.subject).select().first()\n\t\tclass_schedulers = db(db.class_scheduler.class_subject == class_subject.id).select()\n\t\t\n\t\tif (subject == None):\n\t\t\tcontinue\n\t\t# print class_schedulers\n\t\tfor class_scheduler in class_schedulers:\n\t\t\t\n\t\t\t# Get session list (integer)\n\t\t\tsessions = get_class_sessions(class_scheduler.period)\n\n\t\t\t# Morning session\n\t\t\tmorning = [session for session in sessions if session <=6]\n\t\t\tafternoon = [session for session in sessions if session >= 7]\n\n\t\t\tif (morning):\n\t\t\t\tclient = class_data_format(\n\t\t\t\t\tclass_subject, class_scheduler,\n\t\t\t\t\tsubject, morning, "Morning")\n\t\t\t\t\n\t\t\t\tclient_data.append(client)\n\n\t\t\tif (afternoon):\n\t\t\t\tclient = class_data_format(\n\t\t\t\t\tclass_subject, class_scheduler,\n\t\t\t\t\tsubject, afternoon, "Afternoon")\n\n\t\t\t\tclient_data.append (client)\n\n\treturn client_data\n\ndef class_data_format(class_subject, class_scheduler ,subject, session, period):\n\tclient = dict(\n\t\tclass_id     = class_subject.id,\n\t\tclass_code   = class_subject.class_code,\n\t\tsubject_name = subject.name,\n\t\tsubject_code = subject.subject_code,\n\t\tnum_of_day   = class_scheduler.day_of_week,\n        #"total_session": "Session 1-2-3",\n        teacher_name = class_subject.teacher,\n        location     = class_subject.location,\n        period = period,\n\t\tsession_start = str(session[0]),\n\t\t)\n\n\treturn client\nresponse._vars=response._caller(get_classes_by_subject)\n'
p7
sS'snapshot'
p8
(dp9
S'exception'
p10
(dp11
S'__module__'
p12
S"'sqlite3'"
p13
sS'__getslice__'
p14
S"<method-wrapper '__getslice__' of OperationalError object>"
p15
sS'__str__'
p16
S"<method-wrapper '__str__' of OperationalError object>"
p17
sS'__reduce__'
p18
S'<built-in method __reduce__ of OperationalError object>'
p19
sS'__dict__'
p20
S'{}'
p21
sS'__sizeof__'
p22
S'<built-in method __sizeof__ of OperationalError object>'
p23
sS'__weakref__'
p24
S'None'
p25
sS'__init__'
p26
S"<method-wrapper '__init__' of OperationalError object>"
p27
sS'__setattr__'
p28
S"<method-wrapper '__setattr__' of OperationalError object>"
p29
sS'__reduce_ex__'
p30
S'<built-in method __reduce_ex__ of OperationalError object>'
p31
sS'__new__'
p32
S'<built-in method __new__ of type object>'
p33
sS'__format__'
p34
S'<built-in method __format__ of OperationalError object>'
p35
sS'__class__'
p36
S"<class 'sqlite3.OperationalError'>"
p37
sS'__doc__'
p38
S'None'
p39
sS'__getitem__'
p40
S"<method-wrapper '__getitem__' of OperationalError object>"
p41
sS'__setstate__'
p42
S'<built-in method __setstate__ of OperationalError object>'
p43
sS'__getattribute__'
p44
S"<method-wrapper '__getattribute__' of OperationalError object>"
p45
sS'args'
p46
S"('no such table: class_subject',)"
p47
sS'__subclasshook__'
p48
S'<built-in method __subclasshook__ of type object>'
p49
sS'__unicode__'
p50
S'<built-in method __unicode__ of OperationalError object>'
p51
sS'__delattr__'
p52
S"<method-wrapper '__delattr__' of OperationalError object>"
p53
sS'__repr__'
p54
S"<method-wrapper '__repr__' of OperationalError object>"
p55
sS'__hash__'
p56
S"<method-wrapper '__hash__' of OperationalError object>"
p57
ssS'evalue'
p58
S'no such table: class_subject'
p59
sS'request'
p60
ccopy_reg
_reconstructor
p61
(cgluon.html
BEAUTIFY
p62
c__builtin__
object
p63
NtRp64
(dp65
S'attributes'
p66
(dp67
sS'components'
p68
(lp69
g61
(cgluon.html
TABLE
p70
g63
NtRp71
(dp72
g66
(dp73
S'level'
p74
I5
ssS'parent'
p75
Nsg68
(lp76
g61
(cgluon.html
TR
p77
g63
NtRp78
(dp79
g66
(dp80
sg75
g71
sg68
(lp81
g61
(cgluon.html
TD
p82
g63
NtRp83
(dp84
g66
(dp85
S'_style'
p86
S'font-weight:bold;vertical-align:top'
p87
ssg75
g78
sg68
(lp88
S'ajax'
p89
asbag61
(g82
g63
NtRp90
(dp91
g66
(dp92
S'_valign'
p93
S'top'
p94
ssg75
g78
sg68
(lp95
S':'
asbag61
(g82
g63
NtRp96
(dp97
g66
(dp98
sg75
g78
sg68
(lp99
g61
(g62
g63
NtRp100
(dp101
g66
(dp102
g74
I5
ssg75
g96
sg68
(lp103
S'False'
p104
asbasbasbag61
(g77
g63
NtRp105
(dp106
g66
(dp107
sg75
g71
sg68
(lp108
g61
(g82
g63
NtRp109
(dp110
g66
(dp111
g86
g87
ssg75
g105
sg68
(lp112
S'application'
p113
asbag61
(g82
g63
NtRp114
(dp115
g66
(dp116
g93
g94
ssg75
g105
sg68
(lp117
S':'
asbag61
(g82
g63
NtRp118
(dp119
g66
(dp120
sg75
g105
sg68
(lp121
g61
(g62
g63
NtRp122
(dp123
g66
(dp124
g74
I5
ssg75
g118
sg68
(lp125
S'igor'
p126
asbasbasbag61
(g77
g63
NtRp127
(dp128
g66
(dp129
sg75
g71
sg68
(lp130
g61
(g82
g63
NtRp131
(dp132
g66
(dp133
g86
g87
ssg75
g127
sg68
(lp134
g46
asbag61
(g82
g63
NtRp135
(dp136
g66
(dp137
g93
g94
ssg75
g127
sg68
(lp138
S':'
asbag61
(g82
g63
NtRp139
(dp140
g66
(dp141
sg75
g127
sg68
(lp142
g61
(g62
g63
NtRp143
(dp144
g66
(dp145
g74
I5
ssg75
g139
sg68
(lp146
g61
(g70
g63
NtRp147
(dp148
g66
(dp149
g74
I4
ssg75
Nsg68
(lp150
g61
(g77
g63
NtRp151
(dp152
g66
(dp153
sg75
g147
sg68
(lp154
g61
(g82
g63
NtRp155
(dp156
g66
(dp157
sg75
g151
sg68
(lp158
g61
(g62
g63
NtRp159
(dp160
g66
(dp161
g74
I4
ssg75
g155
sg68
(lp162
S'8'
asbasbasbasbasbasbasbag61
(g77
g63
NtRp163
(dp164
g66
(dp165
sg75
g71
sg68
(lp166
g61
(g82
g63
NtRp167
(dp168
g66
(dp169
g86
g87
ssg75
g163
sg68
(lp170
S'body'
p171
asbag61
(g82
g63
NtRp172
(dp173
g66
(dp174
g93
g94
ssg75
g163
sg68
(lp175
S':'
asbag61
(g82
g63
NtRp176
(dp177
g66
(dp178
sg75
g163
sg68
(lp179
g61
(g62
g63
NtRp180
(dp181
g66
(dp182
g74
I5
ssg75
g176
sg68
(lp183
S'<cStringIO.StringO object at 0x00000000045349D0>'
p184
asbasbasbag61
(g77
g63
NtRp185
(dp186
g66
(dp187
sg75
g71
sg68
(lp188
g61
(g82
g63
NtRp189
(dp190
g66
(dp191
g86
g87
ssg75
g185
sg68
(lp192
S'client'
p193
asbag61
(g82
g63
NtRp194
(dp195
g66
(dp196
g93
g94
ssg75
g185
sg68
(lp197
S':'
asbag61
(g82
g63
NtRp198
(dp199
g66
(dp200
sg75
g185
sg68
(lp201
g61
(g62
g63
NtRp202
(dp203
g66
(dp204
g74
I5
ssg75
g198
sg68
(lp205
S'127.0.0.1'
p206
asbasbasbag61
(g77
g63
NtRp207
(dp208
g66
(dp209
sg75
g71
sg68
(lp210
g61
(g82
g63
NtRp211
(dp212
g66
(dp213
g86
g87
ssg75
g207
sg68
(lp214
S'controller'
p215
asbag61
(g82
g63
NtRp216
(dp217
g66
(dp218
g93
g94
ssg75
g207
sg68
(lp219
S':'
asbag61
(g82
g63
NtRp220
(dp221
g66
(dp222
sg75
g207
sg68
(lp223
g61
(g62
g63
NtRp224
(dp225
g66
(dp226
g74
I5
ssg75
g220
sg68
(lp227
S'class_subject'
p228
asbasbasbag61
(g77
g63
NtRp229
(dp230
g66
(dp231
sg75
g71
sg68
(lp232
g61
(g82
g63
NtRp233
(dp234
g66
(dp235
g86
g87
ssg75
g229
sg68
(lp236
S'cookies'
p237
asbag61
(g82
g63
NtRp238
(dp239
g66
(dp240
g93
g94
ssg75
g229
sg68
(lp241
S':'
asbag61
(g82
g63
NtRp242
(dp243
g66
(dp244
sg75
g229
sg68
(lp245
g61
(g62
g63
NtRp246
(dp247
g66
(dp248
g74
I5
ssg75
g242
sg68
(lp249
g61
(g70
g63
NtRp250
(dp251
g66
(dp252
g74
I4
ssg75
Nsg68
(lp253
g61
(g77
g63
NtRp254
(dp255
g66
(dp256
sg75
g250
sg68
(lp257
g61
(g82
g63
NtRp258
(dp259
g66
(dp260
g86
g87
ssg75
g254
sg68
(lp261
S'session_id_admin'
p262
asbag61
(g82
g63
NtRp263
(dp264
g66
(dp265
g93
g94
ssg75
g254
sg68
(lp266
S':'
asbag61
(g82
g63
NtRp267
(dp268
g66
(dp269
sg75
g254
sg68
(lp270
g61
(g62
g63
NtRp271
(dp272
g66
(dp273
g74
I4
ssg75
g267
sg68
(lp274
g61
(g70
g63
NtRp275
(dp276
g66
(dp277
g74
I3
ssg75
Nsg68
(lp278
g61
(g77
g63
NtRp279
(dp280
g66
(dp281
sg75
g275
sg68
(lp282
g61
(g82
g63
NtRp283
(dp284
g66
(dp285
g86
g87
ssg75
g279
sg68
(lp286
S'comment'
p287
asbag61
(g82
g63
NtRp288
(dp289
g66
(dp290
g93
g94
ssg75
g279
sg68
(lp291
S':'
asbag61
(g82
g63
NtRp292
(dp293
g66
(dp294
sg75
g279
sg68
(lp295
g61
(g62
g63
NtRp296
(dp297
g66
(dp298
g74
I3
ssg75
g292
sg68
(lp299
S''
asbasbasbag61
(g77
g63
NtRp300
(dp301
g66
(dp302
sg75
g275
sg68
(lp303
g61
(g82
g63
NtRp304
(dp305
g66
(dp306
g86
g87
ssg75
g300
sg68
(lp307
S'domain'
p308
asbag61
(g82
g63
NtRp309
(dp310
g66
(dp311
g93
g94
ssg75
g300
sg68
(lp312
S':'
asbag61
(g82
g63
NtRp313
(dp314
g66
(dp315
sg75
g300
sg68
(lp316
g61
(g62
g63
NtRp317
(dp318
g66
(dp319
g74
I3
ssg75
g313
sg68
(lp320
S''
asbasbasbag61
(g77
g63
NtRp321
(dp322
g66
(dp323
sg75
g275
sg68
(lp324
g61
(g82
g63
NtRp325
(dp326
g66
(dp327
g86
g87
ssg75
g321
sg68
(lp328
S'expires'
p329
asbag61
(g82
g63
NtRp330
(dp331
g66
(dp332
g93
g94
ssg75
g321
sg68
(lp333
S':'
asbag61
(g82
g63
NtRp334
(dp335
g66
(dp336
sg75
g321
sg68
(lp337
g61
(g62
g63
NtRp338
(dp339
g66
(dp340
g74
I3
ssg75
g334
sg68
(lp341
S''
asbasbasbag61
(g77
g63
NtRp342
(dp343
g66
(dp344
sg75
g275
sg68
(lp345
g61
(g82
g63
NtRp346
(dp347
g66
(dp348
g86
g87
ssg75
g342
sg68
(lp349
S'httponly'
p350
asbag61
(g82
g63
NtRp351
(dp352
g66
(dp353
g93
g94
ssg75
g342
sg68
(lp354
S':'
asbag61
(g82
g63
NtRp355
(dp356
g66
(dp357
sg75
g342
sg68
(lp358
g61
(g62
g63
NtRp359
(dp360
g66
(dp361
g74
I3
ssg75
g355
sg68
(lp362
S''
asbasbasbag61
(g77
g63
NtRp363
(dp364
g66
(dp365
sg75
g275
sg68
(lp366
g61
(g82
g63
NtRp367
(dp368
g66
(dp369
g86
g87
ssg75
g363
sg68
(lp370
S'max-age'
p371
asbag61
(g82
g63
NtRp372
(dp373
g66
(dp374
g93
g94
ssg75
g363
sg68
(lp375
S':'
asbag61
(g82
g63
NtRp376
(dp377
g66
(dp378
sg75
g363
sg68
(lp379
g61
(g62
g63
NtRp380
(dp381
g66
(dp382
g74
I3
ssg75
g376
sg68
(lp383
S''
asbasbasbag61
(g77
g63
NtRp384
(dp385
g66
(dp386
sg75
g275
sg68
(lp387
g61
(g82
g63
NtRp388
(dp389
g66
(dp390
g86
g87
ssg75
g384
sg68
(lp391
S'path'
p392
asbag61
(g82
g63
NtRp393
(dp394
g66
(dp395
g93
g94
ssg75
g384
sg68
(lp396
S':'
asbag61
(g82
g63
NtRp397
(dp398
g66
(dp399
sg75
g384
sg68
(lp400
g61
(g62
g63
NtRp401
(dp402
g66
(dp403
g74
I3
ssg75
g397
sg68
(lp404
S''
asbasbasbag61
(g77
g63
NtRp405
(dp406
g66
(dp407
sg75
g275
sg68
(lp408
g61
(g82
g63
NtRp409
(dp410
g66
(dp411
g86
g87
ssg75
g405
sg68
(lp412
S'secure'
p413
asbag61
(g82
g63
NtRp414
(dp415
g66
(dp416
g93
g94
ssg75
g405
sg68
(lp417
S':'
asbag61
(g82
g63
NtRp418
(dp419
g66
(dp420
sg75
g405
sg68
(lp421
g61
(g62
g63
NtRp422
(dp423
g66
(dp424
g74
I3
ssg75
g418
sg68
(lp425
S''
asbasbasbag61
(g77
g63
NtRp426
(dp427
g66
(dp428
sg75
g275
sg68
(lp429
g61
(g82
g63
NtRp430
(dp431
g66
(dp432
g86
g87
ssg75
g426
sg68
(lp433
S'version'
p434
asbag61
(g82
g63
NtRp435
(dp436
g66
(dp437
g93
g94
ssg75
g426
sg68
(lp438
S':'
asbag61
(g82
g63
NtRp439
(dp440
g66
(dp441
sg75
g426
sg68
(lp442
g61
(g62
g63
NtRp443
(dp444
g66
(dp445
g74
I3
ssg75
g439
sg68
(lp446
S''
asbasbasbasbasbasbasbag61
(g77
g63
NtRp447
(dp448
g66
(dp449
sg75
g250
sg68
(lp450
g61
(g82
g63
NtRp451
(dp452
g66
(dp453
g86
g87
ssg75
g447
sg68
(lp454
S'session_id_welcome'
p455
asbag61
(g82
g63
NtRp456
(dp457
g66
(dp458
g93
g94
ssg75
g447
sg68
(lp459
S':'
asbag61
(g82
g63
NtRp460
(dp461
g66
(dp462
sg75
g447
sg68
(lp463
g61
(g62
g63
NtRp464
(dp465
g66
(dp466
g74
I4
ssg75
g460
sg68
(lp467
g61
(g70
g63
NtRp468
(dp469
g66
(dp470
g74
I3
ssg75
Nsg68
(lp471
g61
(g77
g63
NtRp472
(dp473
g66
(dp474
sg75
g468
sg68
(lp475
g61
(g82
g63
NtRp476
(dp477
g66
(dp478
g86
g87
ssg75
g472
sg68
(lp479
g287
asbag61
(g82
g63
NtRp480
(dp481
g66
(dp482
g93
g94
ssg75
g472
sg68
(lp483
S':'
asbag61
(g82
g63
NtRp484
(dp485
g66
(dp486
sg75
g472
sg68
(lp487
g61
(g62
g63
NtRp488
(dp489
g66
(dp490
g74
I3
ssg75
g484
sg68
(lp491
S''
asbasbasbag61
(g77
g63
NtRp492
(dp493
g66
(dp494
sg75
g468
sg68
(lp495
g61
(g82
g63
NtRp496
(dp497
g66
(dp498
g86
g87
ssg75
g492
sg68
(lp499
g308
asbag61
(g82
g63
NtRp500
(dp501
g66
(dp502
g93
g94
ssg75
g492
sg68
(lp503
S':'
asbag61
(g82
g63
NtRp504
(dp505
g66
(dp506
sg75
g492
sg68
(lp507
g61
(g62
g63
NtRp508
(dp509
g66
(dp510
g74
I3
ssg75
g504
sg68
(lp511
S''
asbasbasbag61
(g77
g63
NtRp512
(dp513
g66
(dp514
sg75
g468
sg68
(lp515
g61
(g82
g63
NtRp516
(dp517
g66
(dp518
g86
g87
ssg75
g512
sg68
(lp519
g329
asbag61
(g82
g63
NtRp520
(dp521
g66
(dp522
g93
g94
ssg75
g512
sg68
(lp523
S':'
asbag61
(g82
g63
NtRp524
(dp525
g66
(dp526
sg75
g512
sg68
(lp527
g61
(g62
g63
NtRp528
(dp529
g66
(dp530
g74
I3
ssg75
g524
sg68
(lp531
S''
asbasbasbag61
(g77
g63
NtRp532
(dp533
g66
(dp534
sg75
g468
sg68
(lp535
g61
(g82
g63
NtRp536
(dp537
g66
(dp538
g86
g87
ssg75
g532
sg68
(lp539
g350
asbag61
(g82
g63
NtRp540
(dp541
g66
(dp542
g93
g94
ssg75
g532
sg68
(lp543
S':'
asbag61
(g82
g63
NtRp544
(dp545
g66
(dp546
sg75
g532
sg68
(lp547
g61
(g62
g63
NtRp548
(dp549
g66
(dp550
g74
I3
ssg75
g544
sg68
(lp551
S''
asbasbasbag61
(g77
g63
NtRp552
(dp553
g66
(dp554
sg75
g468
sg68
(lp555
g61
(g82
g63
NtRp556
(dp557
g66
(dp558
g86
g87
ssg75
g552
sg68
(lp559
g371
asbag61
(g82
g63
NtRp560
(dp561
g66
(dp562
g93
g94
ssg75
g552
sg68
(lp563
S':'
asbag61
(g82
g63
NtRp564
(dp565
g66
(dp566
sg75
g552
sg68
(lp567
g61
(g62
g63
NtRp568
(dp569
g66
(dp570
g74
I3
ssg75
g564
sg68
(lp571
S''
asbasbasbag61
(g77
g63
NtRp572
(dp573
g66
(dp574
sg75
g468
sg68
(lp575
g61
(g82
g63
NtRp576
(dp577
g66
(dp578
g86
g87
ssg75
g572
sg68
(lp579
g392
asbag61
(g82
g63
NtRp580
(dp581
g66
(dp582
g93
g94
ssg75
g572
sg68
(lp583
S':'
asbag61
(g82
g63
NtRp584
(dp585
g66
(dp586
sg75
g572
sg68
(lp587
g61
(g62
g63
NtRp588
(dp589
g66
(dp590
g74
I3
ssg75
g584
sg68
(lp591
S''
asbasbasbag61
(g77
g63
NtRp592
(dp593
g66
(dp594
sg75
g468
sg68
(lp595
g61
(g82
g63
NtRp596
(dp597
g66
(dp598
g86
g87
ssg75
g592
sg68
(lp599
g413
asbag61
(g82
g63
NtRp600
(dp601
g66
(dp602
g93
g94
ssg75
g592
sg68
(lp603
S':'
asbag61
(g82
g63
NtRp604
(dp605
g66
(dp606
sg75
g592
sg68
(lp607
g61
(g62
g63
NtRp608
(dp609
g66
(dp610
g74
I3
ssg75
g604
sg68
(lp611
S''
asbasbasbag61
(g77
g63
NtRp612
(dp613
g66
(dp614
sg75
g468
sg68
(lp615
g61
(g82
g63
NtRp616
(dp617
g66
(dp618
g86
g87
ssg75
g612
sg68
(lp619
g434
asbag61
(g82
g63
NtRp620
(dp621
g66
(dp622
g93
g94
ssg75
g612
sg68
(lp623
S':'
asbag61
(g82
g63
NtRp624
(dp625
g66
(dp626
sg75
g612
sg68
(lp627
g61
(g62
g63
NtRp628
(dp629
g66
(dp630
g74
I3
ssg75
g624
sg68
(lp631
S''
asbasbasbasbasbasbasbasbasbasbasbag61
(g77
g63
NtRp632
(dp633
g66
(dp634
sg75
g71
sg68
(lp635
g61
(g82
g63
NtRp636
(dp637
g66
(dp638
g86
g87
ssg75
g632
sg68
(lp639
S'env'
p640
asbag61
(g82
g63
NtRp641
(dp642
g66
(dp643
g93
g94
ssg75
g632
sg68
(lp644
S':'
asbag61
(g82
g63
NtRp645
(dp646
g66
(dp647
sg75
g632
sg68
(lp648
g61
(g62
g63
NtRp649
(dp650
g66
(dp651
g74
I5
ssg75
g645
sg68
(lp652
g61
(g70
g63
NtRp653
(dp654
g66
(dp655
g74
I4
ssg75
Nsg68
(lp656
g61
(g77
g63
NtRp657
(dp658
g66
(dp659
sg75
g653
sg68
(lp660
g61
(g82
g63
NtRp661
(dp662
g66
(dp663
g86
g87
ssg75
g657
sg68
(lp664
S'app_folders'
p665
asbag61
(g82
g63
NtRp666
(dp667
g66
(dp668
g93
g94
ssg75
g657
sg68
(lp669
S':'
asbag61
(g82
g63
NtRp670
(dp671
g66
(dp672
sg75
g657
sg68
(lp673
g61
(g62
g63
NtRp674
(dp675
g66
(dp676
g74
I4
ssg75
g670
sg68
(lp677
S"set(['D:\\\\workspace\\\\CA\\\\IgoR\\\\C_Sources\\\\Server\\\\igor-assistant-ca-2012\\\\applications\\\\admin\\\\', 'D:\\\\workspace\\\\CA\\\\IgoR\\\\C_Sources\\\\Server\\\\igor-assistant-ca-2012\\\\applications\\\\igor\\\\', 'D:\\\\workspace\\\\CA\\\\IgoR\\\\C_Sources\\\\Server\\\\igor-assistant-ca-2012\\\\applications\\\\welcome\\\\'])"
p678
asbasbasbag61
(g77
g63
NtRp679
(dp680
g66
(dp681
sg75
g653
sg68
(lp682
g61
(g82
g63
NtRp683
(dp684
g66
(dp685
g86
g87
ssg75
g679
sg68
(lp686
S'applications_parent'
p687
asbag61
(g82
g63
NtRp688
(dp689
g66
(dp690
g93
g94
ssg75
g679
sg68
(lp691
S':'
asbag61
(g82
g63
NtRp692
(dp693
g66
(dp694
sg75
g679
sg68
(lp695
g61
(g62
g63
NtRp696
(dp697
g66
(dp698
g74
I4
ssg75
g692
sg68
(lp699
S'D:\\workspace\\CA\\IgoR\\C_Sources\\Server\\igor-assistant-ca-2012'
p700
asbasbasbag61
(g77
g63
NtRp701
(dp702
g66
(dp703
sg75
g653
sg68
(lp704
g61
(g82
g63
NtRp705
(dp706
g66
(dp707
g86
g87
ssg75
g701
sg68
(lp708
S'cmd_args'
p709
asbag61
(g82
g63
NtRp710
(dp711
g66
(dp712
g93
g94
ssg75
g701
sg68
(lp713
S':'
asbag61
(g82
g63
NtRp714
(dp715
g66
(dp716
sg75
g701
sg68
(lp717
g61
(g62
g63
NtRp718
(dp719
g66
(dp720
g74
I4
ssg75
g714
sg68
(lp721
g61
(g70
g63
NtRp722
(dp723
g66
(dp724
g74
I3
ssg75
Nsg68
(lp725
g61
(g77
g63
NtRp726
(dp727
g66
(dp728
sg75
g722
sg68
(lp729
g61
(g82
g63
NtRp730
(dp731
g66
(dp732
sg75
g726
sg68
(lp733
g61
(g62
g63
NtRp734
(dp735
g66
(dp736
g74
I3
ssg75
g730
sg68
(lp737
S'startserver'
p738
asbasbasbasbasbasbasbag61
(g77
g63
NtRp739
(dp740
g66
(dp741
sg75
g653
sg68
(lp742
g61
(g82
g63
NtRp743
(dp744
g66
(dp745
g86
g87
ssg75
g739
sg68
(lp746
S'cmd_options'
p747
asbag61
(g82
g63
NtRp748
(dp749
g66
(dp750
g93
g94
ssg75
g739
sg68
(lp751
S':'
asbag61
(g82
g63
NtRp752
(dp753
g66
(dp754
sg75
g739
sg68
(lp755
g61
(g62
g63
NtRp756
(dp757
g66
(dp758
g74
I4
ssg75
g752
sg68
(lp759
S"<Values at 0x373e348: {'verbose': False, 'ip': '127.0.0.1', 'shutdown_timeout': 5, 'taskbar': False, 'nocron': False, 'pid_filename': 'httpserver.pid', 'maxthreads': None, 'softcron': False, 'server_name': 'PHUCNH-PC', 'bpython': False, 'nogui': False, 'port': 8000, 'extcron': False, 'debuglevel': 30, 'test': None, 'folder': 'D:\\\\workspace\\\\CA\\\\IgoR\\\\C_Sources\\\\Server\\\\igor-assistant-ca-2012', 'config': '', 'import_models': False, 'winservice': '', 'shell': None, 'run': '', 'log_filename': 'httpserver.log', 'args': [''], 'socket_timeout': 5, 'ssl_ca_certificate': None, 'scheduler': None, 'profiler_filename': None, 'ssl_private_key': '', 'password': '<ask>', 'request_queue_size': 5, 'ssl_certificate': '', 'cronjob': False, 'numthreads': None, 'quiet': False, 'interfaces': None, 'minthreads': None, 'timeout': 10, 'plain': False, 'nobanner': False}>"
p760
asbasbasbag61
(g77
g63
NtRp761
(dp762
g66
(dp763
sg75
g653
sg68
(lp764
g61
(g82
g63
NtRp765
(dp766
g66
(dp767
g86
g87
ssg75
g761
sg68
(lp768
S'db_sessions'
p769
asbag61
(g82
g63
NtRp770
(dp771
g66
(dp772
g93
g94
ssg75
g761
sg68
(lp773
S':'
asbag61
(g82
g63
NtRp774
(dp775
g66
(dp776
sg75
g761
sg68
(lp777
g61
(g62
g63
NtRp778
(dp779
g66
(dp780
g74
I4
ssg75
g774
sg68
(lp781
S'set([])'
p782
asbasbasbag61
(g77
g63
NtRp783
(dp784
g66
(dp785
sg75
g653
sg68
(lp786
g61
(g82
g63
NtRp787
(dp788
g66
(dp789
g86
g87
ssg75
g783
sg68
(lp790
S'debugging'
p791
asbag61
(g82
g63
NtRp792
(dp793
g66
(dp794
g93
g94
ssg75
g783
sg68
(lp795
S':'
asbag61
(g82
g63
NtRp796
(dp797
g66
(dp798
sg75
g783
sg68
(lp799
g61
(g62
g63
NtRp800
(dp801
g66
(dp802
g74
I4
ssg75
g796
sg68
(lp803
g104
asbasbasbag61
(g77
g63
NtRp804
(dp805
g66
(dp806
sg75
g653
sg68
(lp807
g61
(g82
g63
NtRp808
(dp809
g66
(dp810
g86
g87
ssg75
g804
sg68
(lp811
S'gluon_parent'
p812
asbag61
(g82
g63
NtRp813
(dp814
g66
(dp815
g93
g94
ssg75
g804
sg68
(lp816
S':'
asbag61
(g82
g63
NtRp817
(dp818
g66
(dp819
sg75
g804
sg68
(lp820
g61
(g62
g63
NtRp821
(dp822
g66
(dp823
g74
I4
ssg75
g817
sg68
(lp824
S'D:\\workspace\\CA\\IgoR\\C_Sources\\Server\\igor-assistant-ca-2012'
p825
asbasbasbag61
(g77
g63
NtRp826
(dp827
g66
(dp828
sg75
g653
sg68
(lp829
g61
(g82
g63
NtRp830
(dp831
g66
(dp832
g86
g87
ssg75
g826
sg68
(lp833
S'http_accept'
p834
asbag61
(g82
g63
NtRp835
(dp836
g66
(dp837
g93
g94
ssg75
g826
sg68
(lp838
S':'
asbag61
(g82
g63
NtRp839
(dp840
g66
(dp841
sg75
g826
sg68
(lp842
g61
(g62
g63
NtRp843
(dp844
g66
(dp845
g74
I4
ssg75
g839
sg68
(lp846
S'text/html,application/xhtml+xml,application/xml;q=0.9,*/*;q=0.8'
p847
asbasbasbag61
(g77
g63
NtRp848
(dp849
g66
(dp850
sg75
g653
sg68
(lp851
g61
(g82
g63
NtRp852
(dp853
g66
(dp854
g86
g87
ssg75
g848
sg68
(lp855
S'http_accept_charset'
p856
asbag61
(g82
g63
NtRp857
(dp858
g66
(dp859
g93
g94
ssg75
g848
sg68
(lp860
S':'
asbag61
(g82
g63
NtRp861
(dp862
g66
(dp863
sg75
g848
sg68
(lp864
g61
(g62
g63
NtRp865
(dp866
g66
(dp867
g74
I4
ssg75
g861
sg68
(lp868
S'UTF-8,*;q=0.5'
p869
asbasbasbag61
(g77
g63
NtRp870
(dp871
g66
(dp872
sg75
g653
sg68
(lp873
g61
(g82
g63
NtRp874
(dp875
g66
(dp876
g86
g87
ssg75
g870
sg68
(lp877
S'http_accept_encoding'
p878
asbag61
(g82
g63
NtRp879
(dp880
g66
(dp881
g93
g94
ssg75
g870
sg68
(lp882
S':'
asbag61
(g82
g63
NtRp883
(dp884
g66
(dp885
sg75
g870
sg68
(lp886
g61
(g62
g63
NtRp887
(dp888
g66
(dp889
g74
I4
ssg75
g883
sg68
(lp890
S'gzip,deflate,sdch'
p891
asbasbasbag61
(g77
g63
NtRp892
(dp893
g66
(dp894
sg75
g653
sg68
(lp895
g61
(g82
g63
NtRp896
(dp897
g66
(dp898
g86
g87
ssg75
g892
sg68
(lp899
S'http_accept_language'
p900
asbag61
(g82
g63
NtRp901
(dp902
g66
(dp903
g93
g94
ssg75
g892
sg68
(lp904
S':'
asbag61
(g82
g63
NtRp905
(dp906
g66
(dp907
sg75
g892
sg68
(lp908
g61
(g62
g63
NtRp909
(dp910
g66
(dp911
g74
I4
ssg75
g905
sg68
(lp912
S'en-US,en;q=0.8,vi;q=0.6,fr-FR;q=0.4,fr;q=0.2'
p913
asbasbasbag61
(g77
g63
NtRp914
(dp915
g66
(dp916
sg75
g653
sg68
(lp917
g61
(g82
g63
NtRp918
(dp919
g66
(dp920
g86
g87
ssg75
g914
sg68
(lp921
S'http_cache_control'
p922
asbag61
(g82
g63
NtRp923
(dp924
g66
(dp925
g93
g94
ssg75
g914
sg68
(lp926
S':'
asbag61
(g82
g63
NtRp927
(dp928
g66
(dp929
sg75
g914
sg68
(lp930
g61
(g62
g63
NtRp931
(dp932
g66
(dp933
g74
I4
ssg75
g927
sg68
(lp934
S'max-age=0'
p935
asbasbasbag61
(g77
g63
NtRp936
(dp937
g66
(dp938
sg75
g653
sg68
(lp939
g61
(g82
g63
NtRp940
(dp941
g66
(dp942
g86
g87
ssg75
g936
sg68
(lp943
S'http_connection'
p944
asbag61
(g82
g63
NtRp945
(dp946
g66
(dp947
g93
g94
ssg75
g936
sg68
(lp948
S':'
asbag61
(g82
g63
NtRp949
(dp950
g66
(dp951
sg75
g936
sg68
(lp952
g61
(g62
g63
NtRp953
(dp954
g66
(dp955
g74
I4
ssg75
g949
sg68
(lp956
S'keep-alive'
p957
asbasbasbag61
(g77
g63
NtRp958
(dp959
g66
(dp960
sg75
g653
sg68
(lp961
g61
(g82
g63
NtRp962
(dp963
g66
(dp964
g86
g87
ssg75
g958
sg68
(lp965
S'http_cookie'
p966
asbag61
(g82
g63
NtRp967
(dp968
g66
(dp969
g93
g94
ssg75
g958
sg68
(lp970
S':'
asbag61
(g82
g63
NtRp971
(dp972
g66
(dp973
sg75
g958
sg68
(lp974
g61
(g62
g63
NtRp975
(dp976
g66
(dp977
g74
I4
ssg75
g971
sg68
(lp978
S'session_id_welcome=127.0.0.1-2915a9a4-897c-4f4d-bd9f-0654f620dff9; session_id_admin=127.0.0.1-f8834ed0-c562-4467-9c85-5433880ff6d2'
p979
asbasbasbag61
(g77
g63
NtRp980
(dp981
g66
(dp982
sg75
g653
sg68
(lp983
g61
(g82
g63
NtRp984
(dp985
g66
(dp986
g86
g87
ssg75
g980
sg68
(lp987
S'http_host'
p988
asbag61
(g82
g63
NtRp989
(dp990
g66
(dp991
g93
g94
ssg75
g980
sg68
(lp992
S':'
asbag61
(g82
g63
NtRp993
(dp994
g66
(dp995
sg75
g980
sg68
(lp996
g61
(g62
g63
NtRp997
(dp998
g66
(dp999
g74
I4
ssg75
g993
sg68
(lp1000
S'127.0.0.1:8000'
p1001
asbasbasbag61
(g77
g63
NtRp1002
(dp1003
g66
(dp1004
sg75
g653
sg68
(lp1005
g61
(g82
g63
NtRp1006
(dp1007
g66
(dp1008
g86
g87
ssg75
g1002
sg68
(lp1009
S'http_user_agent'
p1010
asbag61
(g82
g63
NtRp1011
(dp1012
g66
(dp1013
g93
g94
ssg75
g1002
sg68
(lp1014
S':'
asbag61
(g82
g63
NtRp1015
(dp1016
g66
(dp1017
sg75
g1002
sg68
(lp1018
g61
(g62
g63
NtRp1019
(dp1020
g66
(dp1021
g74
I4
ssg75
g1015
sg68
(lp1022
S'Mozilla/5.0 (Windows NT 6.1; WOW64) AppleWebKit/536.11 (KHTML, like Gecko) Chrome/20.0.1132.57 Safari/536.11'
p1023
asbasbasbag61
(g77
g63
NtRp1024
(dp1025
g66
(dp1026
sg75
g653
sg68
(lp1027
g61
(g82
g63
NtRp1028
(dp1029
g66
(dp1030
g86
g87
ssg75
g1024
sg68
(lp1031
S'is_jython'
p1032
asbag61
(g82
g63
NtRp1033
(dp1034
g66
(dp1035
g93
g94
ssg75
g1024
sg68
(lp1036
S':'
asbag61
(g82
g63
NtRp1037
(dp1038
g66
(dp1039
sg75
g1024
sg68
(lp1040
g61
(g62
g63
NtRp1041
(dp1042
g66
(dp1043
g74
I4
ssg75
g1037
sg68
(lp1044
g104
asbasbasbag61
(g77
g63
NtRp1045
(dp1046
g66
(dp1047
sg75
g653
sg68
(lp1048
g61
(g82
g63
NtRp1049
(dp1050
g66
(dp1051
g86
g87
ssg75
g1045
sg68
(lp1052
S'is_pypy'
p1053
asbag61
(g82
g63
NtRp1054
(dp1055
g66
(dp1056
g93
g94
ssg75
g1045
sg68
(lp1057
S':'
asbag61
(g82
g63
NtRp1058
(dp1059
g66
(dp1060
sg75
g1045
sg68
(lp1061
g61
(g62
g63
NtRp1062
(dp1063
g66
(dp1064
g74
I4
ssg75
g1058
sg68
(lp1065
g104
asbasbasbag61
(g77
g63
NtRp1066
(dp1067
g66
(dp1068
sg75
g653
sg68
(lp1069
g61
(g82
g63
NtRp1070
(dp1071
g66
(dp1072
g86
g87
ssg75
g1066
sg68
(lp1073
S'path_info'
p1074
asbag61
(g82
g63
NtRp1075
(dp1076
g66
(dp1077
g93
g94
ssg75
g1066
sg68
(lp1078
S':'
asbag61
(g82
g63
NtRp1079
(dp1080
g66
(dp1081
sg75
g1066
sg68
(lp1082
g61
(g62
g63
NtRp1083
(dp1084
g66
(dp1085
g74
I4
ssg75
g1079
sg68
(lp1086
S'/igor/class_subject/get_classes_by_subject/8'
p1087
asbasbasbag61
(g77
g63
NtRp1088
(dp1089
g66
(dp1090
sg75
g653
sg68
(lp1091
g61
(g82
g63
NtRp1092
(dp1093
g66
(dp1094
g86
g87
ssg75
g1088
sg68
(lp1095
S'query_string'
p1096
asbag61
(g82
g63
NtRp1097
(dp1098
g66
(dp1099
g93
g94
ssg75
g1088
sg68
(lp1100
S':'
asbag61
(g82
g63
NtRp1101
(dp1102
g66
(dp1103
sg75
g1088
sg68
(lp1104
g61
(g62
g63
NtRp1105
(dp1106
g66
(dp1107
g74
I4
ssg75
g1101
sg68
(lp1108
S''
asbasbasbag61
(g77
g63
NtRp1109
(dp1110
g66
(dp1111
sg75
g653
sg68
(lp1112
g61
(g82
g63
NtRp1113
(dp1114
g66
(dp1115
g86
g87
ssg75
g1109
sg68
(lp1116
S'remote_addr'
p1117
asbag61
(g82
g63
NtRp1118
(dp1119
g66
(dp1120
g93
g94
ssg75
g1109
sg68
(lp1121
S':'
asbag61
(g82
g63
NtRp1122
(dp1123
g66
(dp1124
sg75
g1109
sg68
(lp1125
g61
(g62
g63
NtRp1126
(dp1127
g66
(dp1128
g74
I4
ssg75
g1122
sg68
(lp1129
g206
asbasbasbag61
(g77
g63
NtRp1130
(dp1131
g66
(dp1132
sg75
g653
sg68
(lp1133
g61
(g82
g63
NtRp1134
(dp1135
g66
(dp1136
g86
g87
ssg75
g1130
sg68
(lp1137
S'remote_port'
p1138
asbag61
(g82
g63
NtRp1139
(dp1140
g66
(dp1141
g93
g94
ssg75
g1130
sg68
(lp1142
S':'
asbag61
(g82
g63
NtRp1143
(dp1144
g66
(dp1145
sg75
g1130
sg68
(lp1146
g61
(g62
g63
NtRp1147
(dp1148
g66
(dp1149
g74
I4
ssg75
g1143
sg68
(lp1150
S'13199'
p1151
asbasbasbag61
(g77
g63
NtRp1152
(dp1153
g66
(dp1154
sg75
g653
sg68
(lp1155
g61
(g82
g63
NtRp1156
(dp1157
g66
(dp1158
g86
g87
ssg75
g1152
sg68
(lp1159
S'request_method'
p1160
asbag61
(g82
g63
NtRp1161
(dp1162
g66
(dp1163
g93
g94
ssg75
g1152
sg68
(lp1164
S':'
asbag61
(g82
g63
NtRp1165
(dp1166
g66
(dp1167
sg75
g1152
sg68
(lp1168
g61
(g62
g63
NtRp1169
(dp1170
g66
(dp1171
g74
I4
ssg75
g1165
sg68
(lp1172
S'GET'
p1173
asbasbasbag61
(g77
g63
NtRp1174
(dp1175
g66
(dp1176
sg75
g653
sg68
(lp1177
g61
(g82
g63
NtRp1178
(dp1179
g66
(dp1180
g86
g87
ssg75
g1174
sg68
(lp1181
S'script_name'
p1182
asbag61
(g82
g63
NtRp1183
(dp1184
g66
(dp1185
g93
g94
ssg75
g1174
sg68
(lp1186
S':'
asbag61
(g82
g63
NtRp1187
(dp1188
g66
(dp1189
sg75
g1174
sg68
(lp1190
g61
(g62
g63
NtRp1191
(dp1192
g66
(dp1193
g74
I4
ssg75
g1187
sg68
(lp1194
S''
asbasbasbag61
(g77
g63
NtRp1195
(dp1196
g66
(dp1197
sg75
g653
sg68
(lp1198
g61
(g82
g63
NtRp1199
(dp1200
g66
(dp1201
g86
g87
ssg75
g1195
sg68
(lp1202
S'server_name'
p1203
asbag61
(g82
g63
NtRp1204
(dp1205
g66
(dp1206
g93
g94
ssg75
g1195
sg68
(lp1207
S':'
asbag61
(g82
g63
NtRp1208
(dp1209
g66
(dp1210
sg75
g1195
sg68
(lp1211
g61
(g62
g63
NtRp1212
(dp1213
g66
(dp1214
g74
I4
ssg75
g1208
sg68
(lp1215
S'PHUCNH-PC'
p1216
asbasbasbag61
(g77
g63
NtRp1217
(dp1218
g66
(dp1219
sg75
g653
sg68
(lp1220
g61
(g82
g63
NtRp1221
(dp1222
g66
(dp1223
g86
g87
ssg75
g1217
sg68
(lp1224
S'server_port'
p1225
asbag61
(g82
g63
NtRp1226
(dp1227
g66
(dp1228
g93
g94
ssg75
g1217
sg68
(lp1229
S':'
asbag61
(g82
g63
NtRp1230
(dp1231
g66
(dp1232
sg75
g1217
sg68
(lp1233
g61
(g62
g63
NtRp1234
(dp1235
g66
(dp1236
g74
I4
ssg75
g1230
sg68
(lp1237
S'8000'
p1238
asbasbasbag61
(g77
g63
NtRp1239
(dp1240
g66
(dp1241
sg75
g653
sg68
(lp1242
g61
(g82
g63
NtRp1243
(dp1244
g66
(dp1245
g86
g87
ssg75
g1239
sg68
(lp1246
S'server_protocol'
p1247
asbag61
(g82
g63
NtRp1248
(dp1249
g66
(dp1250
g93
g94
ssg75
g1239
sg68
(lp1251
S':'
asbag61
(g82
g63
NtRp1252
(dp1253
g66
(dp1254
sg75
g1239
sg68
(lp1255
g61
(g62
g63
NtRp1256
(dp1257
g66
(dp1258
g74
I4
ssg75
g1252
sg68
(lp1259
S'HTTP/1.1'
p1260
asbasbasbag61
(g77
g63
NtRp1261
(dp1262
g66
(dp1263
sg75
g653
sg68
(lp1264
g61
(g82
g63
NtRp1265
(dp1266
g66
(dp1267
g86
g87
ssg75
g1261
sg68
(lp1268
S'server_software'
p1269
asbag61
(g82
g63
NtRp1270
(dp1271
g66
(dp1272
g93
g94
ssg75
g1261
sg68
(lp1273
S':'
asbag61
(g82
g63
NtRp1274
(dp1275
g66
(dp1276
sg75
g1261
sg68
(lp1277
g61
(g62
g63
NtRp1278
(dp1279
g66
(dp1280
g74
I4
ssg75
g1274
sg68
(lp1281
S'Rocket 1.2.4'
p1282
asbasbasbag61
(g77
g63
NtRp1283
(dp1284
g66
(dp1285
sg75
g653
sg68
(lp1286
g61
(g82
g63
NtRp1287
(dp1288
g66
(dp1289
g86
g87
ssg75
g1283
sg68
(lp1290
S'web2py_crontype'
p1291
asbag61
(g82
g63
NtRp1292
(dp1293
g66
(dp1294
g93
g94
ssg75
g1283
sg68
(lp1295
S':'
asbag61
(g82
g63
NtRp1296
(dp1297
g66
(dp1298
sg75
g1283
sg68
(lp1299
g61
(g62
g63
NtRp1300
(dp1301
g66
(dp1302
g74
I4
ssg75
g1296
sg68
(lp1303
S'hard'
p1304
asbasbasbag61
(g77
g63
NtRp1305
(dp1306
g66
(dp1307
sg75
g653
sg68
(lp1308
g61
(g82
g63
NtRp1309
(dp1310
g66
(dp1311
g86
g87
ssg75
g1305
sg68
(lp1312
S'web2py_path'
p1313
asbag61
(g82
g63
NtRp1314
(dp1315
g66
(dp1316
g93
g94
ssg75
g1305
sg68
(lp1317
S':'
asbag61
(g82
g63
NtRp1318
(dp1319
g66
(dp1320
sg75
g1305
sg68
(lp1321
g61
(g62
g63
NtRp1322
(dp1323
g66
(dp1324
g74
I4
ssg75
g1318
sg68
(lp1325
g700
asbasbasbag61
(g77
g63
NtRp1326
(dp1327
g66
(dp1328
sg75
g653
sg68
(lp1329
g61
(g82
g63
NtRp1330
(dp1331
g66
(dp1332
g86
g87
ssg75
g1326
sg68
(lp1333
S'web2py_version'
p1334
asbag61
(g82
g63
NtRp1335
(dp1336
g66
(dp1337
g93
g94
ssg75
g1326
sg68
(lp1338
S':'
asbag61
(g82
g63
NtRp1339
(dp1340
g66
(dp1341
sg75
g1326
sg68
(lp1342
g61
(g62
g63
NtRp1343
(dp1344
g66
(dp1345
g74
I4
ssg75
g1339
sg68
(lp1346
g61
(g70
g63
NtRp1347
(dp1348
g66
(dp1349
g74
I3
ssg75
Nsg68
(lp1350
g61
(g77
g63
NtRp1351
(dp1352
g66
(dp1353
sg75
g1347
sg68
(lp1354
g61
(g82
g63
NtRp1355
(dp1356
g66
(dp1357
sg75
g1351
sg68
(lp1358
g61
(g62
g63
NtRp1359
(dp1360
g66
(dp1361
g74
I3
ssg75
g1355
sg68
(lp1362
S'1'
asbasbasbag61
(g77
g63
NtRp1363
(dp1364
g66
(dp1365
sg75
g1347
sg68
(lp1366
g61
(g82
g63
NtRp1367
(dp1368
g66
(dp1369
sg75
g1363
sg68
(lp1370
g61
(g62
g63
NtRp1371
(dp1372
g66
(dp1373
g74
I3
ssg75
g1367
sg68
(lp1374
S'99'
p1375
asbasbasbag61
(g77
g63
NtRp1376
(dp1377
g66
(dp1378
sg75
g1347
sg68
(lp1379
g61
(g82
g63
NtRp1380
(dp1381
g66
(dp1382
sg75
g1376
sg68
(lp1383
g61
(g62
g63
NtRp1384
(dp1385
g66
(dp1386
g74
I3
ssg75
g1380
sg68
(lp1387
S'7'
asbasbasbag61
(g77
g63
NtRp1388
(dp1389
g66
(dp1390
sg75
g1347
sg68
(lp1391
g61
(g82
g63
NtRp1392
(dp1393
g66
(dp1394
sg75
g1388
sg68
(lp1395
g61
(g62
g63
NtRp1396
(dp1397
g66
(dp1398
g74
I3
ssg75
g1392
sg68
(lp1399
S'datetime.datetime(2012, 3, 4, 22, 12, 8)'
p1400
asbasbasbag61
(g77
g63
NtRp1401
(dp1402
g66
(dp1403
sg75
g1347
sg68
(lp1404
g61
(g82
g63
NtRp1405
(dp1406
g66
(dp1407
sg75
g1401
sg68
(lp1408
g61
(g62
g63
NtRp1409
(dp1410
g66
(dp1411
g74
I3
ssg75
g1405
sg68
(lp1412
S'stable'
p1413
asbasbasbasbasbasbasbag61
(g77
g63
NtRp1414
(dp1415
g66
(dp1416
sg75
g653
sg68
(lp1417
g61
(g82
g63
NtRp1418
(dp1419
g66
(dp1420
g86
g87
ssg75
g1414
sg68
(lp1421
S'wsgi_errors'
p1422
asbag61
(g82
g63
NtRp1423
(dp1424
g66
(dp1425
g93
g94
ssg75
g1414
sg68
(lp1426
S':'
asbag61
(g82
g63
NtRp1427
(dp1428
g66
(dp1429
sg75
g1414
sg68
(lp1430
g61
(g62
g63
NtRp1431
(dp1432
g66
(dp1433
g74
I4
ssg75
g1427
sg68
(lp1434
S"<open file '<stderr>', mode 'w' at 0x0000000001C6E1E0>"
p1435
asbasbasbag61
(g77
g63
NtRp1436
(dp1437
g66
(dp1438
sg75
g653
sg68
(lp1439
g61
(g82
g63
NtRp1440
(dp1441
g66
(dp1442
g86
g87
ssg75
g1436
sg68
(lp1443
S'wsgi_file_wrapper'
p1444
asbag61
(g82
g63
NtRp1445
(dp1446
g66
(dp1447
g93
g94
ssg75
g1436
sg68
(lp1448
S':'
asbag61
(g82
g63
NtRp1449
(dp1450
g66
(dp1451
sg75
g1436
sg68
(lp1452
g61
(g62
g63
NtRp1453
(dp1454
g66
(dp1455
g74
I4
ssg75
g1449
sg68
(lp1456
S'<class wsgiref.util.FileWrapper at 0x0000000003598BE8>'
p1457
asbasbasbag61
(g77
g63
NtRp1458
(dp1459
g66
(dp1460
sg75
g653
sg68
(lp1461
g61
(g82
g63
NtRp1462
(dp1463
g66
(dp1464
g86
g87
ssg75
g1458
sg68
(lp1465
S'wsgi_input'
p1466
asbag61
(g82
g63
NtRp1467
(dp1468
g66
(dp1469
g93
g94
ssg75
g1458
sg68
(lp1470
S':'
asbag61
(g82
g63
NtRp1471
(dp1472
g66
(dp1473
sg75
g1458
sg68
(lp1474
g61
(g62
g63
NtRp1475
(dp1476
g66
(dp1477
g74
I4
ssg75
g1471
sg68
(lp1478
S'<socket._fileobject object at 0x000000000451E318>'
p1479
asbasbasbag61
(g77
g63
NtRp1480
(dp1481
g66
(dp1482
sg75
g653
sg68
(lp1483
g61
(g82
g63
NtRp1484
(dp1485
g66
(dp1486
g86
g87
ssg75
g1480
sg68
(lp1487
S'wsgi_multiprocess'
p1488
asbag61
(g82
g63
NtRp1489
(dp1490
g66
(dp1491
g93
g94
ssg75
g1480
sg68
(lp1492
S':'
asbag61
(g82
g63
NtRp1493
(dp1494
g66
(dp1495
sg75
g1480
sg68
(lp1496
g61
(g62
g63
NtRp1497
(dp1498
g66
(dp1499
g74
I4
ssg75
g1493
sg68
(lp1500
g104
asbasbasbag61
(g77
g63
NtRp1501
(dp1502
g66
(dp1503
sg75
g653
sg68
(lp1504
g61
(g82
g63
NtRp1505
(dp1506
g66
(dp1507
g86
g87
ssg75
g1501
sg68
(lp1508
S'wsgi_multithread'
p1509
asbag61
(g82
g63
NtRp1510
(dp1511
g66
(dp1512
g93
g94
ssg75
g1501
sg68
(lp1513
S':'
asbag61
(g82
g63
NtRp1514
(dp1515
g66
(dp1516
sg75
g1501
sg68
(lp1517
g61
(g62
g63
NtRp1518
(dp1519
g66
(dp1520
g74
I4
ssg75
g1514
sg68
(lp1521
S'True'
p1522
asbasbasbag61
(g77
g63
NtRp1523
(dp1524
g66
(dp1525
sg75
g653
sg68
(lp1526
g61
(g82
g63
NtRp1527
(dp1528
g66
(dp1529
g86
g87
ssg75
g1523
sg68
(lp1530
S'wsgi_run_once'
p1531
asbag61
(g82
g63
NtRp1532
(dp1533
g66
(dp1534
g93
g94
ssg75
g1523
sg68
(lp1535
S':'
asbag61
(g82
g63
NtRp1536
(dp1537
g66
(dp1538
sg75
g1523
sg68
(lp1539
g61
(g62
g63
NtRp1540
(dp1541
g66
(dp1542
g74
I4
ssg75
g1536
sg68
(lp1543
g104
asbasbasbag61
(g77
g63
NtRp1544
(dp1545
g66
(dp1546
sg75
g653
sg68
(lp1547
g61
(g82
g63
NtRp1548
(dp1549
g66
(dp1550
g86
g87
ssg75
g1544
sg68
(lp1551
S'wsgi_url_scheme'
p1552
asbag61
(g82
g63
NtRp1553
(dp1554
g66
(dp1555
g93
g94
ssg75
g1544
sg68
(lp1556
S':'
asbag61
(g82
g63
NtRp1557
(dp1558
g66
(dp1559
sg75
g1544
sg68
(lp1560
g61
(g62
g63
NtRp1561
(dp1562
g66
(dp1563
g74
I4
ssg75
g1557
sg68
(lp1564
S'http'
p1565
asbasbasbag61
(g77
g63
NtRp1566
(dp1567
g66
(dp1568
sg75
g653
sg68
(lp1569
g61
(g82
g63
NtRp1570
(dp1571
g66
(dp1572
g86
g87
ssg75
g1566
sg68
(lp1573
S'wsgi_version'
p1574
asbag61
(g82
g63
NtRp1575
(dp1576
g66
(dp1577
g93
g94
ssg75
g1566
sg68
(lp1578
S':'
asbag61
(g82
g63
NtRp1579
(dp1580
g66
(dp1581
sg75
g1566
sg68
(lp1582
g61
(g62
g63
NtRp1583
(dp1584
g66
(dp1585
g74
I4
ssg75
g1579
sg68
(lp1586
g61
(g70
g63
NtRp1587
(dp1588
g66
(dp1589
g74
I3
ssg75
Nsg68
(lp1590
g61
(g77
g63
NtRp1591
(dp1592
g66
(dp1593
sg75
g1587
sg68
(lp1594
g61
(g82
g63
NtRp1595
(dp1596
g66
(dp1597
sg75
g1591
sg68
(lp1598
g61
(g62
g63
NtRp1599
(dp1600
g66
(dp1601
g74
I3
ssg75
g1595
sg68
(lp1602
S'1'
asbasbasbag61
(g77
g63
NtRp1603
(dp1604
g66
(dp1605
sg75
g1587
sg68
(lp1606
g61
(g82
g63
NtRp1607
(dp1608
g66
(dp1609
sg75
g1603
sg68
(lp1610
g61
(g62
g63
NtRp1611
(dp1612
g66
(dp1613
g74
I3
ssg75
g1607
sg68
(lp1614
S'0'
asbasbasbasbasbasbasbasbasbasbasbag61
(g77
g63
NtRp1615
(dp1616
g66
(dp1617
sg75
g71
sg68
(lp1618
g61
(g82
g63
NtRp1619
(dp1620
g66
(dp1621
g86
g87
ssg75
g1615
sg68
(lp1622
S'extension'
p1623
asbag61
(g82
g63
NtRp1624
(dp1625
g66
(dp1626
g93
g94
ssg75
g1615
sg68
(lp1627
S':'
asbag61
(g82
g63
NtRp1628
(dp1629
g66
(dp1630
sg75
g1615
sg68
(lp1631
g61
(g62
g63
NtRp1632
(dp1633
g66
(dp1634
g74
I5
ssg75
g1628
sg68
(lp1635
S'html'
p1636
asbasbasbag61
(g77
g63
NtRp1637
(dp1638
g66
(dp1639
sg75
g71
sg68
(lp1640
g61
(g82
g63
NtRp1641
(dp1642
g66
(dp1643
g86
g87
ssg75
g1637
sg68
(lp1644
S'folder'
p1645
asbag61
(g82
g63
NtRp1646
(dp1647
g66
(dp1648
g93
g94
ssg75
g1637
sg68
(lp1649
S':'
asbag61
(g82
g63
NtRp1650
(dp1651
g66
(dp1652
sg75
g1637
sg68
(lp1653
g61
(g62
g63
NtRp1654
(dp1655
g66
(dp1656
g74
I5
ssg75
g1650
sg68
(lp1657
S'D:\\workspace\\CA\\IgoR\\C_Sources\\Server\\igor-assistant-ca-2012\\applications\\igor\\'
p1658
asbasbasbag61
(g77
g63
NtRp1659
(dp1660
g66
(dp1661
sg75
g71
sg68
(lp1662
g61
(g82
g63
NtRp1663
(dp1664
g66
(dp1665
g86
g87
ssg75
g1659
sg68
(lp1666
S'function'
p1667
asbag61
(g82
g63
NtRp1668
(dp1669
g66
(dp1670
g93
g94
ssg75
g1659
sg68
(lp1671
S':'
asbag61
(g82
g63
NtRp1672
(dp1673
g66
(dp1674
sg75
g1659
sg68
(lp1675
g61
(g62
g63
NtRp1676
(dp1677
g66
(dp1678
g74
I5
ssg75
g1672
sg68
(lp1679
S'get_classes_by_subject'
p1680
asbasbasbag61
(g77
g63
NtRp1681
(dp1682
g66
(dp1683
sg75
g71
sg68
(lp1684
g61
(g82
g63
NtRp1685
(dp1686
g66
(dp1687
g86
g87
ssg75
g1681
sg68
(lp1688
S'get_vars'
p1689
asbag61
(g82
g63
NtRp1690
(dp1691
g66
(dp1692
g93
g94
ssg75
g1681
sg68
(lp1693
S':'
asbag61
(g82
g63
NtRp1694
(dp1695
g66
(dp1696
sg75
g1681
sg68
(lp1697
g61
(g62
g63
NtRp1698
(dp1699
g66
(dp1700
g74
I5
ssg75
g1694
sg68
(lp1701
g61
(g70
g63
NtRp1702
(dp1703
g66
(dp1704
g74
I4
ssg75
Nsg68
(lp1705
sbasbasbasbag61
(g77
g63
NtRp1706
(dp1707
g66
(dp1708
sg75
g71
sg68
(lp1709
g61
(g82
g63
NtRp1710
(dp1711
g66
(dp1712
g86
g87
ssg75
g1706
sg68
(lp1713
S'global_settings'
p1714
asbag61
(g82
g63
NtRp1715
(dp1716
g66
(dp1717
g93
g94
ssg75
g1706
sg68
(lp1718
S':'
asbag61
(g82
g63
NtRp1719
(dp1720
g66
(dp1721
sg75
g1706
sg68
(lp1722
g61
(g62
g63
NtRp1723
(dp1724
g66
(dp1725
g74
I5
ssg75
g1719
sg68
(lp1726
g61
(g70
g63
NtRp1727
(dp1728
g66
(dp1729
g74
I4
ssg75
Nsg68
(lp1730
g61
(g77
g63
NtRp1731
(dp1732
g66
(dp1733
sg75
g1727
sg68
(lp1734
g61
(g82
g63
NtRp1735
(dp1736
g66
(dp1737
g86
g87
ssg75
g1731
sg68
(lp1738
g665
asbag61
(g82
g63
NtRp1739
(dp1740
g66
(dp1741
g93
g94
ssg75
g1731
sg68
(lp1742
S':'
asbag61
(g82
g63
NtRp1743
(dp1744
g66
(dp1745
sg75
g1731
sg68
(lp1746
g61
(g62
g63
NtRp1747
(dp1748
g66
(dp1749
g74
I4
ssg75
g1743
sg68
(lp1750
S"set(['D:\\\\workspace\\\\CA\\\\IgoR\\\\C_Sources\\\\Server\\\\igor-assistant-ca-2012\\\\applications\\\\admin\\\\', 'D:\\\\workspace\\\\CA\\\\IgoR\\\\C_Sources\\\\Server\\\\igor-assistant-ca-2012\\\\applications\\\\igor\\\\', 'D:\\\\workspace\\\\CA\\\\IgoR\\\\C_Sources\\\\Server\\\\igor-assistant-ca-2012\\\\applications\\\\welcome\\\\'])"
p1751
asbasbasbag61
(g77
g63
NtRp1752
(dp1753
g66
(dp1754
sg75
g1727
sg68
(lp1755
g61
(g82
g63
NtRp1756
(dp1757
g66
(dp1758
g86
g87
ssg75
g1752
sg68
(lp1759
g687
asbag61
(g82
g63
NtRp1760
(dp1761
g66
(dp1762
g93
g94
ssg75
g1752
sg68
(lp1763
S':'
asbag61
(g82
g63
NtRp1764
(dp1765
g66
(dp1766
sg75
g1752
sg68
(lp1767
g61
(g62
g63
NtRp1768
(dp1769
g66
(dp1770
g74
I4
ssg75
g1764
sg68
(lp1771
g700
asbasbasbag61
(g77
g63
NtRp1772
(dp1773
g66
(dp1774
sg75
g1727
sg68
(lp1775
g61
(g82
g63
NtRp1776
(dp1777
g66
(dp1778
g86
g87
ssg75
g1772
sg68
(lp1779
g709
asbag61
(g82
g63
NtRp1780
(dp1781
g66
(dp1782
g93
g94
ssg75
g1772
sg68
(lp1783
S':'
asbag61
(g82
g63
NtRp1784
(dp1785
g66
(dp1786
sg75
g1772
sg68
(lp1787
g61
(g62
g63
NtRp1788
(dp1789
g66
(dp1790
g74
I4
ssg75
g1784
sg68
(lp1791
g61
(g70
g63
NtRp1792
(dp1793
g66
(dp1794
g74
I3
ssg75
Nsg68
(lp1795
g61
(g77
g63
NtRp1796
(dp1797
g66
(dp1798
sg75
g1792
sg68
(lp1799
g61
(g82
g63
NtRp1800
(dp1801
g66
(dp1802
sg75
g1796
sg68
(lp1803
g61
(g62
g63
NtRp1804
(dp1805
g66
(dp1806
g74
I3
ssg75
g1800
sg68
(lp1807
g738
asbasbasbasbasbasbasbag61
(g77
g63
NtRp1808
(dp1809
g66
(dp1810
sg75
g1727
sg68
(lp1811
g61
(g82
g63
NtRp1812
(dp1813
g66
(dp1814
g86
g87
ssg75
g1808
sg68
(lp1815
g747
asbag61
(g82
g63
NtRp1816
(dp1817
g66
(dp1818
g93
g94
ssg75
g1808
sg68
(lp1819
S':'
asbag61
(g82
g63
NtRp1820
(dp1821
g66
(dp1822
sg75
g1808
sg68
(lp1823
g61
(g62
g63
NtRp1824
(dp1825
g66
(dp1826
g74
I4
ssg75
g1820
sg68
(lp1827
S"<Values at 0x373e348: {'verbose': False, 'ip': '127.0.0.1', 'shutdown_timeout': 5, 'taskbar': False, 'nocron': False, 'pid_filename': 'httpserver.pid', 'maxthreads': None, 'softcron': False, 'server_name': 'PHUCNH-PC', 'bpython': False, 'nogui': False, 'port': 8000, 'extcron': False, 'debuglevel': 30, 'test': None, 'folder': 'D:\\\\workspace\\\\CA\\\\IgoR\\\\C_Sources\\\\Server\\\\igor-assistant-ca-2012', 'config': '', 'import_models': False, 'winservice': '', 'shell': None, 'run': '', 'log_filename': 'httpserver.log', 'args': [''], 'socket_timeout': 5, 'ssl_ca_certificate': None, 'scheduler': None, 'profiler_filename': None, 'ssl_private_key': '', 'password': '<ask>', 'request_queue_size': 5, 'ssl_certificate': '', 'cronjob': False, 'numthreads': None, 'quiet': False, 'interfaces': None, 'minthreads': None, 'timeout': 10, 'plain': False, 'nobanner': False}>"
p1828
asbasbasbag61
(g77
g63
NtRp1829
(dp1830
g66
(dp1831
sg75
g1727
sg68
(lp1832
g61
(g82
g63
NtRp1833
(dp1834
g66
(dp1835
g86
g87
ssg75
g1829
sg68
(lp1836
g769
asbag61
(g82
g63
NtRp1837
(dp1838
g66
(dp1839
g93
g94
ssg75
g1829
sg68
(lp1840
S':'
asbag61
(g82
g63
NtRp1841
(dp1842
g66
(dp1843
sg75
g1829
sg68
(lp1844
g61
(g62
g63
NtRp1845
(dp1846
g66
(dp1847
g74
I4
ssg75
g1841
sg68
(lp1848
S'set([])'
p1849
asbasbasbag61
(g77
g63
NtRp1850
(dp1851
g66
(dp1852
sg75
g1727
sg68
(lp1853
g61
(g82
g63
NtRp1854
(dp1855
g66
(dp1856
g86
g87
ssg75
g1850
sg68
(lp1857
g791
asbag61
(g82
g63
NtRp1858
(dp1859
g66
(dp1860
g93
g94
ssg75
g1850
sg68
(lp1861
S':'
asbag61
(g82
g63
NtRp1862
(dp1863
g66
(dp1864
sg75
g1850
sg68
(lp1865
g61
(g62
g63
NtRp1866
(dp1867
g66
(dp1868
g74
I4
ssg75
g1862
sg68
(lp1869
g104
asbasbasbag61
(g77
g63
NtRp1870
(dp1871
g66
(dp1872
sg75
g1727
sg68
(lp1873
g61
(g82
g63
NtRp1874
(dp1875
g66
(dp1876
g86
g87
ssg75
g1870
sg68
(lp1877
g812
asbag61
(g82
g63
NtRp1878
(dp1879
g66
(dp1880
g93
g94
ssg75
g1870
sg68
(lp1881
S':'
asbag61
(g82
g63
NtRp1882
(dp1883
g66
(dp1884
sg75
g1870
sg68
(lp1885
g61
(g62
g63
NtRp1886
(dp1887
g66
(dp1888
g74
I4
ssg75
g1882
sg68
(lp1889
g825
asbasbasbag61
(g77
g63
NtRp1890
(dp1891
g66
(dp1892
sg75
g1727
sg68
(lp1893
g61
(g82
g63
NtRp1894
(dp1895
g66
(dp1896
g86
g87
ssg75
g1890
sg68
(lp1897
g1032
asbag61
(g82
g63
NtRp1898
(dp1899
g66
(dp1900
g93
g94
ssg75
g1890
sg68
(lp1901
S':'
asbag61
(g82
g63
NtRp1902
(dp1903
g66
(dp1904
sg75
g1890
sg68
(lp1905
g61
(g62
g63
NtRp1906
(dp1907
g66
(dp1908
g74
I4
ssg75
g1902
sg68
(lp1909
g104
asbasbasbag61
(g77
g63
NtRp1910
(dp1911
g66
(dp1912
sg75
g1727
sg68
(lp1913
g61
(g82
g63
NtRp1914
(dp1915
g66
(dp1916
g86
g87
ssg75
g1910
sg68
(lp1917
g1053
asbag61
(g82
g63
NtRp1918
(dp1919
g66
(dp1920
g93
g94
ssg75
g1910
sg68
(lp1921
S':'
asbag61
(g82
g63
NtRp1922
(dp1923
g66
(dp1924
sg75
g1910
sg68
(lp1925
g61
(g62
g63
NtRp1926
(dp1927
g66
(dp1928
g74
I4
ssg75
g1922
sg68
(lp1929
g104
asbasbasbag61
(g77
g63
NtRp1930
(dp1931
g66
(dp1932
sg75
g1727
sg68
(lp1933
g61
(g82
g63
NtRp1934
(dp1935
g66
(dp1936
g86
g87
ssg75
g1930
sg68
(lp1937
g1291
asbag61
(g82
g63
NtRp1938
(dp1939
g66
(dp1940
g93
g94
ssg75
g1930
sg68
(lp1941
S':'
asbag61
(g82
g63
NtRp1942
(dp1943
g66
(dp1944
sg75
g1930
sg68
(lp1945
g61
(g62
g63
NtRp1946
(dp1947
g66
(dp1948
g74
I4
ssg75
g1942
sg68
(lp1949
g1304
asbasbasbag61
(g77
g63
NtRp1950
(dp1951
g66
(dp1952
sg75
g1727
sg68
(lp1953
g61
(g82
g63
NtRp1954
(dp1955
g66
(dp1956
g86
g87
ssg75
g1950
sg68
(lp1957
g1334
asbag61
(g82
g63
NtRp1958
(dp1959
g66
(dp1960
g93
g94
ssg75
g1950
sg68
(lp1961
S':'
asbag61
(g82
g63
NtRp1962
(dp1963
g66
(dp1964
sg75
g1950
sg68
(lp1965
g61
(g62
g63
NtRp1966
(dp1967
g66
(dp1968
g74
I4
ssg75
g1962
sg68
(lp1969
g61
(g70
g63
NtRp1970
(dp1971
g66
(dp1972
g74
I3
ssg75
Nsg68
(lp1973
g61
(g77
g63
NtRp1974
(dp1975
g66
(dp1976
sg75
g1970
sg68
(lp1977
g61
(g82
g63
NtRp1978
(dp1979
g66
(dp1980
sg75
g1974
sg68
(lp1981
g61
(g62
g63
NtRp1982
(dp1983
g66
(dp1984
g74
I3
ssg75
g1978
sg68
(lp1985
S'1'
asbasbasbag61
(g77
g63
NtRp1986
(dp1987
g66
(dp1988
sg75
g1970
sg68
(lp1989
g61
(g82
g63
NtRp1990
(dp1991
g66
(dp1992
sg75
g1986
sg68
(lp1993
g61
(g62
g63
NtRp1994
(dp1995
g66
(dp1996
g74
I3
ssg75
g1990
sg68
(lp1997
S'99'
p1998
asbasbasbag61
(g77
g63
NtRp1999
(dp2000
g66
(dp2001
sg75
g1970
sg68
(lp2002
g61
(g82
g63
NtRp2003
(dp2004
g66
(dp2005
sg75
g1999
sg68
(lp2006
g61
(g62
g63
NtRp2007
(dp2008
g66
(dp2009
g74
I3
ssg75
g2003
sg68
(lp2010
S'7'
asbasbasbag61
(g77
g63
NtRp2011
(dp2012
g66
(dp2013
sg75
g1970
sg68
(lp2014
g61
(g82
g63
NtRp2015
(dp2016
g66
(dp2017
sg75
g2011
sg68
(lp2018
g61
(g62
g63
NtRp2019
(dp2020
g66
(dp2021
g74
I3
ssg75
g2015
sg68
(lp2022
S'datetime.datetime(2012, 3, 4, 22, 12, 8)'
p2023
asbasbasbag61
(g77
g63
NtRp2024
(dp2025
g66
(dp2026
sg75
g1970
sg68
(lp2027
g61
(g82
g63
NtRp2028
(dp2029
g66
(dp2030
sg75
g2024
sg68
(lp2031
g61
(g62
g63
NtRp2032
(dp2033
g66
(dp2034
g74
I3
ssg75
g2028
sg68
(lp2035
g1413
asbasbasbasbasbasbasbasbasbasbasbag61
(g77
g63
NtRp2036
(dp2037
g66
(dp2038
sg75
g71
sg68
(lp2039
g61
(g82
g63
NtRp2040
(dp2041
g66
(dp2042
g86
g87
ssg75
g2036
sg68
(lp2043
S'is_https'
p2044
asbag61
(g82
g63
NtRp2045
(dp2046
g66
(dp2047
g93
g94
ssg75
g2036
sg68
(lp2048
S':'
asbag61
(g82
g63
NtRp2049
(dp2050
g66
(dp2051
sg75
g2036
sg68
(lp2052
g61
(g62
g63
NtRp2053
(dp2054
g66
(dp2055
g74
I5
ssg75
g2049
sg68
(lp2056
g104
asbasbasbag61
(g77
g63
NtRp2057
(dp2058
g66
(dp2059
sg75
g71
sg68
(lp2060
g61
(g82
g63
NtRp2061
(dp2062
g66
(dp2063
g86
g87
ssg75
g2057
sg68
(lp2064
S'is_local'
p2065
asbag61
(g82
g63
NtRp2066
(dp2067
g66
(dp2068
g93
g94
ssg75
g2057
sg68
(lp2069
S':'
asbag61
(g82
g63
NtRp2070
(dp2071
g66
(dp2072
sg75
g2057
sg68
(lp2073
g61
(g62
g63
NtRp2074
(dp2075
g66
(dp2076
g74
I5
ssg75
g2070
sg68
(lp2077
g1522
asbasbasbag61
(g77
g63
NtRp2078
(dp2079
g66
(dp2080
sg75
g71
sg68
(lp2081
g61
(g82
g63
NtRp2082
(dp2083
g66
(dp2084
g86
g87
ssg75
g2078
sg68
(lp2085
S'is_restful'
p2086
asbag61
(g82
g63
NtRp2087
(dp2088
g66
(dp2089
g93
g94
ssg75
g2078
sg68
(lp2090
S':'
asbag61
(g82
g63
NtRp2091
(dp2092
g66
(dp2093
sg75
g2078
sg68
(lp2094
g61
(g62
g63
NtRp2095
(dp2096
g66
(dp2097
g74
I5
ssg75
g2091
sg68
(lp2098
g1522
asbasbasbag61
(g77
g63
NtRp2099
(dp2100
g66
(dp2101
sg75
g71
sg68
(lp2102
g61
(g82
g63
NtRp2103
(dp2104
g66
(dp2105
g86
g87
ssg75
g2099
sg68
(lp2106
S'now'
p2107
asbag61
(g82
g63
NtRp2108
(dp2109
g66
(dp2110
g93
g94
ssg75
g2099
sg68
(lp2111
S':'
asbag61
(g82
g63
NtRp2112
(dp2113
g66
(dp2114
sg75
g2099
sg68
(lp2115
g61
(g62
g63
NtRp2116
(dp2117
g66
(dp2118
g74
I5
ssg75
g2112
sg68
(lp2119
S'datetime.datetime(2012, 7, 29, 22, 44, 18, 479000)'
p2120
asbasbasbag61
(g77
g63
NtRp2121
(dp2122
g66
(dp2123
sg75
g71
sg68
(lp2124
g61
(g82
g63
NtRp2125
(dp2126
g66
(dp2127
g86
g87
ssg75
g2121
sg68
(lp2128
S'post_vars'
p2129
asbag61
(g82
g63
NtRp2130
(dp2131
g66
(dp2132
g93
g94
ssg75
g2121
sg68
(lp2133
S':'
asbag61
(g82
g63
NtRp2134
(dp2135
g66
(dp2136
sg75
g2121
sg68
(lp2137
g61
(g62
g63
NtRp2138
(dp2139
g66
(dp2140
g74
I5
ssg75
g2134
sg68
(lp2141
g61
(g70
g63
NtRp2142
(dp2143
g66
(dp2144
g74
I4
ssg75
Nsg68
(lp2145
sbasbasbasbag61
(g77
g63
NtRp2146
(dp2147
g66
(dp2148
sg75
g71
sg68
(lp2149
g61
(g82
g63
NtRp2150
(dp2151
g66
(dp2152
g86
g87
ssg75
g2146
sg68
(lp2153
S'raw_args'
p2154
asbag61
(g82
g63
NtRp2155
(dp2156
g66
(dp2157
g93
g94
ssg75
g2146
sg68
(lp2158
S':'
asbag61
(g82
g63
NtRp2159
(dp2160
g66
(dp2161
sg75
g2146
sg68
(lp2162
g61
(g62
g63
NtRp2163
(dp2164
g66
(dp2165
g74
I5
ssg75
g2159
sg68
(lp2166
S'8'
asbasbasbag61
(g77
g63
NtRp2167
(dp2168
g66
(dp2169
sg75
g71
sg68
(lp2170
g61
(g82
g63
NtRp2171
(dp2172
g66
(dp2173
g86
g87
ssg75
g2167
sg68
(lp2174
S'url'
p2175
asbag61
(g82
g63
NtRp2176
(dp2177
g66
(dp2178
g93
g94
ssg75
g2167
sg68
(lp2179
S':'
asbag61
(g82
g63
NtRp2180
(dp2181
g66
(dp2182
sg75
g2167
sg68
(lp2183
g61
(g62
g63
NtRp2184
(dp2185
g66
(dp2186
g74
I5
ssg75
g2180
sg68
(lp2187
S'/igor/class_subject/get_classes_by_subject/8'
p2188
asbasbasbag61
(g77
g63
NtRp2189
(dp2190
g66
(dp2191
sg75
g71
sg68
(lp2192
g61
(g82
g63
NtRp2193
(dp2194
g66
(dp2195
g86
g87
ssg75
g2189
sg68
(lp2196
S'utcnow'
p2197
asbag61
(g82
g63
NtRp2198
(dp2199
g66
(dp2200
g93
g94
ssg75
g2189
sg68
(lp2201
S':'
asbag61
(g82
g63
NtRp2202
(dp2203
g66
(dp2204
sg75
g2189
sg68
(lp2205
g61
(g62
g63
NtRp2206
(dp2207
g66
(dp2208
g74
I5
ssg75
g2202
sg68
(lp2209
S'datetime.datetime(2012, 7, 29, 15, 44, 18, 479000)'
p2210
asbasbasbag61
(g77
g63
NtRp2211
(dp2212
g66
(dp2213
sg75
g71
sg68
(lp2214
g61
(g82
g63
NtRp2215
(dp2216
g66
(dp2217
g86
g87
ssg75
g2211
sg68
(lp2218
S'uuid'
p2219
asbag61
(g82
g63
NtRp2220
(dp2221
g66
(dp2222
g93
g94
ssg75
g2211
sg68
(lp2223
S':'
asbag61
(g82
g63
NtRp2224
(dp2225
g66
(dp2226
sg75
g2211
sg68
(lp2227
g61
(g62
g63
NtRp2228
(dp2229
g66
(dp2230
g74
I5
ssg75
g2224
sg68
(lp2231
S'igor/127.0.0.1.2012-07-29.22-44-18.b9a1ab68-e6a2-4aee-8e71-4c4032c8def1'
p2232
asbasbasbag61
(g77
g63
NtRp2233
(dp2234
g66
(dp2235
sg75
g71
sg68
(lp2236
g61
(g82
g63
NtRp2237
(dp2238
g66
(dp2239
g86
g87
ssg75
g2233
sg68
(lp2240
S'vars'
p2241
asbag61
(g82
g63
NtRp2242
(dp2243
g66
(dp2244
g93
g94
ssg75
g2233
sg68
(lp2245
S':'
asbag61
(g82
g63
NtRp2246
(dp2247
g66
(dp2248
sg75
g2233
sg68
(lp2249
g61
(g62
g63
NtRp2250
(dp2251
g66
(dp2252
g74
I5
ssg75
g2246
sg68
(lp2253
g61
(g70
g63
NtRp2254
(dp2255
g66
(dp2256
g74
I4
ssg75
Nsg68
(lp2257
sbasbasbasbag61
(g77
g63
NtRp2258
(dp2259
g66
(dp2260
sg75
g71
sg68
(lp2261
g61
(g82
g63
NtRp2262
(dp2263
g66
(dp2264
g86
g87
ssg75
g2258
sg68
(lp2265
S'wsgi'
p2266
asbag61
(g82
g63
NtRp2267
(dp2268
g66
(dp2269
g93
g94
ssg75
g2258
sg68
(lp2270
S':'
asbag61
(g82
g63
NtRp2271
(dp2272
g66
(dp2273
sg75
g2258
sg68
(lp2274
g61
(g62
g63
NtRp2275
(dp2276
g66
(dp2277
g74
I5
ssg75
g2271
sg68
(lp2278
g61
(g70
g63
NtRp2279
(dp2280
g66
(dp2281
g74
I4
ssg75
Nsg68
(lp2282
g61
(g77
g63
NtRp2283
(dp2284
g66
(dp2285
sg75
g2279
sg68
(lp2286
g61
(g82
g63
NtRp2287
(dp2288
g66
(dp2289
g86
g87
ssg75
g2283
sg68
(lp2290
S'environ'
p2291
asbag61
(g82
g63
NtRp2292
(dp2293
g66
(dp2294
g93
g94
ssg75
g2283
sg68
(lp2295
S':'
asbag61
(g82
g63
NtRp2296
(dp2297
g66
(dp2298
sg75
g2283
sg68
(lp2299
g61
(g62
g63
NtRp2300
(dp2301
g66
(dp2302
g74
I4
ssg75
g2296
sg68
(lp2303
g61
(g70
g63
NtRp2304
(dp2305
g66
(dp2306
g74
I3
ssg75
Nsg68
(lp2307
g61
(g77
g63
NtRp2308
(dp2309
g66
(dp2310
sg75
g2304
sg68
(lp2311
g61
(g82
g63
NtRp2312
(dp2313
g66
(dp2314
g86
g87
ssg75
g2308
sg68
(lp2315
S'HTTP_ACCEPT'
p2316
asbag61
(g82
g63
NtRp2317
(dp2318
g66
(dp2319
g93
g94
ssg75
g2308
sg68
(lp2320
S':'
asbag61
(g82
g63
NtRp2321
(dp2322
g66
(dp2323
sg75
g2308
sg68
(lp2324
g61
(g62
g63
NtRp2325
(dp2326
g66
(dp2327
g74
I3
ssg75
g2321
sg68
(lp2328
g847
asbasbasbag61
(g77
g63
NtRp2329
(dp2330
g66
(dp2331
sg75
g2304
sg68
(lp2332
g61
(g82
g63
NtRp2333
(dp2334
g66
(dp2335
g86
g87
ssg75
g2329
sg68
(lp2336
S'HTTP_ACCEPT_CHARSET'
p2337
asbag61
(g82
g63
NtRp2338
(dp2339
g66
(dp2340
g93
g94
ssg75
g2329
sg68
(lp2341
S':'
asbag61
(g82
g63
NtRp2342
(dp2343
g66
(dp2344
sg75
g2329
sg68
(lp2345
g61
(g62
g63
NtRp2346
(dp2347
g66
(dp2348
g74
I3
ssg75
g2342
sg68
(lp2349
g869
asbasbasbag61
(g77
g63
NtRp2350
(dp2351
g66
(dp2352
sg75
g2304
sg68
(lp2353
g61
(g82
g63
NtRp2354
(dp2355
g66
(dp2356
g86
g87
ssg75
g2350
sg68
(lp2357
S'HTTP_ACCEPT_ENCODING'
p2358
asbag61
(g82
g63
NtRp2359
(dp2360
g66
(dp2361
g93
g94
ssg75
g2350
sg68
(lp2362
S':'
asbag61
(g82
g63
NtRp2363
(dp2364
g66
(dp2365
sg75
g2350
sg68
(lp2366
g61
(g62
g63
NtRp2367
(dp2368
g66
(dp2369
g74
I3
ssg75
g2363
sg68
(lp2370
g891
asbasbasbag61
(g77
g63
NtRp2371
(dp2372
g66
(dp2373
sg75
g2304
sg68
(lp2374
g61
(g82
g63
NtRp2375
(dp2376
g66
(dp2377
g86
g87
ssg75
g2371
sg68
(lp2378
S'HTTP_ACCEPT_LANGUAGE'
p2379
asbag61
(g82
g63
NtRp2380
(dp2381
g66
(dp2382
g93
g94
ssg75
g2371
sg68
(lp2383
S':'
asbag61
(g82
g63
NtRp2384
(dp2385
g66
(dp2386
sg75
g2371
sg68
(lp2387
g61
(g62
g63
NtRp2388
(dp2389
g66
(dp2390
g74
I3
ssg75
g2384
sg68
(lp2391
g913
asbasbasbag61
(g77
g63
NtRp2392
(dp2393
g66
(dp2394
sg75
g2304
sg68
(lp2395
g61
(g82
g63
NtRp2396
(dp2397
g66
(dp2398
g86
g87
ssg75
g2392
sg68
(lp2399
S'HTTP_CACHE_CONTROL'
p2400
asbag61
(g82
g63
NtRp2401
(dp2402
g66
(dp2403
g93
g94
ssg75
g2392
sg68
(lp2404
S':'
asbag61
(g82
g63
NtRp2405
(dp2406
g66
(dp2407
sg75
g2392
sg68
(lp2408
g61
(g62
g63
NtRp2409
(dp2410
g66
(dp2411
g74
I3
ssg75
g2405
sg68
(lp2412
g935
asbasbasbag61
(g77
g63
NtRp2413
(dp2414
g66
(dp2415
sg75
g2304
sg68
(lp2416
g61
(g82
g63
NtRp2417
(dp2418
g66
(dp2419
g86
g87
ssg75
g2413
sg68
(lp2420
S'HTTP_CONNECTION'
p2421
asbag61
(g82
g63
NtRp2422
(dp2423
g66
(dp2424
g93
g94
ssg75
g2413
sg68
(lp2425
S':'
asbag61
(g82
g63
NtRp2426
(dp2427
g66
(dp2428
sg75
g2413
sg68
(lp2429
g61
(g62
g63
NtRp2430
(dp2431
g66
(dp2432
g74
I3
ssg75
g2426
sg68
(lp2433
g957
asbasbasbag61
(g77
g63
NtRp2434
(dp2435
g66
(dp2436
sg75
g2304
sg68
(lp2437
g61
(g82
g63
NtRp2438
(dp2439
g66
(dp2440
g86
g87
ssg75
g2434
sg68
(lp2441
S'HTTP_COOKIE'
p2442
asbag61
(g82
g63
NtRp2443
(dp2444
g66
(dp2445
g93
g94
ssg75
g2434
sg68
(lp2446
S':'
asbag61
(g82
g63
NtRp2447
(dp2448
g66
(dp2449
sg75
g2434
sg68
(lp2450
g61
(g62
g63
NtRp2451
(dp2452
g66
(dp2453
g74
I3
ssg75
g2447
sg68
(lp2454
g979
asbasbasbag61
(g77
g63
NtRp2455
(dp2456
g66
(dp2457
sg75
g2304
sg68
(lp2458
g61
(g82
g63
NtRp2459
(dp2460
g66
(dp2461
g86
g87
ssg75
g2455
sg68
(lp2462
S'HTTP_HOST'
p2463
asbag61
(g82
g63
NtRp2464
(dp2465
g66
(dp2466
g93
g94
ssg75
g2455
sg68
(lp2467
S':'
asbag61
(g82
g63
NtRp2468
(dp2469
g66
(dp2470
sg75
g2455
sg68
(lp2471
g61
(g62
g63
NtRp2472
(dp2473
g66
(dp2474
g74
I3
ssg75
g2468
sg68
(lp2475
g1001
asbasbasbag61
(g77
g63
NtRp2476
(dp2477
g66
(dp2478
sg75
g2304
sg68
(lp2479
g61
(g82
g63
NtRp2480
(dp2481
g66
(dp2482
g86
g87
ssg75
g2476
sg68
(lp2483
S'HTTP_USER_AGENT'
p2484
asbag61
(g82
g63
NtRp2485
(dp2486
g66
(dp2487
g93
g94
ssg75
g2476
sg68
(lp2488
S':'
asbag61
(g82
g63
NtRp2489
(dp2490
g66
(dp2491
sg75
g2476
sg68
(lp2492
g61
(g62
g63
NtRp2493
(dp2494
g66
(dp2495
g74
I3
ssg75
g2489
sg68
(lp2496
g1023
asbasbasbag61
(g77
g63
NtRp2497
(dp2498
g66
(dp2499
sg75
g2304
sg68
(lp2500
g61
(g82
g63
NtRp2501
(dp2502
g66
(dp2503
g86
g87
ssg75
g2497
sg68
(lp2504
S'PATH_INFO'
p2505
asbag61
(g82
g63
NtRp2506
(dp2507
g66
(dp2508
g93
g94
ssg75
g2497
sg68
(lp2509
S':'
asbag61
(g82
g63
NtRp2510
(dp2511
g66
(dp2512
sg75
g2497
sg68
(lp2513
g61
(g62
g63
NtRp2514
(dp2515
g66
(dp2516
g74
I3
ssg75
g2510
sg68
(lp2517
g1087
asbasbasbag61
(g77
g63
NtRp2518
(dp2519
g66
(dp2520
sg75
g2304
sg68
(lp2521
g61
(g82
g63
NtRp2522
(dp2523
g66
(dp2524
g86
g87
ssg75
g2518
sg68
(lp2525
S'QUERY_STRING'
p2526
asbag61
(g82
g63
NtRp2527
(dp2528
g66
(dp2529
g93
g94
ssg75
g2518
sg68
(lp2530
S':'
asbag61
(g82
g63
NtRp2531
(dp2532
g66
(dp2533
sg75
g2518
sg68
(lp2534
g61
(g62
g63
NtRp2535
(dp2536
g66
(dp2537
g74
I3
ssg75
g2531
sg68
(lp2538
S''
asbasbasbag61
(g77
g63
NtRp2539
(dp2540
g66
(dp2541
sg75
g2304
sg68
(lp2542
g61
(g82
g63
NtRp2543
(dp2544
g66
(dp2545
g86
g87
ssg75
g2539
sg68
(lp2546
S'REMOTE_ADDR'
p2547
asbag61
(g82
g63
NtRp2548
(dp2549
g66
(dp2550
g93
g94
ssg75
g2539
sg68
(lp2551
S':'
asbag61
(g82
g63
NtRp2552
(dp2553
g66
(dp2554
sg75
g2539
sg68
(lp2555
g61
(g62
g63
NtRp2556
(dp2557
g66
(dp2558
g74
I3
ssg75
g2552
sg68
(lp2559
g206
asbasbasbag61
(g77
g63
NtRp2560
(dp2561
g66
(dp2562
sg75
g2304
sg68
(lp2563
g61
(g82
g63
NtRp2564
(dp2565
g66
(dp2566
g86
g87
ssg75
g2560
sg68
(lp2567
S'REMOTE_PORT'
p2568
asbag61
(g82
g63
NtRp2569
(dp2570
g66
(dp2571
g93
g94
ssg75
g2560
sg68
(lp2572
S':'
asbag61
(g82
g63
NtRp2573
(dp2574
g66
(dp2575
sg75
g2560
sg68
(lp2576
g61
(g62
g63
NtRp2577
(dp2578
g66
(dp2579
g74
I3
ssg75
g2573
sg68
(lp2580
g1151
asbasbasbag61
(g77
g63
NtRp2581
(dp2582
g66
(dp2583
sg75
g2304
sg68
(lp2584
g61
(g82
g63
NtRp2585
(dp2586
g66
(dp2587
g86
g87
ssg75
g2581
sg68
(lp2588
S'REQUEST_METHOD'
p2589
asbag61
(g82
g63
NtRp2590
(dp2591
g66
(dp2592
g93
g94
ssg75
g2581
sg68
(lp2593
S':'
asbag61
(g82
g63
NtRp2594
(dp2595
g66
(dp2596
sg75
g2581
sg68
(lp2597
g61
(g62
g63
NtRp2598
(dp2599
g66
(dp2600
g74
I3
ssg75
g2594
sg68
(lp2601
g1173
asbasbasbag61
(g77
g63
NtRp2602
(dp2603
g66
(dp2604
sg75
g2304
sg68
(lp2605
g61
(g82
g63
NtRp2606
(dp2607
g66
(dp2608
g86
g87
ssg75
g2602
sg68
(lp2609
S'SCRIPT_NAME'
p2610
asbag61
(g82
g63
NtRp2611
(dp2612
g66
(dp2613
g93
g94
ssg75
g2602
sg68
(lp2614
S':'
asbag61
(g82
g63
NtRp2615
(dp2616
g66
(dp2617
sg75
g2602
sg68
(lp2618
g61
(g62
g63
NtRp2619
(dp2620
g66
(dp2621
g74
I3
ssg75
g2615
sg68
(lp2622
S''
asbasbasbag61
(g77
g63
NtRp2623
(dp2624
g66
(dp2625
sg75
g2304
sg68
(lp2626
g61
(g82
g63
NtRp2627
(dp2628
g66
(dp2629
g86
g87
ssg75
g2623
sg68
(lp2630
S'SERVER_NAME'
p2631
asbag61
(g82
g63
NtRp2632
(dp2633
g66
(dp2634
g93
g94
ssg75
g2623
sg68
(lp2635
S':'
asbag61
(g82
g63
NtRp2636
(dp2637
g66
(dp2638
sg75
g2623
sg68
(lp2639
g61
(g62
g63
NtRp2640
(dp2641
g66
(dp2642
g74
I3
ssg75
g2636
sg68
(lp2643
g1216
asbasbasbag61
(g77
g63
NtRp2644
(dp2645
g66
(dp2646
sg75
g2304
sg68
(lp2647
g61
(g82
g63
NtRp2648
(dp2649
g66
(dp2650
g86
g87
ssg75
g2644
sg68
(lp2651
S'SERVER_PORT'
p2652
asbag61
(g82
g63
NtRp2653
(dp2654
g66
(dp2655
g93
g94
ssg75
g2644
sg68
(lp2656
S':'
asbag61
(g82
g63
NtRp2657
(dp2658
g66
(dp2659
sg75
g2644
sg68
(lp2660
g61
(g62
g63
NtRp2661
(dp2662
g66
(dp2663
g74
I3
ssg75
g2657
sg68
(lp2664
g1238
asbasbasbag61
(g77
g63
NtRp2665
(dp2666
g66
(dp2667
sg75
g2304
sg68
(lp2668
g61
(g82
g63
NtRp2669
(dp2670
g66
(dp2671
g86
g87
ssg75
g2665
sg68
(lp2672
S'SERVER_PROTOCOL'
p2673
asbag61
(g82
g63
NtRp2674
(dp2675
g66
(dp2676
g93
g94
ssg75
g2665
sg68
(lp2677
S':'
asbag61
(g82
g63
NtRp2678
(dp2679
g66
(dp2680
sg75
g2665
sg68
(lp2681
g61
(g62
g63
NtRp2682
(dp2683
g66
(dp2684
g74
I3
ssg75
g2678
sg68
(lp2685
g1260
asbasbasbag61
(g77
g63
NtRp2686
(dp2687
g66
(dp2688
sg75
g2304
sg68
(lp2689
g61
(g82
g63
NtRp2690
(dp2691
g66
(dp2692
g86
g87
ssg75
g2686
sg68
(lp2693
S'SERVER_SOFTWARE'
p2694
asbag61
(g82
g63
NtRp2695
(dp2696
g66
(dp2697
g93
g94
ssg75
g2686
sg68
(lp2698
S':'
asbag61
(g82
g63
NtRp2699
(dp2700
g66
(dp2701
sg75
g2686
sg68
(lp2702
g61
(g62
g63
NtRp2703
(dp2704
g66
(dp2705
g74
I3
ssg75
g2699
sg68
(lp2706
g1282
asbasbasbag61
(g77
g63
NtRp2707
(dp2708
g66
(dp2709
sg75
g2304
sg68
(lp2710
g61
(g82
g63
NtRp2711
(dp2712
g66
(dp2713
g86
g87
ssg75
g2707
sg68
(lp2714
S'wsgi.errors'
p2715
asbag61
(g82
g63
NtRp2716
(dp2717
g66
(dp2718
g93
g94
ssg75
g2707
sg68
(lp2719
S':'
asbag61
(g82
g63
NtRp2720
(dp2721
g66
(dp2722
sg75
g2707
sg68
(lp2723
g61
(g62
g63
NtRp2724
(dp2725
g66
(dp2726
g74
I3
ssg75
g2720
sg68
(lp2727
S"<open file '<stderr>', mode 'w' at 0x0000000001C6E1E0>"
p2728
asbasbasbag61
(g77
g63
NtRp2729
(dp2730
g66
(dp2731
sg75
g2304
sg68
(lp2732
g61
(g82
g63
NtRp2733
(dp2734
g66
(dp2735
g86
g87
ssg75
g2729
sg68
(lp2736
S'wsgi.file_wrapper'
p2737
asbag61
(g82
g63
NtRp2738
(dp2739
g66
(dp2740
g93
g94
ssg75
g2729
sg68
(lp2741
S':'
asbag61
(g82
g63
NtRp2742
(dp2743
g66
(dp2744
sg75
g2729
sg68
(lp2745
g61
(g62
g63
NtRp2746
(dp2747
g66
(dp2748
g74
I3
ssg75
g2742
sg68
(lp2749
S'<class wsgiref.util.FileWrapper at 0x0000000003598BE8>'
p2750
asbasbasbag61
(g77
g63
NtRp2751
(dp2752
g66
(dp2753
sg75
g2304
sg68
(lp2754
g61
(g82
g63
NtRp2755
(dp2756
g66
(dp2757
g86
g87
ssg75
g2751
sg68
(lp2758
S'wsgi.input'
p2759
asbag61
(g82
g63
NtRp2760
(dp2761
g66
(dp2762
g93
g94
ssg75
g2751
sg68
(lp2763
S':'
asbag61
(g82
g63
NtRp2764
(dp2765
g66
(dp2766
sg75
g2751
sg68
(lp2767
g61
(g62
g63
NtRp2768
(dp2769
g66
(dp2770
g74
I3
ssg75
g2764
sg68
(lp2771
S'<cStringIO.StringO object at 0x00000000045349D0>'
p2772
asbasbasbag61
(g77
g63
NtRp2773
(dp2774
g66
(dp2775
sg75
g2304
sg68
(lp2776
g61
(g82
g63
NtRp2777
(dp2778
g66
(dp2779
g86
g87
ssg75
g2773
sg68
(lp2780
S'wsgi.multiprocess'
p2781
asbag61
(g82
g63
NtRp2782
(dp2783
g66
(dp2784
g93
g94
ssg75
g2773
sg68
(lp2785
S':'
asbag61
(g82
g63
NtRp2786
(dp2787
g66
(dp2788
sg75
g2773
sg68
(lp2789
g61
(g62
g63
NtRp2790
(dp2791
g66
(dp2792
g74
I3
ssg75
g2786
sg68
(lp2793
g104
asbasbasbag61
(g77
g63
NtRp2794
(dp2795
g66
(dp2796
sg75
g2304
sg68
(lp2797
g61
(g82
g63
NtRp2798
(dp2799
g66
(dp2800
g86
g87
ssg75
g2794
sg68
(lp2801
S'wsgi.multithread'
p2802
asbag61
(g82
g63
NtRp2803
(dp2804
g66
(dp2805
g93
g94
ssg75
g2794
sg68
(lp2806
S':'
asbag61
(g82
g63
NtRp2807
(dp2808
g66
(dp2809
sg75
g2794
sg68
(lp2810
g61
(g62
g63
NtRp2811
(dp2812
g66
(dp2813
g74
I3
ssg75
g2807
sg68
(lp2814
g1522
asbasbasbag61
(g77
g63
NtRp2815
(dp2816
g66
(dp2817
sg75
g2304
sg68
(lp2818
g61
(g82
g63
NtRp2819
(dp2820
g66
(dp2821
g86
g87
ssg75
g2815
sg68
(lp2822
S'wsgi.run_once'
p2823
asbag61
(g82
g63
NtRp2824
(dp2825
g66
(dp2826
g93
g94
ssg75
g2815
sg68
(lp2827
S':'
asbag61
(g82
g63
NtRp2828
(dp2829
g66
(dp2830
sg75
g2815
sg68
(lp2831
g61
(g62
g63
NtRp2832
(dp2833
g66
(dp2834
g74
I3
ssg75
g2828
sg68
(lp2835
g104
asbasbasbag61
(g77
g63
NtRp2836
(dp2837
g66
(dp2838
sg75
g2304
sg68
(lp2839
g61
(g82
g63
NtRp2840
(dp2841
g66
(dp2842
g86
g87
ssg75
g2836
sg68
(lp2843
S'wsgi.url_scheme'
p2844
asbag61
(g82
g63
NtRp2845
(dp2846
g66
(dp2847
g93
g94
ssg75
g2836
sg68
(lp2848
S':'
asbag61
(g82
g63
NtRp2849
(dp2850
g66
(dp2851
sg75
g2836
sg68
(lp2852
g61
(g62
g63
NtRp2853
(dp2854
g66
(dp2855
g74
I3
ssg75
g2849
sg68
(lp2856
g1565
asbasbasbag61
(g77
g63
NtRp2857
(dp2858
g66
(dp2859
sg75
g2304
sg68
(lp2860
g61
(g82
g63
NtRp2861
(dp2862
g66
(dp2863
g86
g87
ssg75
g2857
sg68
(lp2864
S'wsgi.version'
p2865
asbag61
(g82
g63
NtRp2866
(dp2867
g66
(dp2868
g93
g94
ssg75
g2857
sg68
(lp2869
S':'
asbag61
(g82
g63
NtRp2870
(dp2871
g66
(dp2872
sg75
g2857
sg68
(lp2873
g61
(g62
g63
NtRp2874
(dp2875
g66
(dp2876
g74
I3
ssg75
g2870
sg68
(lp2877
S'1'
asbasbasbasbasbasbasbasbasbasbasbasbasbsS'frames'
p2878
(lp2879
(dp2880
S'file'
p2881
S'D:\\workspace\\CA\\IgoR\\C_Sources\\Server\\igor-assistant-ca-2012\\gluon\\restricted.py'
p2882
sS'dump'
p2883
(dp2884
S'environment'
p2885
S"{'A': <class 'gluon.html.A'>, 'Auth': <class 'gluon.tools.Auth'>, 'B': <class 'gluon.html.B'>, 'BEAUTIFY': <class 'gluon.html.BEAUTIFY'>, 'BODY': <class 'gluon.html.BODY'>, 'BR': <class 'gluon.html.BR'>, 'BUTTON': <class 'gluon.html.BUTTON'>, 'CAT': <class 'gluon.html.CAT'>, 'CENTER': <class 'gluon.html.CENTER'>, 'CLEANUP': <class 'gluon.validators.CLEANUP'>, ...}"
p2886
sS'ccode'
p2887
S'<code object <module> at 000000000452B7B0, file ...tions\\igor\\controllers/class_subject.py", line 9>'
p2888
ssS'lnum'
p2889
I205
sS'lines'
p2890
(dp2891
I200
S'    try:'
p2892
sI201
S'        if type(code) == types.CodeType:'
p2893
sI202
S'            ccode = code'
p2894
sI203
S'        else:'
p2895
sI204
S'            ccode = compile2(code,layer)'
p2896
sI205
S'        exec ccode in environment'
p2897
sI206
S'    except HTTP:'
p2898
sI207
S'        raise'
p2899
sI208
S'    except RestrictedError:'
p2900
sI209
S'        # do not encapsulate (obfuscate) the original RestrictedError'
p2901
ssS'call'
p2902
S"(code='# -*- coding: utf-8 -*-\\n# this file is released ...e._vars=response._caller(get_classes_by_subject)\\n', environment={'A': <class 'gluon.html.A'>, 'Auth': <class 'gluon.tools.Auth'>, 'B': <class 'gluon.html.B'>, 'BEAUTIFY': <class 'gluon.html.BEAUTIFY'>, 'BODY': <class 'gluon.html.BODY'>, 'BR': <class 'gluon.html.BR'>, 'BUTTON': <class 'gluon.html.BUTTON'>, 'CAT': <class 'gluon.html.CAT'>, 'CENTER': <class 'gluon.html.CENTER'>, 'CLEANUP': <class 'gluon.validators.CLEANUP'>, ...}, layer=r'D:\\workspace\\CA\\IgoR\\C_Sources\\Server\\igor-assis...12\\applications\\igor\\controllers/class_subject.py')"
p2903
sS'func'
p2904
S'restricted'
p2905
sa(dp2906
g2881
S'D:\\workspace\\CA\\IgoR\\C_Sources\\Server\\igor-assistant-ca-2012\\applications\\igor\\controllers\\class_subject.py'
p2907
sg2883
(dp2908
sg2889
I186
sg2890
(dp2909
I176
S'\t\tsubject_code = subject.subject_code,'
p2910
sI177
S'\t\tnum_of_day   = class_scheduler.day_of_week,'
p2911
sI178
S'        #"total_session": "Session 1-2-3",'
p2912
sI179
S'        teacher_name = class_subject.teacher,'
p2913
sI180
S'        location     = class_subject.location,'
p2914
sI181
S'        period = period,'
p2915
sI182
S'\t\tsession_start = str(session[0]),'
p2916
sI183
S'\t\t)'
p2917
sI184
S''
sI185
S'\treturn client'
p2918
ssg2902
S'()'
p2919
sg2904
S'<module>'
p2920
sa(dp2921
g2881
S'D:\\workspace\\CA\\IgoR\\C_Sources\\Server\\igor-assistant-ca-2012\\gluon\\globals.py'
p2922
sg2883
(dp2923
S'self'
p2924
S'undefined'
p2925
sS'f'
S'<function get_classes_by_subject>'
p2926
ssg2889
I173
sg2890
(dp2927
I168
S'        self.menu = []             # used by the default view layout'
p2928
sI169
S'        self.files = []            # used by web2py_ajax.html'
p2929
sI170
S'        self.generic_patterns = [] # patterns to allow generic views'
p2930
sI171
S"        self.delimiters = ('{{','}}')"
p2931
sI172
S'        self._vars = None'
p2932
sI173
S'        self._caller = lambda f: f()'
p2933
sI174
S'        self._view_environment = None'
p2934
sI175
S'        self._custom_commit = None'
p2935
sI176
S'        self._custom_rollback = None'
p2936
sI177
S''
ssg2902
S'(f=<function get_classes_by_subject>)'
p2937
sg2904
S'<lambda>'
p2938
sa(dp2939
g2881
S'D:\\workspace\\CA\\IgoR\\C_Sources\\Server\\igor-assistant-ca-2012\\gluon\\globals.py'
p2940
sg2883
(dp2941
S'rest_action'
p2942
S'<function GET>'
p2943
sS'_self'
p2944
S"<Storage {'body': <cStringIO.StringO object at 0..._vars': <Storage {}>, 'post_vars': <Storage {}>}>"
p2945
sS'_self.args'
p2946
S"['8']"
p2947
sS'_self.vars'
p2948
S'<Storage {}>'
p2949
ssg2889
I138
sg2890
(dp2950
I133
S'                    raise HTTP(400,"invalid method")'
p2951
sI134
S'                rest_action = _action().get(method,None)'
p2952
sI135
S'                if not rest_action:'
p2953
sI136
S'                    raise HTTP(400,"method not supported")'
p2954
sI137
S'                try:'
p2955
sI138
S'                    return rest_action(*_self.args,**_self.vars)'
p2956
sI139
S'                except TypeError, e:'
p2957
sI140
S'                    exc_type, exc_value, exc_traceback = sys.exc_info()'
p2958
sI141
S'                    if len(traceback.extract_tb(exc_traceback))==1:'
p2959
sI142
S'                        raise HTTP(400,"invalid arguments")'
p2960
ssg2902
S"(_action=<function get_classes_by_subject>, _self=<Storage {'body': <cStringIO.StringO object at 0..._vars': <Storage {}>, 'post_vars': <Storage {}>}>, *a=(), **b={})"
p2961
sg2904
S'f'
sa(dp2962
g2881
S'D:\\workspace\\CA\\IgoR\\C_Sources\\Server\\igor-assistant-ca-2012\\applications\\igor\\controllers\\class_subject.py'
p2963
sg2883
(dp2964
S'global db'
p2965
S"<DAL {'auth_event': <Table {'origin': <gluon.dal...gluon.dal.Field object at 0x000000000454D550>}>}>"
p2966
sS'db.class_subject'
p2967
S"<Table {'_db': <DAL {'auth_event': <Table {'orig... <gluon.dal.Field object at 0x000000000453AF98>}>"
p2968
sS'db.class_subject.term'
p2969
S'<gluon.dal.Field object>'
p2970
sS'term'
p2971
S'0'
sS').select'
p2972
g2925
ssg2889
I40
sg2890
(dp2973
I35
S'\t\tif (term == 0):'
p2974
sI36
S'\t\t\tterm = get_current_term()'
p2975
sI37
S''
sI38
S'\t\tclasses = db('
p2976
sI39
S'\t\t\tdb.class_subject.subject == subject_id and'
p2977
sI40
S'\t\t\tdb.class_subject.term == term).select()'
p2978
sI41
S''
sI42
S'\t\treturn MessagePackager.get_packaged_message(MessageStatus.OK, classes)'
p2979
sI43
S''
sI44
S'\treturn locals()'
p2980
ssg2902
S"(subject_id='8', term=0)"
p2981
sg2904
S'GET'
p2982
sa(dp2983
g2881
S'D:\\workspace\\CA\\IgoR\\C_Sources\\Server\\igor-assistant-ca-2012\\gluon\\dal.py'
p2984
sg2883
(dp2985
S'self.query'
p2986
S'<gluon.dal.Query object>'
p2987
sS'adapter.select'
p2988
S'<bound method SQLiteAdapter.select of <gluon.dal.SQLiteAdapter object>>'
p2989
sS'fields'
p2990
S'[<gluon.dal.Field object>, <gluon.dal.Field object>, <gluon.dal.Field object>, <gluon.dal.Field object>, <gluon.dal.Field object>, <gluon.dal.Field object>, <gluon.dal.Field object>, <gluon.dal.Field object>]'
p2991
sS'adapter'
p2992
S'<gluon.dal.SQLiteAdapter object>'
p2993
sS'attributes'
p2994
g21
sS'self'
p2995
S'<gluon.dal.Set object>'
p2996
ssg2889
I7578
sg2890
(dp2997
I7573
S'        return self.db._adapter.count(self.query,distinct)'
p2998
sI7574
S''
sI7575
S'    def select(self, *fields, **attributes):'
p2999
sI7576
S'        adapter = self.db._adapter'
p3000
sI7577
S'        fields = adapter.expand_all(fields, adapter.tables(self.query))'
p3001
sI7578
S'        return adapter.select(self.query,fields,attributes)'
p3002
sI7579
S''
sI7580
S'    def delete(self):'
p3003
sI7581
S'        tablename=self.db._adapter.get_table(self.query)'
p3004
sI7582
S'        self.delete_uploaded_files()'
p3005
ssg2902
S'(self=<gluon.dal.Set object>, *fields=[<gluon.dal.Field object>, <gluon.dal.Field object>, <gluon.dal.Field object>, <gluon.dal.Field object>, <gluon.dal.Field object>, <gluon.dal.Field object>, <gluon.dal.Field object>, <gluon.dal.Field object>], **attributes={})'
p3006
sg2904
S'select'
p3007
sa(dp3008
g2881
S'D:\\workspace\\CA\\IgoR\\C_Sources\\Server\\igor-assistant-ca-2012\\gluon\\dal.py'
p3009
sg2883
(dp3010
S'rows'
p3011
g2925
sS'response'
p3012
S'<function response>'
p3013
sS'sql'
p3014
S"'SELECT  class_subject.id, class_subject.subject,...ROM class_subject WHERE (class_subject.term = 0);'"
p3015
ssg2889
I1315
sg2890
(dp3016
I1312
S'            key = (len(key)<=200) and key or hashlib.md5(key).hexdigest()'
p3017
sI1313
S'            rows = cache_model(key, lambda: response(sql), time_expire)'
p3018
sI1314
S'        else:'
p3019
sI1315
S'            rows = response(sql)'
p3020
sI1316
S'        if isinstance(rows,tuple):'
p3021
sI1317
S'            rows = list(rows)'
p3022
sI1318
S"        limitby = attributes.get('limitby', None) or (0,)"
p3023
sI1319
S'        rows = self.rowslice(rows,limitby[0],None)'
p3024
sI1310
S"            del attributes['cache']"
p3025
sI1311
S"            key = self.uri + '/' + sql"
p3026
ssg2902
S'(self=<gluon.dal.SQLiteAdapter object>, query=<gluon.dal.Query object>, fields=[<gluon.dal.Field object>, <gluon.dal.Field object>, <gluon.dal.Field object>, <gluon.dal.Field object>, <gluon.dal.Field object>, <gluon.dal.Field object>, <gluon.dal.Field object>, <gluon.dal.Field object>], attributes={})'
p3027
sg2904
g3007
sa(dp3028
g2881
S'D:\\workspace\\CA\\IgoR\\C_Sources\\Server\\igor-assistant-ca-2012\\gluon\\dal.py'
p3029
sg2883
(dp3030
S'self'
p3031
S'<gluon.dal.SQLiteAdapter object>'
p3032
sS'self.execute'
p3033
S'<bound method SQLiteAdapter.execute of <gluon.dal.SQLiteAdapter object>>'
p3034
sS'sql'
p3035
S"'SELECT  class_subject.id, class_subject.subject,...ROM class_subject WHERE (class_subject.term = 0);'"
p3036
ssg2889
I1305
sg2890
(dp3037
I1300
S'    def select(self, query, fields, attributes):'
p3038
sI1301
S'        """'
p3039
sI1302
S'        Always returns a Rows object, possibly empty.'
p3040
sI1303
S'        """'
p3041
sI1304
S'        def response(sql):'
p3042
sI1305
S'            self.execute(sql)'
p3043
sI1306
S'            return self.cursor.fetchall()'
p3044
sI1307
S'        sql = self._select(query, fields, attributes)'
p3045
sI1308
S"        if attributes.get('cache', None):"
p3046
sI1309
S"            (cache_model, time_expire) = attributes['cache']"
p3047
ssg2902
S"(sql='SELECT  class_subject.id, class_subject.subject,...ROM class_subject WHERE (class_subject.term = 0);')"
p3048
sg2904
S'response'
p3049
sa(dp3050
g2881
S'D:\\workspace\\CA\\IgoR\\C_Sources\\Server\\igor-assistant-ca-2012\\gluon\\dal.py'
p3051
sg2883
(dp3052
S'a'
S"('SELECT  class_subject.id, class_subject.subject,...ROM class_subject WHERE (class_subject.term = 0);',)"
p3053
sS'self'
p3054
S'<gluon.dal.SQLiteAdapter object>'
p3055
sS'b'
g21
sS'self.log_execute'
p3056
S'<bound method SQLiteAdapter.log_execute of <gluon.dal.SQLiteAdapter object>>'
p3057
ssg2889
I1392
sg2890
(dp3058
I1387
S'        self.db._timings.append((a[0],time.time()-t0))'
p3059
sI1388
S'        del self.db._timings[:-TIMINGSSIZE]'
p3060
sI1389
S'        return ret'
p3061
sI1390
S''
sI1391
S'    def execute(self, *a, **b):'
p3062
sI1392
S'        return self.log_execute(*a, **b)'
p3063
sI1393
S''
sI1394
S'    def represent(self, obj, fieldtype):'
p3064
sI1395
S'        if isinstance(obj, CALLABLETYPES):'
p3065
sI1396
S'            obj = obj()'
p3066
ssg2902
S"(self=<gluon.dal.SQLiteAdapter object>, *a=('SELECT  class_subject.id, class_subject.subject,...ROM class_subject WHERE (class_subject.term = 0);',), **b={})"
p3067
sg2904
S'execute'
p3068
sa(dp3069
g2881
S'D:\\workspace\\CA\\IgoR\\C_Sources\\Server\\igor-assistant-ca-2012\\gluon\\dal.py'
p3070
sg2883
(dp3071
S'a'
S"('SELECT  class_subject.id, class_subject.subject,...ROM class_subject WHERE (class_subject.term = 0);',)"
p3072
sS'b'
g21
sS'self'
p3073
S'<gluon.dal.SQLiteAdapter object>'
p3074
sS'ret'
p3075
g2925
sS'self.cursor'
p3076
S'<sqlite3.Cursor object>'
p3077
sS'self.cursor.execute'
p3078
S'<built-in method execute of sqlite3.Cursor object>'
p3079
ssg2889
I1386
sg2890
(dp3080
I1381
S'        self.execute(query)'
p3081
sI1382
S''
sI1383
S'    def log_execute(self, *a, **b):'
p3082
sI1384
S'        self.db._lastsql = a[0]'
p3083
sI1385
S'        t0 = time.time()'
p3084
sI1386
S'        ret = self.cursor.execute(*a, **b)'
p3085
sI1387
S'        self.db._timings.append((a[0],time.time()-t0))'
p3086
sI1388
S'        del self.db._timings[:-TIMINGSSIZE]'
p3087
sI1389
S'        return ret'
p3088
sI1390
S''
ssg2902
S"(self=<gluon.dal.SQLiteAdapter object>, *a=('SELECT  class_subject.id, class_subject.subject,...ROM class_subject WHERE (class_subject.term = 0);',), **b={})"
p3089
sg2904
S'log_execute'
p3090
sasS'pyver'
p3091
S'Python 2.7.3: C:\\Python27\\python.exe'
p3092
sS'session'
p3093
g61
(g62
g63
NtRp3094
(dp3095
g66
(dp3096
sg68
(lp3097
g61
(g70
g63
NtRp3098
(dp3099
g66
(dp3100
g74
I5
ssg75
Nsg68
(lp3101
sbasbsS'etype'
p3102
S"<class 'sqlite3.OperationalError'>"
p3103
sS'date'
p3104
S'Sun Jul 29 22:44:19 2012'
p3105
sg3049
g61
(g62
g63
NtRp3106
(dp3107
g66
(dp3108
sg68
(lp3109
g61
(g70
g63
NtRp3110
(dp3111
g66
(dp3112
g74
I5
ssg75
Nsg68
(lp3113
g61
(g77
g63
NtRp3114
(dp3115
g66
(dp3116
sg75
g3110
sg68
(lp3117
g61
(g82
g63
NtRp3118
(dp3119
g66
(dp3120
g86
g87
ssg75
g3114
sg68
(lp3121
g171
asbag61
(g82
g63
NtRp3122
(dp3123
g66
(dp3124
g93
g94
ssg75
g3114
sg68
(lp3125
S':'
asbag61
(g82
g63
NtRp3126
(dp3127
g66
(dp3128
sg75
g3114
sg68
(lp3129
g61
(g62
g63
NtRp3130
(dp3131
g66
(dp3132
g74
I5
ssg75
g3126
sg68
(lp3133
S'<cStringIO.StringO object at 0x0000000004545B20>'
p3134
asbasbasbag61
(g77
g63
NtRp3135
(dp3136
g66
(dp3137
sg75
g3110
sg68
(lp3138
g61
(g82
g63
NtRp3139
(dp3140
g66
(dp3141
g86
g87
ssg75
g3135
sg68
(lp3142
g237
asbag61
(g82
g63
NtRp3143
(dp3144
g66
(dp3145
g93
g94
ssg75
g3135
sg68
(lp3146
S':'
asbag61
(g82
g63
NtRp3147
(dp3148
g66
(dp3149
sg75
g3135
sg68
(lp3150
g61
(g62
g63
NtRp3151
(dp3152
g66
(dp3153
g74
I5
ssg75
g3147
sg68
(lp3154
g61
(g70
g63
NtRp3155
(dp3156
g66
(dp3157
g74
I4
ssg75
Nsg68
(lp3158
g61
(g77
g63
NtRp3159
(dp3160
g66
(dp3161
sg75
g3155
sg68
(lp3162
g61
(g82
g63
NtRp3163
(dp3164
g66
(dp3165
g86
g87
ssg75
g3159
sg68
(lp3166
S'session_id_igor'
p3167
asbag61
(g82
g63
NtRp3168
(dp3169
g66
(dp3170
g93
g94
ssg75
g3159
sg68
(lp3171
S':'
asbag61
(g82
g63
NtRp3172
(dp3173
g66
(dp3174
sg75
g3159
sg68
(lp3175
g61
(g62
g63
NtRp3176
(dp3177
g66
(dp3178
g74
I4
ssg75
g3172
sg68
(lp3179
g61
(g70
g63
NtRp3180
(dp3181
g66
(dp3182
g74
I3
ssg75
Nsg68
(lp3183
g61
(g77
g63
NtRp3184
(dp3185
g66
(dp3186
sg75
g3180
sg68
(lp3187
g61
(g82
g63
NtRp3188
(dp3189
g66
(dp3190
g86
g87
ssg75
g3184
sg68
(lp3191
g287
asbag61
(g82
g63
NtRp3192
(dp3193
g66
(dp3194
g93
g94
ssg75
g3184
sg68
(lp3195
S':'
asbag61
(g82
g63
NtRp3196
(dp3197
g66
(dp3198
sg75
g3184
sg68
(lp3199
g61
(g62
g63
NtRp3200
(dp3201
g66
(dp3202
g74
I3
ssg75
g3196
sg68
(lp3203
S''
asbasbasbag61
(g77
g63
NtRp3204
(dp3205
g66
(dp3206
sg75
g3180
sg68
(lp3207
g61
(g82
g63
NtRp3208
(dp3209
g66
(dp3210
g86
g87
ssg75
g3204
sg68
(lp3211
g308
asbag61
(g82
g63
NtRp3212
(dp3213
g66
(dp3214
g93
g94
ssg75
g3204
sg68
(lp3215
S':'
asbag61
(g82
g63
NtRp3216
(dp3217
g66
(dp3218
sg75
g3204
sg68
(lp3219
g61
(g62
g63
NtRp3220
(dp3221
g66
(dp3222
g74
I3
ssg75
g3216
sg68
(lp3223
S''
asbasbasbag61
(g77
g63
NtRp3224
(dp3225
g66
(dp3226
sg75
g3180
sg68
(lp3227
g61
(g82
g63
NtRp3228
(dp3229
g66
(dp3230
g86
g87
ssg75
g3224
sg68
(lp3231
g329
asbag61
(g82
g63
NtRp3232
(dp3233
g66
(dp3234
g93
g94
ssg75
g3224
sg68
(lp3235
S':'
asbag61
(g82
g63
NtRp3236
(dp3237
g66
(dp3238
sg75
g3224
sg68
(lp3239
g61
(g62
g63
NtRp3240
(dp3241
g66
(dp3242
g74
I3
ssg75
g3236
sg68
(lp3243
S''
asbasbasbag61
(g77
g63
NtRp3244
(dp3245
g66
(dp3246
sg75
g3180
sg68
(lp3247
g61
(g82
g63
NtRp3248
(dp3249
g66
(dp3250
g86
g87
ssg75
g3244
sg68
(lp3251
g350
asbag61
(g82
g63
NtRp3252
(dp3253
g66
(dp3254
g93
g94
ssg75
g3244
sg68
(lp3255
S':'
asbag61
(g82
g63
NtRp3256
(dp3257
g66
(dp3258
sg75
g3244
sg68
(lp3259
g61
(g62
g63
NtRp3260
(dp3261
g66
(dp3262
g74
I3
ssg75
g3256
sg68
(lp3263
S''
asbasbasbag61
(g77
g63
NtRp3264
(dp3265
g66
(dp3266
sg75
g3180
sg68
(lp3267
g61
(g82
g63
NtRp3268
(dp3269
g66
(dp3270
g86
g87
ssg75
g3264
sg68
(lp3271
g371
asbag61
(g82
g63
NtRp3272
(dp3273
g66
(dp3274
g93
g94
ssg75
g3264
sg68
(lp3275
S':'
asbag61
(g82
g63
NtRp3276
(dp3277
g66
(dp3278
sg75
g3264
sg68
(lp3279
g61
(g62
g63
NtRp3280
(dp3281
g66
(dp3282
g74
I3
ssg75
g3276
sg68
(lp3283
S''
asbasbasbag61
(g77
g63
NtRp3284
(dp3285
g66
(dp3286
sg75
g3180
sg68
(lp3287
g61
(g82
g63
NtRp3288
(dp3289
g66
(dp3290
g86
g87
ssg75
g3284
sg68
(lp3291
g392
asbag61
(g82
g63
NtRp3292
(dp3293
g66
(dp3294
g93
g94
ssg75
g3284
sg68
(lp3295
S':'
asbag61
(g82
g63
NtRp3296
(dp3297
g66
(dp3298
sg75
g3284
sg68
(lp3299
g61
(g62
g63
NtRp3300
(dp3301
g66
(dp3302
g74
I3
ssg75
g3296
sg68
(lp3303
S'/'
asbasbasbag61
(g77
g63
NtRp3304
(dp3305
g66
(dp3306
sg75
g3180
sg68
(lp3307
g61
(g82
g63
NtRp3308
(dp3309
g66
(dp3310
g86
g87
ssg75
g3304
sg68
(lp3311
g413
asbag61
(g82
g63
NtRp3312
(dp3313
g66
(dp3314
g93
g94
ssg75
g3304
sg68
(lp3315
S':'
asbag61
(g82
g63
NtRp3316
(dp3317
g66
(dp3318
sg75
g3304
sg68
(lp3319
g61
(g62
g63
NtRp3320
(dp3321
g66
(dp3322
g74
I3
ssg75
g3316
sg68
(lp3323
S''
asbasbasbag61
(g77
g63
NtRp3324
(dp3325
g66
(dp3326
sg75
g3180
sg68
(lp3327
g61
(g82
g63
NtRp3328
(dp3329
g66
(dp3330
g86
g87
ssg75
g3324
sg68
(lp3331
g434
asbag61
(g82
g63
NtRp3332
(dp3333
g66
(dp3334
g93
g94
ssg75
g3324
sg68
(lp3335
S':'
asbag61
(g82
g63
NtRp3336
(dp3337
g66
(dp3338
sg75
g3324
sg68
(lp3339
g61
(g62
g63
NtRp3340
(dp3341
g66
(dp3342
g74
I3
ssg75
g3336
sg68
(lp3343
S''
asbasbasbasbasbasbasbasbasbasbasbag61
(g77
g63
NtRp3344
(dp3345
g66
(dp3346
sg75
g3110
sg68
(lp3347
g61
(g82
g63
NtRp3348
(dp3349
g66
(dp3350
g86
g87
ssg75
g3344
sg68
(lp3351
S'delimiters'
p3352
asbag61
(g82
g63
NtRp3353
(dp3354
g66
(dp3355
g93
g94
ssg75
g3344
sg68
(lp3356
S':'
asbag61
(g82
g63
NtRp3357
(dp3358
g66
(dp3359
sg75
g3344
sg68
(lp3360
g61
(g62
g63
NtRp3361
(dp3362
g66
(dp3363
g74
I5
ssg75
g3357
sg68
(lp3364
g61
(g70
g63
NtRp3365
(dp3366
g66
(dp3367
g74
I4
ssg75
Nsg68
(lp3368
g61
(g77
g63
NtRp3369
(dp3370
g66
(dp3371
sg75
g3365
sg68
(lp3372
g61
(g82
g63
NtRp3373
(dp3374
g66
(dp3375
sg75
g3369
sg68
(lp3376
g61
(g62
g63
NtRp3377
(dp3378
g66
(dp3379
g74
I4
ssg75
g3373
sg68
(lp3380
S'{{'
p3381
asbasbasbag61
(g77
g63
NtRp3382
(dp3383
g66
(dp3384
sg75
g3365
sg68
(lp3385
g61
(g82
g63
NtRp3386
(dp3387
g66
(dp3388
sg75
g3382
sg68
(lp3389
g61
(g62
g63
NtRp3390
(dp3391
g66
(dp3392
g74
I4
ssg75
g3386
sg68
(lp3393
S'}}'
p3394
asbasbasbasbasbasbasbag61
(g77
g63
NtRp3395
(dp3396
g66
(dp3397
sg75
g3110
sg68
(lp3398
g61
(g82
g63
NtRp3399
(dp3400
g66
(dp3401
g86
g87
ssg75
g3395
sg68
(lp3402
S'files'
p3403
asbag61
(g82
g63
NtRp3404
(dp3405
g66
(dp3406
g93
g94
ssg75
g3395
sg68
(lp3407
S':'
asbag61
(g82
g63
NtRp3408
(dp3409
g66
(dp3410
sg75
g3395
sg68
(lp3411
g61
(g62
g63
NtRp3412
(dp3413
g66
(dp3414
g74
I5
ssg75
g3408
sg68
(lp3415
g61
(g70
g63
NtRp3416
(dp3417
g66
(dp3418
g74
I4
ssg75
Nsg68
(lp3419
sbasbasbasbag61
(g77
g63
NtRp3420
(dp3421
g66
(dp3422
sg75
g3110
sg68
(lp3423
g61
(g82
g63
NtRp3424
(dp3425
g66
(dp3426
g86
g87
ssg75
g3420
sg68
(lp3427
S'flash'
p3428
asbag61
(g82
g63
NtRp3429
(dp3430
g66
(dp3431
g93
g94
ssg75
g3420
sg68
(lp3432
S':'
asbag61
(g82
g63
NtRp3433
(dp3434
g66
(dp3435
sg75
g3420
sg68
(lp3436
g61
(g62
g63
NtRp3437
(dp3438
g66
(dp3439
g74
I5
ssg75
g3433
sg68
(lp3440
S''
asbasbasbag61
(g77
g63
NtRp3441
(dp3442
g66
(dp3443
sg75
g3110
sg68
(lp3444
g61
(g82
g63
NtRp3445
(dp3446
g66
(dp3447
g86
g87
ssg75
g3441
sg68
(lp3448
S'generic_patterns'
p3449
asbag61
(g82
g63
NtRp3450
(dp3451
g66
(dp3452
g93
g94
ssg75
g3441
sg68
(lp3453
S':'
asbag61
(g82
g63
NtRp3454
(dp3455
g66
(dp3456
sg75
g3441
sg68
(lp3457
g61
(g62
g63
NtRp3458
(dp3459
g66
(dp3460
g74
I5
ssg75
g3454
sg68
(lp3461
g61
(g70
g63
NtRp3462
(dp3463
g66
(dp3464
g74
I4
ssg75
Nsg68
(lp3465
g61
(g77
g63
NtRp3466
(dp3467
g66
(dp3468
sg75
g3462
sg68
(lp3469
g61
(g82
g63
NtRp3470
(dp3471
g66
(dp3472
sg75
g3466
sg68
(lp3473
g61
(g62
g63
NtRp3474
(dp3475
g66
(dp3476
g74
I4
ssg75
g3470
sg68
(lp3477
S'*'
asbasbasbasbasbasbasbag61
(g77
g63
NtRp3478
(dp3479
g66
(dp3480
sg75
g3110
sg68
(lp3481
g61
(g82
g63
NtRp3482
(dp3483
g66
(dp3484
g86
g87
ssg75
g3478
sg68
(lp3485
S'headers'
p3486
asbag61
(g82
g63
NtRp3487
(dp3488
g66
(dp3489
g93
g94
ssg75
g3478
sg68
(lp3490
S':'
asbag61
(g82
g63
NtRp3491
(dp3492
g66
(dp3493
sg75
g3478
sg68
(lp3494
g61
(g62
g63
NtRp3495
(dp3496
g66
(dp3497
g74
I5
ssg75
g3491
sg68
(lp3498
g61
(g70
g63
NtRp3499
(dp3500
g66
(dp3501
g74
I4
ssg75
Nsg68
(lp3502
g61
(g77
g63
NtRp3503
(dp3504
g66
(dp3505
sg75
g3499
sg68
(lp3506
g61
(g82
g63
NtRp3507
(dp3508
g66
(dp3509
g86
g87
ssg75
g3503
sg68
(lp3510
S'Cache-Control'
p3511
asbag61
(g82
g63
NtRp3512
(dp3513
g66
(dp3514
g93
g94
ssg75
g3503
sg68
(lp3515
S':'
asbag61
(g82
g63
NtRp3516
(dp3517
g66
(dp3518
sg75
g3503
sg68
(lp3519
g61
(g62
g63
NtRp3520
(dp3521
g66
(dp3522
g74
I4
ssg75
g3516
sg68
(lp3523
S'no-store, no-cache, must-revalidate, post-check=0, pre-check=0'
p3524
asbasbasbag61
(g77
g63
NtRp3525
(dp3526
g66
(dp3527
sg75
g3499
sg68
(lp3528
g61
(g82
g63
NtRp3529
(dp3530
g66
(dp3531
g86
g87
ssg75
g3525
sg68
(lp3532
S'Content-Type'
p3533
asbag61
(g82
g63
NtRp3534
(dp3535
g66
(dp3536
g93
g94
ssg75
g3525
sg68
(lp3537
S':'
asbag61
(g82
g63
NtRp3538
(dp3539
g66
(dp3540
sg75
g3525
sg68
(lp3541
g61
(g62
g63
NtRp3542
(dp3543
g66
(dp3544
g74
I4
ssg75
g3538
sg68
(lp3545
S'text/html; charset=utf-8'
p3546
asbasbasbag61
(g77
g63
NtRp3547
(dp3548
g66
(dp3549
sg75
g3499
sg68
(lp3550
g61
(g82
g63
NtRp3551
(dp3552
g66
(dp3553
g86
g87
ssg75
g3547
sg68
(lp3554
S'Expires'
p3555
asbag61
(g82
g63
NtRp3556
(dp3557
g66
(dp3558
g93
g94
ssg75
g3547
sg68
(lp3559
S':'
asbag61
(g82
g63
NtRp3560
(dp3561
g66
(dp3562
sg75
g3547
sg68
(lp3563
g61
(g62
g63
NtRp3564
(dp3565
g66
(dp3566
g74
I4
ssg75
g3560
sg68
(lp3567
S'Sun, 29 Jul 2012 15:44:18 GMT'
p3568
asbasbasbag61
(g77
g63
NtRp3569
(dp3570
g66
(dp3571
sg75
g3499
sg68
(lp3572
g61
(g82
g63
NtRp3573
(dp3574
g66
(dp3575
g86
g87
ssg75
g3569
sg68
(lp3576
S'Pragma'
p3577
asbag61
(g82
g63
NtRp3578
(dp3579
g66
(dp3580
g93
g94
ssg75
g3569
sg68
(lp3581
S':'
asbag61
(g82
g63
NtRp3582
(dp3583
g66
(dp3584
sg75
g3569
sg68
(lp3585
g61
(g62
g63
NtRp3586
(dp3587
g66
(dp3588
g74
I4
ssg75
g3582
sg68
(lp3589
S'no-cache'
p3590
asbasbasbag61
(g77
g63
NtRp3591
(dp3592
g66
(dp3593
sg75
g3499
sg68
(lp3594
g61
(g82
g63
NtRp3595
(dp3596
g66
(dp3597
g86
g87
ssg75
g3591
sg68
(lp3598
S'X-Powered-By'
p3599
asbag61
(g82
g63
NtRp3600
(dp3601
g66
(dp3602
g93
g94
ssg75
g3591
sg68
(lp3603
S':'
asbag61
(g82
g63
NtRp3604
(dp3605
g66
(dp3606
sg75
g3591
sg68
(lp3607
g61
(g62
g63
NtRp3608
(dp3609
g66
(dp3610
g74
I4
ssg75
g3604
sg68
(lp3611
S'web2py'
p3612
asbasbasbasbasbasbasbag61
(g77
g63
NtRp3613
(dp3614
g66
(dp3615
sg75
g3110
sg68
(lp3616
g61
(g82
g63
NtRp3617
(dp3618
g66
(dp3619
g86
g87
ssg75
g3613
sg68
(lp3620
S'menu'
p3621
asbag61
(g82
g63
NtRp3622
(dp3623
g66
(dp3624
g93
g94
ssg75
g3613
sg68
(lp3625
S':'
asbag61
(g82
g63
NtRp3626
(dp3627
g66
(dp3628
sg75
g3613
sg68
(lp3629
g61
(g62
g63
NtRp3630
(dp3631
g66
(dp3632
g74
I5
ssg75
g3626
sg68
(lp3633
g61
(g70
g63
NtRp3634
(dp3635
g66
(dp3636
g74
I4
ssg75
Nsg68
(lp3637
g61
(g77
g63
NtRp3638
(dp3639
g66
(dp3640
sg75
g3634
sg68
(lp3641
g61
(g82
g63
NtRp3642
(dp3643
g66
(dp3644
sg75
g3638
sg68
(lp3645
g61
(g62
g63
NtRp3646
(dp3647
g66
(dp3648
g74
I4
ssg75
g3642
sg68
(lp3649
g61
(g70
g63
NtRp3650
(dp3651
g66
(dp3652
g74
I3
ssg75
Nsg68
(lp3653
g61
(g77
g63
NtRp3654
(dp3655
g66
(dp3656
sg75
g3650
sg68
(lp3657
g61
(g82
g63
NtRp3658
(dp3659
g66
(dp3660
sg75
g3654
sg68
(lp3661
g61
(g62
g63
NtRp3662
(dp3663
g66
(dp3664
g74
I3
ssg75
g3658
sg68
(lp3665
cgluon.languages
lazyT_unpickle
p3666
(S't\x04\x00\x00\x00Home'
tRp3667
asbasbasbag61
(g77
g63
NtRp3668
(dp3669
g66
(dp3670
sg75
g3650
sg68
(lp3671
g61
(g82
g63
NtRp3672
(dp3673
g66
(dp3674
sg75
g3668
sg68
(lp3675
g61
(g62
g63
NtRp3676
(dp3677
g66
(dp3678
g74
I3
ssg75
g3672
sg68
(lp3679
g104
asbasbasbag61
(g77
g63
NtRp3680
(dp3681
g66
(dp3682
sg75
g3650
sg68
(lp3683
g61
(g82
g63
NtRp3684
(dp3685
g66
(dp3686
sg75
g3680
sg68
(lp3687
g61
(g62
g63
NtRp3688
(dp3689
g66
(dp3690
g74
I3
ssg75
g3684
sg68
(lp3691
S'/igor/default/index'
p3692
asbasbasbag61
(g77
g63
NtRp3693
(dp3694
g66
(dp3695
sg75
g3650
sg68
(lp3696
g61
(g82
g63
NtRp3697
(dp3698
g66
(dp3699
sg75
g3693
sg68
(lp3700
g61
(g62
g63
NtRp3701
(dp3702
g66
(dp3703
g74
I3
ssg75
g3697
sg68
(lp3704
g61
(g70
g63
NtRp3705
(dp3706
g66
(dp3707
g74
I2
ssg75
Nsg68
(lp3708
sbasbasbasbasbasbasbasbag61
(g77
g63
NtRp3709
(dp3710
g66
(dp3711
sg75
g3634
sg68
(lp3712
g61
(g82
g63
NtRp3713
(dp3714
g66
(dp3715
sg75
g3709
sg68
(lp3716
g61
(g62
g63
NtRp3717
(dp3718
g66
(dp3719
g74
I4
ssg75
g3713
sg68
(lp3720
g61
(g70
g63
NtRp3721
(dp3722
g66
(dp3723
g74
I3
ssg75
Nsg68
(lp3724
g61
(g77
g63
NtRp3725
(dp3726
g66
(dp3727
sg75
g3721
sg68
(lp3728
g61
(g82
g63
NtRp3729
(dp3730
g66
(dp3731
sg75
g3725
sg68
(lp3732
g61
(g62
g63
NtRp3733
(dp3734
g66
(dp3735
g74
I3
ssg75
g3729
sg68
(lp3736
g61
(cgluon.html
SPAN
p3737
g63
NtRp3738
(dp3739
g66
(dp3740
g86
S'color:yellow'
p3741
ssg75
Nsg68
(lp3742
g3612
asbasbasbasbag61
(g77
g63
NtRp3743
(dp3744
g66
(dp3745
sg75
g3721
sg68
(lp3746
g61
(g82
g63
NtRp3747
(dp3748
g66
(dp3749
sg75
g3743
sg68
(lp3750
g61
(g62
g63
NtRp3751
(dp3752
g66
(dp3753
g74
I3
ssg75
g3747
sg68
(lp3754
g104
asbasbasbag61
(g77
g63
NtRp3755
(dp3756
g66
(dp3757
sg75
g3721
sg68
(lp3758
g61
(g82
g63
NtRp3759
(dp3760
g66
(dp3761
sg75
g3755
sg68
(lp3762
g61
(g62
g63
NtRp3763
(dp3764
g66
(dp3765
g74
I3
ssg75
g3759
sg68
(lp3766
S'None'
p3767
asbasbasbag61
(g77
g63
NtRp3768
(dp3769
g66
(dp3770
sg75
g3721
sg68
(lp3771
g61
(g82
g63
NtRp3772
(dp3773
g66
(dp3774
sg75
g3768
sg68
(lp3775
g61
(g62
g63
NtRp3776
(dp3777
g66
(dp3778
g74
I3
ssg75
g3772
sg68
(lp3779
g61
(g70
g63
NtRp3780
(dp3781
g66
(dp3782
g74
I2
ssg75
Nsg68
(lp3783
g61
(g77
g63
NtRp3784
(dp3785
g66
(dp3786
sg75
g3780
sg68
(lp3787
g61
(g82
g63
NtRp3788
(dp3789
g66
(dp3790
sg75
g3784
sg68
(lp3791
g61
(g62
g63
NtRp3792
(dp3793
g66
(dp3794
g74
I2
ssg75
g3788
sg68
(lp3795
g61
(g70
g63
NtRp3796
(dp3797
g66
(dp3798
g74
I1
ssg75
Nsg68
(lp3799
g61
(g77
g63
NtRp3800
(dp3801
g66
(dp3802
sg75
g3796
sg68
(lp3803
g61
(g82
g63
NtRp3804
(dp3805
g66
(dp3806
sg75
g3800
sg68
(lp3807
g61
(g62
g63
NtRp3808
(dp3809
g66
(dp3810
g74
I1
ssg75
g3804
sg68
(lp3811
g3666
(S's\x08\x00\x00\x00My Sites'
tRp3812
asbasbasbag61
(g77
g63
NtRp3813
(dp3814
g66
(dp3815
sg75
g3796
sg68
(lp3816
g61
(g82
g63
NtRp3817
(dp3818
g66
(dp3819
sg75
g3813
sg68
(lp3820
g61
(g62
g63
NtRp3821
(dp3822
g66
(dp3823
g74
I1
ssg75
g3817
sg68
(lp3824
I00
asbasbasbag61
(g77
g63
NtRp3825
(dp3826
g66
(dp3827
sg75
g3796
sg68
(lp3828
g61
(g82
g63
NtRp3829
(dp3830
g66
(dp3831
sg75
g3825
sg68
(lp3832
g61
(g62
g63
NtRp3833
(dp3834
g66
(dp3835
g74
I1
ssg75
g3829
sg68
(lp3836
S'/admin/default/site'
p3837
asbasbasbasbasbasbasbag61
(g77
g63
NtRp3838
(dp3839
g66
(dp3840
sg75
g3780
sg68
(lp3841
g61
(g82
g63
NtRp3842
(dp3843
g66
(dp3844
sg75
g3838
sg68
(lp3845
g61
(g62
g63
NtRp3846
(dp3847
g66
(dp3848
g74
I2
ssg75
g3842
sg68
(lp3849
g61
(g70
g63
NtRp3850
(dp3851
g66
(dp3852
g74
I1
ssg75
Nsg68
(lp3853
g61
(g77
g63
NtRp3854
(dp3855
g66
(dp3856
sg75
g3850
sg68
(lp3857
g61
(g82
g63
NtRp3858
(dp3859
g66
(dp3860
sg75
g3854
sg68
(lp3861
g61
(g62
g63
NtRp3862
(dp3863
g66
(dp3864
g74
I1
ssg75
g3858
sg68
(lp3865
g3666
(S's\x08\x00\x00\x00This App'
tRp3866
asbasbasbag61
(g77
g63
NtRp3867
(dp3868
g66
(dp3869
sg75
g3850
sg68
(lp3870
g61
(g82
g63
NtRp3871
(dp3872
g66
(dp3873
sg75
g3867
sg68
(lp3874
g61
(g62
g63
NtRp3875
(dp3876
g66
(dp3877
g74
I1
ssg75
g3871
sg68
(lp3878
I00
asbasbasbag61
(g77
g63
NtRp3879
(dp3880
g66
(dp3881
sg75
g3850
sg68
(lp3882
g61
(g82
g63
NtRp3883
(dp3884
g66
(dp3885
sg75
g3879
sg68
(lp3886
g61
(g62
g63
NtRp3887
(dp3888
g66
(dp3889
g74
I1
ssg75
g3883
sg68
(lp3890
S'/admin/default/design/igor'
p3891
asbasbasbag61
(g77
g63
NtRp3892
(dp3893
g66
(dp3894
sg75
g3850
sg68
(lp3895
g61
(g82
g63
NtRp3896
(dp3897
g66
(dp3898
sg75
g3892
sg68
(lp3899
g61
(g62
g63
NtRp3900
(dp3901
g66
(dp3902
g74
I1
ssg75
g3896
sg68
(lp3903
(lp3904
(g3666
(S't\n\x00\x00\x00Controller'
tRp3905
I00
S'/admin/default/edit/igor/controllers/class_subject.py'
tp3906
a(g3666
(S't\x04\x00\x00\x00View'
tRp3907
I00
S'/admin/default/edit/igor/views/class_subject/get_classes_by_subject.html'
tp3908
a(g3666
(S't\x06\x00\x00\x00Layout'
tRp3909
I00
S'/admin/default/edit/igor/views/layout.html'
tp3910
a(g3666
(S't\n\x00\x00\x00Stylesheet'
tRp3911
I00
S'/admin/default/edit/igor/static/css/web2py.css'
tp3912
a(g3666
(S's\x08\x00\x00\x00DB Model'
tRp3913
I00
S'/admin/default/edit/igor/models/db.py'
tp3914
a(g3666
(S's\n\x00\x00\x00Menu Model'
tRp3915
I00
S'/admin/default/edit/igor/models/menu.py'
tp3916
a(g3666
(S't\x08\x00\x00\x00Database'
tRp3917
I00
S'/igor/appadmin/index'
tp3918
a(g3666
(S't\x06\x00\x00\x00Errors'
tRp3919
I00
S'/admin/default/errors/igor'
tp3920
a(g3666
(S't\x05\x00\x00\x00About'
tRp3921
I00
S'/admin/default/about/igor'
tp3922
aasbasbasbasbasbasbasbag61
(g77
g63
NtRp3923
(dp3924
g66
(dp3925
sg75
g3780
sg68
(lp3926
g61
(g82
g63
NtRp3927
(dp3928
g66
(dp3929
sg75
g3923
sg68
(lp3930
g61
(g62
g63
NtRp3931
(dp3932
g66
(dp3933
g74
I2
ssg75
g3927
sg68
(lp3934
g61
(g70
g63
NtRp3935
(dp3936
g66
(dp3937
g74
I1
ssg75
Nsg68
(lp3938
g61
(g77
g63
NtRp3939
(dp3940
g66
(dp3941
sg75
g3935
sg68
(lp3942
g61
(g82
g63
NtRp3943
(dp3944
g66
(dp3945
sg75
g3939
sg68
(lp3946
g61
(g62
g63
NtRp3947
(dp3948
g66
(dp3949
g74
I1
ssg75
g3943
sg68
(lp3950
S'web2py.com'
p3951
asbasbasbag61
(g77
g63
NtRp3952
(dp3953
g66
(dp3954
sg75
g3935
sg68
(lp3955
g61
(g82
g63
NtRp3956
(dp3957
g66
(dp3958
sg75
g3952
sg68
(lp3959
g61
(g62
g63
NtRp3960
(dp3961
g66
(dp3962
g74
I1
ssg75
g3956
sg68
(lp3963
I00
asbasbasbag61
(g77
g63
NtRp3964
(dp3965
g66
(dp3966
sg75
g3935
sg68
(lp3967
g61
(g82
g63
NtRp3968
(dp3969
g66
(dp3970
sg75
g3964
sg68
(lp3971
g61
(g62
g63
NtRp3972
(dp3973
g66
(dp3974
g74
I1
ssg75
g3968
sg68
(lp3975
S'http://www.web2py.com'
p3976
asbasbasbag61
(g77
g63
NtRp3977
(dp3978
g66
(dp3979
sg75
g3935
sg68
(lp3980
g61
(g82
g63
NtRp3981
(dp3982
g66
(dp3983
sg75
g3977
sg68
(lp3984
g61
(g62
g63
NtRp3985
(dp3986
g66
(dp3987
g74
I1
ssg75
g3981
sg68
(lp3988
(lp3989
(g3666
(S't\x08\x00\x00\x00Download'
tRp3990
I00
S'http://www.web2py.com/examples/default/download'
p3991
tp3992
a(g3666
(S't\x07\x00\x00\x00Support'
tRp3993
I00
S'http://www.web2py.com/examples/default/support'
p3994
tp3995
a(g3666
(S't\x04\x00\x00\x00Demo'
tRp3996
I00
S'http://web2py.com/demo_admin'
p3997
tp3998
a(g3666
(S's\x0e\x00\x00\x00Quick Examples'
tRp3999
I00
S'http://web2py.com/examples/default/examples'
p4000
tp4001
a(g3666
(S't\x03\x00\x00\x00FAQ'
tRp4002
I00
S'http://web2py.com/AlterEgo'
p4003
tp4004
a(g3666
(S't\x06\x00\x00\x00Videos'
tRp4005
I00
S'http://www.web2py.com/examples/default/videos/'
p4006
tp4007
a(g3666
(S's\x11\x00\x00\x00Free Applications'
tRp4008
I00
S'http://web2py.com/appliances'
p4009
tp4010
a(g3666
(S't\x07\x00\x00\x00Plugins'
tRp4011
I00
S'http://web2py.com/plugins'
p4012
tp4013
a(g3666
(S't\x07\x00\x00\x00Layouts'
tRp4014
I00
S'http://web2py.com/layouts'
p4015
tp4016
a(g3666
(S't\x07\x00\x00\x00Recipes'
tRp4017
I00
S'http://web2pyslices.com/'
p4018
tp4019
a(g3666
(S't\x08\x00\x00\x00Semantic'
tRp4020
I00
S'http://web2py.com/semantic'
p4021
tp4022
aasbasbasbasbasbasbasbag61
(g77
g63
NtRp4023
(dp4024
g66
(dp4025
sg75
g3780
sg68
(lp4026
g61
(g82
g63
NtRp4027
(dp4028
g66
(dp4029
sg75
g4023
sg68
(lp4030
g61
(g62
g63
NtRp4031
(dp4032
g66
(dp4033
g74
I2
ssg75
g4027
sg68
(lp4034
g61
(g70
g63
NtRp4035
(dp4036
g66
(dp4037
g74
I1
ssg75
Nsg68
(lp4038
g61
(g77
g63
NtRp4039
(dp4040
g66
(dp4041
sg75
g4035
sg68
(lp4042
g61
(g82
g63
NtRp4043
(dp4044
g66
(dp4045
sg75
g4039
sg68
(lp4046
g61
(g62
g63
NtRp4047
(dp4048
g66
(dp4049
g74
I1
ssg75
g4043
sg68
(lp4050
g3666
(S't\r\x00\x00\x00Documentation'
tRp4051
asbasbasbag61
(g77
g63
NtRp4052
(dp4053
g66
(dp4054
sg75
g4035
sg68
(lp4055
g61
(g82
g63
NtRp4056
(dp4057
g66
(dp4058
sg75
g4052
sg68
(lp4059
g61
(g62
g63
NtRp4060
(dp4061
g66
(dp4062
g74
I1
ssg75
g4056
sg68
(lp4063
I00
asbasbasbag61
(g77
g63
NtRp4064
(dp4065
g66
(dp4066
sg75
g4035
sg68
(lp4067
g61
(g82
g63
NtRp4068
(dp4069
g66
(dp4070
sg75
g4064
sg68
(lp4071
g61
(g62
g63
NtRp4072
(dp4073
g66
(dp4074
g74
I1
ssg75
g4068
sg68
(lp4075
S'http://www.web2py.com/book'
p4076
asbasbasbag61
(g77
g63
NtRp4077
(dp4078
g66
(dp4079
sg75
g4035
sg68
(lp4080
g61
(g82
g63
NtRp4081
(dp4082
g66
(dp4083
sg75
g4077
sg68
(lp4084
g61
(g62
g63
NtRp4085
(dp4086
g66
(dp4087
g74
I1
ssg75
g4081
sg68
(lp4088
(lp4089
(g3666
(S't\x07\x00\x00\x00Preface'
tRp4090
I00
S'http://www.web2py.com/book/default/chapter/00'
p4091
tp4092
a(g3666
(S't\x0c\x00\x00\x00Introduction'
tRp4093
I00
S'http://www.web2py.com/book/default/chapter/01'
p4094
tp4095
a(g3666
(S't\x06\x00\x00\x00Python'
tRp4096
I00
S'http://www.web2py.com/book/default/chapter/02'
p4097
tp4098
a(g3666
(S't\x08\x00\x00\x00Overview'
tRp4099
I00
S'http://www.web2py.com/book/default/chapter/03'
p4100
tp4101
a(g3666
(S's\x08\x00\x00\x00The Core'
tRp4102
I00
S'http://www.web2py.com/book/default/chapter/04'
p4103
tp4104
a(g3666
(S's\t\x00\x00\x00The Views'
tRp4105
I00
S'http://www.web2py.com/book/default/chapter/05'
p4106
tp4107
a(g3666
(S't\x08\x00\x00\x00Database'
tRp4108
I00
S'http://www.web2py.com/book/default/chapter/06'
p4109
tp4110
a(g3666
(S's\x14\x00\x00\x00Forms and Validators'
tRp4111
I00
S'http://www.web2py.com/book/default/chapter/07'
p4112
tp4113
a(g3666
(S's\r\x00\x00\x00Email and SMS'
tRp4114
I00
S'http://www.web2py.com/book/default/chapter/08'
p4115
tp4116
a(g3666
(S's\x0e\x00\x00\x00Access Control'
tRp4117
I00
S'http://www.web2py.com/book/default/chapter/09'
p4118
tp4119
a(g3666
(S't\x08\x00\x00\x00Services'
tRp4120
I00
S'http://www.web2py.com/book/default/chapter/10'
p4121
tp4122
a(g3666
(S's\x0c\x00\x00\x00Ajax Recipes'
tRp4123
I00
S'http://www.web2py.com/book/default/chapter/11'
p4124
tp4125
a(g3666
(S's\x16\x00\x00\x00Components and Plugins'
tRp4126
I00
S'http://www.web2py.com/book/default/chapter/12'
p4127
tp4128
a(g3666
(S's\x12\x00\x00\x00Deployment Recipes'
tRp4129
I00
S'http://www.web2py.com/book/default/chapter/13'
p4130
tp4131
a(g3666
(S's\r\x00\x00\x00Other Recipes'
tRp4132
I00
S'http://www.web2py.com/book/default/chapter/14'
p4133
tp4134
a(g3666
(S's\r\x00\x00\x00Buy this book'
tRp4135
I00
S'http://stores.lulu.com/web2py'
p4136
tp4137
aasbasbasbasbasbasbasbag61
(g77
g63
NtRp4138
(dp4139
g66
(dp4140
sg75
g3780
sg68
(lp4141
g61
(g82
g63
NtRp4142
(dp4143
g66
(dp4144
sg75
g4138
sg68
(lp4145
g61
(g62
g63
NtRp4146
(dp4147
g66
(dp4148
g74
I2
ssg75
g4142
sg68
(lp4149
g61
(g70
g63
NtRp4150
(dp4151
g66
(dp4152
g74
I1
ssg75
Nsg68
(lp4153
g61
(g77
g63
NtRp4154
(dp4155
g66
(dp4156
sg75
g4150
sg68
(lp4157
g61
(g82
g63
NtRp4158
(dp4159
g66
(dp4160
sg75
g4154
sg68
(lp4161
g61
(g62
g63
NtRp4162
(dp4163
g66
(dp4164
g74
I1
ssg75
g4158
sg68
(lp4165
g3666
(S't\t\x00\x00\x00Community'
tRp4166
asbasbasbag61
(g77
g63
NtRp4167
(dp4168
g66
(dp4169
sg75
g4150
sg68
(lp4170
g61
(g82
g63
NtRp4171
(dp4172
g66
(dp4173
sg75
g4167
sg68
(lp4174
g61
(g62
g63
NtRp4175
(dp4176
g66
(dp4177
g74
I1
ssg75
g4171
sg68
(lp4178
I00
asbasbasbag61
(g77
g63
NtRp4179
(dp4180
g66
(dp4181
sg75
g4150
sg68
(lp4182
g61
(g82
g63
NtRp4183
(dp4184
g66
(dp4185
sg75
g4179
sg68
(lp4186
g61
(g62
g63
NtRp4187
(dp4188
g66
(dp4189
g74
I1
ssg75
g4183
sg68
(lp4190
Nasbasbasbag61
(g77
g63
NtRp4191
(dp4192
g66
(dp4193
sg75
g4150
sg68
(lp4194
g61
(g82
g63
NtRp4195
(dp4196
g66
(dp4197
sg75
g4191
sg68
(lp4198
g61
(g62
g63
NtRp4199
(dp4200
g66
(dp4201
g74
I1
ssg75
g4195
sg68
(lp4202
(lp4203
(g3666
(S't\x06\x00\x00\x00Groups'
tRp4204
I00
S'http://www.web2py.com/examples/default/usergroups'
p4205
tp4206
a(g3666
(S't\x07\x00\x00\x00Twitter'
tRp4207
I00
S'http://twitter.com/web2py'
p4208
tp4209
a(g3666
(S's\t\x00\x00\x00Live Chat'
tRp4210
I00
S'http://webchat.freenode.net/?channels=web2py'
p4211
tp4212
aasbasbasbasbasbasbasbag61
(g77
g63
NtRp4213
(dp4214
g66
(dp4215
sg75
g3780
sg68
(lp4216
g61
(g82
g63
NtRp4217
(dp4218
g66
(dp4219
sg75
g4213
sg68
(lp4220
g61
(g62
g63
NtRp4221
(dp4222
g66
(dp4223
g74
I2
ssg75
g4217
sg68
(lp4224
g61
(g70
g63
NtRp4225
(dp4226
g66
(dp4227
g74
I1
ssg75
Nsg68
(lp4228
g61
(g77
g63
NtRp4229
(dp4230
g66
(dp4231
sg75
g4225
sg68
(lp4232
g61
(g82
g63
NtRp4233
(dp4234
g66
(dp4235
sg75
g4229
sg68
(lp4236
g61
(g62
g63
NtRp4237
(dp4238
g66
(dp4239
g74
I1
ssg75
g4233
sg68
(lp4240
g3666
(S't\x07\x00\x00\x00Plugins'
tRp4241
asbasbasbag61
(g77
g63
NtRp4242
(dp4243
g66
(dp4244
sg75
g4225
sg68
(lp4245
g61
(g82
g63
NtRp4246
(dp4247
g66
(dp4248
sg75
g4242
sg68
(lp4249
g61
(g62
g63
NtRp4250
(dp4251
g66
(dp4252
g74
I1
ssg75
g4246
sg68
(lp4253
I00
asbasbasbag61
(g77
g63
NtRp4254
(dp4255
g66
(dp4256
sg75
g4225
sg68
(lp4257
g61
(g82
g63
NtRp4258
(dp4259
g66
(dp4260
sg75
g4254
sg68
(lp4261
g61
(g62
g63
NtRp4262
(dp4263
g66
(dp4264
g74
I1
ssg75
g4258
sg68
(lp4265
Nasbasbasbag61
(g77
g63
NtRp4266
(dp4267
g66
(dp4268
sg75
g4225
sg68
(lp4269
g61
(g82
g63
NtRp4270
(dp4271
g66
(dp4272
sg75
g4266
sg68
(lp4273
g61
(g62
g63
NtRp4274
(dp4275
g66
(dp4276
g74
I1
ssg75
g4270
sg68
(lp4277
(lp4278
(S'plugin_wiki'
p4279
I00
S'http://web2py.com/examples/default/download'
p4280
tp4281
a(g3666
(S's\r\x00\x00\x00Other Plugins'
tRp4282
I00
g4012
tp4283
a(g3666
(S's\x0e\x00\x00\x00Layout Plugins'
tRp4284
I00
g4015
tp4285
aasbasbasbasbasbasbasbasbasbasbasbasbasbasbasbasbasbasbasbag61
(g77
g63
NtRp4286
(dp4287
g66
(dp4288
sg75
g3110
sg68
(lp4289
g61
(g82
g63
NtRp4290
(dp4291
g66
(dp4292
g86
g87
ssg75
g4286
sg68
(lp4293
S'meta'
p4294
asbag61
(g82
g63
NtRp4295
(dp4296
g66
(dp4297
g93
g94
ssg75
g4286
sg68
(lp4298
S':'
asbag61
(g82
g63
NtRp4299
(dp4300
g66
(dp4301
sg75
g4286
sg68
(lp4302
g61
(g62
g63
NtRp4303
(dp4304
g66
(dp4305
g74
I5
ssg75
g4299
sg68
(lp4306
g61
(g70
g63
NtRp4307
(dp4308
g66
(dp4309
g74
I4
ssg75
Nsg68
(lp4310
g61
(g77
g63
NtRp4311
(dp4312
g66
(dp4313
sg75
g4307
sg68
(lp4314
g61
(g82
g63
NtRp4315
(dp4316
g66
(dp4317
g86
g87
ssg75
g4311
sg68
(lp4318
S'author'
p4319
asbag61
(g82
g63
NtRp4320
(dp4321
g66
(dp4322
g93
g94
ssg75
g4311
sg68
(lp4323
S':'
asbag61
(g82
g63
NtRp4324
(dp4325
g66
(dp4326
sg75
g4311
sg68
(lp4327
g61
(g62
g63
NtRp4328
(dp4329
g66
(dp4330
g74
I4
ssg75
g4324
sg68
(lp4331
S'Your Name <you@example.com>'
p4332
asbasbasbag61
(g77
g63
NtRp4333
(dp4334
g66
(dp4335
sg75
g4307
sg68
(lp4336
g61
(g82
g63
NtRp4337
(dp4338
g66
(dp4339
g86
g87
ssg75
g4333
sg68
(lp4340
S'copyright'
p4341
asbag61
(g82
g63
NtRp4342
(dp4343
g66
(dp4344
g93
g94
ssg75
g4333
sg68
(lp4345
S':'
asbag61
(g82
g63
NtRp4346
(dp4347
g66
(dp4348
sg75
g4333
sg68
(lp4349
g61
(g62
g63
NtRp4350
(dp4351
g66
(dp4352
g74
I4
ssg75
g4346
sg68
(lp4353
S'Copyright 2011'
p4354
asbasbasbag61
(g77
g63
NtRp4355
(dp4356
g66
(dp4357
sg75
g4307
sg68
(lp4358
g61
(g82
g63
NtRp4359
(dp4360
g66
(dp4361
g86
g87
ssg75
g4355
sg68
(lp4362
S'description'
p4363
asbag61
(g82
g63
NtRp4364
(dp4365
g66
(dp4366
g93
g94
ssg75
g4355
sg68
(lp4367
S':'
asbag61
(g82
g63
NtRp4368
(dp4369
g66
(dp4370
sg75
g4355
sg68
(lp4371
g61
(g62
g63
NtRp4372
(dp4373
g66
(dp4374
g74
I4
ssg75
g4368
sg68
(lp4375
S'a cool new app'
p4376
asbasbasbag61
(g77
g63
NtRp4377
(dp4378
g66
(dp4379
sg75
g4307
sg68
(lp4380
g61
(g82
g63
NtRp4381
(dp4382
g66
(dp4383
g86
g87
ssg75
g4377
sg68
(lp4384
S'generator'
p4385
asbag61
(g82
g63
NtRp4386
(dp4387
g66
(dp4388
g93
g94
ssg75
g4377
sg68
(lp4389
S':'
asbag61
(g82
g63
NtRp4390
(dp4391
g66
(dp4392
sg75
g4377
sg68
(lp4393
g61
(g62
g63
NtRp4394
(dp4395
g66
(dp4396
g74
I4
ssg75
g4390
sg68
(lp4397
S'Web2py Web Framework'
p4398
asbasbasbag61
(g77
g63
NtRp4399
(dp4400
g66
(dp4401
sg75
g4307
sg68
(lp4402
g61
(g82
g63
NtRp4403
(dp4404
g66
(dp4405
g86
g87
ssg75
g4399
sg68
(lp4406
S'keywords'
p4407
asbag61
(g82
g63
NtRp4408
(dp4409
g66
(dp4410
g93
g94
ssg75
g4399
sg68
(lp4411
S':'
asbag61
(g82
g63
NtRp4412
(dp4413
g66
(dp4414
sg75
g4399
sg68
(lp4415
g61
(g62
g63
NtRp4416
(dp4417
g66
(dp4418
g74
I4
ssg75
g4412
sg68
(lp4419
S'web2py, python, framework'
p4420
asbasbasbasbasbasbasbag61
(g77
g63
NtRp4421
(dp4422
g66
(dp4423
sg75
g3110
sg68
(lp4424
g61
(g82
g63
NtRp4425
(dp4426
g66
(dp4427
g86
g87
ssg75
g4421
sg68
(lp4428
S'postprocessing'
p4429
asbag61
(g82
g63
NtRp4430
(dp4431
g66
(dp4432
g93
g94
ssg75
g4421
sg68
(lp4433
S':'
asbag61
(g82
g63
NtRp4434
(dp4435
g66
(dp4436
sg75
g4421
sg68
(lp4437
g61
(g62
g63
NtRp4438
(dp4439
g66
(dp4440
g74
I5
ssg75
g4434
sg68
(lp4441
g61
(g70
g63
NtRp4442
(dp4443
g66
(dp4444
g74
I4
ssg75
Nsg68
(lp4445
sbasbasbasbag61
(g77
g63
NtRp4446
(dp4447
g66
(dp4448
sg75
g3110
sg68
(lp4449
g61
(g82
g63
NtRp4450
(dp4451
g66
(dp4452
g86
g87
ssg75
g4446
sg68
(lp4453
S'session_filename'
p4454
asbag61
(g82
g63
NtRp4455
(dp4456
g66
(dp4457
g93
g94
ssg75
g4446
sg68
(lp4458
S':'
asbag61
(g82
g63
NtRp4459
(dp4460
g66
(dp4461
sg75
g4446
sg68
(lp4462
g61
(g62
g63
NtRp4463
(dp4464
g66
(dp4465
g74
I5
ssg75
g4459
sg68
(lp4466
S'D:\\workspace\\CA\\IgoR\\C_Sources\\Server\\igor-assistant-ca-2012\\applications\\igor\\sessions\\127.0.0.1-ef991de0-bd60-4e99-8205-57e442b998f3'
p4467
asbasbasbag61
(g77
g63
NtRp4468
(dp4469
g66
(dp4470
sg75
g3110
sg68
(lp4471
g61
(g82
g63
NtRp4472
(dp4473
g66
(dp4474
g86
g87
ssg75
g4468
sg68
(lp4475
S'session_id'
p4476
asbag61
(g82
g63
NtRp4477
(dp4478
g66
(dp4479
g93
g94
ssg75
g4468
sg68
(lp4480
S':'
asbag61
(g82
g63
NtRp4481
(dp4482
g66
(dp4483
sg75
g4468
sg68
(lp4484
g61
(g62
g63
NtRp4485
(dp4486
g66
(dp4487
g74
I5
ssg75
g4481
sg68
(lp4488
S'127.0.0.1-ef991de0-bd60-4e99-8205-57e442b998f3'
p4489
asbasbasbag61
(g77
g63
NtRp4490
(dp4491
g66
(dp4492
sg75
g3110
sg68
(lp4493
g61
(g82
g63
NtRp4494
(dp4495
g66
(dp4496
g86
g87
ssg75
g4490
sg68
(lp4497
S'session_id_name'
p4498
asbag61
(g82
g63
NtRp4499
(dp4500
g66
(dp4501
g93
g94
ssg75
g4490
sg68
(lp4502
S':'
asbag61
(g82
g63
NtRp4503
(dp4504
g66
(dp4505
sg75
g4490
sg68
(lp4506
g61
(g62
g63
NtRp4507
(dp4508
g66
(dp4509
g74
I5
ssg75
g4503
sg68
(lp4510
g3167
asbasbasbag61
(g77
g63
NtRp4511
(dp4512
g66
(dp4513
sg75
g3110
sg68
(lp4514
g61
(g82
g63
NtRp4515
(dp4516
g66
(dp4517
g86
g87
ssg75
g4511
sg68
(lp4518
S'session_new'
p4519
asbag61
(g82
g63
NtRp4520
(dp4521
g66
(dp4522
g93
g94
ssg75
g4511
sg68
(lp4523
S':'
asbag61
(g82
g63
NtRp4524
(dp4525
g66
(dp4526
sg75
g4511
sg68
(lp4527
g61
(g62
g63
NtRp4528
(dp4529
g66
(dp4530
g74
I5
ssg75
g4524
sg68
(lp4531
g1522
asbasbasbag61
(g77
g63
NtRp4532
(dp4533
g66
(dp4534
sg75
g3110
sg68
(lp4535
g61
(g82
g63
NtRp4536
(dp4537
g66
(dp4538
g86
g87
ssg75
g4532
sg68
(lp4539
S'status'
p4540
asbag61
(g82
g63
NtRp4541
(dp4542
g66
(dp4543
g93
g94
ssg75
g4532
sg68
(lp4544
S':'
asbag61
(g82
g63
NtRp4545
(dp4546
g66
(dp4547
sg75
g4532
sg68
(lp4548
g61
(g62
g63
NtRp4549
(dp4550
g66
(dp4551
g74
I5
ssg75
g4545
sg68
(lp4552
S'200'
p4553
asbasbasbag61
(g77
g63
NtRp4554
(dp4555
g66
(dp4556
sg75
g3110
sg68
(lp4557
g61
(g82
g63
NtRp4558
(dp4559
g66
(dp4560
g86
g87
ssg75
g4554
sg68
(lp4561
S'subtitle'
p4562
asbag61
(g82
g63
NtRp4563
(dp4564
g66
(dp4565
g93
g94
ssg75
g4554
sg68
(lp4566
S':'
asbag61
(g82
g63
NtRp4567
(dp4568
g66
(dp4569
sg75
g4554
sg68
(lp4570
g61
(g62
g63
NtRp4571
(dp4572
g66
(dp4573
g74
I5
ssg75
g4567
sg68
(lp4574
g3666
(S's\r\x00\x00\x00customize me!'
tRp4575
asbasbasbag61
(g77
g63
NtRp4576
(dp4577
g66
(dp4578
sg75
g3110
sg68
(lp4579
g61
(g82
g63
NtRp4580
(dp4581
g66
(dp4582
g86
g87
ssg75
g4576
sg68
(lp4583
S'title'
p4584
asbag61
(g82
g63
NtRp4585
(dp4586
g66
(dp4587
g93
g94
ssg75
g4576
sg68
(lp4588
S':'
asbag61
(g82
g63
NtRp4589
(dp4590
g66
(dp4591
sg75
g4576
sg68
(lp4592
g61
(g62
g63
NtRp4593
(dp4594
g66
(dp4595
g74
I5
ssg75
g4589
sg68
(lp4596
S'Igor'
p4597
asbasbasbag61
(g77
g63
NtRp4598
(dp4599
g66
(dp4600
sg75
g3110
sg68
(lp4601
g61
(g82
g63
NtRp4602
(dp4603
g66
(dp4604
g86
g87
ssg75
g4598
sg68
(lp4605
g2219
asbag61
(g82
g63
NtRp4606
(dp4607
g66
(dp4608
g93
g94
ssg75
g4598
sg68
(lp4609
S':'
asbag61
(g82
g63
NtRp4610
(dp4611
g66
(dp4612
sg75
g4598
sg68
(lp4613
g61
(g62
g63
NtRp4614
(dp4615
g66
(dp4616
g74
I5
ssg75
g4610
sg68
(lp4617
g2232
asbasbasbag61
(g77
g63
NtRp4618
(dp4619
g66
(dp4620
sg75
g3110
sg68
(lp4621
g61
(g82
g63
NtRp4622
(dp4623
g66
(dp4624
g86
g87
ssg75
g4618
sg68
(lp4625
S'view'
p4626
asbag61
(g82
g63
NtRp4627
(dp4628
g66
(dp4629
g93
g94
ssg75
g4618
sg68
(lp4630
S':'
asbag61
(g82
g63
NtRp4631
(dp4632
g66
(dp4633
sg75
g4618
sg68
(lp4634
g61
(g62
g63
NtRp4635
(dp4636
g66
(dp4637
g74
I5
ssg75
g4631
sg68
(lp4638
S'generic.json'
p4639
asbasbasbasbasbsS'locals'
p4640
(dp4641
S'a'
S"('SELECT  class_subject.id, class_subject.subject,...ROM class_subject WHERE (class_subject.term = 0);',)"
p4642
sS'self'
p4643
S'<gluon.dal.SQLiteAdapter object>'
p4644
sS'b'
g21
sS't0'
p4645
S'1343576659.222'
p4646
sssS'traceback'
p4647
S'Traceback (most recent call last):\n  File "D:\\workspace\\CA\\IgoR\\C_Sources\\Server\\igor-assistant-ca-2012\\gluon\\restricted.py", line 205, in restricted\n    exec ccode in environment\n  File "D:\\workspace\\CA\\IgoR\\C_Sources\\Server\\igor-assistant-ca-2012\\applications\\igor\\controllers/class_subject.py", line 186, in <module>\n  File "D:\\workspace\\CA\\IgoR\\C_Sources\\Server\\igor-assistant-ca-2012\\gluon\\globals.py", line 173, in <lambda>\n    self._caller = lambda f: f()\n  File "D:\\workspace\\CA\\IgoR\\C_Sources\\Server\\igor-assistant-ca-2012\\gluon\\globals.py", line 138, in f\n    return rest_action(*_self.args,**_self.vars)\n  File "D:\\workspace\\CA\\IgoR\\C_Sources\\Server\\igor-assistant-ca-2012\\applications\\igor\\controllers/class_subject.py", line 40, in GET\n    db.class_subject.term == term).select()\n  File "D:\\workspace\\CA\\IgoR\\C_Sources\\Server\\igor-assistant-ca-2012\\gluon\\dal.py", line 7578, in select\n    return adapter.select(self.query,fields,attributes)\n  File "D:\\workspace\\CA\\IgoR\\C_Sources\\Server\\igor-assistant-ca-2012\\gluon\\dal.py", line 1315, in select\n    rows = response(sql)\n  File "D:\\workspace\\CA\\IgoR\\C_Sources\\Server\\igor-assistant-ca-2012\\gluon\\dal.py", line 1305, in response\n    self.execute(sql)\n  File "D:\\workspace\\CA\\IgoR\\C_Sources\\Server\\igor-assistant-ca-2012\\gluon\\dal.py", line 1392, in execute\n    return self.log_execute(*a, **b)\n  File "D:\\workspace\\CA\\IgoR\\C_Sources\\Server\\igor-assistant-ca-2012\\gluon\\dal.py", line 1386, in log_execute\n    ret = self.cursor.execute(*a, **b)\nOperationalError: no such table: class_subject\n'
p4648
s.