(dp1
S'output'
p2
S"<type 'exceptions.SyntaxError'> invalid syntax (igor_time.py, line 45)"
p3
sS'layer'
p4
S'D:\\workspace\\CA\\IgoR\\C_Sources\\Server\\igor-assistant-ca-2012\\applications\\igor\\controllers/notification.py'
p5
sS'code'
p6
S'# -*- coding: utf-8 -*-\n# this file is released under public domain and you can use without limitations\n\n#########################################################################\n## This is notification controller\n## Author: phucnh, tuna\n#########################################################################\n\nfrom message_packager import *\nfrom gluon.dal import Rows\nfrom gluon.tools import Service\nfrom igor_time import  *\n\nservice = Service()\n\n\ndef call():\n\tsession.forget()\n\n\treturn service()\n\n@service.jsonp\n@service.json\ndef get_all_notification(owner): \n\n\t## get new notification (is_read = 0)\n\n\t#return MessagePackager.get_packaged_message(MessageStatus.OK, owner)\n\t# Validate input \n\tif (not owner.isdigit()):\n\t\treturn MessagePackager.get_packaged_message (\n\t\t\tMessageStatus.ERROR, \n\t\t\t"user id must be numberic")\n\n\tif (int (owner) < 0):\n\t\treturn MessagePackager.get_packaged_message (\n\t\t\tMessageStatus.ERROR, \n\t\t\t"user id can not less than 0")\n\n\tnotification = db(\n\t\tdb.notification.owner == owner).select()\n\n\tnotification = format_client_data(notification) ##Tuna - chua format duoc\n\n\treturn MessagePackager.get_packaged_message(MessageStatus.OK, notification)\n\n\n@request.restful()\ndef push_notification():\n\n\tresponse.view = \'generic.json\'\n\tdef GET(user_id):\n\n\t\t# Validate input \n\t\tif (not user_id.isdigit()):\n\t\t\treturn MessagePackager.get_packaged_message (\n\t\t\t\tMessageStatus.ERROR, \n\t\t\t\t"user id must be numberic")\n\n\t\tif (int (user_id) < 0):\n\t\t\treturn MessagePackager.get_packaged_message (\n\t\t\t\tMessageStatus.ERROR, \n\t\t\t\t"user id can not less than 0")\n\n\t\tnotification = db(\n\t\t\tdb.notification.owner == user_id and\n\t\t\tdb.notification.is_read == False).select()\n\n\t\treturn MessagePackager.get_packaged_message(MessageStatus.OK, notification)\n\n\treturn locals()\n\n@request.restful()\ndef mark_read():\n\n\tresponse.view = \'generic.json\'\n\tdef GET(notification_ids):\n\t\t#return MessagePackager.get_packaged_message(MessageStatus.OK, notification_ids)\n\n\t\ttry:\n\t\t\tfor notification_id in notification_ids:\n\t\t\t\trow = db(db.notification.id == notification_id).update(is_read = True)\n\t\texcept Exception, err:\n\t\t\treturn MessagePackager.get_packaged_message(MessageStatus.OK, str (err))\n\n\t\t\t#return MessagePackager.get_packaged_message(MessageStatus.OK, row)\n\t\t\t#row.is_read = True\n\t\t\t#row.update(is_read = True)\n\t\t\t#row.update()\n\n\t\treturn MessagePackager.get_packaged_message(MessageStatus.OK, row)\n\n\treturn locals()\n\n# phucnh edit 20120730\ndef format_client_data(notifications):\n\tif notifications == None:\n\t\treturn\n\n\tclient_data = list()\n\n\tfor notification in notifications:\n\t\tuser = db(db.user.id == notification.user_share).select().first()\n\t\tjob = db(db.job.id == notification.job_id).select().first()\n\n\n\t\tclient = dict(\n\t\t\t# "userid": "1",\n   #      \t"username": "Nguyen Hong Phuc",\n   #      \t"avatar": "1.jpeg",\n        \taction = get_notification_action(notification),\n        \t# object = \'Deadline IT3410\',\n        \t# "objectid": "1",\n        \tdate = IgorTime.get_time_string(notification.date),\n\t\t\t)\n\n\t\tif user != None:\n\t\t\tclient.update(\n\t\t\t\tuserid   = user.id,\n\t\t\t\tusername = user.name,\n\t\t\t\tavatar   = user.avatar,\n\t\t\t\t)\n\n\t\tif job != None:\n\t\t\tclient.update (\n\t\t\t\tobjectid = job.id,\n\t\t\t\tobject = job.name,\n\t\t\t\t)\n\n\t\tclient_data.append (client)\n\n\treturn client_data\n# end phucnh edit 20120730\nresponse._vars=response._caller(call)\n'
p7
sS'snapshot'
p8
(dp9
S'exception'
p10
(dp11
S'__getslice__'
p12
S"<method-wrapper '__getslice__' of exceptions.SyntaxError object>"
p13
sS'text'
p14
S"'\\t\\t\\tdate_time = datetime.datetime.fromtimestamp ((int) timestamp)\\n'"
p15
sS'__str__'
p16
S"<method-wrapper '__str__' of exceptions.SyntaxError object>"
p17
sS'__reduce__'
p18
S'<built-in method __reduce__ of exceptions.SyntaxError object>'
p19
sS'__dict__'
p20
S'{}'
p21
sS'__sizeof__'
p22
S'<built-in method __sizeof__ of exceptions.SyntaxError object>'
p23
sS'__init__'
p24
S"<method-wrapper '__init__' of exceptions.SyntaxError object>"
p25
sS'__setattr__'
p26
S"<method-wrapper '__setattr__' of exceptions.SyntaxError object>"
p27
sS'__reduce_ex__'
p28
S'<built-in method __reduce_ex__ of exceptions.SyntaxError object>'
p29
sS'__new__'
p30
S'<built-in method __new__ of type object>'
p31
sS'__format__'
p32
S'<built-in method __format__ of exceptions.SyntaxError object>'
p33
sS'__class__'
p34
S"<type 'exceptions.SyntaxError'>"
p35
sS'filename'
p36
S"r'applications\\igor\\modules\\igor_time.py'"
p37
sS'lineno'
p38
S'45'
p39
sS'msg'
p40
S"'invalid syntax'"
p41
sS'__doc__'
p42
S"'Invalid syntax.'"
p43
sS'__getitem__'
p44
S"<method-wrapper '__getitem__' of exceptions.SyntaxError object>"
p45
sS'__setstate__'
p46
S'<built-in method __setstate__ of exceptions.SyntaxError object>'
p47
sS'__getattribute__'
p48
S"<method-wrapper '__getattribute__' of exceptions.SyntaxError object>"
p49
sS'print_file_and_line'
p50
S'None'
p51
sS'args'
p52
S"('invalid syntax', (r'applications\\igor\\modules\\igor_time.py', 45, 63, '\\t\\t\\tdate_time = datetime.datetime.fromtimestamp ((int) timestamp)\\n'))"
p53
sS'__subclasshook__'
p54
S'<built-in method __subclasshook__ of type object>'
p55
sS'offset'
p56
S'63'
p57
sS'__unicode__'
p58
S'<built-in method __unicode__ of exceptions.SyntaxError object>'
p59
sS'__delattr__'
p60
S"<method-wrapper '__delattr__' of exceptions.SyntaxError object>"
p61
sS'__repr__'
p62
S"<method-wrapper '__repr__' of exceptions.SyntaxError object>"
p63
sS'__hash__'
p64
S"<method-wrapper '__hash__' of exceptions.SyntaxError object>"
p65
ssS'evalue'
p66
S'invalid syntax (igor_time.py, line 45)'
p67
sS'request'
p68
ccopy_reg
_reconstructor
p69
(cgluon.html
BEAUTIFY
p70
c__builtin__
object
p71
NtRp72
(dp73
S'attributes'
p74
(dp75
sS'components'
p76
(lp77
g69
(cgluon.html
TABLE
p78
g71
NtRp79
(dp80
g74
(dp81
S'level'
p82
I5
ssS'parent'
p83
Nsg76
(lp84
g69
(cgluon.html
TR
p85
g71
NtRp86
(dp87
g74
(dp88
sg83
g79
sg76
(lp89
g69
(cgluon.html
TD
p90
g71
NtRp91
(dp92
g74
(dp93
S'_style'
p94
S'font-weight:bold;vertical-align:top'
p95
ssg83
g86
sg76
(lp96
S'ajax'
p97
asbag69
(g90
g71
NtRp98
(dp99
g74
(dp100
S'_valign'
p101
S'top'
p102
ssg83
g86
sg76
(lp103
S':'
asbag69
(g90
g71
NtRp104
(dp105
g74
(dp106
sg83
g86
sg76
(lp107
g69
(g70
g71
NtRp108
(dp109
g74
(dp110
g82
I5
ssg83
g104
sg76
(lp111
S'False'
p112
asbasbasbag69
(g85
g71
NtRp113
(dp114
g74
(dp115
sg83
g79
sg76
(lp116
g69
(g90
g71
NtRp117
(dp118
g74
(dp119
g94
g95
ssg83
g113
sg76
(lp120
S'application'
p121
asbag69
(g90
g71
NtRp122
(dp123
g74
(dp124
g101
g102
ssg83
g113
sg76
(lp125
S':'
asbag69
(g90
g71
NtRp126
(dp127
g74
(dp128
sg83
g113
sg76
(lp129
g69
(g70
g71
NtRp130
(dp131
g74
(dp132
g82
I5
ssg83
g126
sg76
(lp133
S'igor'
p134
asbasbasbag69
(g85
g71
NtRp135
(dp136
g74
(dp137
sg83
g79
sg76
(lp138
g69
(g90
g71
NtRp139
(dp140
g74
(dp141
g94
g95
ssg83
g135
sg76
(lp142
g52
asbag69
(g90
g71
NtRp143
(dp144
g74
(dp145
g101
g102
ssg83
g135
sg76
(lp146
S':'
asbag69
(g90
g71
NtRp147
(dp148
g74
(dp149
sg83
g135
sg76
(lp150
g69
(g70
g71
NtRp151
(dp152
g74
(dp153
g82
I5
ssg83
g147
sg76
(lp154
g69
(g78
g71
NtRp155
(dp156
g74
(dp157
g82
I4
ssg83
Nsg76
(lp158
g69
(g85
g71
NtRp159
(dp160
g74
(dp161
sg83
g155
sg76
(lp162
g69
(g90
g71
NtRp163
(dp164
g74
(dp165
sg83
g159
sg76
(lp166
g69
(g70
g71
NtRp167
(dp168
g74
(dp169
g82
I4
ssg83
g163
sg76
(lp170
S'json'
p171
asbasbasbag69
(g85
g71
NtRp172
(dp173
g74
(dp174
sg83
g155
sg76
(lp175
g69
(g90
g71
NtRp176
(dp177
g74
(dp178
sg83
g172
sg76
(lp179
g69
(g70
g71
NtRp180
(dp181
g74
(dp182
g82
I4
ssg83
g176
sg76
(lp183
S'get_all_notification'
p184
asbasbasbag69
(g85
g71
NtRp185
(dp186
g74
(dp187
sg83
g155
sg76
(lp188
g69
(g90
g71
NtRp189
(dp190
g74
(dp191
sg83
g185
sg76
(lp192
g69
(g70
g71
NtRp193
(dp194
g74
(dp195
g82
I4
ssg83
g189
sg76
(lp196
S'2'
asbasbasbasbasbasbasbag69
(g85
g71
NtRp197
(dp198
g74
(dp199
sg83
g79
sg76
(lp200
g69
(g90
g71
NtRp201
(dp202
g74
(dp203
g94
g95
ssg83
g197
sg76
(lp204
S'body'
p205
asbag69
(g90
g71
NtRp206
(dp207
g74
(dp208
g101
g102
ssg83
g197
sg76
(lp209
S':'
asbag69
(g90
g71
NtRp210
(dp211
g74
(dp212
sg83
g197
sg76
(lp213
g69
(g70
g71
NtRp214
(dp215
g74
(dp216
g82
I5
ssg83
g210
sg76
(lp217
S'<cStringIO.StringO object at 0x0000000004B80618>'
p218
asbasbasbag69
(g85
g71
NtRp219
(dp220
g74
(dp221
sg83
g79
sg76
(lp222
g69
(g90
g71
NtRp223
(dp224
g74
(dp225
g94
g95
ssg83
g219
sg76
(lp226
S'client'
p227
asbag69
(g90
g71
NtRp228
(dp229
g74
(dp230
g101
g102
ssg83
g219
sg76
(lp231
S':'
asbag69
(g90
g71
NtRp232
(dp233
g74
(dp234
sg83
g219
sg76
(lp235
g69
(g70
g71
NtRp236
(dp237
g74
(dp238
g82
I5
ssg83
g232
sg76
(lp239
S'127.0.0.1'
p240
asbasbasbag69
(g85
g71
NtRp241
(dp242
g74
(dp243
sg83
g79
sg76
(lp244
g69
(g90
g71
NtRp245
(dp246
g74
(dp247
g94
g95
ssg83
g241
sg76
(lp248
S'controller'
p249
asbag69
(g90
g71
NtRp250
(dp251
g74
(dp252
g101
g102
ssg83
g241
sg76
(lp253
S':'
asbag69
(g90
g71
NtRp254
(dp255
g74
(dp256
sg83
g241
sg76
(lp257
g69
(g70
g71
NtRp258
(dp259
g74
(dp260
g82
I5
ssg83
g254
sg76
(lp261
S'notification'
p262
asbasbasbag69
(g85
g71
NtRp263
(dp264
g74
(dp265
sg83
g79
sg76
(lp266
g69
(g90
g71
NtRp267
(dp268
g74
(dp269
g94
g95
ssg83
g263
sg76
(lp270
S'cookies'
p271
asbag69
(g90
g71
NtRp272
(dp273
g74
(dp274
g101
g102
ssg83
g263
sg76
(lp275
S':'
asbag69
(g90
g71
NtRp276
(dp277
g74
(dp278
sg83
g263
sg76
(lp279
g69
(g70
g71
NtRp280
(dp281
g74
(dp282
g82
I5
ssg83
g276
sg76
(lp283
g69
(g78
g71
NtRp284
(dp285
g74
(dp286
g82
I4
ssg83
Nsg76
(lp287
sbasbasbasbag69
(g85
g71
NtRp288
(dp289
g74
(dp290
sg83
g79
sg76
(lp291
g69
(g90
g71
NtRp292
(dp293
g74
(dp294
g94
g95
ssg83
g288
sg76
(lp295
S'env'
p296
asbag69
(g90
g71
NtRp297
(dp298
g74
(dp299
g101
g102
ssg83
g288
sg76
(lp300
S':'
asbag69
(g90
g71
NtRp301
(dp302
g74
(dp303
sg83
g288
sg76
(lp304
g69
(g70
g71
NtRp305
(dp306
g74
(dp307
g82
I5
ssg83
g301
sg76
(lp308
g69
(g78
g71
NtRp309
(dp310
g74
(dp311
g82
I4
ssg83
Nsg76
(lp312
g69
(g85
g71
NtRp313
(dp314
g74
(dp315
sg83
g309
sg76
(lp316
g69
(g90
g71
NtRp317
(dp318
g74
(dp319
g94
g95
ssg83
g313
sg76
(lp320
S'app_folders'
p321
asbag69
(g90
g71
NtRp322
(dp323
g74
(dp324
g101
g102
ssg83
g313
sg76
(lp325
S':'
asbag69
(g90
g71
NtRp326
(dp327
g74
(dp328
sg83
g313
sg76
(lp329
g69
(g70
g71
NtRp330
(dp331
g74
(dp332
g82
I4
ssg83
g326
sg76
(lp333
S"set(['D:\\\\workspace\\\\CA\\\\IgoR\\\\C_Sources\\\\Server\\\\igor-assistant-ca-2012\\\\applications\\\\igor\\\\', 'D:\\\\workspace\\\\CA\\\\IgoR\\\\C_Sources\\\\Server\\\\igor-assistant-ca-2012\\\\applications\\\\welcome\\\\'])"
p334
asbasbasbag69
(g85
g71
NtRp335
(dp336
g74
(dp337
sg83
g309
sg76
(lp338
g69
(g90
g71
NtRp339
(dp340
g74
(dp341
g94
g95
ssg83
g335
sg76
(lp342
S'applications_parent'
p343
asbag69
(g90
g71
NtRp344
(dp345
g74
(dp346
g101
g102
ssg83
g335
sg76
(lp347
S':'
asbag69
(g90
g71
NtRp348
(dp349
g74
(dp350
sg83
g335
sg76
(lp351
g69
(g70
g71
NtRp352
(dp353
g74
(dp354
g82
I4
ssg83
g348
sg76
(lp355
S'D:\\workspace\\CA\\IgoR\\C_Sources\\Server\\igor-assistant-ca-2012'
p356
asbasbasbag69
(g85
g71
NtRp357
(dp358
g74
(dp359
sg83
g309
sg76
(lp360
g69
(g90
g71
NtRp361
(dp362
g74
(dp363
g94
g95
ssg83
g357
sg76
(lp364
S'cmd_args'
p365
asbag69
(g90
g71
NtRp366
(dp367
g74
(dp368
g101
g102
ssg83
g357
sg76
(lp369
S':'
asbag69
(g90
g71
NtRp370
(dp371
g74
(dp372
sg83
g357
sg76
(lp373
g69
(g70
g71
NtRp374
(dp375
g74
(dp376
g82
I4
ssg83
g370
sg76
(lp377
g69
(g78
g71
NtRp378
(dp379
g74
(dp380
g82
I3
ssg83
Nsg76
(lp381
g69
(g85
g71
NtRp382
(dp383
g74
(dp384
sg83
g378
sg76
(lp385
g69
(g90
g71
NtRp386
(dp387
g74
(dp388
sg83
g382
sg76
(lp389
g69
(g70
g71
NtRp390
(dp391
g74
(dp392
g82
I3
ssg83
g386
sg76
(lp393
S'startserver'
p394
asbasbasbasbasbasbasbag69
(g85
g71
NtRp395
(dp396
g74
(dp397
sg83
g309
sg76
(lp398
g69
(g90
g71
NtRp399
(dp400
g74
(dp401
g94
g95
ssg83
g395
sg76
(lp402
S'cmd_options'
p403
asbag69
(g90
g71
NtRp404
(dp405
g74
(dp406
g101
g102
ssg83
g395
sg76
(lp407
S':'
asbag69
(g90
g71
NtRp408
(dp409
g74
(dp410
sg83
g395
sg76
(lp411
g69
(g70
g71
NtRp412
(dp413
g74
(dp414
g82
I4
ssg83
g408
sg76
(lp415
S"<Values at 0x3647d88: {'verbose': False, 'ip': '127.0.0.1', 'shutdown_timeout': 5, 'taskbar': False, 'nocron': False, 'pid_filename': 'httpserver.pid', 'maxthreads': None, 'softcron': False, 'server_name': 'PHUCNH-PC', 'bpython': False, 'nogui': False, 'port': 8000, 'extcron': False, 'debuglevel': 30, 'test': None, 'folder': 'D:\\\\workspace\\\\CA\\\\IgoR\\\\C_Sources\\\\Server\\\\igor-assistant-ca-2012', 'config': '', 'import_models': False, 'winservice': '', 'shell': None, 'run': '', 'log_filename': 'httpserver.log', 'args': [''], 'socket_timeout': 5, 'ssl_ca_certificate': None, 'scheduler': None, 'profiler_filename': None, 'ssl_private_key': '', 'password': '<ask>', 'request_queue_size': 5, 'ssl_certificate': '', 'cronjob': False, 'numthreads': None, 'quiet': False, 'interfaces': None, 'minthreads': None, 'timeout': 10, 'plain': False, 'nobanner': False}>"
p416
asbasbasbag69
(g85
g71
NtRp417
(dp418
g74
(dp419
sg83
g309
sg76
(lp420
g69
(g90
g71
NtRp421
(dp422
g74
(dp423
g94
g95
ssg83
g417
sg76
(lp424
S'db_sessions'
p425
asbag69
(g90
g71
NtRp426
(dp427
g74
(dp428
g101
g102
ssg83
g417
sg76
(lp429
S':'
asbag69
(g90
g71
NtRp430
(dp431
g74
(dp432
sg83
g417
sg76
(lp433
g69
(g70
g71
NtRp434
(dp435
g74
(dp436
g82
I4
ssg83
g430
sg76
(lp437
S'set([])'
p438
asbasbasbag69
(g85
g71
NtRp439
(dp440
g74
(dp441
sg83
g309
sg76
(lp442
g69
(g90
g71
NtRp443
(dp444
g74
(dp445
g94
g95
ssg83
g439
sg76
(lp446
S'debugging'
p447
asbag69
(g90
g71
NtRp448
(dp449
g74
(dp450
g101
g102
ssg83
g439
sg76
(lp451
S':'
asbag69
(g90
g71
NtRp452
(dp453
g74
(dp454
sg83
g439
sg76
(lp455
g69
(g70
g71
NtRp456
(dp457
g74
(dp458
g82
I4
ssg83
g452
sg76
(lp459
g112
asbasbasbag69
(g85
g71
NtRp460
(dp461
g74
(dp462
sg83
g309
sg76
(lp463
g69
(g90
g71
NtRp464
(dp465
g74
(dp466
g94
g95
ssg83
g460
sg76
(lp467
S'gluon_parent'
p468
asbag69
(g90
g71
NtRp469
(dp470
g74
(dp471
g101
g102
ssg83
g460
sg76
(lp472
S':'
asbag69
(g90
g71
NtRp473
(dp474
g74
(dp475
sg83
g460
sg76
(lp476
g69
(g70
g71
NtRp477
(dp478
g74
(dp479
g82
I4
ssg83
g473
sg76
(lp480
S'D:\\workspace\\CA\\IgoR\\C_Sources\\Server\\igor-assistant-ca-2012'
p481
asbasbasbag69
(g85
g71
NtRp482
(dp483
g74
(dp484
sg83
g309
sg76
(lp485
g69
(g90
g71
NtRp486
(dp487
g74
(dp488
g94
g95
ssg83
g482
sg76
(lp489
S'http_accept'
p490
asbag69
(g90
g71
NtRp491
(dp492
g74
(dp493
g101
g102
ssg83
g482
sg76
(lp494
S':'
asbag69
(g90
g71
NtRp495
(dp496
g74
(dp497
sg83
g482
sg76
(lp498
g69
(g70
g71
NtRp499
(dp500
g74
(dp501
g82
I4
ssg83
g495
sg76
(lp502
S'text/html,application/xhtml+xml,application/xml;q=0.9,*/*;q=0.8'
p503
asbasbasbag69
(g85
g71
NtRp504
(dp505
g74
(dp506
sg83
g309
sg76
(lp507
g69
(g90
g71
NtRp508
(dp509
g74
(dp510
g94
g95
ssg83
g504
sg76
(lp511
S'http_accept_charset'
p512
asbag69
(g90
g71
NtRp513
(dp514
g74
(dp515
g101
g102
ssg83
g504
sg76
(lp516
S':'
asbag69
(g90
g71
NtRp517
(dp518
g74
(dp519
sg83
g504
sg76
(lp520
g69
(g70
g71
NtRp521
(dp522
g74
(dp523
g82
I4
ssg83
g517
sg76
(lp524
S'UTF-8,*;q=0.5'
p525
asbasbasbag69
(g85
g71
NtRp526
(dp527
g74
(dp528
sg83
g309
sg76
(lp529
g69
(g90
g71
NtRp530
(dp531
g74
(dp532
g94
g95
ssg83
g526
sg76
(lp533
S'http_accept_encoding'
p534
asbag69
(g90
g71
NtRp535
(dp536
g74
(dp537
g101
g102
ssg83
g526
sg76
(lp538
S':'
asbag69
(g90
g71
NtRp539
(dp540
g74
(dp541
sg83
g526
sg76
(lp542
g69
(g70
g71
NtRp543
(dp544
g74
(dp545
g82
I4
ssg83
g539
sg76
(lp546
S'gzip,deflate,sdch'
p547
asbasbasbag69
(g85
g71
NtRp548
(dp549
g74
(dp550
sg83
g309
sg76
(lp551
g69
(g90
g71
NtRp552
(dp553
g74
(dp554
g94
g95
ssg83
g548
sg76
(lp555
S'http_accept_language'
p556
asbag69
(g90
g71
NtRp557
(dp558
g74
(dp559
g101
g102
ssg83
g548
sg76
(lp560
S':'
asbag69
(g90
g71
NtRp561
(dp562
g74
(dp563
sg83
g548
sg76
(lp564
g69
(g70
g71
NtRp565
(dp566
g74
(dp567
g82
I4
ssg83
g561
sg76
(lp568
S'en-US,en;q=0.8,vi;q=0.6,fr-FR;q=0.4,fr;q=0.2'
p569
asbasbasbag69
(g85
g71
NtRp570
(dp571
g74
(dp572
sg83
g309
sg76
(lp573
g69
(g90
g71
NtRp574
(dp575
g74
(dp576
g94
g95
ssg83
g570
sg76
(lp577
S'http_connection'
p578
asbag69
(g90
g71
NtRp579
(dp580
g74
(dp581
g101
g102
ssg83
g570
sg76
(lp582
S':'
asbag69
(g90
g71
NtRp583
(dp584
g74
(dp585
sg83
g570
sg76
(lp586
g69
(g70
g71
NtRp587
(dp588
g74
(dp589
g82
I4
ssg83
g583
sg76
(lp590
S'keep-alive'
p591
asbasbasbag69
(g85
g71
NtRp592
(dp593
g74
(dp594
sg83
g309
sg76
(lp595
g69
(g90
g71
NtRp596
(dp597
g74
(dp598
g94
g95
ssg83
g592
sg76
(lp599
S'http_host'
p600
asbag69
(g90
g71
NtRp601
(dp602
g74
(dp603
g101
g102
ssg83
g592
sg76
(lp604
S':'
asbag69
(g90
g71
NtRp605
(dp606
g74
(dp607
sg83
g592
sg76
(lp608
g69
(g70
g71
NtRp609
(dp610
g74
(dp611
g82
I4
ssg83
g605
sg76
(lp612
S'localhost:8000'
p613
asbasbasbag69
(g85
g71
NtRp614
(dp615
g74
(dp616
sg83
g309
sg76
(lp617
g69
(g90
g71
NtRp618
(dp619
g74
(dp620
g94
g95
ssg83
g614
sg76
(lp621
S'http_user_agent'
p622
asbag69
(g90
g71
NtRp623
(dp624
g74
(dp625
g101
g102
ssg83
g614
sg76
(lp626
S':'
asbag69
(g90
g71
NtRp627
(dp628
g74
(dp629
sg83
g614
sg76
(lp630
g69
(g70
g71
NtRp631
(dp632
g74
(dp633
g82
I4
ssg83
g627
sg76
(lp634
S'Mozilla/5.0 (Windows NT 6.1; WOW64) AppleWebKit/536.11 (KHTML, like Gecko) Chrome/20.0.1132.57 Safari/536.11'
p635
asbasbasbag69
(g85
g71
NtRp636
(dp637
g74
(dp638
sg83
g309
sg76
(lp639
g69
(g90
g71
NtRp640
(dp641
g74
(dp642
g94
g95
ssg83
g636
sg76
(lp643
S'is_jython'
p644
asbag69
(g90
g71
NtRp645
(dp646
g74
(dp647
g101
g102
ssg83
g636
sg76
(lp648
S':'
asbag69
(g90
g71
NtRp649
(dp650
g74
(dp651
sg83
g636
sg76
(lp652
g69
(g70
g71
NtRp653
(dp654
g74
(dp655
g82
I4
ssg83
g649
sg76
(lp656
g112
asbasbasbag69
(g85
g71
NtRp657
(dp658
g74
(dp659
sg83
g309
sg76
(lp660
g69
(g90
g71
NtRp661
(dp662
g74
(dp663
g94
g95
ssg83
g657
sg76
(lp664
S'is_pypy'
p665
asbag69
(g90
g71
NtRp666
(dp667
g74
(dp668
g101
g102
ssg83
g657
sg76
(lp669
S':'
asbag69
(g90
g71
NtRp670
(dp671
g74
(dp672
sg83
g657
sg76
(lp673
g69
(g70
g71
NtRp674
(dp675
g74
(dp676
g82
I4
ssg83
g670
sg76
(lp677
g112
asbasbasbag69
(g85
g71
NtRp678
(dp679
g74
(dp680
sg83
g309
sg76
(lp681
g69
(g90
g71
NtRp682
(dp683
g74
(dp684
g94
g95
ssg83
g678
sg76
(lp685
S'path_info'
p686
asbag69
(g90
g71
NtRp687
(dp688
g74
(dp689
g101
g102
ssg83
g678
sg76
(lp690
S':'
asbag69
(g90
g71
NtRp691
(dp692
g74
(dp693
sg83
g678
sg76
(lp694
g69
(g70
g71
NtRp695
(dp696
g74
(dp697
g82
I4
ssg83
g691
sg76
(lp698
S'/igor/notification/call/json/get_all_notification/2'
p699
asbasbasbag69
(g85
g71
NtRp700
(dp701
g74
(dp702
sg83
g309
sg76
(lp703
g69
(g90
g71
NtRp704
(dp705
g74
(dp706
g94
g95
ssg83
g700
sg76
(lp707
S'query_string'
p708
asbag69
(g90
g71
NtRp709
(dp710
g74
(dp711
g101
g102
ssg83
g700
sg76
(lp712
S':'
asbag69
(g90
g71
NtRp713
(dp714
g74
(dp715
sg83
g700
sg76
(lp716
g69
(g70
g71
NtRp717
(dp718
g74
(dp719
g82
I4
ssg83
g713
sg76
(lp720
S''
asbasbasbag69
(g85
g71
NtRp721
(dp722
g74
(dp723
sg83
g309
sg76
(lp724
g69
(g90
g71
NtRp725
(dp726
g74
(dp727
g94
g95
ssg83
g721
sg76
(lp728
S'remote_addr'
p729
asbag69
(g90
g71
NtRp730
(dp731
g74
(dp732
g101
g102
ssg83
g721
sg76
(lp733
S':'
asbag69
(g90
g71
NtRp734
(dp735
g74
(dp736
sg83
g721
sg76
(lp737
g69
(g70
g71
NtRp738
(dp739
g74
(dp740
g82
I4
ssg83
g734
sg76
(lp741
g240
asbasbasbag69
(g85
g71
NtRp742
(dp743
g74
(dp744
sg83
g309
sg76
(lp745
g69
(g90
g71
NtRp746
(dp747
g74
(dp748
g94
g95
ssg83
g742
sg76
(lp749
S'remote_port'
p750
asbag69
(g90
g71
NtRp751
(dp752
g74
(dp753
g101
g102
ssg83
g742
sg76
(lp754
S':'
asbag69
(g90
g71
NtRp755
(dp756
g74
(dp757
sg83
g742
sg76
(lp758
g69
(g70
g71
NtRp759
(dp760
g74
(dp761
g82
I4
ssg83
g755
sg76
(lp762
S'55096'
p763
asbasbasbag69
(g85
g71
NtRp764
(dp765
g74
(dp766
sg83
g309
sg76
(lp767
g69
(g90
g71
NtRp768
(dp769
g74
(dp770
g94
g95
ssg83
g764
sg76
(lp771
S'request_method'
p772
asbag69
(g90
g71
NtRp773
(dp774
g74
(dp775
g101
g102
ssg83
g764
sg76
(lp776
S':'
asbag69
(g90
g71
NtRp777
(dp778
g74
(dp779
sg83
g764
sg76
(lp780
g69
(g70
g71
NtRp781
(dp782
g74
(dp783
g82
I4
ssg83
g777
sg76
(lp784
S'GET'
p785
asbasbasbag69
(g85
g71
NtRp786
(dp787
g74
(dp788
sg83
g309
sg76
(lp789
g69
(g90
g71
NtRp790
(dp791
g74
(dp792
g94
g95
ssg83
g786
sg76
(lp793
S'script_name'
p794
asbag69
(g90
g71
NtRp795
(dp796
g74
(dp797
g101
g102
ssg83
g786
sg76
(lp798
S':'
asbag69
(g90
g71
NtRp799
(dp800
g74
(dp801
sg83
g786
sg76
(lp802
g69
(g70
g71
NtRp803
(dp804
g74
(dp805
g82
I4
ssg83
g799
sg76
(lp806
S''
asbasbasbag69
(g85
g71
NtRp807
(dp808
g74
(dp809
sg83
g309
sg76
(lp810
g69
(g90
g71
NtRp811
(dp812
g74
(dp813
g94
g95
ssg83
g807
sg76
(lp814
S'server_name'
p815
asbag69
(g90
g71
NtRp816
(dp817
g74
(dp818
g101
g102
ssg83
g807
sg76
(lp819
S':'
asbag69
(g90
g71
NtRp820
(dp821
g74
(dp822
sg83
g807
sg76
(lp823
g69
(g70
g71
NtRp824
(dp825
g74
(dp826
g82
I4
ssg83
g820
sg76
(lp827
S'PHUCNH-PC'
p828
asbasbasbag69
(g85
g71
NtRp829
(dp830
g74
(dp831
sg83
g309
sg76
(lp832
g69
(g90
g71
NtRp833
(dp834
g74
(dp835
g94
g95
ssg83
g829
sg76
(lp836
S'server_port'
p837
asbag69
(g90
g71
NtRp838
(dp839
g74
(dp840
g101
g102
ssg83
g829
sg76
(lp841
S':'
asbag69
(g90
g71
NtRp842
(dp843
g74
(dp844
sg83
g829
sg76
(lp845
g69
(g70
g71
NtRp846
(dp847
g74
(dp848
g82
I4
ssg83
g842
sg76
(lp849
S'8000'
p850
asbasbasbag69
(g85
g71
NtRp851
(dp852
g74
(dp853
sg83
g309
sg76
(lp854
g69
(g90
g71
NtRp855
(dp856
g74
(dp857
g94
g95
ssg83
g851
sg76
(lp858
S'server_protocol'
p859
asbag69
(g90
g71
NtRp860
(dp861
g74
(dp862
g101
g102
ssg83
g851
sg76
(lp863
S':'
asbag69
(g90
g71
NtRp864
(dp865
g74
(dp866
sg83
g851
sg76
(lp867
g69
(g70
g71
NtRp868
(dp869
g74
(dp870
g82
I4
ssg83
g864
sg76
(lp871
S'HTTP/1.1'
p872
asbasbasbag69
(g85
g71
NtRp873
(dp874
g74
(dp875
sg83
g309
sg76
(lp876
g69
(g90
g71
NtRp877
(dp878
g74
(dp879
g94
g95
ssg83
g873
sg76
(lp880
S'server_software'
p881
asbag69
(g90
g71
NtRp882
(dp883
g74
(dp884
g101
g102
ssg83
g873
sg76
(lp885
S':'
asbag69
(g90
g71
NtRp886
(dp887
g74
(dp888
sg83
g873
sg76
(lp889
g69
(g70
g71
NtRp890
(dp891
g74
(dp892
g82
I4
ssg83
g886
sg76
(lp893
S'Rocket 1.2.4'
p894
asbasbasbag69
(g85
g71
NtRp895
(dp896
g74
(dp897
sg83
g309
sg76
(lp898
g69
(g90
g71
NtRp899
(dp900
g74
(dp901
g94
g95
ssg83
g895
sg76
(lp902
S'web2py_crontype'
p903
asbag69
(g90
g71
NtRp904
(dp905
g74
(dp906
g101
g102
ssg83
g895
sg76
(lp907
S':'
asbag69
(g90
g71
NtRp908
(dp909
g74
(dp910
sg83
g895
sg76
(lp911
g69
(g70
g71
NtRp912
(dp913
g74
(dp914
g82
I4
ssg83
g908
sg76
(lp915
S'hard'
p916
asbasbasbag69
(g85
g71
NtRp917
(dp918
g74
(dp919
sg83
g309
sg76
(lp920
g69
(g90
g71
NtRp921
(dp922
g74
(dp923
g94
g95
ssg83
g917
sg76
(lp924
S'web2py_path'
p925
asbag69
(g90
g71
NtRp926
(dp927
g74
(dp928
g101
g102
ssg83
g917
sg76
(lp929
S':'
asbag69
(g90
g71
NtRp930
(dp931
g74
(dp932
sg83
g917
sg76
(lp933
g69
(g70
g71
NtRp934
(dp935
g74
(dp936
g82
I4
ssg83
g930
sg76
(lp937
g356
asbasbasbag69
(g85
g71
NtRp938
(dp939
g74
(dp940
sg83
g309
sg76
(lp941
g69
(g90
g71
NtRp942
(dp943
g74
(dp944
g94
g95
ssg83
g938
sg76
(lp945
S'web2py_version'
p946
asbag69
(g90
g71
NtRp947
(dp948
g74
(dp949
g101
g102
ssg83
g938
sg76
(lp950
S':'
asbag69
(g90
g71
NtRp951
(dp952
g74
(dp953
sg83
g938
sg76
(lp954
g69
(g70
g71
NtRp955
(dp956
g74
(dp957
g82
I4
ssg83
g951
sg76
(lp958
g69
(g78
g71
NtRp959
(dp960
g74
(dp961
g82
I3
ssg83
Nsg76
(lp962
g69
(g85
g71
NtRp963
(dp964
g74
(dp965
sg83
g959
sg76
(lp966
g69
(g90
g71
NtRp967
(dp968
g74
(dp969
sg83
g963
sg76
(lp970
g69
(g70
g71
NtRp971
(dp972
g74
(dp973
g82
I3
ssg83
g967
sg76
(lp974
S'1'
asbasbasbag69
(g85
g71
NtRp975
(dp976
g74
(dp977
sg83
g959
sg76
(lp978
g69
(g90
g71
NtRp979
(dp980
g74
(dp981
sg83
g975
sg76
(lp982
g69
(g70
g71
NtRp983
(dp984
g74
(dp985
g82
I3
ssg83
g979
sg76
(lp986
S'99'
p987
asbasbasbag69
(g85
g71
NtRp988
(dp989
g74
(dp990
sg83
g959
sg76
(lp991
g69
(g90
g71
NtRp992
(dp993
g74
(dp994
sg83
g988
sg76
(lp995
g69
(g70
g71
NtRp996
(dp997
g74
(dp998
g82
I3
ssg83
g992
sg76
(lp999
S'7'
asbasbasbag69
(g85
g71
NtRp1000
(dp1001
g74
(dp1002
sg83
g959
sg76
(lp1003
g69
(g90
g71
NtRp1004
(dp1005
g74
(dp1006
sg83
g1000
sg76
(lp1007
g69
(g70
g71
NtRp1008
(dp1009
g74
(dp1010
g82
I3
ssg83
g1004
sg76
(lp1011
S'datetime.datetime(2012, 3, 4, 22, 12, 8)'
p1012
asbasbasbag69
(g85
g71
NtRp1013
(dp1014
g74
(dp1015
sg83
g959
sg76
(lp1016
g69
(g90
g71
NtRp1017
(dp1018
g74
(dp1019
sg83
g1013
sg76
(lp1020
g69
(g70
g71
NtRp1021
(dp1022
g74
(dp1023
g82
I3
ssg83
g1017
sg76
(lp1024
S'stable'
p1025
asbasbasbasbasbasbasbag69
(g85
g71
NtRp1026
(dp1027
g74
(dp1028
sg83
g309
sg76
(lp1029
g69
(g90
g71
NtRp1030
(dp1031
g74
(dp1032
g94
g95
ssg83
g1026
sg76
(lp1033
S'wsgi_errors'
p1034
asbag69
(g90
g71
NtRp1035
(dp1036
g74
(dp1037
g101
g102
ssg83
g1026
sg76
(lp1038
S':'
asbag69
(g90
g71
NtRp1039
(dp1040
g74
(dp1041
sg83
g1026
sg76
(lp1042
g69
(g70
g71
NtRp1043
(dp1044
g74
(dp1045
g82
I4
ssg83
g1039
sg76
(lp1046
S"<open file '<stderr>', mode 'w' at 0x0000000001CFE1E0>"
p1047
asbasbasbag69
(g85
g71
NtRp1048
(dp1049
g74
(dp1050
sg83
g309
sg76
(lp1051
g69
(g90
g71
NtRp1052
(dp1053
g74
(dp1054
g94
g95
ssg83
g1048
sg76
(lp1055
S'wsgi_file_wrapper'
p1056
asbag69
(g90
g71
NtRp1057
(dp1058
g74
(dp1059
g101
g102
ssg83
g1048
sg76
(lp1060
S':'
asbag69
(g90
g71
NtRp1061
(dp1062
g74
(dp1063
sg83
g1048
sg76
(lp1064
g69
(g70
g71
NtRp1065
(dp1066
g74
(dp1067
g82
I4
ssg83
g1061
sg76
(lp1068
S'<class wsgiref.util.FileWrapper at 0x000000000351CAC8>'
p1069
asbasbasbag69
(g85
g71
NtRp1070
(dp1071
g74
(dp1072
sg83
g309
sg76
(lp1073
g69
(g90
g71
NtRp1074
(dp1075
g74
(dp1076
g94
g95
ssg83
g1070
sg76
(lp1077
S'wsgi_input'
p1078
asbag69
(g90
g71
NtRp1079
(dp1080
g74
(dp1081
g101
g102
ssg83
g1070
sg76
(lp1082
S':'
asbag69
(g90
g71
NtRp1083
(dp1084
g74
(dp1085
sg83
g1070
sg76
(lp1086
g69
(g70
g71
NtRp1087
(dp1088
g74
(dp1089
g82
I4
ssg83
g1083
sg76
(lp1090
S'<socket._fileobject object at 0x0000000004B0F9A8>'
p1091
asbasbasbag69
(g85
g71
NtRp1092
(dp1093
g74
(dp1094
sg83
g309
sg76
(lp1095
g69
(g90
g71
NtRp1096
(dp1097
g74
(dp1098
g94
g95
ssg83
g1092
sg76
(lp1099
S'wsgi_multiprocess'
p1100
asbag69
(g90
g71
NtRp1101
(dp1102
g74
(dp1103
g101
g102
ssg83
g1092
sg76
(lp1104
S':'
asbag69
(g90
g71
NtRp1105
(dp1106
g74
(dp1107
sg83
g1092
sg76
(lp1108
g69
(g70
g71
NtRp1109
(dp1110
g74
(dp1111
g82
I4
ssg83
g1105
sg76
(lp1112
g112
asbasbasbag69
(g85
g71
NtRp1113
(dp1114
g74
(dp1115
sg83
g309
sg76
(lp1116
g69
(g90
g71
NtRp1117
(dp1118
g74
(dp1119
g94
g95
ssg83
g1113
sg76
(lp1120
S'wsgi_multithread'
p1121
asbag69
(g90
g71
NtRp1122
(dp1123
g74
(dp1124
g101
g102
ssg83
g1113
sg76
(lp1125
S':'
asbag69
(g90
g71
NtRp1126
(dp1127
g74
(dp1128
sg83
g1113
sg76
(lp1129
g69
(g70
g71
NtRp1130
(dp1131
g74
(dp1132
g82
I4
ssg83
g1126
sg76
(lp1133
S'True'
p1134
asbasbasbag69
(g85
g71
NtRp1135
(dp1136
g74
(dp1137
sg83
g309
sg76
(lp1138
g69
(g90
g71
NtRp1139
(dp1140
g74
(dp1141
g94
g95
ssg83
g1135
sg76
(lp1142
S'wsgi_run_once'
p1143
asbag69
(g90
g71
NtRp1144
(dp1145
g74
(dp1146
g101
g102
ssg83
g1135
sg76
(lp1147
S':'
asbag69
(g90
g71
NtRp1148
(dp1149
g74
(dp1150
sg83
g1135
sg76
(lp1151
g69
(g70
g71
NtRp1152
(dp1153
g74
(dp1154
g82
I4
ssg83
g1148
sg76
(lp1155
g112
asbasbasbag69
(g85
g71
NtRp1156
(dp1157
g74
(dp1158
sg83
g309
sg76
(lp1159
g69
(g90
g71
NtRp1160
(dp1161
g74
(dp1162
g94
g95
ssg83
g1156
sg76
(lp1163
S'wsgi_url_scheme'
p1164
asbag69
(g90
g71
NtRp1165
(dp1166
g74
(dp1167
g101
g102
ssg83
g1156
sg76
(lp1168
S':'
asbag69
(g90
g71
NtRp1169
(dp1170
g74
(dp1171
sg83
g1156
sg76
(lp1172
g69
(g70
g71
NtRp1173
(dp1174
g74
(dp1175
g82
I4
ssg83
g1169
sg76
(lp1176
S'http'
p1177
asbasbasbag69
(g85
g71
NtRp1178
(dp1179
g74
(dp1180
sg83
g309
sg76
(lp1181
g69
(g90
g71
NtRp1182
(dp1183
g74
(dp1184
g94
g95
ssg83
g1178
sg76
(lp1185
S'wsgi_version'
p1186
asbag69
(g90
g71
NtRp1187
(dp1188
g74
(dp1189
g101
g102
ssg83
g1178
sg76
(lp1190
S':'
asbag69
(g90
g71
NtRp1191
(dp1192
g74
(dp1193
sg83
g1178
sg76
(lp1194
g69
(g70
g71
NtRp1195
(dp1196
g74
(dp1197
g82
I4
ssg83
g1191
sg76
(lp1198
g69
(g78
g71
NtRp1199
(dp1200
g74
(dp1201
g82
I3
ssg83
Nsg76
(lp1202
g69
(g85
g71
NtRp1203
(dp1204
g74
(dp1205
sg83
g1199
sg76
(lp1206
g69
(g90
g71
NtRp1207
(dp1208
g74
(dp1209
sg83
g1203
sg76
(lp1210
g69
(g70
g71
NtRp1211
(dp1212
g74
(dp1213
g82
I3
ssg83
g1207
sg76
(lp1214
S'1'
asbasbasbag69
(g85
g71
NtRp1215
(dp1216
g74
(dp1217
sg83
g1199
sg76
(lp1218
g69
(g90
g71
NtRp1219
(dp1220
g74
(dp1221
sg83
g1215
sg76
(lp1222
g69
(g70
g71
NtRp1223
(dp1224
g74
(dp1225
g82
I3
ssg83
g1219
sg76
(lp1226
S'0'
asbasbasbasbasbasbasbasbasbasbasbag69
(g85
g71
NtRp1227
(dp1228
g74
(dp1229
sg83
g79
sg76
(lp1230
g69
(g90
g71
NtRp1231
(dp1232
g74
(dp1233
g94
g95
ssg83
g1227
sg76
(lp1234
S'extension'
p1235
asbag69
(g90
g71
NtRp1236
(dp1237
g74
(dp1238
g101
g102
ssg83
g1227
sg76
(lp1239
S':'
asbag69
(g90
g71
NtRp1240
(dp1241
g74
(dp1242
sg83
g1227
sg76
(lp1243
g69
(g70
g71
NtRp1244
(dp1245
g74
(dp1246
g82
I5
ssg83
g1240
sg76
(lp1247
S'html'
p1248
asbasbasbag69
(g85
g71
NtRp1249
(dp1250
g74
(dp1251
sg83
g79
sg76
(lp1252
g69
(g90
g71
NtRp1253
(dp1254
g74
(dp1255
g94
g95
ssg83
g1249
sg76
(lp1256
S'folder'
p1257
asbag69
(g90
g71
NtRp1258
(dp1259
g74
(dp1260
g101
g102
ssg83
g1249
sg76
(lp1261
S':'
asbag69
(g90
g71
NtRp1262
(dp1263
g74
(dp1264
sg83
g1249
sg76
(lp1265
g69
(g70
g71
NtRp1266
(dp1267
g74
(dp1268
g82
I5
ssg83
g1262
sg76
(lp1269
S'D:\\workspace\\CA\\IgoR\\C_Sources\\Server\\igor-assistant-ca-2012\\applications\\igor\\'
p1270
asbasbasbag69
(g85
g71
NtRp1271
(dp1272
g74
(dp1273
sg83
g79
sg76
(lp1274
g69
(g90
g71
NtRp1275
(dp1276
g74
(dp1277
g94
g95
ssg83
g1271
sg76
(lp1278
S'function'
p1279
asbag69
(g90
g71
NtRp1280
(dp1281
g74
(dp1282
g101
g102
ssg83
g1271
sg76
(lp1283
S':'
asbag69
(g90
g71
NtRp1284
(dp1285
g74
(dp1286
sg83
g1271
sg76
(lp1287
g69
(g70
g71
NtRp1288
(dp1289
g74
(dp1290
g82
I5
ssg83
g1284
sg76
(lp1291
S'call'
p1292
asbasbasbag69
(g85
g71
NtRp1293
(dp1294
g74
(dp1295
sg83
g79
sg76
(lp1296
g69
(g90
g71
NtRp1297
(dp1298
g74
(dp1299
g94
g95
ssg83
g1293
sg76
(lp1300
S'get_vars'
p1301
asbag69
(g90
g71
NtRp1302
(dp1303
g74
(dp1304
g101
g102
ssg83
g1293
sg76
(lp1305
S':'
asbag69
(g90
g71
NtRp1306
(dp1307
g74
(dp1308
sg83
g1293
sg76
(lp1309
g69
(g70
g71
NtRp1310
(dp1311
g74
(dp1312
g82
I5
ssg83
g1306
sg76
(lp1313
g69
(g78
g71
NtRp1314
(dp1315
g74
(dp1316
g82
I4
ssg83
Nsg76
(lp1317
sbasbasbasbag69
(g85
g71
NtRp1318
(dp1319
g74
(dp1320
sg83
g79
sg76
(lp1321
g69
(g90
g71
NtRp1322
(dp1323
g74
(dp1324
g94
g95
ssg83
g1318
sg76
(lp1325
S'global_settings'
p1326
asbag69
(g90
g71
NtRp1327
(dp1328
g74
(dp1329
g101
g102
ssg83
g1318
sg76
(lp1330
S':'
asbag69
(g90
g71
NtRp1331
(dp1332
g74
(dp1333
sg83
g1318
sg76
(lp1334
g69
(g70
g71
NtRp1335
(dp1336
g74
(dp1337
g82
I5
ssg83
g1331
sg76
(lp1338
g69
(g78
g71
NtRp1339
(dp1340
g74
(dp1341
g82
I4
ssg83
Nsg76
(lp1342
g69
(g85
g71
NtRp1343
(dp1344
g74
(dp1345
sg83
g1339
sg76
(lp1346
g69
(g90
g71
NtRp1347
(dp1348
g74
(dp1349
g94
g95
ssg83
g1343
sg76
(lp1350
g321
asbag69
(g90
g71
NtRp1351
(dp1352
g74
(dp1353
g101
g102
ssg83
g1343
sg76
(lp1354
S':'
asbag69
(g90
g71
NtRp1355
(dp1356
g74
(dp1357
sg83
g1343
sg76
(lp1358
g69
(g70
g71
NtRp1359
(dp1360
g74
(dp1361
g82
I4
ssg83
g1355
sg76
(lp1362
S"set(['D:\\\\workspace\\\\CA\\\\IgoR\\\\C_Sources\\\\Server\\\\igor-assistant-ca-2012\\\\applications\\\\igor\\\\', 'D:\\\\workspace\\\\CA\\\\IgoR\\\\C_Sources\\\\Server\\\\igor-assistant-ca-2012\\\\applications\\\\welcome\\\\'])"
p1363
asbasbasbag69
(g85
g71
NtRp1364
(dp1365
g74
(dp1366
sg83
g1339
sg76
(lp1367
g69
(g90
g71
NtRp1368
(dp1369
g74
(dp1370
g94
g95
ssg83
g1364
sg76
(lp1371
g343
asbag69
(g90
g71
NtRp1372
(dp1373
g74
(dp1374
g101
g102
ssg83
g1364
sg76
(lp1375
S':'
asbag69
(g90
g71
NtRp1376
(dp1377
g74
(dp1378
sg83
g1364
sg76
(lp1379
g69
(g70
g71
NtRp1380
(dp1381
g74
(dp1382
g82
I4
ssg83
g1376
sg76
(lp1383
g356
asbasbasbag69
(g85
g71
NtRp1384
(dp1385
g74
(dp1386
sg83
g1339
sg76
(lp1387
g69
(g90
g71
NtRp1388
(dp1389
g74
(dp1390
g94
g95
ssg83
g1384
sg76
(lp1391
g365
asbag69
(g90
g71
NtRp1392
(dp1393
g74
(dp1394
g101
g102
ssg83
g1384
sg76
(lp1395
S':'
asbag69
(g90
g71
NtRp1396
(dp1397
g74
(dp1398
sg83
g1384
sg76
(lp1399
g69
(g70
g71
NtRp1400
(dp1401
g74
(dp1402
g82
I4
ssg83
g1396
sg76
(lp1403
g69
(g78
g71
NtRp1404
(dp1405
g74
(dp1406
g82
I3
ssg83
Nsg76
(lp1407
g69
(g85
g71
NtRp1408
(dp1409
g74
(dp1410
sg83
g1404
sg76
(lp1411
g69
(g90
g71
NtRp1412
(dp1413
g74
(dp1414
sg83
g1408
sg76
(lp1415
g69
(g70
g71
NtRp1416
(dp1417
g74
(dp1418
g82
I3
ssg83
g1412
sg76
(lp1419
g394
asbasbasbasbasbasbasbag69
(g85
g71
NtRp1420
(dp1421
g74
(dp1422
sg83
g1339
sg76
(lp1423
g69
(g90
g71
NtRp1424
(dp1425
g74
(dp1426
g94
g95
ssg83
g1420
sg76
(lp1427
g403
asbag69
(g90
g71
NtRp1428
(dp1429
g74
(dp1430
g101
g102
ssg83
g1420
sg76
(lp1431
S':'
asbag69
(g90
g71
NtRp1432
(dp1433
g74
(dp1434
sg83
g1420
sg76
(lp1435
g69
(g70
g71
NtRp1436
(dp1437
g74
(dp1438
g82
I4
ssg83
g1432
sg76
(lp1439
S"<Values at 0x3647d88: {'verbose': False, 'ip': '127.0.0.1', 'shutdown_timeout': 5, 'taskbar': False, 'nocron': False, 'pid_filename': 'httpserver.pid', 'maxthreads': None, 'softcron': False, 'server_name': 'PHUCNH-PC', 'bpython': False, 'nogui': False, 'port': 8000, 'extcron': False, 'debuglevel': 30, 'test': None, 'folder': 'D:\\\\workspace\\\\CA\\\\IgoR\\\\C_Sources\\\\Server\\\\igor-assistant-ca-2012', 'config': '', 'import_models': False, 'winservice': '', 'shell': None, 'run': '', 'log_filename': 'httpserver.log', 'args': [''], 'socket_timeout': 5, 'ssl_ca_certificate': None, 'scheduler': None, 'profiler_filename': None, 'ssl_private_key': '', 'password': '<ask>', 'request_queue_size': 5, 'ssl_certificate': '', 'cronjob': False, 'numthreads': None, 'quiet': False, 'interfaces': None, 'minthreads': None, 'timeout': 10, 'plain': False, 'nobanner': False}>"
p1440
asbasbasbag69
(g85
g71
NtRp1441
(dp1442
g74
(dp1443
sg83
g1339
sg76
(lp1444
g69
(g90
g71
NtRp1445
(dp1446
g74
(dp1447
g94
g95
ssg83
g1441
sg76
(lp1448
g425
asbag69
(g90
g71
NtRp1449
(dp1450
g74
(dp1451
g101
g102
ssg83
g1441
sg76
(lp1452
S':'
asbag69
(g90
g71
NtRp1453
(dp1454
g74
(dp1455
sg83
g1441
sg76
(lp1456
g69
(g70
g71
NtRp1457
(dp1458
g74
(dp1459
g82
I4
ssg83
g1453
sg76
(lp1460
S'set([])'
p1461
asbasbasbag69
(g85
g71
NtRp1462
(dp1463
g74
(dp1464
sg83
g1339
sg76
(lp1465
g69
(g90
g71
NtRp1466
(dp1467
g74
(dp1468
g94
g95
ssg83
g1462
sg76
(lp1469
g447
asbag69
(g90
g71
NtRp1470
(dp1471
g74
(dp1472
g101
g102
ssg83
g1462
sg76
(lp1473
S':'
asbag69
(g90
g71
NtRp1474
(dp1475
g74
(dp1476
sg83
g1462
sg76
(lp1477
g69
(g70
g71
NtRp1478
(dp1479
g74
(dp1480
g82
I4
ssg83
g1474
sg76
(lp1481
g112
asbasbasbag69
(g85
g71
NtRp1482
(dp1483
g74
(dp1484
sg83
g1339
sg76
(lp1485
g69
(g90
g71
NtRp1486
(dp1487
g74
(dp1488
g94
g95
ssg83
g1482
sg76
(lp1489
g468
asbag69
(g90
g71
NtRp1490
(dp1491
g74
(dp1492
g101
g102
ssg83
g1482
sg76
(lp1493
S':'
asbag69
(g90
g71
NtRp1494
(dp1495
g74
(dp1496
sg83
g1482
sg76
(lp1497
g69
(g70
g71
NtRp1498
(dp1499
g74
(dp1500
g82
I4
ssg83
g1494
sg76
(lp1501
g481
asbasbasbag69
(g85
g71
NtRp1502
(dp1503
g74
(dp1504
sg83
g1339
sg76
(lp1505
g69
(g90
g71
NtRp1506
(dp1507
g74
(dp1508
g94
g95
ssg83
g1502
sg76
(lp1509
g644
asbag69
(g90
g71
NtRp1510
(dp1511
g74
(dp1512
g101
g102
ssg83
g1502
sg76
(lp1513
S':'
asbag69
(g90
g71
NtRp1514
(dp1515
g74
(dp1516
sg83
g1502
sg76
(lp1517
g69
(g70
g71
NtRp1518
(dp1519
g74
(dp1520
g82
I4
ssg83
g1514
sg76
(lp1521
g112
asbasbasbag69
(g85
g71
NtRp1522
(dp1523
g74
(dp1524
sg83
g1339
sg76
(lp1525
g69
(g90
g71
NtRp1526
(dp1527
g74
(dp1528
g94
g95
ssg83
g1522
sg76
(lp1529
g665
asbag69
(g90
g71
NtRp1530
(dp1531
g74
(dp1532
g101
g102
ssg83
g1522
sg76
(lp1533
S':'
asbag69
(g90
g71
NtRp1534
(dp1535
g74
(dp1536
sg83
g1522
sg76
(lp1537
g69
(g70
g71
NtRp1538
(dp1539
g74
(dp1540
g82
I4
ssg83
g1534
sg76
(lp1541
g112
asbasbasbag69
(g85
g71
NtRp1542
(dp1543
g74
(dp1544
sg83
g1339
sg76
(lp1545
g69
(g90
g71
NtRp1546
(dp1547
g74
(dp1548
g94
g95
ssg83
g1542
sg76
(lp1549
g903
asbag69
(g90
g71
NtRp1550
(dp1551
g74
(dp1552
g101
g102
ssg83
g1542
sg76
(lp1553
S':'
asbag69
(g90
g71
NtRp1554
(dp1555
g74
(dp1556
sg83
g1542
sg76
(lp1557
g69
(g70
g71
NtRp1558
(dp1559
g74
(dp1560
g82
I4
ssg83
g1554
sg76
(lp1561
g916
asbasbasbag69
(g85
g71
NtRp1562
(dp1563
g74
(dp1564
sg83
g1339
sg76
(lp1565
g69
(g90
g71
NtRp1566
(dp1567
g74
(dp1568
g94
g95
ssg83
g1562
sg76
(lp1569
g946
asbag69
(g90
g71
NtRp1570
(dp1571
g74
(dp1572
g101
g102
ssg83
g1562
sg76
(lp1573
S':'
asbag69
(g90
g71
NtRp1574
(dp1575
g74
(dp1576
sg83
g1562
sg76
(lp1577
g69
(g70
g71
NtRp1578
(dp1579
g74
(dp1580
g82
I4
ssg83
g1574
sg76
(lp1581
g69
(g78
g71
NtRp1582
(dp1583
g74
(dp1584
g82
I3
ssg83
Nsg76
(lp1585
g69
(g85
g71
NtRp1586
(dp1587
g74
(dp1588
sg83
g1582
sg76
(lp1589
g69
(g90
g71
NtRp1590
(dp1591
g74
(dp1592
sg83
g1586
sg76
(lp1593
g69
(g70
g71
NtRp1594
(dp1595
g74
(dp1596
g82
I3
ssg83
g1590
sg76
(lp1597
S'1'
asbasbasbag69
(g85
g71
NtRp1598
(dp1599
g74
(dp1600
sg83
g1582
sg76
(lp1601
g69
(g90
g71
NtRp1602
(dp1603
g74
(dp1604
sg83
g1598
sg76
(lp1605
g69
(g70
g71
NtRp1606
(dp1607
g74
(dp1608
g82
I3
ssg83
g1602
sg76
(lp1609
S'99'
p1610
asbasbasbag69
(g85
g71
NtRp1611
(dp1612
g74
(dp1613
sg83
g1582
sg76
(lp1614
g69
(g90
g71
NtRp1615
(dp1616
g74
(dp1617
sg83
g1611
sg76
(lp1618
g69
(g70
g71
NtRp1619
(dp1620
g74
(dp1621
g82
I3
ssg83
g1615
sg76
(lp1622
S'7'
asbasbasbag69
(g85
g71
NtRp1623
(dp1624
g74
(dp1625
sg83
g1582
sg76
(lp1626
g69
(g90
g71
NtRp1627
(dp1628
g74
(dp1629
sg83
g1623
sg76
(lp1630
g69
(g70
g71
NtRp1631
(dp1632
g74
(dp1633
g82
I3
ssg83
g1627
sg76
(lp1634
S'datetime.datetime(2012, 3, 4, 22, 12, 8)'
p1635
asbasbasbag69
(g85
g71
NtRp1636
(dp1637
g74
(dp1638
sg83
g1582
sg76
(lp1639
g69
(g90
g71
NtRp1640
(dp1641
g74
(dp1642
sg83
g1636
sg76
(lp1643
g69
(g70
g71
NtRp1644
(dp1645
g74
(dp1646
g82
I3
ssg83
g1640
sg76
(lp1647
g1025
asbasbasbasbasbasbasbasbasbasbasbag69
(g85
g71
NtRp1648
(dp1649
g74
(dp1650
sg83
g79
sg76
(lp1651
g69
(g90
g71
NtRp1652
(dp1653
g74
(dp1654
g94
g95
ssg83
g1648
sg76
(lp1655
S'is_https'
p1656
asbag69
(g90
g71
NtRp1657
(dp1658
g74
(dp1659
g101
g102
ssg83
g1648
sg76
(lp1660
S':'
asbag69
(g90
g71
NtRp1661
(dp1662
g74
(dp1663
sg83
g1648
sg76
(lp1664
g69
(g70
g71
NtRp1665
(dp1666
g74
(dp1667
g82
I5
ssg83
g1661
sg76
(lp1668
g112
asbasbasbag69
(g85
g71
NtRp1669
(dp1670
g74
(dp1671
sg83
g79
sg76
(lp1672
g69
(g90
g71
NtRp1673
(dp1674
g74
(dp1675
g94
g95
ssg83
g1669
sg76
(lp1676
S'is_local'
p1677
asbag69
(g90
g71
NtRp1678
(dp1679
g74
(dp1680
g101
g102
ssg83
g1669
sg76
(lp1681
S':'
asbag69
(g90
g71
NtRp1682
(dp1683
g74
(dp1684
sg83
g1669
sg76
(lp1685
g69
(g70
g71
NtRp1686
(dp1687
g74
(dp1688
g82
I5
ssg83
g1682
sg76
(lp1689
g1134
asbasbasbag69
(g85
g71
NtRp1690
(dp1691
g74
(dp1692
sg83
g79
sg76
(lp1693
g69
(g90
g71
NtRp1694
(dp1695
g74
(dp1696
g94
g95
ssg83
g1690
sg76
(lp1697
S'is_restful'
p1698
asbag69
(g90
g71
NtRp1699
(dp1700
g74
(dp1701
g101
g102
ssg83
g1690
sg76
(lp1702
S':'
asbag69
(g90
g71
NtRp1703
(dp1704
g74
(dp1705
sg83
g1690
sg76
(lp1706
g69
(g70
g71
NtRp1707
(dp1708
g74
(dp1709
g82
I5
ssg83
g1703
sg76
(lp1710
g112
asbasbasbag69
(g85
g71
NtRp1711
(dp1712
g74
(dp1713
sg83
g79
sg76
(lp1714
g69
(g90
g71
NtRp1715
(dp1716
g74
(dp1717
g94
g95
ssg83
g1711
sg76
(lp1718
S'now'
p1719
asbag69
(g90
g71
NtRp1720
(dp1721
g74
(dp1722
g101
g102
ssg83
g1711
sg76
(lp1723
S':'
asbag69
(g90
g71
NtRp1724
(dp1725
g74
(dp1726
sg83
g1711
sg76
(lp1727
g69
(g70
g71
NtRp1728
(dp1729
g74
(dp1730
g82
I5
ssg83
g1724
sg76
(lp1731
S'datetime.datetime(2012, 8, 2, 0, 17, 49, 900000)'
p1732
asbasbasbag69
(g85
g71
NtRp1733
(dp1734
g74
(dp1735
sg83
g79
sg76
(lp1736
g69
(g90
g71
NtRp1737
(dp1738
g74
(dp1739
g94
g95
ssg83
g1733
sg76
(lp1740
S'post_vars'
p1741
asbag69
(g90
g71
NtRp1742
(dp1743
g74
(dp1744
g101
g102
ssg83
g1733
sg76
(lp1745
S':'
asbag69
(g90
g71
NtRp1746
(dp1747
g74
(dp1748
sg83
g1733
sg76
(lp1749
g69
(g70
g71
NtRp1750
(dp1751
g74
(dp1752
g82
I5
ssg83
g1746
sg76
(lp1753
g69
(g78
g71
NtRp1754
(dp1755
g74
(dp1756
g82
I4
ssg83
Nsg76
(lp1757
sbasbasbasbag69
(g85
g71
NtRp1758
(dp1759
g74
(dp1760
sg83
g79
sg76
(lp1761
g69
(g90
g71
NtRp1762
(dp1763
g74
(dp1764
g94
g95
ssg83
g1758
sg76
(lp1765
S'raw_args'
p1766
asbag69
(g90
g71
NtRp1767
(dp1768
g74
(dp1769
g101
g102
ssg83
g1758
sg76
(lp1770
S':'
asbag69
(g90
g71
NtRp1771
(dp1772
g74
(dp1773
sg83
g1758
sg76
(lp1774
g69
(g70
g71
NtRp1775
(dp1776
g74
(dp1777
g82
I5
ssg83
g1771
sg76
(lp1778
S'json/get_all_notification/2'
p1779
asbasbasbag69
(g85
g71
NtRp1780
(dp1781
g74
(dp1782
sg83
g79
sg76
(lp1783
g69
(g90
g71
NtRp1784
(dp1785
g74
(dp1786
g94
g95
ssg83
g1780
sg76
(lp1787
S'url'
p1788
asbag69
(g90
g71
NtRp1789
(dp1790
g74
(dp1791
g101
g102
ssg83
g1780
sg76
(lp1792
S':'
asbag69
(g90
g71
NtRp1793
(dp1794
g74
(dp1795
sg83
g1780
sg76
(lp1796
g69
(g70
g71
NtRp1797
(dp1798
g74
(dp1799
g82
I5
ssg83
g1793
sg76
(lp1800
S'/igor/notification/call/json/get_all_notification/2'
p1801
asbasbasbag69
(g85
g71
NtRp1802
(dp1803
g74
(dp1804
sg83
g79
sg76
(lp1805
g69
(g90
g71
NtRp1806
(dp1807
g74
(dp1808
g94
g95
ssg83
g1802
sg76
(lp1809
S'utcnow'
p1810
asbag69
(g90
g71
NtRp1811
(dp1812
g74
(dp1813
g101
g102
ssg83
g1802
sg76
(lp1814
S':'
asbag69
(g90
g71
NtRp1815
(dp1816
g74
(dp1817
sg83
g1802
sg76
(lp1818
g69
(g70
g71
NtRp1819
(dp1820
g74
(dp1821
g82
I5
ssg83
g1815
sg76
(lp1822
S'datetime.datetime(2012, 8, 1, 17, 17, 49, 900000)'
p1823
asbasbasbag69
(g85
g71
NtRp1824
(dp1825
g74
(dp1826
sg83
g79
sg76
(lp1827
g69
(g90
g71
NtRp1828
(dp1829
g74
(dp1830
g94
g95
ssg83
g1824
sg76
(lp1831
S'uuid'
p1832
asbag69
(g90
g71
NtRp1833
(dp1834
g74
(dp1835
g101
g102
ssg83
g1824
sg76
(lp1836
S':'
asbag69
(g90
g71
NtRp1837
(dp1838
g74
(dp1839
sg83
g1824
sg76
(lp1840
g69
(g70
g71
NtRp1841
(dp1842
g74
(dp1843
g82
I5
ssg83
g1837
sg76
(lp1844
S'igor/127.0.0.1.2012-08-02.00-17-49.c8604845-57a4-4097-b9f8-ce8b494102ab'
p1845
asbasbasbag69
(g85
g71
NtRp1846
(dp1847
g74
(dp1848
sg83
g79
sg76
(lp1849
g69
(g90
g71
NtRp1850
(dp1851
g74
(dp1852
g94
g95
ssg83
g1846
sg76
(lp1853
S'vars'
p1854
asbag69
(g90
g71
NtRp1855
(dp1856
g74
(dp1857
g101
g102
ssg83
g1846
sg76
(lp1858
S':'
asbag69
(g90
g71
NtRp1859
(dp1860
g74
(dp1861
sg83
g1846
sg76
(lp1862
g69
(g70
g71
NtRp1863
(dp1864
g74
(dp1865
g82
I5
ssg83
g1859
sg76
(lp1866
g69
(g78
g71
NtRp1867
(dp1868
g74
(dp1869
g82
I4
ssg83
Nsg76
(lp1870
sbasbasbasbag69
(g85
g71
NtRp1871
(dp1872
g74
(dp1873
sg83
g79
sg76
(lp1874
g69
(g90
g71
NtRp1875
(dp1876
g74
(dp1877
g94
g95
ssg83
g1871
sg76
(lp1878
S'wsgi'
p1879
asbag69
(g90
g71
NtRp1880
(dp1881
g74
(dp1882
g101
g102
ssg83
g1871
sg76
(lp1883
S':'
asbag69
(g90
g71
NtRp1884
(dp1885
g74
(dp1886
sg83
g1871
sg76
(lp1887
g69
(g70
g71
NtRp1888
(dp1889
g74
(dp1890
g82
I5
ssg83
g1884
sg76
(lp1891
g69
(g78
g71
NtRp1892
(dp1893
g74
(dp1894
g82
I4
ssg83
Nsg76
(lp1895
g69
(g85
g71
NtRp1896
(dp1897
g74
(dp1898
sg83
g1892
sg76
(lp1899
g69
(g90
g71
NtRp1900
(dp1901
g74
(dp1902
g94
g95
ssg83
g1896
sg76
(lp1903
S'environ'
p1904
asbag69
(g90
g71
NtRp1905
(dp1906
g74
(dp1907
g101
g102
ssg83
g1896
sg76
(lp1908
S':'
asbag69
(g90
g71
NtRp1909
(dp1910
g74
(dp1911
sg83
g1896
sg76
(lp1912
g69
(g70
g71
NtRp1913
(dp1914
g74
(dp1915
g82
I4
ssg83
g1909
sg76
(lp1916
g69
(g78
g71
NtRp1917
(dp1918
g74
(dp1919
g82
I3
ssg83
Nsg76
(lp1920
g69
(g85
g71
NtRp1921
(dp1922
g74
(dp1923
sg83
g1917
sg76
(lp1924
g69
(g90
g71
NtRp1925
(dp1926
g74
(dp1927
g94
g95
ssg83
g1921
sg76
(lp1928
S'HTTP_ACCEPT'
p1929
asbag69
(g90
g71
NtRp1930
(dp1931
g74
(dp1932
g101
g102
ssg83
g1921
sg76
(lp1933
S':'
asbag69
(g90
g71
NtRp1934
(dp1935
g74
(dp1936
sg83
g1921
sg76
(lp1937
g69
(g70
g71
NtRp1938
(dp1939
g74
(dp1940
g82
I3
ssg83
g1934
sg76
(lp1941
g503
asbasbasbag69
(g85
g71
NtRp1942
(dp1943
g74
(dp1944
sg83
g1917
sg76
(lp1945
g69
(g90
g71
NtRp1946
(dp1947
g74
(dp1948
g94
g95
ssg83
g1942
sg76
(lp1949
S'HTTP_ACCEPT_CHARSET'
p1950
asbag69
(g90
g71
NtRp1951
(dp1952
g74
(dp1953
g101
g102
ssg83
g1942
sg76
(lp1954
S':'
asbag69
(g90
g71
NtRp1955
(dp1956
g74
(dp1957
sg83
g1942
sg76
(lp1958
g69
(g70
g71
NtRp1959
(dp1960
g74
(dp1961
g82
I3
ssg83
g1955
sg76
(lp1962
g525
asbasbasbag69
(g85
g71
NtRp1963
(dp1964
g74
(dp1965
sg83
g1917
sg76
(lp1966
g69
(g90
g71
NtRp1967
(dp1968
g74
(dp1969
g94
g95
ssg83
g1963
sg76
(lp1970
S'HTTP_ACCEPT_ENCODING'
p1971
asbag69
(g90
g71
NtRp1972
(dp1973
g74
(dp1974
g101
g102
ssg83
g1963
sg76
(lp1975
S':'
asbag69
(g90
g71
NtRp1976
(dp1977
g74
(dp1978
sg83
g1963
sg76
(lp1979
g69
(g70
g71
NtRp1980
(dp1981
g74
(dp1982
g82
I3
ssg83
g1976
sg76
(lp1983
g547
asbasbasbag69
(g85
g71
NtRp1984
(dp1985
g74
(dp1986
sg83
g1917
sg76
(lp1987
g69
(g90
g71
NtRp1988
(dp1989
g74
(dp1990
g94
g95
ssg83
g1984
sg76
(lp1991
S'HTTP_ACCEPT_LANGUAGE'
p1992
asbag69
(g90
g71
NtRp1993
(dp1994
g74
(dp1995
g101
g102
ssg83
g1984
sg76
(lp1996
S':'
asbag69
(g90
g71
NtRp1997
(dp1998
g74
(dp1999
sg83
g1984
sg76
(lp2000
g69
(g70
g71
NtRp2001
(dp2002
g74
(dp2003
g82
I3
ssg83
g1997
sg76
(lp2004
g569
asbasbasbag69
(g85
g71
NtRp2005
(dp2006
g74
(dp2007
sg83
g1917
sg76
(lp2008
g69
(g90
g71
NtRp2009
(dp2010
g74
(dp2011
g94
g95
ssg83
g2005
sg76
(lp2012
S'HTTP_CONNECTION'
p2013
asbag69
(g90
g71
NtRp2014
(dp2015
g74
(dp2016
g101
g102
ssg83
g2005
sg76
(lp2017
S':'
asbag69
(g90
g71
NtRp2018
(dp2019
g74
(dp2020
sg83
g2005
sg76
(lp2021
g69
(g70
g71
NtRp2022
(dp2023
g74
(dp2024
g82
I3
ssg83
g2018
sg76
(lp2025
g591
asbasbasbag69
(g85
g71
NtRp2026
(dp2027
g74
(dp2028
sg83
g1917
sg76
(lp2029
g69
(g90
g71
NtRp2030
(dp2031
g74
(dp2032
g94
g95
ssg83
g2026
sg76
(lp2033
S'HTTP_HOST'
p2034
asbag69
(g90
g71
NtRp2035
(dp2036
g74
(dp2037
g101
g102
ssg83
g2026
sg76
(lp2038
S':'
asbag69
(g90
g71
NtRp2039
(dp2040
g74
(dp2041
sg83
g2026
sg76
(lp2042
g69
(g70
g71
NtRp2043
(dp2044
g74
(dp2045
g82
I3
ssg83
g2039
sg76
(lp2046
g613
asbasbasbag69
(g85
g71
NtRp2047
(dp2048
g74
(dp2049
sg83
g1917
sg76
(lp2050
g69
(g90
g71
NtRp2051
(dp2052
g74
(dp2053
g94
g95
ssg83
g2047
sg76
(lp2054
S'HTTP_USER_AGENT'
p2055
asbag69
(g90
g71
NtRp2056
(dp2057
g74
(dp2058
g101
g102
ssg83
g2047
sg76
(lp2059
S':'
asbag69
(g90
g71
NtRp2060
(dp2061
g74
(dp2062
sg83
g2047
sg76
(lp2063
g69
(g70
g71
NtRp2064
(dp2065
g74
(dp2066
g82
I3
ssg83
g2060
sg76
(lp2067
g635
asbasbasbag69
(g85
g71
NtRp2068
(dp2069
g74
(dp2070
sg83
g1917
sg76
(lp2071
g69
(g90
g71
NtRp2072
(dp2073
g74
(dp2074
g94
g95
ssg83
g2068
sg76
(lp2075
S'PATH_INFO'
p2076
asbag69
(g90
g71
NtRp2077
(dp2078
g74
(dp2079
g101
g102
ssg83
g2068
sg76
(lp2080
S':'
asbag69
(g90
g71
NtRp2081
(dp2082
g74
(dp2083
sg83
g2068
sg76
(lp2084
g69
(g70
g71
NtRp2085
(dp2086
g74
(dp2087
g82
I3
ssg83
g2081
sg76
(lp2088
g699
asbasbasbag69
(g85
g71
NtRp2089
(dp2090
g74
(dp2091
sg83
g1917
sg76
(lp2092
g69
(g90
g71
NtRp2093
(dp2094
g74
(dp2095
g94
g95
ssg83
g2089
sg76
(lp2096
S'QUERY_STRING'
p2097
asbag69
(g90
g71
NtRp2098
(dp2099
g74
(dp2100
g101
g102
ssg83
g2089
sg76
(lp2101
S':'
asbag69
(g90
g71
NtRp2102
(dp2103
g74
(dp2104
sg83
g2089
sg76
(lp2105
g69
(g70
g71
NtRp2106
(dp2107
g74
(dp2108
g82
I3
ssg83
g2102
sg76
(lp2109
S''
asbasbasbag69
(g85
g71
NtRp2110
(dp2111
g74
(dp2112
sg83
g1917
sg76
(lp2113
g69
(g90
g71
NtRp2114
(dp2115
g74
(dp2116
g94
g95
ssg83
g2110
sg76
(lp2117
S'REMOTE_ADDR'
p2118
asbag69
(g90
g71
NtRp2119
(dp2120
g74
(dp2121
g101
g102
ssg83
g2110
sg76
(lp2122
S':'
asbag69
(g90
g71
NtRp2123
(dp2124
g74
(dp2125
sg83
g2110
sg76
(lp2126
g69
(g70
g71
NtRp2127
(dp2128
g74
(dp2129
g82
I3
ssg83
g2123
sg76
(lp2130
g240
asbasbasbag69
(g85
g71
NtRp2131
(dp2132
g74
(dp2133
sg83
g1917
sg76
(lp2134
g69
(g90
g71
NtRp2135
(dp2136
g74
(dp2137
g94
g95
ssg83
g2131
sg76
(lp2138
S'REMOTE_PORT'
p2139
asbag69
(g90
g71
NtRp2140
(dp2141
g74
(dp2142
g101
g102
ssg83
g2131
sg76
(lp2143
S':'
asbag69
(g90
g71
NtRp2144
(dp2145
g74
(dp2146
sg83
g2131
sg76
(lp2147
g69
(g70
g71
NtRp2148
(dp2149
g74
(dp2150
g82
I3
ssg83
g2144
sg76
(lp2151
g763
asbasbasbag69
(g85
g71
NtRp2152
(dp2153
g74
(dp2154
sg83
g1917
sg76
(lp2155
g69
(g90
g71
NtRp2156
(dp2157
g74
(dp2158
g94
g95
ssg83
g2152
sg76
(lp2159
S'REQUEST_METHOD'
p2160
asbag69
(g90
g71
NtRp2161
(dp2162
g74
(dp2163
g101
g102
ssg83
g2152
sg76
(lp2164
S':'
asbag69
(g90
g71
NtRp2165
(dp2166
g74
(dp2167
sg83
g2152
sg76
(lp2168
g69
(g70
g71
NtRp2169
(dp2170
g74
(dp2171
g82
I3
ssg83
g2165
sg76
(lp2172
g785
asbasbasbag69
(g85
g71
NtRp2173
(dp2174
g74
(dp2175
sg83
g1917
sg76
(lp2176
g69
(g90
g71
NtRp2177
(dp2178
g74
(dp2179
g94
g95
ssg83
g2173
sg76
(lp2180
S'SCRIPT_NAME'
p2181
asbag69
(g90
g71
NtRp2182
(dp2183
g74
(dp2184
g101
g102
ssg83
g2173
sg76
(lp2185
S':'
asbag69
(g90
g71
NtRp2186
(dp2187
g74
(dp2188
sg83
g2173
sg76
(lp2189
g69
(g70
g71
NtRp2190
(dp2191
g74
(dp2192
g82
I3
ssg83
g2186
sg76
(lp2193
S''
asbasbasbag69
(g85
g71
NtRp2194
(dp2195
g74
(dp2196
sg83
g1917
sg76
(lp2197
g69
(g90
g71
NtRp2198
(dp2199
g74
(dp2200
g94
g95
ssg83
g2194
sg76
(lp2201
S'SERVER_NAME'
p2202
asbag69
(g90
g71
NtRp2203
(dp2204
g74
(dp2205
g101
g102
ssg83
g2194
sg76
(lp2206
S':'
asbag69
(g90
g71
NtRp2207
(dp2208
g74
(dp2209
sg83
g2194
sg76
(lp2210
g69
(g70
g71
NtRp2211
(dp2212
g74
(dp2213
g82
I3
ssg83
g2207
sg76
(lp2214
g828
asbasbasbag69
(g85
g71
NtRp2215
(dp2216
g74
(dp2217
sg83
g1917
sg76
(lp2218
g69
(g90
g71
NtRp2219
(dp2220
g74
(dp2221
g94
g95
ssg83
g2215
sg76
(lp2222
S'SERVER_PORT'
p2223
asbag69
(g90
g71
NtRp2224
(dp2225
g74
(dp2226
g101
g102
ssg83
g2215
sg76
(lp2227
S':'
asbag69
(g90
g71
NtRp2228
(dp2229
g74
(dp2230
sg83
g2215
sg76
(lp2231
g69
(g70
g71
NtRp2232
(dp2233
g74
(dp2234
g82
I3
ssg83
g2228
sg76
(lp2235
g850
asbasbasbag69
(g85
g71
NtRp2236
(dp2237
g74
(dp2238
sg83
g1917
sg76
(lp2239
g69
(g90
g71
NtRp2240
(dp2241
g74
(dp2242
g94
g95
ssg83
g2236
sg76
(lp2243
S'SERVER_PROTOCOL'
p2244
asbag69
(g90
g71
NtRp2245
(dp2246
g74
(dp2247
g101
g102
ssg83
g2236
sg76
(lp2248
S':'
asbag69
(g90
g71
NtRp2249
(dp2250
g74
(dp2251
sg83
g2236
sg76
(lp2252
g69
(g70
g71
NtRp2253
(dp2254
g74
(dp2255
g82
I3
ssg83
g2249
sg76
(lp2256
g872
asbasbasbag69
(g85
g71
NtRp2257
(dp2258
g74
(dp2259
sg83
g1917
sg76
(lp2260
g69
(g90
g71
NtRp2261
(dp2262
g74
(dp2263
g94
g95
ssg83
g2257
sg76
(lp2264
S'SERVER_SOFTWARE'
p2265
asbag69
(g90
g71
NtRp2266
(dp2267
g74
(dp2268
g101
g102
ssg83
g2257
sg76
(lp2269
S':'
asbag69
(g90
g71
NtRp2270
(dp2271
g74
(dp2272
sg83
g2257
sg76
(lp2273
g69
(g70
g71
NtRp2274
(dp2275
g74
(dp2276
g82
I3
ssg83
g2270
sg76
(lp2277
g894
asbasbasbag69
(g85
g71
NtRp2278
(dp2279
g74
(dp2280
sg83
g1917
sg76
(lp2281
g69
(g90
g71
NtRp2282
(dp2283
g74
(dp2284
g94
g95
ssg83
g2278
sg76
(lp2285
S'wsgi.errors'
p2286
asbag69
(g90
g71
NtRp2287
(dp2288
g74
(dp2289
g101
g102
ssg83
g2278
sg76
(lp2290
S':'
asbag69
(g90
g71
NtRp2291
(dp2292
g74
(dp2293
sg83
g2278
sg76
(lp2294
g69
(g70
g71
NtRp2295
(dp2296
g74
(dp2297
g82
I3
ssg83
g2291
sg76
(lp2298
S"<open file '<stderr>', mode 'w' at 0x0000000001CFE1E0>"
p2299
asbasbasbag69
(g85
g71
NtRp2300
(dp2301
g74
(dp2302
sg83
g1917
sg76
(lp2303
g69
(g90
g71
NtRp2304
(dp2305
g74
(dp2306
g94
g95
ssg83
g2300
sg76
(lp2307
S'wsgi.file_wrapper'
p2308
asbag69
(g90
g71
NtRp2309
(dp2310
g74
(dp2311
g101
g102
ssg83
g2300
sg76
(lp2312
S':'
asbag69
(g90
g71
NtRp2313
(dp2314
g74
(dp2315
sg83
g2300
sg76
(lp2316
g69
(g70
g71
NtRp2317
(dp2318
g74
(dp2319
g82
I3
ssg83
g2313
sg76
(lp2320
S'<class wsgiref.util.FileWrapper at 0x000000000351CAC8>'
p2321
asbasbasbag69
(g85
g71
NtRp2322
(dp2323
g74
(dp2324
sg83
g1917
sg76
(lp2325
g69
(g90
g71
NtRp2326
(dp2327
g74
(dp2328
g94
g95
ssg83
g2322
sg76
(lp2329
S'wsgi.input'
p2330
asbag69
(g90
g71
NtRp2331
(dp2332
g74
(dp2333
g101
g102
ssg83
g2322
sg76
(lp2334
S':'
asbag69
(g90
g71
NtRp2335
(dp2336
g74
(dp2337
sg83
g2322
sg76
(lp2338
g69
(g70
g71
NtRp2339
(dp2340
g74
(dp2341
g82
I3
ssg83
g2335
sg76
(lp2342
S'<cStringIO.StringO object at 0x0000000004B80618>'
p2343
asbasbasbag69
(g85
g71
NtRp2344
(dp2345
g74
(dp2346
sg83
g1917
sg76
(lp2347
g69
(g90
g71
NtRp2348
(dp2349
g74
(dp2350
g94
g95
ssg83
g2344
sg76
(lp2351
S'wsgi.multiprocess'
p2352
asbag69
(g90
g71
NtRp2353
(dp2354
g74
(dp2355
g101
g102
ssg83
g2344
sg76
(lp2356
S':'
asbag69
(g90
g71
NtRp2357
(dp2358
g74
(dp2359
sg83
g2344
sg76
(lp2360
g69
(g70
g71
NtRp2361
(dp2362
g74
(dp2363
g82
I3
ssg83
g2357
sg76
(lp2364
g112
asbasbasbag69
(g85
g71
NtRp2365
(dp2366
g74
(dp2367
sg83
g1917
sg76
(lp2368
g69
(g90
g71
NtRp2369
(dp2370
g74
(dp2371
g94
g95
ssg83
g2365
sg76
(lp2372
S'wsgi.multithread'
p2373
asbag69
(g90
g71
NtRp2374
(dp2375
g74
(dp2376
g101
g102
ssg83
g2365
sg76
(lp2377
S':'
asbag69
(g90
g71
NtRp2378
(dp2379
g74
(dp2380
sg83
g2365
sg76
(lp2381
g69
(g70
g71
NtRp2382
(dp2383
g74
(dp2384
g82
I3
ssg83
g2378
sg76
(lp2385
g1134
asbasbasbag69
(g85
g71
NtRp2386
(dp2387
g74
(dp2388
sg83
g1917
sg76
(lp2389
g69
(g90
g71
NtRp2390
(dp2391
g74
(dp2392
g94
g95
ssg83
g2386
sg76
(lp2393
S'wsgi.run_once'
p2394
asbag69
(g90
g71
NtRp2395
(dp2396
g74
(dp2397
g101
g102
ssg83
g2386
sg76
(lp2398
S':'
asbag69
(g90
g71
NtRp2399
(dp2400
g74
(dp2401
sg83
g2386
sg76
(lp2402
g69
(g70
g71
NtRp2403
(dp2404
g74
(dp2405
g82
I3
ssg83
g2399
sg76
(lp2406
g112
asbasbasbag69
(g85
g71
NtRp2407
(dp2408
g74
(dp2409
sg83
g1917
sg76
(lp2410
g69
(g90
g71
NtRp2411
(dp2412
g74
(dp2413
g94
g95
ssg83
g2407
sg76
(lp2414
S'wsgi.url_scheme'
p2415
asbag69
(g90
g71
NtRp2416
(dp2417
g74
(dp2418
g101
g102
ssg83
g2407
sg76
(lp2419
S':'
asbag69
(g90
g71
NtRp2420
(dp2421
g74
(dp2422
sg83
g2407
sg76
(lp2423
g69
(g70
g71
NtRp2424
(dp2425
g74
(dp2426
g82
I3
ssg83
g2420
sg76
(lp2427
g1177
asbasbasbag69
(g85
g71
NtRp2428
(dp2429
g74
(dp2430
sg83
g1917
sg76
(lp2431
g69
(g90
g71
NtRp2432
(dp2433
g74
(dp2434
g94
g95
ssg83
g2428
sg76
(lp2435
S'wsgi.version'
p2436
asbag69
(g90
g71
NtRp2437
(dp2438
g74
(dp2439
g101
g102
ssg83
g2428
sg76
(lp2440
S':'
asbag69
(g90
g71
NtRp2441
(dp2442
g74
(dp2443
sg83
g2428
sg76
(lp2444
g69
(g70
g71
NtRp2445
(dp2446
g74
(dp2447
g82
I3
ssg83
g2441
sg76
(lp2448
S'1'
asbasbasbasbasbasbasbasbasbasbasbasbasbsS'frames'
p2449
(lp2450
(dp2451
S'file'
p2452
S'D:\\workspace\\CA\\IgoR\\C_Sources\\Server\\igor-assistant-ca-2012\\gluon\\restricted.py'
p2453
sS'dump'
p2454
(dp2455
S'environment'
p2456
S"{'A': <class 'gluon.html.A'>, 'Auth': <class 'gluon.tools.Auth'>, 'B': <class 'gluon.html.B'>, 'BEAUTIFY': <class 'gluon.html.BEAUTIFY'>, 'BODY': <class 'gluon.html.BODY'>, 'BR': <class 'gluon.html.BR'>, 'BUTTON': <class 'gluon.html.BUTTON'>, 'CAT': <class 'gluon.html.CAT'>, 'CENTER': <class 'gluon.html.CENTER'>, 'CLEANUP': <class 'gluon.validators.CLEANUP'>, ...}"
p2457
sS'ccode'
p2458
S'<code object <module> at 0000000004B6C630, file ...ations\\igor\\controllers/notification.py", line 9>'
p2459
ssS'lnum'
p2460
I205
sS'lines'
p2461
(dp2462
I200
S'    try:'
p2463
sI201
S'        if type(code) == types.CodeType:'
p2464
sI202
S'            ccode = code'
p2465
sI203
S'        else:'
p2466
sI204
S'            ccode = compile2(code,layer)'
p2467
sI205
S'        exec ccode in environment'
p2468
sI206
S'    except HTTP:'
p2469
sI207
S'        raise'
p2470
sI208
S'    except RestrictedError:'
p2471
sI209
S'        # do not encapsulate (obfuscate) the original RestrictedError'
p2472
ssS'call'
p2473
S"(code='# -*- coding: utf-8 -*-\\n# this file is released ...t 20120730\\nresponse._vars=response._caller(call)\\n', environment={'A': <class 'gluon.html.A'>, 'Auth': <class 'gluon.tools.Auth'>, 'B': <class 'gluon.html.B'>, 'BEAUTIFY': <class 'gluon.html.BEAUTIFY'>, 'BODY': <class 'gluon.html.BODY'>, 'BR': <class 'gluon.html.BR'>, 'BUTTON': <class 'gluon.html.BUTTON'>, 'CAT': <class 'gluon.html.CAT'>, 'CENTER': <class 'gluon.html.CENTER'>, 'CLEANUP': <class 'gluon.validators.CLEANUP'>, ...}, layer=r'D:\\workspace\\CA\\IgoR\\C_Sources\\Server\\igor-assis...012\\applications\\igor\\controllers/notification.py')"
p2474
sS'func'
p2475
S'restricted'
p2476
sa(dp2477
g2452
S'D:\\workspace\\CA\\IgoR\\C_Sources\\Server\\igor-assistant-ca-2012\\applications\\igor\\controllers\\notification.py'
p2478
sg2454
(dp2479
S'igor_time'
p2480
S'undefined'
p2481
ssg2460
I12
sg2461
(dp2482
I7
S'#########################################################################'
p2483
sI8
S''
sI9
S'from message_packager import *'
p2484
sI10
S'from gluon.dal import Rows'
p2485
sI11
S'from gluon.tools import Service'
p2486
sI12
S'from igor_time import  *'
p2487
sI13
S''
sI14
S'service = Service()'
p2488
sI15
S''
sI16
S''
ssg2473
S'()'
p2489
sg2475
S'<module>'
p2490
sa(dp2491
g2452
S'D:\\workspace\\CA\\IgoR\\C_Sources\\Server\\igor-assistant-ca-2012\\gluon\\custom_import.py'
p2492
sg2454
(dp2493
S'fromlist'
p2494
S"('*',)"
p2495
sS'globals'
p2496
S"{'A': <class 'gluon.html.A'>, 'Auth': <class 'gluon.tools.Auth'>, 'B': <class 'gluon.html.B'>, 'BEAUTIFY': <class 'gluon.html.BEAUTIFY'>, 'BODY': <class 'gluon.html.BODY'>, 'BR': <class 'gluon.html.BR'>, 'BUTTON': <class 'gluon.html.BUTTON'>, 'CAT': <class 'gluon.html.CAT'>, 'CENTER': <class 'gluon.html.CENTER'>, 'CLEANUP': <class 'gluon.validators.CLEANUP'>, ...}"
p2497
sS'locals'
p2498
S"{'A': <class 'gluon.html.A'>, 'Auth': <class 'gluon.tools.Auth'>, 'B': <class 'gluon.html.B'>, 'BEAUTIFY': <class 'gluon.html.BEAUTIFY'>, 'BODY': <class 'gluon.html.BODY'>, 'BR': <class 'gluon.html.BR'>, 'BUTTON': <class 'gluon.html.BUTTON'>, 'CAT': <class 'gluon.html.CAT'>, 'CENTER': <class 'gluon.html.CENTER'>, 'CLEANUP': <class 'gluon.validators.CLEANUP'>, ...}"
p2499
sS'level'
p2500
S'-1'
p2501
ssg2460
I289
sg2461
(dp2502
I288
S'                            .__call__(modules_prefix+"."+name,'
p2503
sI289
S'                                    globals, locals, fromlist, level)'
p2504
sI290
S'                except ImportError:'
p2505
sI291
S'                    pass'
p2506
sI292
S'        return super(_Web2pyImporter, self).__call__(name, globals, locals,'
p2507
sI293
S'                                                    fromlist, level)'
p2508
sI284
S'                            globals, locals, fromlist, level)'
p2509
sI285
S'                    else:'
p2510
sI286
S'                        # import like "from x import a, b, ..."'
p2511
sI287
S'                        return super(_Web2pyImporter, self) \\'
p2512
ssg2473
S"(self=<gluon.custom_import._Web2pyImporter object>, name='igor_time', globals={'A': <class 'gluon.html.A'>, 'Auth': <class 'gluon.tools.Auth'>, 'B': <class 'gluon.html.B'>, 'BEAUTIFY': <class 'gluon.html.BEAUTIFY'>, 'BODY': <class 'gluon.html.BODY'>, 'BR': <class 'gluon.html.BR'>, 'BUTTON': <class 'gluon.html.BUTTON'>, 'CAT': <class 'gluon.html.CAT'>, 'CENTER': <class 'gluon.html.CENTER'>, 'CLEANUP': <class 'gluon.validators.CLEANUP'>, ...}, locals={'A': <class 'gluon.html.A'>, 'Auth': <class 'gluon.tools.Auth'>, 'B': <class 'gluon.html.B'>, 'BEAUTIFY': <class 'gluon.html.BEAUTIFY'>, 'BODY': <class 'gluon.html.BODY'>, 'BR': <class 'gluon.html.BR'>, 'BUTTON': <class 'gluon.html.BUTTON'>, 'CAT': <class 'gluon.html.CAT'>, 'CENTER': <class 'gluon.html.CENTER'>, 'CLEANUP': <class 'gluon.validators.CLEANUP'>, ...}, fromlist=('*',), level=-1)"
p2513
sg2475
S'__call__'
p2514
sa(dp2515
g2452
S'D:\\workspace\\CA\\IgoR\\C_Sources\\Server\\igor-assistant-ca-2012\\gluon\\custom_import.py'
p2516
sg2454
(dp2517
S'level'
p2518
S'-1'
p2519
ssg2460
I78
sg2461
(dp2520
I73
S'        """'
p2521
sI74
S'        return _STANDARD_PYTHON_IMPORTER(name,'
p2522
sI75
S'                                         globals,'
p2523
sI76
S'                                         locals,'
p2524
sI77
S'                                         fromlist,'
p2525
sI78
S'                                         level)'
p2526
sI79
S''
sI80
S'    def end(self):'
p2527
sI81
S'        """'
p2528
sI82
S'        Needed for clean up.'
p2529
ssg2473
S"(self=<gluon.custom_import._Web2pyImporter object>, name='applications.igor.modules.igor_time', globals={'A': <class 'gluon.html.A'>, 'Auth': <class 'gluon.tools.Auth'>, 'B': <class 'gluon.html.B'>, 'BEAUTIFY': <class 'gluon.html.BEAUTIFY'>, 'BODY': <class 'gluon.html.BODY'>, 'BR': <class 'gluon.html.BR'>, 'BUTTON': <class 'gluon.html.BUTTON'>, 'CAT': <class 'gluon.html.CAT'>, 'CENTER': <class 'gluon.html.CENTER'>, 'CLEANUP': <class 'gluon.validators.CLEANUP'>, ...}, locals={'A': <class 'gluon.html.A'>, 'Auth': <class 'gluon.tools.Auth'>, 'B': <class 'gluon.html.B'>, 'BEAUTIFY': <class 'gluon.html.BEAUTIFY'>, 'BODY': <class 'gluon.html.BODY'>, 'BR': <class 'gluon.html.BR'>, 'BUTTON': <class 'gluon.html.BUTTON'>, 'CAT': <class 'gluon.html.CAT'>, 'CENTER': <class 'gluon.html.CENTER'>, 'CLEANUP': <class 'gluon.validators.CLEANUP'>, ...}, fromlist=('*',), level=-1)"
p2530
sg2475
g2514
sasS'pyver'
p2531
S'Python 2.7.3: C:\\Python27\\python.exe'
p2532
sS'session'
p2533
g69
(g70
g71
NtRp2534
(dp2535
g74
(dp2536
sg76
(lp2537
g69
(g78
g71
NtRp2538
(dp2539
g74
(dp2540
g82
I5
ssg83
Nsg76
(lp2541
sbasbsS'etype'
p2542
S"<type 'exceptions.SyntaxError'>"
p2543
sS'date'
p2544
S'Thu Aug 02 00:17:49 2012'
p2545
sS'response'
p2546
g69
(g70
g71
NtRp2547
(dp2548
g74
(dp2549
sg76
(lp2550
g69
(g78
g71
NtRp2551
(dp2552
g74
(dp2553
g82
I5
ssg83
Nsg76
(lp2554
g69
(g85
g71
NtRp2555
(dp2556
g74
(dp2557
sg83
g2551
sg76
(lp2558
g69
(g90
g71
NtRp2559
(dp2560
g74
(dp2561
g94
g95
ssg83
g2555
sg76
(lp2562
g205
asbag69
(g90
g71
NtRp2563
(dp2564
g74
(dp2565
g101
g102
ssg83
g2555
sg76
(lp2566
S':'
asbag69
(g90
g71
NtRp2567
(dp2568
g74
(dp2569
sg83
g2555
sg76
(lp2570
g69
(g70
g71
NtRp2571
(dp2572
g74
(dp2573
g82
I5
ssg83
g2567
sg76
(lp2574
S'<cStringIO.StringO object at 0x000000000501DDC0>'
p2575
asbasbasbag69
(g85
g71
NtRp2576
(dp2577
g74
(dp2578
sg83
g2551
sg76
(lp2579
g69
(g90
g71
NtRp2580
(dp2581
g74
(dp2582
g94
g95
ssg83
g2576
sg76
(lp2583
g271
asbag69
(g90
g71
NtRp2584
(dp2585
g74
(dp2586
g101
g102
ssg83
g2576
sg76
(lp2587
S':'
asbag69
(g90
g71
NtRp2588
(dp2589
g74
(dp2590
sg83
g2576
sg76
(lp2591
g69
(g70
g71
NtRp2592
(dp2593
g74
(dp2594
g82
I5
ssg83
g2588
sg76
(lp2595
g69
(g78
g71
NtRp2596
(dp2597
g74
(dp2598
g82
I4
ssg83
Nsg76
(lp2599
g69
(g85
g71
NtRp2600
(dp2601
g74
(dp2602
sg83
g2596
sg76
(lp2603
g69
(g90
g71
NtRp2604
(dp2605
g74
(dp2606
g94
g95
ssg83
g2600
sg76
(lp2607
S'session_id_igor'
p2608
asbag69
(g90
g71
NtRp2609
(dp2610
g74
(dp2611
g101
g102
ssg83
g2600
sg76
(lp2612
S':'
asbag69
(g90
g71
NtRp2613
(dp2614
g74
(dp2615
sg83
g2600
sg76
(lp2616
g69
(g70
g71
NtRp2617
(dp2618
g74
(dp2619
g82
I4
ssg83
g2613
sg76
(lp2620
g69
(g78
g71
NtRp2621
(dp2622
g74
(dp2623
g82
I3
ssg83
Nsg76
(lp2624
g69
(g85
g71
NtRp2625
(dp2626
g74
(dp2627
sg83
g2621
sg76
(lp2628
g69
(g90
g71
NtRp2629
(dp2630
g74
(dp2631
g94
g95
ssg83
g2625
sg76
(lp2632
S'comment'
p2633
asbag69
(g90
g71
NtRp2634
(dp2635
g74
(dp2636
g101
g102
ssg83
g2625
sg76
(lp2637
S':'
asbag69
(g90
g71
NtRp2638
(dp2639
g74
(dp2640
sg83
g2625
sg76
(lp2641
g69
(g70
g71
NtRp2642
(dp2643
g74
(dp2644
g82
I3
ssg83
g2638
sg76
(lp2645
S''
asbasbasbag69
(g85
g71
NtRp2646
(dp2647
g74
(dp2648
sg83
g2621
sg76
(lp2649
g69
(g90
g71
NtRp2650
(dp2651
g74
(dp2652
g94
g95
ssg83
g2646
sg76
(lp2653
S'domain'
p2654
asbag69
(g90
g71
NtRp2655
(dp2656
g74
(dp2657
g101
g102
ssg83
g2646
sg76
(lp2658
S':'
asbag69
(g90
g71
NtRp2659
(dp2660
g74
(dp2661
sg83
g2646
sg76
(lp2662
g69
(g70
g71
NtRp2663
(dp2664
g74
(dp2665
g82
I3
ssg83
g2659
sg76
(lp2666
S''
asbasbasbag69
(g85
g71
NtRp2667
(dp2668
g74
(dp2669
sg83
g2621
sg76
(lp2670
g69
(g90
g71
NtRp2671
(dp2672
g74
(dp2673
g94
g95
ssg83
g2667
sg76
(lp2674
S'expires'
p2675
asbag69
(g90
g71
NtRp2676
(dp2677
g74
(dp2678
g101
g102
ssg83
g2667
sg76
(lp2679
S':'
asbag69
(g90
g71
NtRp2680
(dp2681
g74
(dp2682
sg83
g2667
sg76
(lp2683
g69
(g70
g71
NtRp2684
(dp2685
g74
(dp2686
g82
I3
ssg83
g2680
sg76
(lp2687
S''
asbasbasbag69
(g85
g71
NtRp2688
(dp2689
g74
(dp2690
sg83
g2621
sg76
(lp2691
g69
(g90
g71
NtRp2692
(dp2693
g74
(dp2694
g94
g95
ssg83
g2688
sg76
(lp2695
S'httponly'
p2696
asbag69
(g90
g71
NtRp2697
(dp2698
g74
(dp2699
g101
g102
ssg83
g2688
sg76
(lp2700
S':'
asbag69
(g90
g71
NtRp2701
(dp2702
g74
(dp2703
sg83
g2688
sg76
(lp2704
g69
(g70
g71
NtRp2705
(dp2706
g74
(dp2707
g82
I3
ssg83
g2701
sg76
(lp2708
S''
asbasbasbag69
(g85
g71
NtRp2709
(dp2710
g74
(dp2711
sg83
g2621
sg76
(lp2712
g69
(g90
g71
NtRp2713
(dp2714
g74
(dp2715
g94
g95
ssg83
g2709
sg76
(lp2716
S'max-age'
p2717
asbag69
(g90
g71
NtRp2718
(dp2719
g74
(dp2720
g101
g102
ssg83
g2709
sg76
(lp2721
S':'
asbag69
(g90
g71
NtRp2722
(dp2723
g74
(dp2724
sg83
g2709
sg76
(lp2725
g69
(g70
g71
NtRp2726
(dp2727
g74
(dp2728
g82
I3
ssg83
g2722
sg76
(lp2729
S''
asbasbasbag69
(g85
g71
NtRp2730
(dp2731
g74
(dp2732
sg83
g2621
sg76
(lp2733
g69
(g90
g71
NtRp2734
(dp2735
g74
(dp2736
g94
g95
ssg83
g2730
sg76
(lp2737
S'path'
p2738
asbag69
(g90
g71
NtRp2739
(dp2740
g74
(dp2741
g101
g102
ssg83
g2730
sg76
(lp2742
S':'
asbag69
(g90
g71
NtRp2743
(dp2744
g74
(dp2745
sg83
g2730
sg76
(lp2746
g69
(g70
g71
NtRp2747
(dp2748
g74
(dp2749
g82
I3
ssg83
g2743
sg76
(lp2750
S'/'
asbasbasbag69
(g85
g71
NtRp2751
(dp2752
g74
(dp2753
sg83
g2621
sg76
(lp2754
g69
(g90
g71
NtRp2755
(dp2756
g74
(dp2757
g94
g95
ssg83
g2751
sg76
(lp2758
S'secure'
p2759
asbag69
(g90
g71
NtRp2760
(dp2761
g74
(dp2762
g101
g102
ssg83
g2751
sg76
(lp2763
S':'
asbag69
(g90
g71
NtRp2764
(dp2765
g74
(dp2766
sg83
g2751
sg76
(lp2767
g69
(g70
g71
NtRp2768
(dp2769
g74
(dp2770
g82
I3
ssg83
g2764
sg76
(lp2771
S''
asbasbasbag69
(g85
g71
NtRp2772
(dp2773
g74
(dp2774
sg83
g2621
sg76
(lp2775
g69
(g90
g71
NtRp2776
(dp2777
g74
(dp2778
g94
g95
ssg83
g2772
sg76
(lp2779
S'version'
p2780
asbag69
(g90
g71
NtRp2781
(dp2782
g74
(dp2783
g101
g102
ssg83
g2772
sg76
(lp2784
S':'
asbag69
(g90
g71
NtRp2785
(dp2786
g74
(dp2787
sg83
g2772
sg76
(lp2788
g69
(g70
g71
NtRp2789
(dp2790
g74
(dp2791
g82
I3
ssg83
g2785
sg76
(lp2792
S''
asbasbasbasbasbasbasbasbasbasbasbag69
(g85
g71
NtRp2793
(dp2794
g74
(dp2795
sg83
g2551
sg76
(lp2796
g69
(g90
g71
NtRp2797
(dp2798
g74
(dp2799
g94
g95
ssg83
g2793
sg76
(lp2800
S'delimiters'
p2801
asbag69
(g90
g71
NtRp2802
(dp2803
g74
(dp2804
g101
g102
ssg83
g2793
sg76
(lp2805
S':'
asbag69
(g90
g71
NtRp2806
(dp2807
g74
(dp2808
sg83
g2793
sg76
(lp2809
g69
(g70
g71
NtRp2810
(dp2811
g74
(dp2812
g82
I5
ssg83
g2806
sg76
(lp2813
g69
(g78
g71
NtRp2814
(dp2815
g74
(dp2816
g82
I4
ssg83
Nsg76
(lp2817
g69
(g85
g71
NtRp2818
(dp2819
g74
(dp2820
sg83
g2814
sg76
(lp2821
g69
(g90
g71
NtRp2822
(dp2823
g74
(dp2824
sg83
g2818
sg76
(lp2825
g69
(g70
g71
NtRp2826
(dp2827
g74
(dp2828
g82
I4
ssg83
g2822
sg76
(lp2829
S'{{'
p2830
asbasbasbag69
(g85
g71
NtRp2831
(dp2832
g74
(dp2833
sg83
g2814
sg76
(lp2834
g69
(g90
g71
NtRp2835
(dp2836
g74
(dp2837
sg83
g2831
sg76
(lp2838
g69
(g70
g71
NtRp2839
(dp2840
g74
(dp2841
g82
I4
ssg83
g2835
sg76
(lp2842
S'}}'
p2843
asbasbasbasbasbasbasbag69
(g85
g71
NtRp2844
(dp2845
g74
(dp2846
sg83
g2551
sg76
(lp2847
g69
(g90
g71
NtRp2848
(dp2849
g74
(dp2850
g94
g95
ssg83
g2844
sg76
(lp2851
S'files'
p2852
asbag69
(g90
g71
NtRp2853
(dp2854
g74
(dp2855
g101
g102
ssg83
g2844
sg76
(lp2856
S':'
asbag69
(g90
g71
NtRp2857
(dp2858
g74
(dp2859
sg83
g2844
sg76
(lp2860
g69
(g70
g71
NtRp2861
(dp2862
g74
(dp2863
g82
I5
ssg83
g2857
sg76
(lp2864
g69
(g78
g71
NtRp2865
(dp2866
g74
(dp2867
g82
I4
ssg83
Nsg76
(lp2868
sbasbasbasbag69
(g85
g71
NtRp2869
(dp2870
g74
(dp2871
sg83
g2551
sg76
(lp2872
g69
(g90
g71
NtRp2873
(dp2874
g74
(dp2875
g94
g95
ssg83
g2869
sg76
(lp2876
S'flash'
p2877
asbag69
(g90
g71
NtRp2878
(dp2879
g74
(dp2880
g101
g102
ssg83
g2869
sg76
(lp2881
S':'
asbag69
(g90
g71
NtRp2882
(dp2883
g74
(dp2884
sg83
g2869
sg76
(lp2885
g69
(g70
g71
NtRp2886
(dp2887
g74
(dp2888
g82
I5
ssg83
g2882
sg76
(lp2889
S''
asbasbasbag69
(g85
g71
NtRp2890
(dp2891
g74
(dp2892
sg83
g2551
sg76
(lp2893
g69
(g90
g71
NtRp2894
(dp2895
g74
(dp2896
g94
g95
ssg83
g2890
sg76
(lp2897
S'generic_patterns'
p2898
asbag69
(g90
g71
NtRp2899
(dp2900
g74
(dp2901
g101
g102
ssg83
g2890
sg76
(lp2902
S':'
asbag69
(g90
g71
NtRp2903
(dp2904
g74
(dp2905
sg83
g2890
sg76
(lp2906
g69
(g70
g71
NtRp2907
(dp2908
g74
(dp2909
g82
I5
ssg83
g2903
sg76
(lp2910
g69
(g78
g71
NtRp2911
(dp2912
g74
(dp2913
g82
I4
ssg83
Nsg76
(lp2914
g69
(g85
g71
NtRp2915
(dp2916
g74
(dp2917
sg83
g2911
sg76
(lp2918
g69
(g90
g71
NtRp2919
(dp2920
g74
(dp2921
sg83
g2915
sg76
(lp2922
g69
(g70
g71
NtRp2923
(dp2924
g74
(dp2925
g82
I4
ssg83
g2919
sg76
(lp2926
S'*'
asbasbasbasbasbasbasbag69
(g85
g71
NtRp2927
(dp2928
g74
(dp2929
sg83
g2551
sg76
(lp2930
g69
(g90
g71
NtRp2931
(dp2932
g74
(dp2933
g94
g95
ssg83
g2927
sg76
(lp2934
S'headers'
p2935
asbag69
(g90
g71
NtRp2936
(dp2937
g74
(dp2938
g101
g102
ssg83
g2927
sg76
(lp2939
S':'
asbag69
(g90
g71
NtRp2940
(dp2941
g74
(dp2942
sg83
g2927
sg76
(lp2943
g69
(g70
g71
NtRp2944
(dp2945
g74
(dp2946
g82
I5
ssg83
g2940
sg76
(lp2947
g69
(g78
g71
NtRp2948
(dp2949
g74
(dp2950
g82
I4
ssg83
Nsg76
(lp2951
g69
(g85
g71
NtRp2952
(dp2953
g74
(dp2954
sg83
g2948
sg76
(lp2955
g69
(g90
g71
NtRp2956
(dp2957
g74
(dp2958
g94
g95
ssg83
g2952
sg76
(lp2959
S'Cache-Control'
p2960
asbag69
(g90
g71
NtRp2961
(dp2962
g74
(dp2963
g101
g102
ssg83
g2952
sg76
(lp2964
S':'
asbag69
(g90
g71
NtRp2965
(dp2966
g74
(dp2967
sg83
g2952
sg76
(lp2968
g69
(g70
g71
NtRp2969
(dp2970
g74
(dp2971
g82
I4
ssg83
g2965
sg76
(lp2972
S'no-store, no-cache, must-revalidate, post-check=0, pre-check=0'
p2973
asbasbasbag69
(g85
g71
NtRp2974
(dp2975
g74
(dp2976
sg83
g2948
sg76
(lp2977
g69
(g90
g71
NtRp2978
(dp2979
g74
(dp2980
g94
g95
ssg83
g2974
sg76
(lp2981
S'Content-Type'
p2982
asbag69
(g90
g71
NtRp2983
(dp2984
g74
(dp2985
g101
g102
ssg83
g2974
sg76
(lp2986
S':'
asbag69
(g90
g71
NtRp2987
(dp2988
g74
(dp2989
sg83
g2974
sg76
(lp2990
g69
(g70
g71
NtRp2991
(dp2992
g74
(dp2993
g82
I4
ssg83
g2987
sg76
(lp2994
S'text/html; charset=utf-8'
p2995
asbasbasbag69
(g85
g71
NtRp2996
(dp2997
g74
(dp2998
sg83
g2948
sg76
(lp2999
g69
(g90
g71
NtRp3000
(dp3001
g74
(dp3002
g94
g95
ssg83
g2996
sg76
(lp3003
S'Expires'
p3004
asbag69
(g90
g71
NtRp3005
(dp3006
g74
(dp3007
g101
g102
ssg83
g2996
sg76
(lp3008
S':'
asbag69
(g90
g71
NtRp3009
(dp3010
g74
(dp3011
sg83
g2996
sg76
(lp3012
g69
(g70
g71
NtRp3013
(dp3014
g74
(dp3015
g82
I4
ssg83
g3009
sg76
(lp3016
S'Wed, 01 Aug 2012 17:17:49 GMT'
p3017
asbasbasbag69
(g85
g71
NtRp3018
(dp3019
g74
(dp3020
sg83
g2948
sg76
(lp3021
g69
(g90
g71
NtRp3022
(dp3023
g74
(dp3024
g94
g95
ssg83
g3018
sg76
(lp3025
S'Pragma'
p3026
asbag69
(g90
g71
NtRp3027
(dp3028
g74
(dp3029
g101
g102
ssg83
g3018
sg76
(lp3030
S':'
asbag69
(g90
g71
NtRp3031
(dp3032
g74
(dp3033
sg83
g3018
sg76
(lp3034
g69
(g70
g71
NtRp3035
(dp3036
g74
(dp3037
g82
I4
ssg83
g3031
sg76
(lp3038
S'no-cache'
p3039
asbasbasbag69
(g85
g71
NtRp3040
(dp3041
g74
(dp3042
sg83
g2948
sg76
(lp3043
g69
(g90
g71
NtRp3044
(dp3045
g74
(dp3046
g94
g95
ssg83
g3040
sg76
(lp3047
S'X-Powered-By'
p3048
asbag69
(g90
g71
NtRp3049
(dp3050
g74
(dp3051
g101
g102
ssg83
g3040
sg76
(lp3052
S':'
asbag69
(g90
g71
NtRp3053
(dp3054
g74
(dp3055
sg83
g3040
sg76
(lp3056
g69
(g70
g71
NtRp3057
(dp3058
g74
(dp3059
g82
I4
ssg83
g3053
sg76
(lp3060
S'web2py'
p3061
asbasbasbasbasbasbasbag69
(g85
g71
NtRp3062
(dp3063
g74
(dp3064
sg83
g2551
sg76
(lp3065
g69
(g90
g71
NtRp3066
(dp3067
g74
(dp3068
g94
g95
ssg83
g3062
sg76
(lp3069
S'menu'
p3070
asbag69
(g90
g71
NtRp3071
(dp3072
g74
(dp3073
g101
g102
ssg83
g3062
sg76
(lp3074
S':'
asbag69
(g90
g71
NtRp3075
(dp3076
g74
(dp3077
sg83
g3062
sg76
(lp3078
g69
(g70
g71
NtRp3079
(dp3080
g74
(dp3081
g82
I5
ssg83
g3075
sg76
(lp3082
g69
(g78
g71
NtRp3083
(dp3084
g74
(dp3085
g82
I4
ssg83
Nsg76
(lp3086
g69
(g85
g71
NtRp3087
(dp3088
g74
(dp3089
sg83
g3083
sg76
(lp3090
g69
(g90
g71
NtRp3091
(dp3092
g74
(dp3093
sg83
g3087
sg76
(lp3094
g69
(g70
g71
NtRp3095
(dp3096
g74
(dp3097
g82
I4
ssg83
g3091
sg76
(lp3098
g69
(g78
g71
NtRp3099
(dp3100
g74
(dp3101
g82
I3
ssg83
Nsg76
(lp3102
g69
(g85
g71
NtRp3103
(dp3104
g74
(dp3105
sg83
g3099
sg76
(lp3106
g69
(g90
g71
NtRp3107
(dp3108
g74
(dp3109
sg83
g3103
sg76
(lp3110
g69
(g70
g71
NtRp3111
(dp3112
g74
(dp3113
g82
I3
ssg83
g3107
sg76
(lp3114
cgluon.languages
lazyT_unpickle
p3115
(S't\x04\x00\x00\x00Home'
tRp3116
asbasbasbag69
(g85
g71
NtRp3117
(dp3118
g74
(dp3119
sg83
g3099
sg76
(lp3120
g69
(g90
g71
NtRp3121
(dp3122
g74
(dp3123
sg83
g3117
sg76
(lp3124
g69
(g70
g71
NtRp3125
(dp3126
g74
(dp3127
g82
I3
ssg83
g3121
sg76
(lp3128
g112
asbasbasbag69
(g85
g71
NtRp3129
(dp3130
g74
(dp3131
sg83
g3099
sg76
(lp3132
g69
(g90
g71
NtRp3133
(dp3134
g74
(dp3135
sg83
g3129
sg76
(lp3136
g69
(g70
g71
NtRp3137
(dp3138
g74
(dp3139
g82
I3
ssg83
g3133
sg76
(lp3140
S'/igor/default/index'
p3141
asbasbasbag69
(g85
g71
NtRp3142
(dp3143
g74
(dp3144
sg83
g3099
sg76
(lp3145
g69
(g90
g71
NtRp3146
(dp3147
g74
(dp3148
sg83
g3142
sg76
(lp3149
g69
(g70
g71
NtRp3150
(dp3151
g74
(dp3152
g82
I3
ssg83
g3146
sg76
(lp3153
g69
(g78
g71
NtRp3154
(dp3155
g74
(dp3156
g82
I2
ssg83
Nsg76
(lp3157
sbasbasbasbasbasbasbasbag69
(g85
g71
NtRp3158
(dp3159
g74
(dp3160
sg83
g3083
sg76
(lp3161
g69
(g90
g71
NtRp3162
(dp3163
g74
(dp3164
sg83
g3158
sg76
(lp3165
g69
(g70
g71
NtRp3166
(dp3167
g74
(dp3168
g82
I4
ssg83
g3162
sg76
(lp3169
g69
(g78
g71
NtRp3170
(dp3171
g74
(dp3172
g82
I3
ssg83
Nsg76
(lp3173
g69
(g85
g71
NtRp3174
(dp3175
g74
(dp3176
sg83
g3170
sg76
(lp3177
g69
(g90
g71
NtRp3178
(dp3179
g74
(dp3180
sg83
g3174
sg76
(lp3181
g69
(g70
g71
NtRp3182
(dp3183
g74
(dp3184
g82
I3
ssg83
g3178
sg76
(lp3185
g69
(cgluon.html
SPAN
p3186
g71
NtRp3187
(dp3188
g74
(dp3189
g94
S'color:yellow'
p3190
ssg83
Nsg76
(lp3191
g3061
asbasbasbasbag69
(g85
g71
NtRp3192
(dp3193
g74
(dp3194
sg83
g3170
sg76
(lp3195
g69
(g90
g71
NtRp3196
(dp3197
g74
(dp3198
sg83
g3192
sg76
(lp3199
g69
(g70
g71
NtRp3200
(dp3201
g74
(dp3202
g82
I3
ssg83
g3196
sg76
(lp3203
g112
asbasbasbag69
(g85
g71
NtRp3204
(dp3205
g74
(dp3206
sg83
g3170
sg76
(lp3207
g69
(g90
g71
NtRp3208
(dp3209
g74
(dp3210
sg83
g3204
sg76
(lp3211
g69
(g70
g71
NtRp3212
(dp3213
g74
(dp3214
g82
I3
ssg83
g3208
sg76
(lp3215
S'None'
p3216
asbasbasbag69
(g85
g71
NtRp3217
(dp3218
g74
(dp3219
sg83
g3170
sg76
(lp3220
g69
(g90
g71
NtRp3221
(dp3222
g74
(dp3223
sg83
g3217
sg76
(lp3224
g69
(g70
g71
NtRp3225
(dp3226
g74
(dp3227
g82
I3
ssg83
g3221
sg76
(lp3228
g69
(g78
g71
NtRp3229
(dp3230
g74
(dp3231
g82
I2
ssg83
Nsg76
(lp3232
g69
(g85
g71
NtRp3233
(dp3234
g74
(dp3235
sg83
g3229
sg76
(lp3236
g69
(g90
g71
NtRp3237
(dp3238
g74
(dp3239
sg83
g3233
sg76
(lp3240
g69
(g70
g71
NtRp3241
(dp3242
g74
(dp3243
g82
I2
ssg83
g3237
sg76
(lp3244
g69
(g78
g71
NtRp3245
(dp3246
g74
(dp3247
g82
I1
ssg83
Nsg76
(lp3248
g69
(g85
g71
NtRp3249
(dp3250
g74
(dp3251
sg83
g3245
sg76
(lp3252
g69
(g90
g71
NtRp3253
(dp3254
g74
(dp3255
sg83
g3249
sg76
(lp3256
g69
(g70
g71
NtRp3257
(dp3258
g74
(dp3259
g82
I1
ssg83
g3253
sg76
(lp3260
g3115
(S's\x08\x00\x00\x00My Sites'
tRp3261
asbasbasbag69
(g85
g71
NtRp3262
(dp3263
g74
(dp3264
sg83
g3245
sg76
(lp3265
g69
(g90
g71
NtRp3266
(dp3267
g74
(dp3268
sg83
g3262
sg76
(lp3269
g69
(g70
g71
NtRp3270
(dp3271
g74
(dp3272
g82
I1
ssg83
g3266
sg76
(lp3273
I00
asbasbasbag69
(g85
g71
NtRp3274
(dp3275
g74
(dp3276
sg83
g3245
sg76
(lp3277
g69
(g90
g71
NtRp3278
(dp3279
g74
(dp3280
sg83
g3274
sg76
(lp3281
g69
(g70
g71
NtRp3282
(dp3283
g74
(dp3284
g82
I1
ssg83
g3278
sg76
(lp3285
S'/admin/default/site'
p3286
asbasbasbasbasbasbasbag69
(g85
g71
NtRp3287
(dp3288
g74
(dp3289
sg83
g3229
sg76
(lp3290
g69
(g90
g71
NtRp3291
(dp3292
g74
(dp3293
sg83
g3287
sg76
(lp3294
g69
(g70
g71
NtRp3295
(dp3296
g74
(dp3297
g82
I2
ssg83
g3291
sg76
(lp3298
g69
(g78
g71
NtRp3299
(dp3300
g74
(dp3301
g82
I1
ssg83
Nsg76
(lp3302
g69
(g85
g71
NtRp3303
(dp3304
g74
(dp3305
sg83
g3299
sg76
(lp3306
g69
(g90
g71
NtRp3307
(dp3308
g74
(dp3309
sg83
g3303
sg76
(lp3310
g69
(g70
g71
NtRp3311
(dp3312
g74
(dp3313
g82
I1
ssg83
g3307
sg76
(lp3314
g3115
(S's\x08\x00\x00\x00This App'
tRp3315
asbasbasbag69
(g85
g71
NtRp3316
(dp3317
g74
(dp3318
sg83
g3299
sg76
(lp3319
g69
(g90
g71
NtRp3320
(dp3321
g74
(dp3322
sg83
g3316
sg76
(lp3323
g69
(g70
g71
NtRp3324
(dp3325
g74
(dp3326
g82
I1
ssg83
g3320
sg76
(lp3327
I00
asbasbasbag69
(g85
g71
NtRp3328
(dp3329
g74
(dp3330
sg83
g3299
sg76
(lp3331
g69
(g90
g71
NtRp3332
(dp3333
g74
(dp3334
sg83
g3328
sg76
(lp3335
g69
(g70
g71
NtRp3336
(dp3337
g74
(dp3338
g82
I1
ssg83
g3332
sg76
(lp3339
S'/admin/default/design/igor'
p3340
asbasbasbag69
(g85
g71
NtRp3341
(dp3342
g74
(dp3343
sg83
g3299
sg76
(lp3344
g69
(g90
g71
NtRp3345
(dp3346
g74
(dp3347
sg83
g3341
sg76
(lp3348
g69
(g70
g71
NtRp3349
(dp3350
g74
(dp3351
g82
I1
ssg83
g3345
sg76
(lp3352
(lp3353
(g3115
(S't\n\x00\x00\x00Controller'
tRp3354
I00
S'/admin/default/edit/igor/controllers/notification.py'
tp3355
a(g3115
(S't\x04\x00\x00\x00View'
tRp3356
I00
S'/admin/default/edit/igor/views/notification/call.html'
tp3357
a(g3115
(S't\x06\x00\x00\x00Layout'
tRp3358
I00
S'/admin/default/edit/igor/views/layout.html'
tp3359
a(g3115
(S't\n\x00\x00\x00Stylesheet'
tRp3360
I00
S'/admin/default/edit/igor/static/css/web2py.css'
tp3361
a(g3115
(S's\x08\x00\x00\x00DB Model'
tRp3362
I00
S'/admin/default/edit/igor/models/db.py'
tp3363
a(g3115
(S's\n\x00\x00\x00Menu Model'
tRp3364
I00
S'/admin/default/edit/igor/models/menu.py'
tp3365
a(g3115
(S't\x08\x00\x00\x00Database'
tRp3366
I00
S'/igor/appadmin/index'
tp3367
a(g3115
(S't\x06\x00\x00\x00Errors'
tRp3368
I00
S'/admin/default/errors/igor'
tp3369
a(g3115
(S't\x05\x00\x00\x00About'
tRp3370
I00
S'/admin/default/about/igor'
tp3371
aasbasbasbasbasbasbasbag69
(g85
g71
NtRp3372
(dp3373
g74
(dp3374
sg83
g3229
sg76
(lp3375
g69
(g90
g71
NtRp3376
(dp3377
g74
(dp3378
sg83
g3372
sg76
(lp3379
g69
(g70
g71
NtRp3380
(dp3381
g74
(dp3382
g82
I2
ssg83
g3376
sg76
(lp3383
g69
(g78
g71
NtRp3384
(dp3385
g74
(dp3386
g82
I1
ssg83
Nsg76
(lp3387
g69
(g85
g71
NtRp3388
(dp3389
g74
(dp3390
sg83
g3384
sg76
(lp3391
g69
(g90
g71
NtRp3392
(dp3393
g74
(dp3394
sg83
g3388
sg76
(lp3395
g69
(g70
g71
NtRp3396
(dp3397
g74
(dp3398
g82
I1
ssg83
g3392
sg76
(lp3399
S'web2py.com'
p3400
asbasbasbag69
(g85
g71
NtRp3401
(dp3402
g74
(dp3403
sg83
g3384
sg76
(lp3404
g69
(g90
g71
NtRp3405
(dp3406
g74
(dp3407
sg83
g3401
sg76
(lp3408
g69
(g70
g71
NtRp3409
(dp3410
g74
(dp3411
g82
I1
ssg83
g3405
sg76
(lp3412
I00
asbasbasbag69
(g85
g71
NtRp3413
(dp3414
g74
(dp3415
sg83
g3384
sg76
(lp3416
g69
(g90
g71
NtRp3417
(dp3418
g74
(dp3419
sg83
g3413
sg76
(lp3420
g69
(g70
g71
NtRp3421
(dp3422
g74
(dp3423
g82
I1
ssg83
g3417
sg76
(lp3424
S'http://www.web2py.com'
p3425
asbasbasbag69
(g85
g71
NtRp3426
(dp3427
g74
(dp3428
sg83
g3384
sg76
(lp3429
g69
(g90
g71
NtRp3430
(dp3431
g74
(dp3432
sg83
g3426
sg76
(lp3433
g69
(g70
g71
NtRp3434
(dp3435
g74
(dp3436
g82
I1
ssg83
g3430
sg76
(lp3437
(lp3438
(g3115
(S't\x08\x00\x00\x00Download'
tRp3439
I00
S'http://www.web2py.com/examples/default/download'
p3440
tp3441
a(g3115
(S't\x07\x00\x00\x00Support'
tRp3442
I00
S'http://www.web2py.com/examples/default/support'
p3443
tp3444
a(g3115
(S't\x04\x00\x00\x00Demo'
tRp3445
I00
S'http://web2py.com/demo_admin'
p3446
tp3447
a(g3115
(S's\x0e\x00\x00\x00Quick Examples'
tRp3448
I00
S'http://web2py.com/examples/default/examples'
p3449
tp3450
a(g3115
(S't\x03\x00\x00\x00FAQ'
tRp3451
I00
S'http://web2py.com/AlterEgo'
p3452
tp3453
a(g3115
(S't\x06\x00\x00\x00Videos'
tRp3454
I00
S'http://www.web2py.com/examples/default/videos/'
p3455
tp3456
a(g3115
(S's\x11\x00\x00\x00Free Applications'
tRp3457
I00
S'http://web2py.com/appliances'
p3458
tp3459
a(g3115
(S't\x07\x00\x00\x00Plugins'
tRp3460
I00
S'http://web2py.com/plugins'
p3461
tp3462
a(g3115
(S't\x07\x00\x00\x00Layouts'
tRp3463
I00
S'http://web2py.com/layouts'
p3464
tp3465
a(g3115
(S't\x07\x00\x00\x00Recipes'
tRp3466
I00
S'http://web2pyslices.com/'
p3467
tp3468
a(g3115
(S't\x08\x00\x00\x00Semantic'
tRp3469
I00
S'http://web2py.com/semantic'
p3470
tp3471
aasbasbasbasbasbasbasbag69
(g85
g71
NtRp3472
(dp3473
g74
(dp3474
sg83
g3229
sg76
(lp3475
g69
(g90
g71
NtRp3476
(dp3477
g74
(dp3478
sg83
g3472
sg76
(lp3479
g69
(g70
g71
NtRp3480
(dp3481
g74
(dp3482
g82
I2
ssg83
g3476
sg76
(lp3483
g69
(g78
g71
NtRp3484
(dp3485
g74
(dp3486
g82
I1
ssg83
Nsg76
(lp3487
g69
(g85
g71
NtRp3488
(dp3489
g74
(dp3490
sg83
g3484
sg76
(lp3491
g69
(g90
g71
NtRp3492
(dp3493
g74
(dp3494
sg83
g3488
sg76
(lp3495
g69
(g70
g71
NtRp3496
(dp3497
g74
(dp3498
g82
I1
ssg83
g3492
sg76
(lp3499
g3115
(S't\r\x00\x00\x00Documentation'
tRp3500
asbasbasbag69
(g85
g71
NtRp3501
(dp3502
g74
(dp3503
sg83
g3484
sg76
(lp3504
g69
(g90
g71
NtRp3505
(dp3506
g74
(dp3507
sg83
g3501
sg76
(lp3508
g69
(g70
g71
NtRp3509
(dp3510
g74
(dp3511
g82
I1
ssg83
g3505
sg76
(lp3512
I00
asbasbasbag69
(g85
g71
NtRp3513
(dp3514
g74
(dp3515
sg83
g3484
sg76
(lp3516
g69
(g90
g71
NtRp3517
(dp3518
g74
(dp3519
sg83
g3513
sg76
(lp3520
g69
(g70
g71
NtRp3521
(dp3522
g74
(dp3523
g82
I1
ssg83
g3517
sg76
(lp3524
S'http://www.web2py.com/book'
p3525
asbasbasbag69
(g85
g71
NtRp3526
(dp3527
g74
(dp3528
sg83
g3484
sg76
(lp3529
g69
(g90
g71
NtRp3530
(dp3531
g74
(dp3532
sg83
g3526
sg76
(lp3533
g69
(g70
g71
NtRp3534
(dp3535
g74
(dp3536
g82
I1
ssg83
g3530
sg76
(lp3537
(lp3538
(g3115
(S't\x07\x00\x00\x00Preface'
tRp3539
I00
S'http://www.web2py.com/book/default/chapter/00'
p3540
tp3541
a(g3115
(S't\x0c\x00\x00\x00Introduction'
tRp3542
I00
S'http://www.web2py.com/book/default/chapter/01'
p3543
tp3544
a(g3115
(S't\x06\x00\x00\x00Python'
tRp3545
I00
S'http://www.web2py.com/book/default/chapter/02'
p3546
tp3547
a(g3115
(S't\x08\x00\x00\x00Overview'
tRp3548
I00
S'http://www.web2py.com/book/default/chapter/03'
p3549
tp3550
a(g3115
(S's\x08\x00\x00\x00The Core'
tRp3551
I00
S'http://www.web2py.com/book/default/chapter/04'
p3552
tp3553
a(g3115
(S's\t\x00\x00\x00The Views'
tRp3554
I00
S'http://www.web2py.com/book/default/chapter/05'
p3555
tp3556
a(g3115
(S't\x08\x00\x00\x00Database'
tRp3557
I00
S'http://www.web2py.com/book/default/chapter/06'
p3558
tp3559
a(g3115
(S's\x14\x00\x00\x00Forms and Validators'
tRp3560
I00
S'http://www.web2py.com/book/default/chapter/07'
p3561
tp3562
a(g3115
(S's\r\x00\x00\x00Email and SMS'
tRp3563
I00
S'http://www.web2py.com/book/default/chapter/08'
p3564
tp3565
a(g3115
(S's\x0e\x00\x00\x00Access Control'
tRp3566
I00
S'http://www.web2py.com/book/default/chapter/09'
p3567
tp3568
a(g3115
(S't\x08\x00\x00\x00Services'
tRp3569
I00
S'http://www.web2py.com/book/default/chapter/10'
p3570
tp3571
a(g3115
(S's\x0c\x00\x00\x00Ajax Recipes'
tRp3572
I00
S'http://www.web2py.com/book/default/chapter/11'
p3573
tp3574
a(g3115
(S's\x16\x00\x00\x00Components and Plugins'
tRp3575
I00
S'http://www.web2py.com/book/default/chapter/12'
p3576
tp3577
a(g3115
(S's\x12\x00\x00\x00Deployment Recipes'
tRp3578
I00
S'http://www.web2py.com/book/default/chapter/13'
p3579
tp3580
a(g3115
(S's\r\x00\x00\x00Other Recipes'
tRp3581
I00
S'http://www.web2py.com/book/default/chapter/14'
p3582
tp3583
a(g3115
(S's\r\x00\x00\x00Buy this book'
tRp3584
I00
S'http://stores.lulu.com/web2py'
p3585
tp3586
aasbasbasbasbasbasbasbag69
(g85
g71
NtRp3587
(dp3588
g74
(dp3589
sg83
g3229
sg76
(lp3590
g69
(g90
g71
NtRp3591
(dp3592
g74
(dp3593
sg83
g3587
sg76
(lp3594
g69
(g70
g71
NtRp3595
(dp3596
g74
(dp3597
g82
I2
ssg83
g3591
sg76
(lp3598
g69
(g78
g71
NtRp3599
(dp3600
g74
(dp3601
g82
I1
ssg83
Nsg76
(lp3602
g69
(g85
g71
NtRp3603
(dp3604
g74
(dp3605
sg83
g3599
sg76
(lp3606
g69
(g90
g71
NtRp3607
(dp3608
g74
(dp3609
sg83
g3603
sg76
(lp3610
g69
(g70
g71
NtRp3611
(dp3612
g74
(dp3613
g82
I1
ssg83
g3607
sg76
(lp3614
g3115
(S't\t\x00\x00\x00Community'
tRp3615
asbasbasbag69
(g85
g71
NtRp3616
(dp3617
g74
(dp3618
sg83
g3599
sg76
(lp3619
g69
(g90
g71
NtRp3620
(dp3621
g74
(dp3622
sg83
g3616
sg76
(lp3623
g69
(g70
g71
NtRp3624
(dp3625
g74
(dp3626
g82
I1
ssg83
g3620
sg76
(lp3627
I00
asbasbasbag69
(g85
g71
NtRp3628
(dp3629
g74
(dp3630
sg83
g3599
sg76
(lp3631
g69
(g90
g71
NtRp3632
(dp3633
g74
(dp3634
sg83
g3628
sg76
(lp3635
g69
(g70
g71
NtRp3636
(dp3637
g74
(dp3638
g82
I1
ssg83
g3632
sg76
(lp3639
Nasbasbasbag69
(g85
g71
NtRp3640
(dp3641
g74
(dp3642
sg83
g3599
sg76
(lp3643
g69
(g90
g71
NtRp3644
(dp3645
g74
(dp3646
sg83
g3640
sg76
(lp3647
g69
(g70
g71
NtRp3648
(dp3649
g74
(dp3650
g82
I1
ssg83
g3644
sg76
(lp3651
(lp3652
(g3115
(S't\x06\x00\x00\x00Groups'
tRp3653
I00
S'http://www.web2py.com/examples/default/usergroups'
p3654
tp3655
a(g3115
(S't\x07\x00\x00\x00Twitter'
tRp3656
I00
S'http://twitter.com/web2py'
p3657
tp3658
a(g3115
(S's\t\x00\x00\x00Live Chat'
tRp3659
I00
S'http://webchat.freenode.net/?channels=web2py'
p3660
tp3661
aasbasbasbasbasbasbasbag69
(g85
g71
NtRp3662
(dp3663
g74
(dp3664
sg83
g3229
sg76
(lp3665
g69
(g90
g71
NtRp3666
(dp3667
g74
(dp3668
sg83
g3662
sg76
(lp3669
g69
(g70
g71
NtRp3670
(dp3671
g74
(dp3672
g82
I2
ssg83
g3666
sg76
(lp3673
g69
(g78
g71
NtRp3674
(dp3675
g74
(dp3676
g82
I1
ssg83
Nsg76
(lp3677
g69
(g85
g71
NtRp3678
(dp3679
g74
(dp3680
sg83
g3674
sg76
(lp3681
g69
(g90
g71
NtRp3682
(dp3683
g74
(dp3684
sg83
g3678
sg76
(lp3685
g69
(g70
g71
NtRp3686
(dp3687
g74
(dp3688
g82
I1
ssg83
g3682
sg76
(lp3689
g3115
(S't\x07\x00\x00\x00Plugins'
tRp3690
asbasbasbag69
(g85
g71
NtRp3691
(dp3692
g74
(dp3693
sg83
g3674
sg76
(lp3694
g69
(g90
g71
NtRp3695
(dp3696
g74
(dp3697
sg83
g3691
sg76
(lp3698
g69
(g70
g71
NtRp3699
(dp3700
g74
(dp3701
g82
I1
ssg83
g3695
sg76
(lp3702
I00
asbasbasbag69
(g85
g71
NtRp3703
(dp3704
g74
(dp3705
sg83
g3674
sg76
(lp3706
g69
(g90
g71
NtRp3707
(dp3708
g74
(dp3709
sg83
g3703
sg76
(lp3710
g69
(g70
g71
NtRp3711
(dp3712
g74
(dp3713
g82
I1
ssg83
g3707
sg76
(lp3714
Nasbasbasbag69
(g85
g71
NtRp3715
(dp3716
g74
(dp3717
sg83
g3674
sg76
(lp3718
g69
(g90
g71
NtRp3719
(dp3720
g74
(dp3721
sg83
g3715
sg76
(lp3722
g69
(g70
g71
NtRp3723
(dp3724
g74
(dp3725
g82
I1
ssg83
g3719
sg76
(lp3726
(lp3727
(S'plugin_wiki'
p3728
I00
S'http://web2py.com/examples/default/download'
p3729
tp3730
a(g3115
(S's\r\x00\x00\x00Other Plugins'
tRp3731
I00
g3461
tp3732
a(g3115
(S's\x0e\x00\x00\x00Layout Plugins'
tRp3733
I00
g3464
tp3734
aasbasbasbasbasbasbasbasbasbasbasbasbasbasbasbasbasbasbasbag69
(g85
g71
NtRp3735
(dp3736
g74
(dp3737
sg83
g2551
sg76
(lp3738
g69
(g90
g71
NtRp3739
(dp3740
g74
(dp3741
g94
g95
ssg83
g3735
sg76
(lp3742
S'meta'
p3743
asbag69
(g90
g71
NtRp3744
(dp3745
g74
(dp3746
g101
g102
ssg83
g3735
sg76
(lp3747
S':'
asbag69
(g90
g71
NtRp3748
(dp3749
g74
(dp3750
sg83
g3735
sg76
(lp3751
g69
(g70
g71
NtRp3752
(dp3753
g74
(dp3754
g82
I5
ssg83
g3748
sg76
(lp3755
g69
(g78
g71
NtRp3756
(dp3757
g74
(dp3758
g82
I4
ssg83
Nsg76
(lp3759
g69
(g85
g71
NtRp3760
(dp3761
g74
(dp3762
sg83
g3756
sg76
(lp3763
g69
(g90
g71
NtRp3764
(dp3765
g74
(dp3766
g94
g95
ssg83
g3760
sg76
(lp3767
S'author'
p3768
asbag69
(g90
g71
NtRp3769
(dp3770
g74
(dp3771
g101
g102
ssg83
g3760
sg76
(lp3772
S':'
asbag69
(g90
g71
NtRp3773
(dp3774
g74
(dp3775
sg83
g3760
sg76
(lp3776
g69
(g70
g71
NtRp3777
(dp3778
g74
(dp3779
g82
I4
ssg83
g3773
sg76
(lp3780
S'Your Name <you@example.com>'
p3781
asbasbasbag69
(g85
g71
NtRp3782
(dp3783
g74
(dp3784
sg83
g3756
sg76
(lp3785
g69
(g90
g71
NtRp3786
(dp3787
g74
(dp3788
g94
g95
ssg83
g3782
sg76
(lp3789
S'copyright'
p3790
asbag69
(g90
g71
NtRp3791
(dp3792
g74
(dp3793
g101
g102
ssg83
g3782
sg76
(lp3794
S':'
asbag69
(g90
g71
NtRp3795
(dp3796
g74
(dp3797
sg83
g3782
sg76
(lp3798
g69
(g70
g71
NtRp3799
(dp3800
g74
(dp3801
g82
I4
ssg83
g3795
sg76
(lp3802
S'Copyright 2011'
p3803
asbasbasbag69
(g85
g71
NtRp3804
(dp3805
g74
(dp3806
sg83
g3756
sg76
(lp3807
g69
(g90
g71
NtRp3808
(dp3809
g74
(dp3810
g94
g95
ssg83
g3804
sg76
(lp3811
S'description'
p3812
asbag69
(g90
g71
NtRp3813
(dp3814
g74
(dp3815
g101
g102
ssg83
g3804
sg76
(lp3816
S':'
asbag69
(g90
g71
NtRp3817
(dp3818
g74
(dp3819
sg83
g3804
sg76
(lp3820
g69
(g70
g71
NtRp3821
(dp3822
g74
(dp3823
g82
I4
ssg83
g3817
sg76
(lp3824
S'a cool new app'
p3825
asbasbasbag69
(g85
g71
NtRp3826
(dp3827
g74
(dp3828
sg83
g3756
sg76
(lp3829
g69
(g90
g71
NtRp3830
(dp3831
g74
(dp3832
g94
g95
ssg83
g3826
sg76
(lp3833
S'generator'
p3834
asbag69
(g90
g71
NtRp3835
(dp3836
g74
(dp3837
g101
g102
ssg83
g3826
sg76
(lp3838
S':'
asbag69
(g90
g71
NtRp3839
(dp3840
g74
(dp3841
sg83
g3826
sg76
(lp3842
g69
(g70
g71
NtRp3843
(dp3844
g74
(dp3845
g82
I4
ssg83
g3839
sg76
(lp3846
S'Web2py Web Framework'
p3847
asbasbasbag69
(g85
g71
NtRp3848
(dp3849
g74
(dp3850
sg83
g3756
sg76
(lp3851
g69
(g90
g71
NtRp3852
(dp3853
g74
(dp3854
g94
g95
ssg83
g3848
sg76
(lp3855
S'keywords'
p3856
asbag69
(g90
g71
NtRp3857
(dp3858
g74
(dp3859
g101
g102
ssg83
g3848
sg76
(lp3860
S':'
asbag69
(g90
g71
NtRp3861
(dp3862
g74
(dp3863
sg83
g3848
sg76
(lp3864
g69
(g70
g71
NtRp3865
(dp3866
g74
(dp3867
g82
I4
ssg83
g3861
sg76
(lp3868
S'web2py, python, framework'
p3869
asbasbasbasbasbasbasbag69
(g85
g71
NtRp3870
(dp3871
g74
(dp3872
sg83
g2551
sg76
(lp3873
g69
(g90
g71
NtRp3874
(dp3875
g74
(dp3876
g94
g95
ssg83
g3870
sg76
(lp3877
S'postprocessing'
p3878
asbag69
(g90
g71
NtRp3879
(dp3880
g74
(dp3881
g101
g102
ssg83
g3870
sg76
(lp3882
S':'
asbag69
(g90
g71
NtRp3883
(dp3884
g74
(dp3885
sg83
g3870
sg76
(lp3886
g69
(g70
g71
NtRp3887
(dp3888
g74
(dp3889
g82
I5
ssg83
g3883
sg76
(lp3890
g69
(g78
g71
NtRp3891
(dp3892
g74
(dp3893
g82
I4
ssg83
Nsg76
(lp3894
sbasbasbasbag69
(g85
g71
NtRp3895
(dp3896
g74
(dp3897
sg83
g2551
sg76
(lp3898
g69
(g90
g71
NtRp3899
(dp3900
g74
(dp3901
g94
g95
ssg83
g3895
sg76
(lp3902
S'session_filename'
p3903
asbag69
(g90
g71
NtRp3904
(dp3905
g74
(dp3906
g101
g102
ssg83
g3895
sg76
(lp3907
S':'
asbag69
(g90
g71
NtRp3908
(dp3909
g74
(dp3910
sg83
g3895
sg76
(lp3911
g69
(g70
g71
NtRp3912
(dp3913
g74
(dp3914
g82
I5
ssg83
g3908
sg76
(lp3915
S'D:\\workspace\\CA\\IgoR\\C_Sources\\Server\\igor-assistant-ca-2012\\applications\\igor\\sessions\\127.0.0.1-46836acf-5e2b-4a7c-87a2-1e80221708d7'
p3916
asbasbasbag69
(g85
g71
NtRp3917
(dp3918
g74
(dp3919
sg83
g2551
sg76
(lp3920
g69
(g90
g71
NtRp3921
(dp3922
g74
(dp3923
g94
g95
ssg83
g3917
sg76
(lp3924
S'session_id'
p3925
asbag69
(g90
g71
NtRp3926
(dp3927
g74
(dp3928
g101
g102
ssg83
g3917
sg76
(lp3929
S':'
asbag69
(g90
g71
NtRp3930
(dp3931
g74
(dp3932
sg83
g3917
sg76
(lp3933
g69
(g70
g71
NtRp3934
(dp3935
g74
(dp3936
g82
I5
ssg83
g3930
sg76
(lp3937
S'127.0.0.1-46836acf-5e2b-4a7c-87a2-1e80221708d7'
p3938
asbasbasbag69
(g85
g71
NtRp3939
(dp3940
g74
(dp3941
sg83
g2551
sg76
(lp3942
g69
(g90
g71
NtRp3943
(dp3944
g74
(dp3945
g94
g95
ssg83
g3939
sg76
(lp3946
S'session_id_name'
p3947
asbag69
(g90
g71
NtRp3948
(dp3949
g74
(dp3950
g101
g102
ssg83
g3939
sg76
(lp3951
S':'
asbag69
(g90
g71
NtRp3952
(dp3953
g74
(dp3954
sg83
g3939
sg76
(lp3955
g69
(g70
g71
NtRp3956
(dp3957
g74
(dp3958
g82
I5
ssg83
g3952
sg76
(lp3959
g2608
asbasbasbag69
(g85
g71
NtRp3960
(dp3961
g74
(dp3962
sg83
g2551
sg76
(lp3963
g69
(g90
g71
NtRp3964
(dp3965
g74
(dp3966
g94
g95
ssg83
g3960
sg76
(lp3967
S'session_new'
p3968
asbag69
(g90
g71
NtRp3969
(dp3970
g74
(dp3971
g101
g102
ssg83
g3960
sg76
(lp3972
S':'
asbag69
(g90
g71
NtRp3973
(dp3974
g74
(dp3975
sg83
g3960
sg76
(lp3976
g69
(g70
g71
NtRp3977
(dp3978
g74
(dp3979
g82
I5
ssg83
g3973
sg76
(lp3980
g1134
asbasbasbag69
(g85
g71
NtRp3981
(dp3982
g74
(dp3983
sg83
g2551
sg76
(lp3984
g69
(g90
g71
NtRp3985
(dp3986
g74
(dp3987
g94
g95
ssg83
g3981
sg76
(lp3988
S'status'
p3989
asbag69
(g90
g71
NtRp3990
(dp3991
g74
(dp3992
g101
g102
ssg83
g3981
sg76
(lp3993
S':'
asbag69
(g90
g71
NtRp3994
(dp3995
g74
(dp3996
sg83
g3981
sg76
(lp3997
g69
(g70
g71
NtRp3998
(dp3999
g74
(dp4000
g82
I5
ssg83
g3994
sg76
(lp4001
S'200'
p4002
asbasbasbag69
(g85
g71
NtRp4003
(dp4004
g74
(dp4005
sg83
g2551
sg76
(lp4006
g69
(g90
g71
NtRp4007
(dp4008
g74
(dp4009
g94
g95
ssg83
g4003
sg76
(lp4010
S'subtitle'
p4011
asbag69
(g90
g71
NtRp4012
(dp4013
g74
(dp4014
g101
g102
ssg83
g4003
sg76
(lp4015
S':'
asbag69
(g90
g71
NtRp4016
(dp4017
g74
(dp4018
sg83
g4003
sg76
(lp4019
g69
(g70
g71
NtRp4020
(dp4021
g74
(dp4022
g82
I5
ssg83
g4016
sg76
(lp4023
g3115
(S's\r\x00\x00\x00customize me!'
tRp4024
asbasbasbag69
(g85
g71
NtRp4025
(dp4026
g74
(dp4027
sg83
g2551
sg76
(lp4028
g69
(g90
g71
NtRp4029
(dp4030
g74
(dp4031
g94
g95
ssg83
g4025
sg76
(lp4032
S'title'
p4033
asbag69
(g90
g71
NtRp4034
(dp4035
g74
(dp4036
g101
g102
ssg83
g4025
sg76
(lp4037
S':'
asbag69
(g90
g71
NtRp4038
(dp4039
g74
(dp4040
sg83
g4025
sg76
(lp4041
g69
(g70
g71
NtRp4042
(dp4043
g74
(dp4044
g82
I5
ssg83
g4038
sg76
(lp4045
S'Igor'
p4046
asbasbasbag69
(g85
g71
NtRp4047
(dp4048
g74
(dp4049
sg83
g2551
sg76
(lp4050
g69
(g90
g71
NtRp4051
(dp4052
g74
(dp4053
g94
g95
ssg83
g4047
sg76
(lp4054
g1832
asbag69
(g90
g71
NtRp4055
(dp4056
g74
(dp4057
g101
g102
ssg83
g4047
sg76
(lp4058
S':'
asbag69
(g90
g71
NtRp4059
(dp4060
g74
(dp4061
sg83
g4047
sg76
(lp4062
g69
(g70
g71
NtRp4063
(dp4064
g74
(dp4065
g82
I5
ssg83
g4059
sg76
(lp4066
g1845
asbasbasbag69
(g85
g71
NtRp4067
(dp4068
g74
(dp4069
sg83
g2551
sg76
(lp4070
g69
(g90
g71
NtRp4071
(dp4072
g74
(dp4073
g94
g95
ssg83
g4067
sg76
(lp4074
S'view'
p4075
asbag69
(g90
g71
NtRp4076
(dp4077
g74
(dp4078
g101
g102
ssg83
g4067
sg76
(lp4079
S':'
asbag69
(g90
g71
NtRp4080
(dp4081
g74
(dp4082
sg83
g4067
sg76
(lp4083
g69
(g70
g71
NtRp4084
(dp4085
g74
(dp4086
g82
I5
ssg83
g4080
sg76
(lp4087
S'notification/call.html'
p4088
asbasbasbasbasbsS'locals'
p4089
(dp4090
S'fromlist'
p4091
S"('*',)"
p4092
sS'name'
p4093
S"'applications.igor.modules.igor_time'"
p4094
sg82
S'-1'
p4095
sS'self'
p4096
S'<gluon.custom_import._Web2pyImporter object>'
p4097
sS'globals'
p4098
S"{'A': <class 'gluon.html.A'>, 'Auth': <class 'gluon.tools.Auth'>, 'B': <class 'gluon.html.B'>, 'BEAUTIFY': <class 'gluon.html.BEAUTIFY'>, 'BODY': <class 'gluon.html.BODY'>, 'BR': <class 'gluon.html.BR'>, 'BUTTON': <class 'gluon.html.BUTTON'>, 'CAT': <class 'gluon.html.CAT'>, 'CENTER': <class 'gluon.html.CENTER'>, 'CLEANUP': <class 'gluon.validators.CLEANUP'>, ...}"
p4099
sg4089
S"{'A': <class 'gluon.html.A'>, 'Auth': <class 'gluon.tools.Auth'>, 'B': <class 'gluon.html.B'>, 'BEAUTIFY': <class 'gluon.html.BEAUTIFY'>, 'BODY': <class 'gluon.html.BODY'>, 'BR': <class 'gluon.html.BR'>, 'BUTTON': <class 'gluon.html.BUTTON'>, 'CAT': <class 'gluon.html.CAT'>, 'CENTER': <class 'gluon.html.CENTER'>, 'CLEANUP': <class 'gluon.validators.CLEANUP'>, ...}"
p4100
sssS'traceback'
p4101
S'Traceback (most recent call last):\n  File "D:\\workspace\\CA\\IgoR\\C_Sources\\Server\\igor-assistant-ca-2012\\gluon\\restricted.py", line 205, in restricted\n    exec ccode in environment\n  File "D:\\workspace\\CA\\IgoR\\C_Sources\\Server\\igor-assistant-ca-2012\\applications\\igor\\controllers/notification.py", line 12, in <module>\n    from igor_time import  *\n  File "D:\\workspace\\CA\\IgoR\\C_Sources\\Server\\igor-assistant-ca-2012\\gluon\\custom_import.py", line 289, in __call__\n    globals, locals, fromlist, level)\n  File "D:\\workspace\\CA\\IgoR\\C_Sources\\Server\\igor-assistant-ca-2012\\gluon\\custom_import.py", line 78, in __call__\n    level)\n  File "applications\\igor\\modules\\igor_time.py", line 45\n    date_time = datetime.datetime.fromtimestamp ((int) timestamp)\n                                                               ^\nSyntaxError: invalid syntax\n'
p4102
s.