(dp1
S'output'
p2
S"<type 'exceptions.AttributeError'> 'NoneType' object has no attribute '__name__'"
p3
sS'layer'
p4
S'D:\\workspace\\CA\\IgoR\\C_Sources\\Server\\igor-assistant-ca-2012\\applications\\igor\\controllers/class_subject.py'
p5
sS'code'
p6
S'# -*- coding: utf-8 -*-\n# this file is released under public domain and you can use without limitations\n\n#########################################################################\n## This is class_subject controller\n## Author: phucnh, tuna\n#########################################################################\n\nfrom message_packager import *\nfrom gluon.dal import Rows\nfrom gluon.tools import Service\nservice = Service()\n\n# Get all classes by specific subject\n@request.restful()\ndef get_classes_by_subject():\n\tresponse.view = \'generic.json\'\n\tdef GET(subject_id, term = 0):\n\n\t\t# Validate input \n\t\tif (not subject_id.isdigit()):\n\t\t\treturn MessagePackager.get_packaged_message (\n\t\t\t\tMessageStatus.ERROR, \n\t\t\t\t"subject id must be numberic")\n\n\t\tif (not (str (term)).isdigit()):\n\t\t\treturn MessagePackager.get_packaged_message(\n\t\t\t\tMessageStatus.ERROR,\n\t\t\t\t"term must be numberic")\n\n\t\tif (int (subject_id) < 0):\n\t\t\treturn MessagePackager.get_packaged_message (\n\t\t\t\tMessageStatus.ERROR, \n\t\t\t\t"subject id can not less than 1")\n\n\t\t# Get data\n\t\tif (term == 0):\n\t\t\tterm = get_current_term()\n\n\t\tclasses = db(\n\t\t\tdb.class_subject.subject == subject_id and \n\t\t\tdb.class_subject.term == term).select()\n\n\t\treturn MessagePackager.get_packaged_message(MessageStatus.OK, classes)\n\n\treturn locals()\n\n\n# Get class detail\n# @request.restful()\n# def get_class_detail():\n# \tresponse.view = \'generic.json\'\n# \tdef GET(id):\n\n# \t\t# Validate input \n# \t\tif (not id.isdigit()):\n# \t\t\treturn MessagePackager.get_packaged_message (\n# \t\t\t\tMessageStatus.ERROR, \n# \t\t\t\t"class id must be numberic")\n\n# \t\tif (int (id) < 0):\n# \t\t\treturn MessagePackager.get_packaged_message (\n# \t\t\t\tMessageStatus.ERROR, \n# \t\t\t\t"class id can not less than 1")\n\n# \t\t# Get data\n\n# \t\tclass_subject = db(db.class_subject.id == id).select()\n\n# \t\tclass_subject = format_client_data(class_subject)\n\n# \t\treturn MessagePackager.get_packaged_message(MessageStatus.OK, class_subject)\n\n# \treturn locals()\n\ndef call():\n\tsession.forget()\n\n\treturn service()\n\nimport gluon.contenttype\n\n@service.json\n@service.jsonp\ndef get_class_detail(id):\n\t# response.view = \'generic.jsonp\'\n\t# response.headers[\'Content-Type\'] = gluon.contenttype.contenttype(\'.js\')\n\n\t# Validate input \n\tif (not id.isdigit()):\n\t\treturn MessagePackager.get_packaged_message (\n\t\t\tMessageStatus.ERROR, \n\t\t\t"class id must be numberic")\n\n\tif (int (id) < 0):\n\t\treturn MessagePackager.get_packaged_message (\n\t\t\tMessageStatus.ERROR, \n\t\t\t"class id can not less than 1")\n\n\t# Get data\n\n\tclass_subject = db(db.class_subject.id == id).select()\n\n\tclass_subject = format_client_data(class_subject)\n\n\treturn MessagePackager.get_packaged_message(MessageStatus.OK, class_subject)\n\n# Get all classes of user\n# Input:\n# \tinteger user_id\n# \tinteger term\n@request.restful()\ndef get_classes_by_user():\n\tresponse.view = \'generic.json\'\n\tdef GET(user_id, term = 0):\n\n\t\t# Get data\n\t\tif (term == 0):\n\t\t\tterm = get_current_term()\n\n\t\tuser_schedulers = db(db.scheduler.owner == user_id).select()\n\t\t\n\t\tclasses = list()\n\n\t\tfor user_scheduler in user_schedulers:\n\n\t\t\tclass_subject = db(\n\t\t\t\t(db.class_subject.id == user_scheduler.class_subject) &\n\t\t\t\t(db.class_subject.term == term)).select().first()\n\n\n\t\t\tif (class_subject != None):\n\t\t\t\tclasses.append(class_subject)\n\n\t\tclasses = format_client_data(classes)\n\n\t\treturn MessagePackager.get_packaged_message(MessageStatus.OK, classes)\n\n\treturn locals()\n\n@request.restful()\ndef add_class_to_user():\n\tresponse.view = \'generic.json\'\n\tdef GET(class_id, user_id):\n\n\t\t# Validate input\n\t\tif (not class_id.isdigit()):\n\t\t\treturn MessagePackager.get_packaged_message (\n\t\t\t\tMessageStatus.ERROR, \n\t\t\t\t"class id must be numberic")\n\n\t\tif (not user_id.isdigit()):\n\t\t\treturn MessagePackager.get_packaged_message (\n\t\t\t\tMessageStatus.ERROR, \n\t\t\t\t"user id must be numberic")\n\n\t\t# Insert new data\n\t\t# TODO: add class\'s rule\n\n\t\ttry:\n\t\t\tscheduler_id = db.scheduler.insert(\n\t\t\t\towner         = user_id,\n\t\t\t\tclass_subject = class_id,\n\t\t\t\tterm          = get_current_term())\n\t\texcept Exception, err:\n\t\t\treturn MessagePackager.get_packaged_message(MessageStatus.ERROR, str (err) )\n\n\t\treturn MessagePackager.get_packaged_message(MessageStatus.OK, scheduler_id)\n\n\treturn locals()\n\n@request.restful()\ndef delete_class():\n\tresponse.view = \'generic.json\'\n\tdef GET(user_id, class_id):\n\n\t\ttry:\n\t\t\tscheduler = delete_scheduler(user_id, class_id);\n\t\texcept Exception, err:\n\t\t\treturn MessagePackager.get_packaged_message(MessageStatus.ERROR, str (err) )\n\n\t\treturn MessagePackager.get_packaged_message(MessageStatus.OK, scheduler)\n\n\treturn locals()\n\n# Format class data to client data\ndef format_client_data(classes):\n\tif (classes == None):\n\t\treturn\n\n\tclient_data = list()\n\n\tfor class_subject in classes:\n\n\t\tsubject = db(db.subject.id == class_subject.subject).select().first()\n\t\tclass_schedulers = db(db.class_scheduler.class_subject == class_subject.id).select()\n\t\t\n\t\tif (subject == None):\n\t\t\tcontinue\n\t\t# print class_schedulers\n\t\tfor class_scheduler in class_schedulers:\n\t\t\t\n\t\t\t# Get session list (integer)\n\t\t\tsessions = get_class_sessions(class_scheduler.period)\n\n\t\t\t# Morning session\n\t\t\tmorning = [session for session in sessions if session <=6]\n\t\t\tafternoon = [session for session in sessions if session >= 7]\n\n\n\t\t\tif (morning):\n\t\t\t\tclient = class_data_format(\n\t\t\t\t\tclass_subject, class_scheduler,\n\t\t\t\t\tsubject, morning, "Morning")\n\t\t\t\t\n\t\t\t\tclient_data.append(client)\n\n\t\t\tif (afternoon):\n\t\t\t\tclient = class_data_format(\n\t\t\t\t\tclass_subject, class_scheduler,\n\t\t\t\t\tsubject, afternoon, "Afternoon")\n\n\t\t\t\tclient_data.append (client)\n\n\treturn client_data\n\ndef class_data_format(class_subject, class_scheduler ,subject, session, period):\n\tclient = dict(\n\t\tclass_id     = class_subject.id,\n\t\tclass_code   = class_subject.class_code,\n\t\tsubject_name = subject.name,\n\t\tsubject_code = subject.subject_code,\n\t\tnum_of_day   = class_scheduler.day_of_week,\n        #"total_session": "Session 1-2-3",\n        teacher_name = class_subject.teacher,\n        location     = class_subject.location,\n        period = period,\n\t\tsession_start = str(session[0]),\n\t\t)\n\n\treturn client\nresponse._vars=response._caller(call)\n'
p7
sS'snapshot'
p8
(dp9
S'exception'
p10
(dp11
S'__hash__'
p12
S"<method-wrapper '__hash__' of exceptions.AttributeError object>"
p13
sS'__setattr__'
p14
S"<method-wrapper '__setattr__' of exceptions.AttributeError object>"
p15
sS'__reduce_ex__'
p16
S'<built-in method __reduce_ex__ of exceptions.AttributeError object>'
p17
sS'__getslice__'
p18
S"<method-wrapper '__getslice__' of exceptions.AttributeError object>"
p19
sS'__getitem__'
p20
S"<method-wrapper '__getitem__' of exceptions.AttributeError object>"
p21
sS'__setstate__'
p22
S'<built-in method __setstate__ of exceptions.AttributeError object>'
p23
sS'__reduce__'
p24
S'<built-in method __reduce__ of exceptions.AttributeError object>'
p25
sS'__str__'
p26
S"<method-wrapper '__str__' of exceptions.AttributeError object>"
p27
sS'__format__'
p28
S'<built-in method __format__ of exceptions.AttributeError object>'
p29
sS'__getattribute__'
p30
S"<method-wrapper '__getattribute__' of exceptions.AttributeError object>"
p31
sS'__class__'
p32
S"<type 'exceptions.AttributeError'>"
p33
sS'__unicode__'
p34
S'<built-in method __unicode__ of exceptions.AttributeError object>'
p35
sS'__delattr__'
p36
S"<method-wrapper '__delattr__' of exceptions.AttributeError object>"
p37
sS'__subclasshook__'
p38
S'<built-in method __subclasshook__ of type object>'
p39
sS'__repr__'
p40
S"<method-wrapper '__repr__' of exceptions.AttributeError object>"
p41
sS'__dict__'
p42
S'{}'
p43
sS'args'
p44
S'("\'NoneType\' object has no attribute \'__name__\'",)'
p45
sS'__sizeof__'
p46
S'<built-in method __sizeof__ of exceptions.AttributeError object>'
p47
sS'__doc__'
p48
S"'Attribute not found.'"
p49
sS'__init__'
p50
S"<method-wrapper '__init__' of exceptions.AttributeError object>"
p51
sS'__new__'
p52
S'<built-in method __new__ of type object>'
p53
ssS'evalue'
p54
S"'NoneType' object has no attribute '__name__'"
p55
sS'request'
p56
ccopy_reg
_reconstructor
p57
(cgluon.html
BEAUTIFY
p58
c__builtin__
object
p59
NtRp60
(dp61
S'attributes'
p62
(dp63
sS'components'
p64
(lp65
g57
(cgluon.html
TABLE
p66
g59
NtRp67
(dp68
g62
(dp69
S'level'
p70
I5
ssS'parent'
p71
Nsg64
(lp72
g57
(cgluon.html
TR
p73
g59
NtRp74
(dp75
g62
(dp76
sg71
g67
sg64
(lp77
g57
(cgluon.html
TD
p78
g59
NtRp79
(dp80
g62
(dp81
S'_style'
p82
S'font-weight:bold;vertical-align:top'
p83
ssg71
g74
sg64
(lp84
S'ajax'
p85
asbag57
(g78
g59
NtRp86
(dp87
g62
(dp88
S'_valign'
p89
S'top'
p90
ssg71
g74
sg64
(lp91
S':'
asbag57
(g78
g59
NtRp92
(dp93
g62
(dp94
sg71
g74
sg64
(lp95
g57
(g58
g59
NtRp96
(dp97
g62
(dp98
g70
I5
ssg71
g92
sg64
(lp99
S'False'
p100
asbasbasbag57
(g73
g59
NtRp101
(dp102
g62
(dp103
sg71
g67
sg64
(lp104
g57
(g78
g59
NtRp105
(dp106
g62
(dp107
g82
g83
ssg71
g101
sg64
(lp108
S'application'
p109
asbag57
(g78
g59
NtRp110
(dp111
g62
(dp112
g89
g90
ssg71
g101
sg64
(lp113
S':'
asbag57
(g78
g59
NtRp114
(dp115
g62
(dp116
sg71
g101
sg64
(lp117
g57
(g58
g59
NtRp118
(dp119
g62
(dp120
g70
I5
ssg71
g114
sg64
(lp121
S'igor'
p122
asbasbasbag57
(g73
g59
NtRp123
(dp124
g62
(dp125
sg71
g67
sg64
(lp126
g57
(g78
g59
NtRp127
(dp128
g62
(dp129
g82
g83
ssg71
g123
sg64
(lp130
g44
asbag57
(g78
g59
NtRp131
(dp132
g62
(dp133
g89
g90
ssg71
g123
sg64
(lp134
S':'
asbag57
(g78
g59
NtRp135
(dp136
g62
(dp137
sg71
g123
sg64
(lp138
g57
(g58
g59
NtRp139
(dp140
g62
(dp141
g70
I5
ssg71
g135
sg64
(lp142
g57
(g66
g59
NtRp143
(dp144
g62
(dp145
g70
I4
ssg71
Nsg64
(lp146
g57
(g73
g59
NtRp147
(dp148
g62
(dp149
sg71
g143
sg64
(lp150
g57
(g78
g59
NtRp151
(dp152
g62
(dp153
sg71
g147
sg64
(lp154
g57
(g58
g59
NtRp155
(dp156
g62
(dp157
g70
I4
ssg71
g151
sg64
(lp158
S'json'
p159
asbasbasbag57
(g73
g59
NtRp160
(dp161
g62
(dp162
sg71
g143
sg64
(lp163
g57
(g78
g59
NtRp164
(dp165
g62
(dp166
sg71
g160
sg64
(lp167
g57
(g58
g59
NtRp168
(dp169
g62
(dp170
g70
I4
ssg71
g164
sg64
(lp171
S'get_class_detail'
p172
asbasbasbasbasbasbasbag57
(g73
g59
NtRp173
(dp174
g62
(dp175
sg71
g67
sg64
(lp176
g57
(g78
g59
NtRp177
(dp178
g62
(dp179
g82
g83
ssg71
g173
sg64
(lp180
S'body'
p181
asbag57
(g78
g59
NtRp182
(dp183
g62
(dp184
g89
g90
ssg71
g173
sg64
(lp185
S':'
asbag57
(g78
g59
NtRp186
(dp187
g62
(dp188
sg71
g173
sg64
(lp189
g57
(g58
g59
NtRp190
(dp191
g62
(dp192
g70
I5
ssg71
g186
sg64
(lp193
S'<cStringIO.StringO object at 0x0000000004FB4C00>'
p194
asbasbasbag57
(g73
g59
NtRp195
(dp196
g62
(dp197
sg71
g67
sg64
(lp198
g57
(g78
g59
NtRp199
(dp200
g62
(dp201
g82
g83
ssg71
g195
sg64
(lp202
S'client'
p203
asbag57
(g78
g59
NtRp204
(dp205
g62
(dp206
g89
g90
ssg71
g195
sg64
(lp207
S':'
asbag57
(g78
g59
NtRp208
(dp209
g62
(dp210
sg71
g195
sg64
(lp211
g57
(g58
g59
NtRp212
(dp213
g62
(dp214
g70
I5
ssg71
g208
sg64
(lp215
S'127.0.0.1'
p216
asbasbasbag57
(g73
g59
NtRp217
(dp218
g62
(dp219
sg71
g67
sg64
(lp220
g57
(g78
g59
NtRp221
(dp222
g62
(dp223
g82
g83
ssg71
g217
sg64
(lp224
S'controller'
p225
asbag57
(g78
g59
NtRp226
(dp227
g62
(dp228
g89
g90
ssg71
g217
sg64
(lp229
S':'
asbag57
(g78
g59
NtRp230
(dp231
g62
(dp232
sg71
g217
sg64
(lp233
g57
(g58
g59
NtRp234
(dp235
g62
(dp236
g70
I5
ssg71
g230
sg64
(lp237
S'class_subject'
p238
asbasbasbag57
(g73
g59
NtRp239
(dp240
g62
(dp241
sg71
g67
sg64
(lp242
g57
(g78
g59
NtRp243
(dp244
g62
(dp245
g82
g83
ssg71
g239
sg64
(lp246
S'cookies'
p247
asbag57
(g78
g59
NtRp248
(dp249
g62
(dp250
g89
g90
ssg71
g239
sg64
(lp251
S':'
asbag57
(g78
g59
NtRp252
(dp253
g62
(dp254
sg71
g239
sg64
(lp255
g57
(g58
g59
NtRp256
(dp257
g62
(dp258
g70
I5
ssg71
g252
sg64
(lp259
g57
(g66
g59
NtRp260
(dp261
g62
(dp262
g70
I4
ssg71
Nsg64
(lp263
g57
(g73
g59
NtRp264
(dp265
g62
(dp266
sg71
g260
sg64
(lp267
g57
(g78
g59
NtRp268
(dp269
g62
(dp270
g82
g83
ssg71
g264
sg64
(lp271
S'session_id_igor'
p272
asbag57
(g78
g59
NtRp273
(dp274
g62
(dp275
g89
g90
ssg71
g264
sg64
(lp276
S':'
asbag57
(g78
g59
NtRp277
(dp278
g62
(dp279
sg71
g264
sg64
(lp280
g57
(g58
g59
NtRp281
(dp282
g62
(dp283
g70
I4
ssg71
g277
sg64
(lp284
g57
(g66
g59
NtRp285
(dp286
g62
(dp287
g70
I3
ssg71
Nsg64
(lp288
g57
(g73
g59
NtRp289
(dp290
g62
(dp291
sg71
g285
sg64
(lp292
g57
(g78
g59
NtRp293
(dp294
g62
(dp295
g82
g83
ssg71
g289
sg64
(lp296
S'comment'
p297
asbag57
(g78
g59
NtRp298
(dp299
g62
(dp300
g89
g90
ssg71
g289
sg64
(lp301
S':'
asbag57
(g78
g59
NtRp302
(dp303
g62
(dp304
sg71
g289
sg64
(lp305
g57
(g58
g59
NtRp306
(dp307
g62
(dp308
g70
I3
ssg71
g302
sg64
(lp309
S''
asbasbasbag57
(g73
g59
NtRp310
(dp311
g62
(dp312
sg71
g285
sg64
(lp313
g57
(g78
g59
NtRp314
(dp315
g62
(dp316
g82
g83
ssg71
g310
sg64
(lp317
S'domain'
p318
asbag57
(g78
g59
NtRp319
(dp320
g62
(dp321
g89
g90
ssg71
g310
sg64
(lp322
S':'
asbag57
(g78
g59
NtRp323
(dp324
g62
(dp325
sg71
g310
sg64
(lp326
g57
(g58
g59
NtRp327
(dp328
g62
(dp329
g70
I3
ssg71
g323
sg64
(lp330
S''
asbasbasbag57
(g73
g59
NtRp331
(dp332
g62
(dp333
sg71
g285
sg64
(lp334
g57
(g78
g59
NtRp335
(dp336
g62
(dp337
g82
g83
ssg71
g331
sg64
(lp338
S'expires'
p339
asbag57
(g78
g59
NtRp340
(dp341
g62
(dp342
g89
g90
ssg71
g331
sg64
(lp343
S':'
asbag57
(g78
g59
NtRp344
(dp345
g62
(dp346
sg71
g331
sg64
(lp347
g57
(g58
g59
NtRp348
(dp349
g62
(dp350
g70
I3
ssg71
g344
sg64
(lp351
S''
asbasbasbag57
(g73
g59
NtRp352
(dp353
g62
(dp354
sg71
g285
sg64
(lp355
g57
(g78
g59
NtRp356
(dp357
g62
(dp358
g82
g83
ssg71
g352
sg64
(lp359
S'httponly'
p360
asbag57
(g78
g59
NtRp361
(dp362
g62
(dp363
g89
g90
ssg71
g352
sg64
(lp364
S':'
asbag57
(g78
g59
NtRp365
(dp366
g62
(dp367
sg71
g352
sg64
(lp368
g57
(g58
g59
NtRp369
(dp370
g62
(dp371
g70
I3
ssg71
g365
sg64
(lp372
S''
asbasbasbag57
(g73
g59
NtRp373
(dp374
g62
(dp375
sg71
g285
sg64
(lp376
g57
(g78
g59
NtRp377
(dp378
g62
(dp379
g82
g83
ssg71
g373
sg64
(lp380
S'max-age'
p381
asbag57
(g78
g59
NtRp382
(dp383
g62
(dp384
g89
g90
ssg71
g373
sg64
(lp385
S':'
asbag57
(g78
g59
NtRp386
(dp387
g62
(dp388
sg71
g373
sg64
(lp389
g57
(g58
g59
NtRp390
(dp391
g62
(dp392
g70
I3
ssg71
g386
sg64
(lp393
S''
asbasbasbag57
(g73
g59
NtRp394
(dp395
g62
(dp396
sg71
g285
sg64
(lp397
g57
(g78
g59
NtRp398
(dp399
g62
(dp400
g82
g83
ssg71
g394
sg64
(lp401
S'path'
p402
asbag57
(g78
g59
NtRp403
(dp404
g62
(dp405
g89
g90
ssg71
g394
sg64
(lp406
S':'
asbag57
(g78
g59
NtRp407
(dp408
g62
(dp409
sg71
g394
sg64
(lp410
g57
(g58
g59
NtRp411
(dp412
g62
(dp413
g70
I3
ssg71
g407
sg64
(lp414
S''
asbasbasbag57
(g73
g59
NtRp415
(dp416
g62
(dp417
sg71
g285
sg64
(lp418
g57
(g78
g59
NtRp419
(dp420
g62
(dp421
g82
g83
ssg71
g415
sg64
(lp422
S'secure'
p423
asbag57
(g78
g59
NtRp424
(dp425
g62
(dp426
g89
g90
ssg71
g415
sg64
(lp427
S':'
asbag57
(g78
g59
NtRp428
(dp429
g62
(dp430
sg71
g415
sg64
(lp431
g57
(g58
g59
NtRp432
(dp433
g62
(dp434
g70
I3
ssg71
g428
sg64
(lp435
S''
asbasbasbag57
(g73
g59
NtRp436
(dp437
g62
(dp438
sg71
g285
sg64
(lp439
g57
(g78
g59
NtRp440
(dp441
g62
(dp442
g82
g83
ssg71
g436
sg64
(lp443
S'version'
p444
asbag57
(g78
g59
NtRp445
(dp446
g62
(dp447
g89
g90
ssg71
g436
sg64
(lp448
S':'
asbag57
(g78
g59
NtRp449
(dp450
g62
(dp451
sg71
g436
sg64
(lp452
g57
(g58
g59
NtRp453
(dp454
g62
(dp455
g70
I3
ssg71
g449
sg64
(lp456
S''
asbasbasbasbasbasbasbag57
(g73
g59
NtRp457
(dp458
g62
(dp459
sg71
g260
sg64
(lp460
g57
(g78
g59
NtRp461
(dp462
g62
(dp463
g82
g83
ssg71
g457
sg64
(lp464
S'session_id_welcome'
p465
asbag57
(g78
g59
NtRp466
(dp467
g62
(dp468
g89
g90
ssg71
g457
sg64
(lp469
S':'
asbag57
(g78
g59
NtRp470
(dp471
g62
(dp472
sg71
g457
sg64
(lp473
g57
(g58
g59
NtRp474
(dp475
g62
(dp476
g70
I4
ssg71
g470
sg64
(lp477
g57
(g66
g59
NtRp478
(dp479
g62
(dp480
g70
I3
ssg71
Nsg64
(lp481
g57
(g73
g59
NtRp482
(dp483
g62
(dp484
sg71
g478
sg64
(lp485
g57
(g78
g59
NtRp486
(dp487
g62
(dp488
g82
g83
ssg71
g482
sg64
(lp489
g297
asbag57
(g78
g59
NtRp490
(dp491
g62
(dp492
g89
g90
ssg71
g482
sg64
(lp493
S':'
asbag57
(g78
g59
NtRp494
(dp495
g62
(dp496
sg71
g482
sg64
(lp497
g57
(g58
g59
NtRp498
(dp499
g62
(dp500
g70
I3
ssg71
g494
sg64
(lp501
S''
asbasbasbag57
(g73
g59
NtRp502
(dp503
g62
(dp504
sg71
g478
sg64
(lp505
g57
(g78
g59
NtRp506
(dp507
g62
(dp508
g82
g83
ssg71
g502
sg64
(lp509
g318
asbag57
(g78
g59
NtRp510
(dp511
g62
(dp512
g89
g90
ssg71
g502
sg64
(lp513
S':'
asbag57
(g78
g59
NtRp514
(dp515
g62
(dp516
sg71
g502
sg64
(lp517
g57
(g58
g59
NtRp518
(dp519
g62
(dp520
g70
I3
ssg71
g514
sg64
(lp521
S''
asbasbasbag57
(g73
g59
NtRp522
(dp523
g62
(dp524
sg71
g478
sg64
(lp525
g57
(g78
g59
NtRp526
(dp527
g62
(dp528
g82
g83
ssg71
g522
sg64
(lp529
g339
asbag57
(g78
g59
NtRp530
(dp531
g62
(dp532
g89
g90
ssg71
g522
sg64
(lp533
S':'
asbag57
(g78
g59
NtRp534
(dp535
g62
(dp536
sg71
g522
sg64
(lp537
g57
(g58
g59
NtRp538
(dp539
g62
(dp540
g70
I3
ssg71
g534
sg64
(lp541
S''
asbasbasbag57
(g73
g59
NtRp542
(dp543
g62
(dp544
sg71
g478
sg64
(lp545
g57
(g78
g59
NtRp546
(dp547
g62
(dp548
g82
g83
ssg71
g542
sg64
(lp549
g360
asbag57
(g78
g59
NtRp550
(dp551
g62
(dp552
g89
g90
ssg71
g542
sg64
(lp553
S':'
asbag57
(g78
g59
NtRp554
(dp555
g62
(dp556
sg71
g542
sg64
(lp557
g57
(g58
g59
NtRp558
(dp559
g62
(dp560
g70
I3
ssg71
g554
sg64
(lp561
S''
asbasbasbag57
(g73
g59
NtRp562
(dp563
g62
(dp564
sg71
g478
sg64
(lp565
g57
(g78
g59
NtRp566
(dp567
g62
(dp568
g82
g83
ssg71
g562
sg64
(lp569
g381
asbag57
(g78
g59
NtRp570
(dp571
g62
(dp572
g89
g90
ssg71
g562
sg64
(lp573
S':'
asbag57
(g78
g59
NtRp574
(dp575
g62
(dp576
sg71
g562
sg64
(lp577
g57
(g58
g59
NtRp578
(dp579
g62
(dp580
g70
I3
ssg71
g574
sg64
(lp581
S''
asbasbasbag57
(g73
g59
NtRp582
(dp583
g62
(dp584
sg71
g478
sg64
(lp585
g57
(g78
g59
NtRp586
(dp587
g62
(dp588
g82
g83
ssg71
g582
sg64
(lp589
g402
asbag57
(g78
g59
NtRp590
(dp591
g62
(dp592
g89
g90
ssg71
g582
sg64
(lp593
S':'
asbag57
(g78
g59
NtRp594
(dp595
g62
(dp596
sg71
g582
sg64
(lp597
g57
(g58
g59
NtRp598
(dp599
g62
(dp600
g70
I3
ssg71
g594
sg64
(lp601
S''
asbasbasbag57
(g73
g59
NtRp602
(dp603
g62
(dp604
sg71
g478
sg64
(lp605
g57
(g78
g59
NtRp606
(dp607
g62
(dp608
g82
g83
ssg71
g602
sg64
(lp609
g423
asbag57
(g78
g59
NtRp610
(dp611
g62
(dp612
g89
g90
ssg71
g602
sg64
(lp613
S':'
asbag57
(g78
g59
NtRp614
(dp615
g62
(dp616
sg71
g602
sg64
(lp617
g57
(g58
g59
NtRp618
(dp619
g62
(dp620
g70
I3
ssg71
g614
sg64
(lp621
S''
asbasbasbag57
(g73
g59
NtRp622
(dp623
g62
(dp624
sg71
g478
sg64
(lp625
g57
(g78
g59
NtRp626
(dp627
g62
(dp628
g82
g83
ssg71
g622
sg64
(lp629
g444
asbag57
(g78
g59
NtRp630
(dp631
g62
(dp632
g89
g90
ssg71
g622
sg64
(lp633
S':'
asbag57
(g78
g59
NtRp634
(dp635
g62
(dp636
sg71
g622
sg64
(lp637
g57
(g58
g59
NtRp638
(dp639
g62
(dp640
g70
I3
ssg71
g634
sg64
(lp641
S''
asbasbasbasbasbasbasbasbasbasbasbag57
(g73
g59
NtRp642
(dp643
g62
(dp644
sg71
g67
sg64
(lp645
g57
(g78
g59
NtRp646
(dp647
g62
(dp648
g82
g83
ssg71
g642
sg64
(lp649
S'env'
p650
asbag57
(g78
g59
NtRp651
(dp652
g62
(dp653
g89
g90
ssg71
g642
sg64
(lp654
S':'
asbag57
(g78
g59
NtRp655
(dp656
g62
(dp657
sg71
g642
sg64
(lp658
g57
(g58
g59
NtRp659
(dp660
g62
(dp661
g70
I5
ssg71
g655
sg64
(lp662
g57
(g66
g59
NtRp663
(dp664
g62
(dp665
g70
I4
ssg71
Nsg64
(lp666
g57
(g73
g59
NtRp667
(dp668
g62
(dp669
sg71
g663
sg64
(lp670
g57
(g78
g59
NtRp671
(dp672
g62
(dp673
g82
g83
ssg71
g667
sg64
(lp674
S'app_folders'
p675
asbag57
(g78
g59
NtRp676
(dp677
g62
(dp678
g89
g90
ssg71
g667
sg64
(lp679
S':'
asbag57
(g78
g59
NtRp680
(dp681
g62
(dp682
sg71
g667
sg64
(lp683
g57
(g58
g59
NtRp684
(dp685
g62
(dp686
g70
I4
ssg71
g680
sg64
(lp687
S"set(['D:\\\\workspace\\\\CA\\\\IgoR\\\\C_Sources\\\\Server\\\\igor-assistant-ca-2012\\\\applications\\\\igor\\\\', 'D:\\\\workspace\\\\CA\\\\IgoR\\\\C_Sources\\\\Server\\\\igor-assistant-ca-2012\\\\applications\\\\welcome\\\\'])"
p688
asbasbasbag57
(g73
g59
NtRp689
(dp690
g62
(dp691
sg71
g663
sg64
(lp692
g57
(g78
g59
NtRp693
(dp694
g62
(dp695
g82
g83
ssg71
g689
sg64
(lp696
S'applications_parent'
p697
asbag57
(g78
g59
NtRp698
(dp699
g62
(dp700
g89
g90
ssg71
g689
sg64
(lp701
S':'
asbag57
(g78
g59
NtRp702
(dp703
g62
(dp704
sg71
g689
sg64
(lp705
g57
(g58
g59
NtRp706
(dp707
g62
(dp708
g70
I4
ssg71
g702
sg64
(lp709
S'D:\\workspace\\CA\\IgoR\\C_Sources\\Server\\igor-assistant-ca-2012'
p710
asbasbasbag57
(g73
g59
NtRp711
(dp712
g62
(dp713
sg71
g663
sg64
(lp714
g57
(g78
g59
NtRp715
(dp716
g62
(dp717
g82
g83
ssg71
g711
sg64
(lp718
S'cmd_args'
p719
asbag57
(g78
g59
NtRp720
(dp721
g62
(dp722
g89
g90
ssg71
g711
sg64
(lp723
S':'
asbag57
(g78
g59
NtRp724
(dp725
g62
(dp726
sg71
g711
sg64
(lp727
g57
(g58
g59
NtRp728
(dp729
g62
(dp730
g70
I4
ssg71
g724
sg64
(lp731
g57
(g66
g59
NtRp732
(dp733
g62
(dp734
g70
I3
ssg71
Nsg64
(lp735
g57
(g73
g59
NtRp736
(dp737
g62
(dp738
sg71
g732
sg64
(lp739
g57
(g78
g59
NtRp740
(dp741
g62
(dp742
sg71
g736
sg64
(lp743
g57
(g58
g59
NtRp744
(dp745
g62
(dp746
g70
I3
ssg71
g740
sg64
(lp747
S'startserver'
p748
asbasbasbasbasbasbasbag57
(g73
g59
NtRp749
(dp750
g62
(dp751
sg71
g663
sg64
(lp752
g57
(g78
g59
NtRp753
(dp754
g62
(dp755
g82
g83
ssg71
g749
sg64
(lp756
S'cmd_options'
p757
asbag57
(g78
g59
NtRp758
(dp759
g62
(dp760
g89
g90
ssg71
g749
sg64
(lp761
S':'
asbag57
(g78
g59
NtRp762
(dp763
g62
(dp764
sg71
g749
sg64
(lp765
g57
(g58
g59
NtRp766
(dp767
g62
(dp768
g70
I4
ssg71
g762
sg64
(lp769
S"<Values at 0x3927d88: {'verbose': False, 'ip': '127.0.0.1', 'shutdown_timeout': 5, 'taskbar': False, 'nocron': False, 'pid_filename': 'httpserver.pid', 'maxthreads': None, 'softcron': False, 'server_name': 'PHUCNH-PC', 'bpython': False, 'nogui': False, 'port': 8000, 'extcron': False, 'debuglevel': 30, 'test': None, 'folder': 'D:\\\\workspace\\\\CA\\\\IgoR\\\\C_Sources\\\\Server\\\\igor-assistant-ca-2012', 'config': '', 'import_models': False, 'winservice': '', 'shell': None, 'run': '', 'log_filename': 'httpserver.log', 'args': [''], 'socket_timeout': 5, 'ssl_ca_certificate': None, 'scheduler': None, 'profiler_filename': None, 'ssl_private_key': '', 'password': '<ask>', 'request_queue_size': 5, 'ssl_certificate': '', 'cronjob': False, 'numthreads': None, 'quiet': False, 'interfaces': None, 'minthreads': None, 'timeout': 10, 'plain': False, 'nobanner': False}>"
p770
asbasbasbag57
(g73
g59
NtRp771
(dp772
g62
(dp773
sg71
g663
sg64
(lp774
g57
(g78
g59
NtRp775
(dp776
g62
(dp777
g82
g83
ssg71
g771
sg64
(lp778
S'db_sessions'
p779
asbag57
(g78
g59
NtRp780
(dp781
g62
(dp782
g89
g90
ssg71
g771
sg64
(lp783
S':'
asbag57
(g78
g59
NtRp784
(dp785
g62
(dp786
sg71
g771
sg64
(lp787
g57
(g58
g59
NtRp788
(dp789
g62
(dp790
g70
I4
ssg71
g784
sg64
(lp791
S'set([])'
p792
asbasbasbag57
(g73
g59
NtRp793
(dp794
g62
(dp795
sg71
g663
sg64
(lp796
g57
(g78
g59
NtRp797
(dp798
g62
(dp799
g82
g83
ssg71
g793
sg64
(lp800
S'debugging'
p801
asbag57
(g78
g59
NtRp802
(dp803
g62
(dp804
g89
g90
ssg71
g793
sg64
(lp805
S':'
asbag57
(g78
g59
NtRp806
(dp807
g62
(dp808
sg71
g793
sg64
(lp809
g57
(g58
g59
NtRp810
(dp811
g62
(dp812
g70
I4
ssg71
g806
sg64
(lp813
g100
asbasbasbag57
(g73
g59
NtRp814
(dp815
g62
(dp816
sg71
g663
sg64
(lp817
g57
(g78
g59
NtRp818
(dp819
g62
(dp820
g82
g83
ssg71
g814
sg64
(lp821
S'gluon_parent'
p822
asbag57
(g78
g59
NtRp823
(dp824
g62
(dp825
g89
g90
ssg71
g814
sg64
(lp826
S':'
asbag57
(g78
g59
NtRp827
(dp828
g62
(dp829
sg71
g814
sg64
(lp830
g57
(g58
g59
NtRp831
(dp832
g62
(dp833
g70
I4
ssg71
g827
sg64
(lp834
S'D:\\workspace\\CA\\IgoR\\C_Sources\\Server\\igor-assistant-ca-2012'
p835
asbasbasbag57
(g73
g59
NtRp836
(dp837
g62
(dp838
sg71
g663
sg64
(lp839
g57
(g78
g59
NtRp840
(dp841
g62
(dp842
g82
g83
ssg71
g836
sg64
(lp843
S'http_accept'
p844
asbag57
(g78
g59
NtRp845
(dp846
g62
(dp847
g89
g90
ssg71
g836
sg64
(lp848
S':'
asbag57
(g78
g59
NtRp849
(dp850
g62
(dp851
sg71
g836
sg64
(lp852
g57
(g58
g59
NtRp853
(dp854
g62
(dp855
g70
I4
ssg71
g849
sg64
(lp856
S'text/html,application/xhtml+xml,application/xml;q=0.9,*/*;q=0.8'
p857
asbasbasbag57
(g73
g59
NtRp858
(dp859
g62
(dp860
sg71
g663
sg64
(lp861
g57
(g78
g59
NtRp862
(dp863
g62
(dp864
g82
g83
ssg71
g858
sg64
(lp865
S'http_accept_charset'
p866
asbag57
(g78
g59
NtRp867
(dp868
g62
(dp869
g89
g90
ssg71
g858
sg64
(lp870
S':'
asbag57
(g78
g59
NtRp871
(dp872
g62
(dp873
sg71
g858
sg64
(lp874
g57
(g58
g59
NtRp875
(dp876
g62
(dp877
g70
I4
ssg71
g871
sg64
(lp878
S'UTF-8,*;q=0.5'
p879
asbasbasbag57
(g73
g59
NtRp880
(dp881
g62
(dp882
sg71
g663
sg64
(lp883
g57
(g78
g59
NtRp884
(dp885
g62
(dp886
g82
g83
ssg71
g880
sg64
(lp887
S'http_accept_encoding'
p888
asbag57
(g78
g59
NtRp889
(dp890
g62
(dp891
g89
g90
ssg71
g880
sg64
(lp892
S':'
asbag57
(g78
g59
NtRp893
(dp894
g62
(dp895
sg71
g880
sg64
(lp896
g57
(g58
g59
NtRp897
(dp898
g62
(dp899
g70
I4
ssg71
g893
sg64
(lp900
S'gzip,deflate,sdch'
p901
asbasbasbag57
(g73
g59
NtRp902
(dp903
g62
(dp904
sg71
g663
sg64
(lp905
g57
(g78
g59
NtRp906
(dp907
g62
(dp908
g82
g83
ssg71
g902
sg64
(lp909
S'http_accept_language'
p910
asbag57
(g78
g59
NtRp911
(dp912
g62
(dp913
g89
g90
ssg71
g902
sg64
(lp914
S':'
asbag57
(g78
g59
NtRp915
(dp916
g62
(dp917
sg71
g902
sg64
(lp918
g57
(g58
g59
NtRp919
(dp920
g62
(dp921
g70
I4
ssg71
g915
sg64
(lp922
S'en-US,en;q=0.8,vi;q=0.6,fr-FR;q=0.4,fr;q=0.2'
p923
asbasbasbag57
(g73
g59
NtRp924
(dp925
g62
(dp926
sg71
g663
sg64
(lp927
g57
(g78
g59
NtRp928
(dp929
g62
(dp930
g82
g83
ssg71
g924
sg64
(lp931
S'http_cache_control'
p932
asbag57
(g78
g59
NtRp933
(dp934
g62
(dp935
g89
g90
ssg71
g924
sg64
(lp936
S':'
asbag57
(g78
g59
NtRp937
(dp938
g62
(dp939
sg71
g924
sg64
(lp940
g57
(g58
g59
NtRp941
(dp942
g62
(dp943
g70
I4
ssg71
g937
sg64
(lp944
S'max-age=0'
p945
asbasbasbag57
(g73
g59
NtRp946
(dp947
g62
(dp948
sg71
g663
sg64
(lp949
g57
(g78
g59
NtRp950
(dp951
g62
(dp952
g82
g83
ssg71
g946
sg64
(lp953
S'http_connection'
p954
asbag57
(g78
g59
NtRp955
(dp956
g62
(dp957
g89
g90
ssg71
g946
sg64
(lp958
S':'
asbag57
(g78
g59
NtRp959
(dp960
g62
(dp961
sg71
g946
sg64
(lp962
g57
(g58
g59
NtRp963
(dp964
g62
(dp965
g70
I4
ssg71
g959
sg64
(lp966
S'keep-alive'
p967
asbasbasbag57
(g73
g59
NtRp968
(dp969
g62
(dp970
sg71
g663
sg64
(lp971
g57
(g78
g59
NtRp972
(dp973
g62
(dp974
g82
g83
ssg71
g968
sg64
(lp975
S'http_cookie'
p976
asbag57
(g78
g59
NtRp977
(dp978
g62
(dp979
g89
g90
ssg71
g968
sg64
(lp980
S':'
asbag57
(g78
g59
NtRp981
(dp982
g62
(dp983
sg71
g968
sg64
(lp984
g57
(g58
g59
NtRp985
(dp986
g62
(dp987
g70
I4
ssg71
g981
sg64
(lp988
S'session_id_welcome=127.0.0.1-f4d1faa4-aebd-4cd8-9afb-2c920137d110; session_id_igor=127.0.0.1-b4729704-258a-411f-8077-bb18a4a24581'
p989
asbasbasbag57
(g73
g59
NtRp990
(dp991
g62
(dp992
sg71
g663
sg64
(lp993
g57
(g78
g59
NtRp994
(dp995
g62
(dp996
g82
g83
ssg71
g990
sg64
(lp997
S'http_host'
p998
asbag57
(g78
g59
NtRp999
(dp1000
g62
(dp1001
g89
g90
ssg71
g990
sg64
(lp1002
S':'
asbag57
(g78
g59
NtRp1003
(dp1004
g62
(dp1005
sg71
g990
sg64
(lp1006
g57
(g58
g59
NtRp1007
(dp1008
g62
(dp1009
g70
I4
ssg71
g1003
sg64
(lp1010
S'127.0.0.1:8000'
p1011
asbasbasbag57
(g73
g59
NtRp1012
(dp1013
g62
(dp1014
sg71
g663
sg64
(lp1015
g57
(g78
g59
NtRp1016
(dp1017
g62
(dp1018
g82
g83
ssg71
g1012
sg64
(lp1019
S'http_user_agent'
p1020
asbag57
(g78
g59
NtRp1021
(dp1022
g62
(dp1023
g89
g90
ssg71
g1012
sg64
(lp1024
S':'
asbag57
(g78
g59
NtRp1025
(dp1026
g62
(dp1027
sg71
g1012
sg64
(lp1028
g57
(g58
g59
NtRp1029
(dp1030
g62
(dp1031
g70
I4
ssg71
g1025
sg64
(lp1032
S'Mozilla/5.0 (Windows NT 6.1; WOW64) AppleWebKit/536.11 (KHTML, like Gecko) Chrome/20.0.1132.57 Safari/536.11'
p1033
asbasbasbag57
(g73
g59
NtRp1034
(dp1035
g62
(dp1036
sg71
g663
sg64
(lp1037
g57
(g78
g59
NtRp1038
(dp1039
g62
(dp1040
g82
g83
ssg71
g1034
sg64
(lp1041
S'is_jython'
p1042
asbag57
(g78
g59
NtRp1043
(dp1044
g62
(dp1045
g89
g90
ssg71
g1034
sg64
(lp1046
S':'
asbag57
(g78
g59
NtRp1047
(dp1048
g62
(dp1049
sg71
g1034
sg64
(lp1050
g57
(g58
g59
NtRp1051
(dp1052
g62
(dp1053
g70
I4
ssg71
g1047
sg64
(lp1054
g100
asbasbasbag57
(g73
g59
NtRp1055
(dp1056
g62
(dp1057
sg71
g663
sg64
(lp1058
g57
(g78
g59
NtRp1059
(dp1060
g62
(dp1061
g82
g83
ssg71
g1055
sg64
(lp1062
S'is_pypy'
p1063
asbag57
(g78
g59
NtRp1064
(dp1065
g62
(dp1066
g89
g90
ssg71
g1055
sg64
(lp1067
S':'
asbag57
(g78
g59
NtRp1068
(dp1069
g62
(dp1070
sg71
g1055
sg64
(lp1071
g57
(g58
g59
NtRp1072
(dp1073
g62
(dp1074
g70
I4
ssg71
g1068
sg64
(lp1075
g100
asbasbasbag57
(g73
g59
NtRp1076
(dp1077
g62
(dp1078
sg71
g663
sg64
(lp1079
g57
(g78
g59
NtRp1080
(dp1081
g62
(dp1082
g82
g83
ssg71
g1076
sg64
(lp1083
S'path_info'
p1084
asbag57
(g78
g59
NtRp1085
(dp1086
g62
(dp1087
g89
g90
ssg71
g1076
sg64
(lp1088
S':'
asbag57
(g78
g59
NtRp1089
(dp1090
g62
(dp1091
sg71
g1076
sg64
(lp1092
g57
(g58
g59
NtRp1093
(dp1094
g62
(dp1095
g70
I4
ssg71
g1089
sg64
(lp1096
S'/igor/class_subject/call/json/get_class_detail'
p1097
asbasbasbag57
(g73
g59
NtRp1098
(dp1099
g62
(dp1100
sg71
g663
sg64
(lp1101
g57
(g78
g59
NtRp1102
(dp1103
g62
(dp1104
g82
g83
ssg71
g1098
sg64
(lp1105
S'query_string'
p1106
asbag57
(g78
g59
NtRp1107
(dp1108
g62
(dp1109
g89
g90
ssg71
g1098
sg64
(lp1110
S':'
asbag57
(g78
g59
NtRp1111
(dp1112
g62
(dp1113
sg71
g1098
sg64
(lp1114
g57
(g58
g59
NtRp1115
(dp1116
g62
(dp1117
g70
I4
ssg71
g1111
sg64
(lp1118
S'id=8'
p1119
asbasbasbag57
(g73
g59
NtRp1120
(dp1121
g62
(dp1122
sg71
g663
sg64
(lp1123
g57
(g78
g59
NtRp1124
(dp1125
g62
(dp1126
g82
g83
ssg71
g1120
sg64
(lp1127
S'remote_addr'
p1128
asbag57
(g78
g59
NtRp1129
(dp1130
g62
(dp1131
g89
g90
ssg71
g1120
sg64
(lp1132
S':'
asbag57
(g78
g59
NtRp1133
(dp1134
g62
(dp1135
sg71
g1120
sg64
(lp1136
g57
(g58
g59
NtRp1137
(dp1138
g62
(dp1139
g70
I4
ssg71
g1133
sg64
(lp1140
g216
asbasbasbag57
(g73
g59
NtRp1141
(dp1142
g62
(dp1143
sg71
g663
sg64
(lp1144
g57
(g78
g59
NtRp1145
(dp1146
g62
(dp1147
g82
g83
ssg71
g1141
sg64
(lp1148
S'remote_port'
p1149
asbag57
(g78
g59
NtRp1150
(dp1151
g62
(dp1152
g89
g90
ssg71
g1141
sg64
(lp1153
S':'
asbag57
(g78
g59
NtRp1154
(dp1155
g62
(dp1156
sg71
g1141
sg64
(lp1157
g57
(g58
g59
NtRp1158
(dp1159
g62
(dp1160
g70
I4
ssg71
g1154
sg64
(lp1161
S'1222'
p1162
asbasbasbag57
(g73
g59
NtRp1163
(dp1164
g62
(dp1165
sg71
g663
sg64
(lp1166
g57
(g78
g59
NtRp1167
(dp1168
g62
(dp1169
g82
g83
ssg71
g1163
sg64
(lp1170
S'request_method'
p1171
asbag57
(g78
g59
NtRp1172
(dp1173
g62
(dp1174
g89
g90
ssg71
g1163
sg64
(lp1175
S':'
asbag57
(g78
g59
NtRp1176
(dp1177
g62
(dp1178
sg71
g1163
sg64
(lp1179
g57
(g58
g59
NtRp1180
(dp1181
g62
(dp1182
g70
I4
ssg71
g1176
sg64
(lp1183
S'GET'
p1184
asbasbasbag57
(g73
g59
NtRp1185
(dp1186
g62
(dp1187
sg71
g663
sg64
(lp1188
g57
(g78
g59
NtRp1189
(dp1190
g62
(dp1191
g82
g83
ssg71
g1185
sg64
(lp1192
S'script_name'
p1193
asbag57
(g78
g59
NtRp1194
(dp1195
g62
(dp1196
g89
g90
ssg71
g1185
sg64
(lp1197
S':'
asbag57
(g78
g59
NtRp1198
(dp1199
g62
(dp1200
sg71
g1185
sg64
(lp1201
g57
(g58
g59
NtRp1202
(dp1203
g62
(dp1204
g70
I4
ssg71
g1198
sg64
(lp1205
S''
asbasbasbag57
(g73
g59
NtRp1206
(dp1207
g62
(dp1208
sg71
g663
sg64
(lp1209
g57
(g78
g59
NtRp1210
(dp1211
g62
(dp1212
g82
g83
ssg71
g1206
sg64
(lp1213
S'server_name'
p1214
asbag57
(g78
g59
NtRp1215
(dp1216
g62
(dp1217
g89
g90
ssg71
g1206
sg64
(lp1218
S':'
asbag57
(g78
g59
NtRp1219
(dp1220
g62
(dp1221
sg71
g1206
sg64
(lp1222
g57
(g58
g59
NtRp1223
(dp1224
g62
(dp1225
g70
I4
ssg71
g1219
sg64
(lp1226
S'PHUCNH-PC'
p1227
asbasbasbag57
(g73
g59
NtRp1228
(dp1229
g62
(dp1230
sg71
g663
sg64
(lp1231
g57
(g78
g59
NtRp1232
(dp1233
g62
(dp1234
g82
g83
ssg71
g1228
sg64
(lp1235
S'server_port'
p1236
asbag57
(g78
g59
NtRp1237
(dp1238
g62
(dp1239
g89
g90
ssg71
g1228
sg64
(lp1240
S':'
asbag57
(g78
g59
NtRp1241
(dp1242
g62
(dp1243
sg71
g1228
sg64
(lp1244
g57
(g58
g59
NtRp1245
(dp1246
g62
(dp1247
g70
I4
ssg71
g1241
sg64
(lp1248
S'8000'
p1249
asbasbasbag57
(g73
g59
NtRp1250
(dp1251
g62
(dp1252
sg71
g663
sg64
(lp1253
g57
(g78
g59
NtRp1254
(dp1255
g62
(dp1256
g82
g83
ssg71
g1250
sg64
(lp1257
S'server_protocol'
p1258
asbag57
(g78
g59
NtRp1259
(dp1260
g62
(dp1261
g89
g90
ssg71
g1250
sg64
(lp1262
S':'
asbag57
(g78
g59
NtRp1263
(dp1264
g62
(dp1265
sg71
g1250
sg64
(lp1266
g57
(g58
g59
NtRp1267
(dp1268
g62
(dp1269
g70
I4
ssg71
g1263
sg64
(lp1270
S'HTTP/1.1'
p1271
asbasbasbag57
(g73
g59
NtRp1272
(dp1273
g62
(dp1274
sg71
g663
sg64
(lp1275
g57
(g78
g59
NtRp1276
(dp1277
g62
(dp1278
g82
g83
ssg71
g1272
sg64
(lp1279
S'server_software'
p1280
asbag57
(g78
g59
NtRp1281
(dp1282
g62
(dp1283
g89
g90
ssg71
g1272
sg64
(lp1284
S':'
asbag57
(g78
g59
NtRp1285
(dp1286
g62
(dp1287
sg71
g1272
sg64
(lp1288
g57
(g58
g59
NtRp1289
(dp1290
g62
(dp1291
g70
I4
ssg71
g1285
sg64
(lp1292
S'Rocket 1.2.4'
p1293
asbasbasbag57
(g73
g59
NtRp1294
(dp1295
g62
(dp1296
sg71
g663
sg64
(lp1297
g57
(g78
g59
NtRp1298
(dp1299
g62
(dp1300
g82
g83
ssg71
g1294
sg64
(lp1301
S'web2py_crontype'
p1302
asbag57
(g78
g59
NtRp1303
(dp1304
g62
(dp1305
g89
g90
ssg71
g1294
sg64
(lp1306
S':'
asbag57
(g78
g59
NtRp1307
(dp1308
g62
(dp1309
sg71
g1294
sg64
(lp1310
g57
(g58
g59
NtRp1311
(dp1312
g62
(dp1313
g70
I4
ssg71
g1307
sg64
(lp1314
S'hard'
p1315
asbasbasbag57
(g73
g59
NtRp1316
(dp1317
g62
(dp1318
sg71
g663
sg64
(lp1319
g57
(g78
g59
NtRp1320
(dp1321
g62
(dp1322
g82
g83
ssg71
g1316
sg64
(lp1323
S'web2py_path'
p1324
asbag57
(g78
g59
NtRp1325
(dp1326
g62
(dp1327
g89
g90
ssg71
g1316
sg64
(lp1328
S':'
asbag57
(g78
g59
NtRp1329
(dp1330
g62
(dp1331
sg71
g1316
sg64
(lp1332
g57
(g58
g59
NtRp1333
(dp1334
g62
(dp1335
g70
I4
ssg71
g1329
sg64
(lp1336
g710
asbasbasbag57
(g73
g59
NtRp1337
(dp1338
g62
(dp1339
sg71
g663
sg64
(lp1340
g57
(g78
g59
NtRp1341
(dp1342
g62
(dp1343
g82
g83
ssg71
g1337
sg64
(lp1344
S'web2py_version'
p1345
asbag57
(g78
g59
NtRp1346
(dp1347
g62
(dp1348
g89
g90
ssg71
g1337
sg64
(lp1349
S':'
asbag57
(g78
g59
NtRp1350
(dp1351
g62
(dp1352
sg71
g1337
sg64
(lp1353
g57
(g58
g59
NtRp1354
(dp1355
g62
(dp1356
g70
I4
ssg71
g1350
sg64
(lp1357
g57
(g66
g59
NtRp1358
(dp1359
g62
(dp1360
g70
I3
ssg71
Nsg64
(lp1361
g57
(g73
g59
NtRp1362
(dp1363
g62
(dp1364
sg71
g1358
sg64
(lp1365
g57
(g78
g59
NtRp1366
(dp1367
g62
(dp1368
sg71
g1362
sg64
(lp1369
g57
(g58
g59
NtRp1370
(dp1371
g62
(dp1372
g70
I3
ssg71
g1366
sg64
(lp1373
S'1'
asbasbasbag57
(g73
g59
NtRp1374
(dp1375
g62
(dp1376
sg71
g1358
sg64
(lp1377
g57
(g78
g59
NtRp1378
(dp1379
g62
(dp1380
sg71
g1374
sg64
(lp1381
g57
(g58
g59
NtRp1382
(dp1383
g62
(dp1384
g70
I3
ssg71
g1378
sg64
(lp1385
S'99'
p1386
asbasbasbag57
(g73
g59
NtRp1387
(dp1388
g62
(dp1389
sg71
g1358
sg64
(lp1390
g57
(g78
g59
NtRp1391
(dp1392
g62
(dp1393
sg71
g1387
sg64
(lp1394
g57
(g58
g59
NtRp1395
(dp1396
g62
(dp1397
g70
I3
ssg71
g1391
sg64
(lp1398
S'7'
asbasbasbag57
(g73
g59
NtRp1399
(dp1400
g62
(dp1401
sg71
g1358
sg64
(lp1402
g57
(g78
g59
NtRp1403
(dp1404
g62
(dp1405
sg71
g1399
sg64
(lp1406
g57
(g58
g59
NtRp1407
(dp1408
g62
(dp1409
g70
I3
ssg71
g1403
sg64
(lp1410
S'datetime.datetime(2012, 3, 4, 22, 12, 8)'
p1411
asbasbasbag57
(g73
g59
NtRp1412
(dp1413
g62
(dp1414
sg71
g1358
sg64
(lp1415
g57
(g78
g59
NtRp1416
(dp1417
g62
(dp1418
sg71
g1412
sg64
(lp1419
g57
(g58
g59
NtRp1420
(dp1421
g62
(dp1422
g70
I3
ssg71
g1416
sg64
(lp1423
S'stable'
p1424
asbasbasbasbasbasbasbag57
(g73
g59
NtRp1425
(dp1426
g62
(dp1427
sg71
g663
sg64
(lp1428
g57
(g78
g59
NtRp1429
(dp1430
g62
(dp1431
g82
g83
ssg71
g1425
sg64
(lp1432
S'wsgi_errors'
p1433
asbag57
(g78
g59
NtRp1434
(dp1435
g62
(dp1436
g89
g90
ssg71
g1425
sg64
(lp1437
S':'
asbag57
(g78
g59
NtRp1438
(dp1439
g62
(dp1440
sg71
g1425
sg64
(lp1441
g57
(g58
g59
NtRp1442
(dp1443
g62
(dp1444
g70
I4
ssg71
g1438
sg64
(lp1445
S"<open file '<stderr>', mode 'w' at 0x0000000001D0E1E0>"
p1446
asbasbasbag57
(g73
g59
NtRp1447
(dp1448
g62
(dp1449
sg71
g663
sg64
(lp1450
g57
(g78
g59
NtRp1451
(dp1452
g62
(dp1453
g82
g83
ssg71
g1447
sg64
(lp1454
S'wsgi_file_wrapper'
p1455
asbag57
(g78
g59
NtRp1456
(dp1457
g62
(dp1458
g89
g90
ssg71
g1447
sg64
(lp1459
S':'
asbag57
(g78
g59
NtRp1460
(dp1461
g62
(dp1462
sg71
g1447
sg64
(lp1463
g57
(g58
g59
NtRp1464
(dp1465
g62
(dp1466
g70
I4
ssg71
g1460
sg64
(lp1467
S'<class wsgiref.util.FileWrapper at 0x00000000037FCAC8>'
p1468
asbasbasbag57
(g73
g59
NtRp1469
(dp1470
g62
(dp1471
sg71
g663
sg64
(lp1472
g57
(g78
g59
NtRp1473
(dp1474
g62
(dp1475
g82
g83
ssg71
g1469
sg64
(lp1476
S'wsgi_input'
p1477
asbag57
(g78
g59
NtRp1478
(dp1479
g62
(dp1480
g89
g90
ssg71
g1469
sg64
(lp1481
S':'
asbag57
(g78
g59
NtRp1482
(dp1483
g62
(dp1484
sg71
g1469
sg64
(lp1485
g57
(g58
g59
NtRp1486
(dp1487
g62
(dp1488
g70
I4
ssg71
g1482
sg64
(lp1489
S'<socket._fileobject object at 0x0000000004C129A8>'
p1490
asbasbasbag57
(g73
g59
NtRp1491
(dp1492
g62
(dp1493
sg71
g663
sg64
(lp1494
g57
(g78
g59
NtRp1495
(dp1496
g62
(dp1497
g82
g83
ssg71
g1491
sg64
(lp1498
S'wsgi_multiprocess'
p1499
asbag57
(g78
g59
NtRp1500
(dp1501
g62
(dp1502
g89
g90
ssg71
g1491
sg64
(lp1503
S':'
asbag57
(g78
g59
NtRp1504
(dp1505
g62
(dp1506
sg71
g1491
sg64
(lp1507
g57
(g58
g59
NtRp1508
(dp1509
g62
(dp1510
g70
I4
ssg71
g1504
sg64
(lp1511
g100
asbasbasbag57
(g73
g59
NtRp1512
(dp1513
g62
(dp1514
sg71
g663
sg64
(lp1515
g57
(g78
g59
NtRp1516
(dp1517
g62
(dp1518
g82
g83
ssg71
g1512
sg64
(lp1519
S'wsgi_multithread'
p1520
asbag57
(g78
g59
NtRp1521
(dp1522
g62
(dp1523
g89
g90
ssg71
g1512
sg64
(lp1524
S':'
asbag57
(g78
g59
NtRp1525
(dp1526
g62
(dp1527
sg71
g1512
sg64
(lp1528
g57
(g58
g59
NtRp1529
(dp1530
g62
(dp1531
g70
I4
ssg71
g1525
sg64
(lp1532
S'True'
p1533
asbasbasbag57
(g73
g59
NtRp1534
(dp1535
g62
(dp1536
sg71
g663
sg64
(lp1537
g57
(g78
g59
NtRp1538
(dp1539
g62
(dp1540
g82
g83
ssg71
g1534
sg64
(lp1541
S'wsgi_run_once'
p1542
asbag57
(g78
g59
NtRp1543
(dp1544
g62
(dp1545
g89
g90
ssg71
g1534
sg64
(lp1546
S':'
asbag57
(g78
g59
NtRp1547
(dp1548
g62
(dp1549
sg71
g1534
sg64
(lp1550
g57
(g58
g59
NtRp1551
(dp1552
g62
(dp1553
g70
I4
ssg71
g1547
sg64
(lp1554
g100
asbasbasbag57
(g73
g59
NtRp1555
(dp1556
g62
(dp1557
sg71
g663
sg64
(lp1558
g57
(g78
g59
NtRp1559
(dp1560
g62
(dp1561
g82
g83
ssg71
g1555
sg64
(lp1562
S'wsgi_url_scheme'
p1563
asbag57
(g78
g59
NtRp1564
(dp1565
g62
(dp1566
g89
g90
ssg71
g1555
sg64
(lp1567
S':'
asbag57
(g78
g59
NtRp1568
(dp1569
g62
(dp1570
sg71
g1555
sg64
(lp1571
g57
(g58
g59
NtRp1572
(dp1573
g62
(dp1574
g70
I4
ssg71
g1568
sg64
(lp1575
S'http'
p1576
asbasbasbag57
(g73
g59
NtRp1577
(dp1578
g62
(dp1579
sg71
g663
sg64
(lp1580
g57
(g78
g59
NtRp1581
(dp1582
g62
(dp1583
g82
g83
ssg71
g1577
sg64
(lp1584
S'wsgi_version'
p1585
asbag57
(g78
g59
NtRp1586
(dp1587
g62
(dp1588
g89
g90
ssg71
g1577
sg64
(lp1589
S':'
asbag57
(g78
g59
NtRp1590
(dp1591
g62
(dp1592
sg71
g1577
sg64
(lp1593
g57
(g58
g59
NtRp1594
(dp1595
g62
(dp1596
g70
I4
ssg71
g1590
sg64
(lp1597
g57
(g66
g59
NtRp1598
(dp1599
g62
(dp1600
g70
I3
ssg71
Nsg64
(lp1601
g57
(g73
g59
NtRp1602
(dp1603
g62
(dp1604
sg71
g1598
sg64
(lp1605
g57
(g78
g59
NtRp1606
(dp1607
g62
(dp1608
sg71
g1602
sg64
(lp1609
g57
(g58
g59
NtRp1610
(dp1611
g62
(dp1612
g70
I3
ssg71
g1606
sg64
(lp1613
S'1'
asbasbasbag57
(g73
g59
NtRp1614
(dp1615
g62
(dp1616
sg71
g1598
sg64
(lp1617
g57
(g78
g59
NtRp1618
(dp1619
g62
(dp1620
sg71
g1614
sg64
(lp1621
g57
(g58
g59
NtRp1622
(dp1623
g62
(dp1624
g70
I3
ssg71
g1618
sg64
(lp1625
S'0'
asbasbasbasbasbasbasbasbasbasbasbag57
(g73
g59
NtRp1626
(dp1627
g62
(dp1628
sg71
g67
sg64
(lp1629
g57
(g78
g59
NtRp1630
(dp1631
g62
(dp1632
g82
g83
ssg71
g1626
sg64
(lp1633
S'extension'
p1634
asbag57
(g78
g59
NtRp1635
(dp1636
g62
(dp1637
g89
g90
ssg71
g1626
sg64
(lp1638
S':'
asbag57
(g78
g59
NtRp1639
(dp1640
g62
(dp1641
sg71
g1626
sg64
(lp1642
g57
(g58
g59
NtRp1643
(dp1644
g62
(dp1645
g70
I5
ssg71
g1639
sg64
(lp1646
S'html'
p1647
asbasbasbag57
(g73
g59
NtRp1648
(dp1649
g62
(dp1650
sg71
g67
sg64
(lp1651
g57
(g78
g59
NtRp1652
(dp1653
g62
(dp1654
g82
g83
ssg71
g1648
sg64
(lp1655
S'folder'
p1656
asbag57
(g78
g59
NtRp1657
(dp1658
g62
(dp1659
g89
g90
ssg71
g1648
sg64
(lp1660
S':'
asbag57
(g78
g59
NtRp1661
(dp1662
g62
(dp1663
sg71
g1648
sg64
(lp1664
g57
(g58
g59
NtRp1665
(dp1666
g62
(dp1667
g70
I5
ssg71
g1661
sg64
(lp1668
S'D:\\workspace\\CA\\IgoR\\C_Sources\\Server\\igor-assistant-ca-2012\\applications\\igor\\'
p1669
asbasbasbag57
(g73
g59
NtRp1670
(dp1671
g62
(dp1672
sg71
g67
sg64
(lp1673
g57
(g78
g59
NtRp1674
(dp1675
g62
(dp1676
g82
g83
ssg71
g1670
sg64
(lp1677
S'function'
p1678
asbag57
(g78
g59
NtRp1679
(dp1680
g62
(dp1681
g89
g90
ssg71
g1670
sg64
(lp1682
S':'
asbag57
(g78
g59
NtRp1683
(dp1684
g62
(dp1685
sg71
g1670
sg64
(lp1686
g57
(g58
g59
NtRp1687
(dp1688
g62
(dp1689
g70
I5
ssg71
g1683
sg64
(lp1690
S'call'
p1691
asbasbasbag57
(g73
g59
NtRp1692
(dp1693
g62
(dp1694
sg71
g67
sg64
(lp1695
g57
(g78
g59
NtRp1696
(dp1697
g62
(dp1698
g82
g83
ssg71
g1692
sg64
(lp1699
S'get_vars'
p1700
asbag57
(g78
g59
NtRp1701
(dp1702
g62
(dp1703
g89
g90
ssg71
g1692
sg64
(lp1704
S':'
asbag57
(g78
g59
NtRp1705
(dp1706
g62
(dp1707
sg71
g1692
sg64
(lp1708
g57
(g58
g59
NtRp1709
(dp1710
g62
(dp1711
g70
I5
ssg71
g1705
sg64
(lp1712
g57
(g66
g59
NtRp1713
(dp1714
g62
(dp1715
g70
I4
ssg71
Nsg64
(lp1716
g57
(g73
g59
NtRp1717
(dp1718
g62
(dp1719
sg71
g1713
sg64
(lp1720
g57
(g78
g59
NtRp1721
(dp1722
g62
(dp1723
g82
g83
ssg71
g1717
sg64
(lp1724
S'id'
p1725
asbag57
(g78
g59
NtRp1726
(dp1727
g62
(dp1728
g89
g90
ssg71
g1717
sg64
(lp1729
S':'
asbag57
(g78
g59
NtRp1730
(dp1731
g62
(dp1732
sg71
g1717
sg64
(lp1733
g57
(g58
g59
NtRp1734
(dp1735
g62
(dp1736
g70
I4
ssg71
g1730
sg64
(lp1737
S'8'
asbasbasbasbasbasbasbag57
(g73
g59
NtRp1738
(dp1739
g62
(dp1740
sg71
g67
sg64
(lp1741
g57
(g78
g59
NtRp1742
(dp1743
g62
(dp1744
g82
g83
ssg71
g1738
sg64
(lp1745
S'global_settings'
p1746
asbag57
(g78
g59
NtRp1747
(dp1748
g62
(dp1749
g89
g90
ssg71
g1738
sg64
(lp1750
S':'
asbag57
(g78
g59
NtRp1751
(dp1752
g62
(dp1753
sg71
g1738
sg64
(lp1754
g57
(g58
g59
NtRp1755
(dp1756
g62
(dp1757
g70
I5
ssg71
g1751
sg64
(lp1758
g57
(g66
g59
NtRp1759
(dp1760
g62
(dp1761
g70
I4
ssg71
Nsg64
(lp1762
g57
(g73
g59
NtRp1763
(dp1764
g62
(dp1765
sg71
g1759
sg64
(lp1766
g57
(g78
g59
NtRp1767
(dp1768
g62
(dp1769
g82
g83
ssg71
g1763
sg64
(lp1770
g675
asbag57
(g78
g59
NtRp1771
(dp1772
g62
(dp1773
g89
g90
ssg71
g1763
sg64
(lp1774
S':'
asbag57
(g78
g59
NtRp1775
(dp1776
g62
(dp1777
sg71
g1763
sg64
(lp1778
g57
(g58
g59
NtRp1779
(dp1780
g62
(dp1781
g70
I4
ssg71
g1775
sg64
(lp1782
S"set(['D:\\\\workspace\\\\CA\\\\IgoR\\\\C_Sources\\\\Server\\\\igor-assistant-ca-2012\\\\applications\\\\igor\\\\', 'D:\\\\workspace\\\\CA\\\\IgoR\\\\C_Sources\\\\Server\\\\igor-assistant-ca-2012\\\\applications\\\\welcome\\\\'])"
p1783
asbasbasbag57
(g73
g59
NtRp1784
(dp1785
g62
(dp1786
sg71
g1759
sg64
(lp1787
g57
(g78
g59
NtRp1788
(dp1789
g62
(dp1790
g82
g83
ssg71
g1784
sg64
(lp1791
g697
asbag57
(g78
g59
NtRp1792
(dp1793
g62
(dp1794
g89
g90
ssg71
g1784
sg64
(lp1795
S':'
asbag57
(g78
g59
NtRp1796
(dp1797
g62
(dp1798
sg71
g1784
sg64
(lp1799
g57
(g58
g59
NtRp1800
(dp1801
g62
(dp1802
g70
I4
ssg71
g1796
sg64
(lp1803
g710
asbasbasbag57
(g73
g59
NtRp1804
(dp1805
g62
(dp1806
sg71
g1759
sg64
(lp1807
g57
(g78
g59
NtRp1808
(dp1809
g62
(dp1810
g82
g83
ssg71
g1804
sg64
(lp1811
g719
asbag57
(g78
g59
NtRp1812
(dp1813
g62
(dp1814
g89
g90
ssg71
g1804
sg64
(lp1815
S':'
asbag57
(g78
g59
NtRp1816
(dp1817
g62
(dp1818
sg71
g1804
sg64
(lp1819
g57
(g58
g59
NtRp1820
(dp1821
g62
(dp1822
g70
I4
ssg71
g1816
sg64
(lp1823
g57
(g66
g59
NtRp1824
(dp1825
g62
(dp1826
g70
I3
ssg71
Nsg64
(lp1827
g57
(g73
g59
NtRp1828
(dp1829
g62
(dp1830
sg71
g1824
sg64
(lp1831
g57
(g78
g59
NtRp1832
(dp1833
g62
(dp1834
sg71
g1828
sg64
(lp1835
g57
(g58
g59
NtRp1836
(dp1837
g62
(dp1838
g70
I3
ssg71
g1832
sg64
(lp1839
g748
asbasbasbasbasbasbasbag57
(g73
g59
NtRp1840
(dp1841
g62
(dp1842
sg71
g1759
sg64
(lp1843
g57
(g78
g59
NtRp1844
(dp1845
g62
(dp1846
g82
g83
ssg71
g1840
sg64
(lp1847
g757
asbag57
(g78
g59
NtRp1848
(dp1849
g62
(dp1850
g89
g90
ssg71
g1840
sg64
(lp1851
S':'
asbag57
(g78
g59
NtRp1852
(dp1853
g62
(dp1854
sg71
g1840
sg64
(lp1855
g57
(g58
g59
NtRp1856
(dp1857
g62
(dp1858
g70
I4
ssg71
g1852
sg64
(lp1859
S"<Values at 0x3927d88: {'verbose': False, 'ip': '127.0.0.1', 'shutdown_timeout': 5, 'taskbar': False, 'nocron': False, 'pid_filename': 'httpserver.pid', 'maxthreads': None, 'softcron': False, 'server_name': 'PHUCNH-PC', 'bpython': False, 'nogui': False, 'port': 8000, 'extcron': False, 'debuglevel': 30, 'test': None, 'folder': 'D:\\\\workspace\\\\CA\\\\IgoR\\\\C_Sources\\\\Server\\\\igor-assistant-ca-2012', 'config': '', 'import_models': False, 'winservice': '', 'shell': None, 'run': '', 'log_filename': 'httpserver.log', 'args': [''], 'socket_timeout': 5, 'ssl_ca_certificate': None, 'scheduler': None, 'profiler_filename': None, 'ssl_private_key': '', 'password': '<ask>', 'request_queue_size': 5, 'ssl_certificate': '', 'cronjob': False, 'numthreads': None, 'quiet': False, 'interfaces': None, 'minthreads': None, 'timeout': 10, 'plain': False, 'nobanner': False}>"
p1860
asbasbasbag57
(g73
g59
NtRp1861
(dp1862
g62
(dp1863
sg71
g1759
sg64
(lp1864
g57
(g78
g59
NtRp1865
(dp1866
g62
(dp1867
g82
g83
ssg71
g1861
sg64
(lp1868
g779
asbag57
(g78
g59
NtRp1869
(dp1870
g62
(dp1871
g89
g90
ssg71
g1861
sg64
(lp1872
S':'
asbag57
(g78
g59
NtRp1873
(dp1874
g62
(dp1875
sg71
g1861
sg64
(lp1876
g57
(g58
g59
NtRp1877
(dp1878
g62
(dp1879
g70
I4
ssg71
g1873
sg64
(lp1880
S'set([])'
p1881
asbasbasbag57
(g73
g59
NtRp1882
(dp1883
g62
(dp1884
sg71
g1759
sg64
(lp1885
g57
(g78
g59
NtRp1886
(dp1887
g62
(dp1888
g82
g83
ssg71
g1882
sg64
(lp1889
g801
asbag57
(g78
g59
NtRp1890
(dp1891
g62
(dp1892
g89
g90
ssg71
g1882
sg64
(lp1893
S':'
asbag57
(g78
g59
NtRp1894
(dp1895
g62
(dp1896
sg71
g1882
sg64
(lp1897
g57
(g58
g59
NtRp1898
(dp1899
g62
(dp1900
g70
I4
ssg71
g1894
sg64
(lp1901
g100
asbasbasbag57
(g73
g59
NtRp1902
(dp1903
g62
(dp1904
sg71
g1759
sg64
(lp1905
g57
(g78
g59
NtRp1906
(dp1907
g62
(dp1908
g82
g83
ssg71
g1902
sg64
(lp1909
g822
asbag57
(g78
g59
NtRp1910
(dp1911
g62
(dp1912
g89
g90
ssg71
g1902
sg64
(lp1913
S':'
asbag57
(g78
g59
NtRp1914
(dp1915
g62
(dp1916
sg71
g1902
sg64
(lp1917
g57
(g58
g59
NtRp1918
(dp1919
g62
(dp1920
g70
I4
ssg71
g1914
sg64
(lp1921
g835
asbasbasbag57
(g73
g59
NtRp1922
(dp1923
g62
(dp1924
sg71
g1759
sg64
(lp1925
g57
(g78
g59
NtRp1926
(dp1927
g62
(dp1928
g82
g83
ssg71
g1922
sg64
(lp1929
g1042
asbag57
(g78
g59
NtRp1930
(dp1931
g62
(dp1932
g89
g90
ssg71
g1922
sg64
(lp1933
S':'
asbag57
(g78
g59
NtRp1934
(dp1935
g62
(dp1936
sg71
g1922
sg64
(lp1937
g57
(g58
g59
NtRp1938
(dp1939
g62
(dp1940
g70
I4
ssg71
g1934
sg64
(lp1941
g100
asbasbasbag57
(g73
g59
NtRp1942
(dp1943
g62
(dp1944
sg71
g1759
sg64
(lp1945
g57
(g78
g59
NtRp1946
(dp1947
g62
(dp1948
g82
g83
ssg71
g1942
sg64
(lp1949
g1063
asbag57
(g78
g59
NtRp1950
(dp1951
g62
(dp1952
g89
g90
ssg71
g1942
sg64
(lp1953
S':'
asbag57
(g78
g59
NtRp1954
(dp1955
g62
(dp1956
sg71
g1942
sg64
(lp1957
g57
(g58
g59
NtRp1958
(dp1959
g62
(dp1960
g70
I4
ssg71
g1954
sg64
(lp1961
g100
asbasbasbag57
(g73
g59
NtRp1962
(dp1963
g62
(dp1964
sg71
g1759
sg64
(lp1965
g57
(g78
g59
NtRp1966
(dp1967
g62
(dp1968
g82
g83
ssg71
g1962
sg64
(lp1969
g1302
asbag57
(g78
g59
NtRp1970
(dp1971
g62
(dp1972
g89
g90
ssg71
g1962
sg64
(lp1973
S':'
asbag57
(g78
g59
NtRp1974
(dp1975
g62
(dp1976
sg71
g1962
sg64
(lp1977
g57
(g58
g59
NtRp1978
(dp1979
g62
(dp1980
g70
I4
ssg71
g1974
sg64
(lp1981
g1315
asbasbasbag57
(g73
g59
NtRp1982
(dp1983
g62
(dp1984
sg71
g1759
sg64
(lp1985
g57
(g78
g59
NtRp1986
(dp1987
g62
(dp1988
g82
g83
ssg71
g1982
sg64
(lp1989
g1345
asbag57
(g78
g59
NtRp1990
(dp1991
g62
(dp1992
g89
g90
ssg71
g1982
sg64
(lp1993
S':'
asbag57
(g78
g59
NtRp1994
(dp1995
g62
(dp1996
sg71
g1982
sg64
(lp1997
g57
(g58
g59
NtRp1998
(dp1999
g62
(dp2000
g70
I4
ssg71
g1994
sg64
(lp2001
g57
(g66
g59
NtRp2002
(dp2003
g62
(dp2004
g70
I3
ssg71
Nsg64
(lp2005
g57
(g73
g59
NtRp2006
(dp2007
g62
(dp2008
sg71
g2002
sg64
(lp2009
g57
(g78
g59
NtRp2010
(dp2011
g62
(dp2012
sg71
g2006
sg64
(lp2013
g57
(g58
g59
NtRp2014
(dp2015
g62
(dp2016
g70
I3
ssg71
g2010
sg64
(lp2017
S'1'
asbasbasbag57
(g73
g59
NtRp2018
(dp2019
g62
(dp2020
sg71
g2002
sg64
(lp2021
g57
(g78
g59
NtRp2022
(dp2023
g62
(dp2024
sg71
g2018
sg64
(lp2025
g57
(g58
g59
NtRp2026
(dp2027
g62
(dp2028
g70
I3
ssg71
g2022
sg64
(lp2029
S'99'
p2030
asbasbasbag57
(g73
g59
NtRp2031
(dp2032
g62
(dp2033
sg71
g2002
sg64
(lp2034
g57
(g78
g59
NtRp2035
(dp2036
g62
(dp2037
sg71
g2031
sg64
(lp2038
g57
(g58
g59
NtRp2039
(dp2040
g62
(dp2041
g70
I3
ssg71
g2035
sg64
(lp2042
S'7'
asbasbasbag57
(g73
g59
NtRp2043
(dp2044
g62
(dp2045
sg71
g2002
sg64
(lp2046
g57
(g78
g59
NtRp2047
(dp2048
g62
(dp2049
sg71
g2043
sg64
(lp2050
g57
(g58
g59
NtRp2051
(dp2052
g62
(dp2053
g70
I3
ssg71
g2047
sg64
(lp2054
S'datetime.datetime(2012, 3, 4, 22, 12, 8)'
p2055
asbasbasbag57
(g73
g59
NtRp2056
(dp2057
g62
(dp2058
sg71
g2002
sg64
(lp2059
g57
(g78
g59
NtRp2060
(dp2061
g62
(dp2062
sg71
g2056
sg64
(lp2063
g57
(g58
g59
NtRp2064
(dp2065
g62
(dp2066
g70
I3
ssg71
g2060
sg64
(lp2067
g1424
asbasbasbasbasbasbasbasbasbasbasbag57
(g73
g59
NtRp2068
(dp2069
g62
(dp2070
sg71
g67
sg64
(lp2071
g57
(g78
g59
NtRp2072
(dp2073
g62
(dp2074
g82
g83
ssg71
g2068
sg64
(lp2075
S'is_https'
p2076
asbag57
(g78
g59
NtRp2077
(dp2078
g62
(dp2079
g89
g90
ssg71
g2068
sg64
(lp2080
S':'
asbag57
(g78
g59
NtRp2081
(dp2082
g62
(dp2083
sg71
g2068
sg64
(lp2084
g57
(g58
g59
NtRp2085
(dp2086
g62
(dp2087
g70
I5
ssg71
g2081
sg64
(lp2088
g100
asbasbasbag57
(g73
g59
NtRp2089
(dp2090
g62
(dp2091
sg71
g67
sg64
(lp2092
g57
(g78
g59
NtRp2093
(dp2094
g62
(dp2095
g82
g83
ssg71
g2089
sg64
(lp2096
S'is_local'
p2097
asbag57
(g78
g59
NtRp2098
(dp2099
g62
(dp2100
g89
g90
ssg71
g2089
sg64
(lp2101
S':'
asbag57
(g78
g59
NtRp2102
(dp2103
g62
(dp2104
sg71
g2089
sg64
(lp2105
g57
(g58
g59
NtRp2106
(dp2107
g62
(dp2108
g70
I5
ssg71
g2102
sg64
(lp2109
g1533
asbasbasbag57
(g73
g59
NtRp2110
(dp2111
g62
(dp2112
sg71
g67
sg64
(lp2113
g57
(g78
g59
NtRp2114
(dp2115
g62
(dp2116
g82
g83
ssg71
g2110
sg64
(lp2117
S'is_restful'
p2118
asbag57
(g78
g59
NtRp2119
(dp2120
g62
(dp2121
g89
g90
ssg71
g2110
sg64
(lp2122
S':'
asbag57
(g78
g59
NtRp2123
(dp2124
g62
(dp2125
sg71
g2110
sg64
(lp2126
g57
(g58
g59
NtRp2127
(dp2128
g62
(dp2129
g70
I5
ssg71
g2123
sg64
(lp2130
g100
asbasbasbag57
(g73
g59
NtRp2131
(dp2132
g62
(dp2133
sg71
g67
sg64
(lp2134
g57
(g78
g59
NtRp2135
(dp2136
g62
(dp2137
g82
g83
ssg71
g2131
sg64
(lp2138
S'now'
p2139
asbag57
(g78
g59
NtRp2140
(dp2141
g62
(dp2142
g89
g90
ssg71
g2131
sg64
(lp2143
S':'
asbag57
(g78
g59
NtRp2144
(dp2145
g62
(dp2146
sg71
g2131
sg64
(lp2147
g57
(g58
g59
NtRp2148
(dp2149
g62
(dp2150
g70
I5
ssg71
g2144
sg64
(lp2151
S'datetime.datetime(2012, 7, 31, 9, 45, 36, 717000)'
p2152
asbasbasbag57
(g73
g59
NtRp2153
(dp2154
g62
(dp2155
sg71
g67
sg64
(lp2156
g57
(g78
g59
NtRp2157
(dp2158
g62
(dp2159
g82
g83
ssg71
g2153
sg64
(lp2160
S'post_vars'
p2161
asbag57
(g78
g59
NtRp2162
(dp2163
g62
(dp2164
g89
g90
ssg71
g2153
sg64
(lp2165
S':'
asbag57
(g78
g59
NtRp2166
(dp2167
g62
(dp2168
sg71
g2153
sg64
(lp2169
g57
(g58
g59
NtRp2170
(dp2171
g62
(dp2172
g70
I5
ssg71
g2166
sg64
(lp2173
g57
(g66
g59
NtRp2174
(dp2175
g62
(dp2176
g70
I4
ssg71
Nsg64
(lp2177
sbasbasbasbag57
(g73
g59
NtRp2178
(dp2179
g62
(dp2180
sg71
g67
sg64
(lp2181
g57
(g78
g59
NtRp2182
(dp2183
g62
(dp2184
g82
g83
ssg71
g2178
sg64
(lp2185
S'raw_args'
p2186
asbag57
(g78
g59
NtRp2187
(dp2188
g62
(dp2189
g89
g90
ssg71
g2178
sg64
(lp2190
S':'
asbag57
(g78
g59
NtRp2191
(dp2192
g62
(dp2193
sg71
g2178
sg64
(lp2194
g57
(g58
g59
NtRp2195
(dp2196
g62
(dp2197
g70
I5
ssg71
g2191
sg64
(lp2198
S'json/get_class_detail'
p2199
asbasbasbag57
(g73
g59
NtRp2200
(dp2201
g62
(dp2202
sg71
g67
sg64
(lp2203
g57
(g78
g59
NtRp2204
(dp2205
g62
(dp2206
g82
g83
ssg71
g2200
sg64
(lp2207
S'url'
p2208
asbag57
(g78
g59
NtRp2209
(dp2210
g62
(dp2211
g89
g90
ssg71
g2200
sg64
(lp2212
S':'
asbag57
(g78
g59
NtRp2213
(dp2214
g62
(dp2215
sg71
g2200
sg64
(lp2216
g57
(g58
g59
NtRp2217
(dp2218
g62
(dp2219
g70
I5
ssg71
g2213
sg64
(lp2220
S'/igor/class_subject/call/json/get_class_detail'
p2221
asbasbasbag57
(g73
g59
NtRp2222
(dp2223
g62
(dp2224
sg71
g67
sg64
(lp2225
g57
(g78
g59
NtRp2226
(dp2227
g62
(dp2228
g82
g83
ssg71
g2222
sg64
(lp2229
S'utcnow'
p2230
asbag57
(g78
g59
NtRp2231
(dp2232
g62
(dp2233
g89
g90
ssg71
g2222
sg64
(lp2234
S':'
asbag57
(g78
g59
NtRp2235
(dp2236
g62
(dp2237
sg71
g2222
sg64
(lp2238
g57
(g58
g59
NtRp2239
(dp2240
g62
(dp2241
g70
I5
ssg71
g2235
sg64
(lp2242
S'datetime.datetime(2012, 7, 31, 2, 45, 36, 717000)'
p2243
asbasbasbag57
(g73
g59
NtRp2244
(dp2245
g62
(dp2246
sg71
g67
sg64
(lp2247
g57
(g78
g59
NtRp2248
(dp2249
g62
(dp2250
g82
g83
ssg71
g2244
sg64
(lp2251
S'uuid'
p2252
asbag57
(g78
g59
NtRp2253
(dp2254
g62
(dp2255
g89
g90
ssg71
g2244
sg64
(lp2256
S':'
asbag57
(g78
g59
NtRp2257
(dp2258
g62
(dp2259
sg71
g2244
sg64
(lp2260
g57
(g58
g59
NtRp2261
(dp2262
g62
(dp2263
g70
I5
ssg71
g2257
sg64
(lp2264
S'igor/127.0.0.1.2012-07-31.09-45-36.e6d51e23-9765-4a88-a1af-ba08eff9176d'
p2265
asbasbasbag57
(g73
g59
NtRp2266
(dp2267
g62
(dp2268
sg71
g67
sg64
(lp2269
g57
(g78
g59
NtRp2270
(dp2271
g62
(dp2272
g82
g83
ssg71
g2266
sg64
(lp2273
S'vars'
p2274
asbag57
(g78
g59
NtRp2275
(dp2276
g62
(dp2277
g89
g90
ssg71
g2266
sg64
(lp2278
S':'
asbag57
(g78
g59
NtRp2279
(dp2280
g62
(dp2281
sg71
g2266
sg64
(lp2282
g57
(g58
g59
NtRp2283
(dp2284
g62
(dp2285
g70
I5
ssg71
g2279
sg64
(lp2286
g57
(g66
g59
NtRp2287
(dp2288
g62
(dp2289
g70
I4
ssg71
Nsg64
(lp2290
g57
(g73
g59
NtRp2291
(dp2292
g62
(dp2293
sg71
g2287
sg64
(lp2294
g57
(g78
g59
NtRp2295
(dp2296
g62
(dp2297
g82
g83
ssg71
g2291
sg64
(lp2298
g1725
asbag57
(g78
g59
NtRp2299
(dp2300
g62
(dp2301
g89
g90
ssg71
g2291
sg64
(lp2302
S':'
asbag57
(g78
g59
NtRp2303
(dp2304
g62
(dp2305
sg71
g2291
sg64
(lp2306
g57
(g58
g59
NtRp2307
(dp2308
g62
(dp2309
g70
I4
ssg71
g2303
sg64
(lp2310
S'8'
asbasbasbasbasbasbasbag57
(g73
g59
NtRp2311
(dp2312
g62
(dp2313
sg71
g67
sg64
(lp2314
g57
(g78
g59
NtRp2315
(dp2316
g62
(dp2317
g82
g83
ssg71
g2311
sg64
(lp2318
S'wsgi'
p2319
asbag57
(g78
g59
NtRp2320
(dp2321
g62
(dp2322
g89
g90
ssg71
g2311
sg64
(lp2323
S':'
asbag57
(g78
g59
NtRp2324
(dp2325
g62
(dp2326
sg71
g2311
sg64
(lp2327
g57
(g58
g59
NtRp2328
(dp2329
g62
(dp2330
g70
I5
ssg71
g2324
sg64
(lp2331
g57
(g66
g59
NtRp2332
(dp2333
g62
(dp2334
g70
I4
ssg71
Nsg64
(lp2335
g57
(g73
g59
NtRp2336
(dp2337
g62
(dp2338
sg71
g2332
sg64
(lp2339
g57
(g78
g59
NtRp2340
(dp2341
g62
(dp2342
g82
g83
ssg71
g2336
sg64
(lp2343
S'environ'
p2344
asbag57
(g78
g59
NtRp2345
(dp2346
g62
(dp2347
g89
g90
ssg71
g2336
sg64
(lp2348
S':'
asbag57
(g78
g59
NtRp2349
(dp2350
g62
(dp2351
sg71
g2336
sg64
(lp2352
g57
(g58
g59
NtRp2353
(dp2354
g62
(dp2355
g70
I4
ssg71
g2349
sg64
(lp2356
g57
(g66
g59
NtRp2357
(dp2358
g62
(dp2359
g70
I3
ssg71
Nsg64
(lp2360
g57
(g73
g59
NtRp2361
(dp2362
g62
(dp2363
sg71
g2357
sg64
(lp2364
g57
(g78
g59
NtRp2365
(dp2366
g62
(dp2367
g82
g83
ssg71
g2361
sg64
(lp2368
S'HTTP_ACCEPT'
p2369
asbag57
(g78
g59
NtRp2370
(dp2371
g62
(dp2372
g89
g90
ssg71
g2361
sg64
(lp2373
S':'
asbag57
(g78
g59
NtRp2374
(dp2375
g62
(dp2376
sg71
g2361
sg64
(lp2377
g57
(g58
g59
NtRp2378
(dp2379
g62
(dp2380
g70
I3
ssg71
g2374
sg64
(lp2381
g857
asbasbasbag57
(g73
g59
NtRp2382
(dp2383
g62
(dp2384
sg71
g2357
sg64
(lp2385
g57
(g78
g59
NtRp2386
(dp2387
g62
(dp2388
g82
g83
ssg71
g2382
sg64
(lp2389
S'HTTP_ACCEPT_CHARSET'
p2390
asbag57
(g78
g59
NtRp2391
(dp2392
g62
(dp2393
g89
g90
ssg71
g2382
sg64
(lp2394
S':'
asbag57
(g78
g59
NtRp2395
(dp2396
g62
(dp2397
sg71
g2382
sg64
(lp2398
g57
(g58
g59
NtRp2399
(dp2400
g62
(dp2401
g70
I3
ssg71
g2395
sg64
(lp2402
g879
asbasbasbag57
(g73
g59
NtRp2403
(dp2404
g62
(dp2405
sg71
g2357
sg64
(lp2406
g57
(g78
g59
NtRp2407
(dp2408
g62
(dp2409
g82
g83
ssg71
g2403
sg64
(lp2410
S'HTTP_ACCEPT_ENCODING'
p2411
asbag57
(g78
g59
NtRp2412
(dp2413
g62
(dp2414
g89
g90
ssg71
g2403
sg64
(lp2415
S':'
asbag57
(g78
g59
NtRp2416
(dp2417
g62
(dp2418
sg71
g2403
sg64
(lp2419
g57
(g58
g59
NtRp2420
(dp2421
g62
(dp2422
g70
I3
ssg71
g2416
sg64
(lp2423
g901
asbasbasbag57
(g73
g59
NtRp2424
(dp2425
g62
(dp2426
sg71
g2357
sg64
(lp2427
g57
(g78
g59
NtRp2428
(dp2429
g62
(dp2430
g82
g83
ssg71
g2424
sg64
(lp2431
S'HTTP_ACCEPT_LANGUAGE'
p2432
asbag57
(g78
g59
NtRp2433
(dp2434
g62
(dp2435
g89
g90
ssg71
g2424
sg64
(lp2436
S':'
asbag57
(g78
g59
NtRp2437
(dp2438
g62
(dp2439
sg71
g2424
sg64
(lp2440
g57
(g58
g59
NtRp2441
(dp2442
g62
(dp2443
g70
I3
ssg71
g2437
sg64
(lp2444
g923
asbasbasbag57
(g73
g59
NtRp2445
(dp2446
g62
(dp2447
sg71
g2357
sg64
(lp2448
g57
(g78
g59
NtRp2449
(dp2450
g62
(dp2451
g82
g83
ssg71
g2445
sg64
(lp2452
S'HTTP_CACHE_CONTROL'
p2453
asbag57
(g78
g59
NtRp2454
(dp2455
g62
(dp2456
g89
g90
ssg71
g2445
sg64
(lp2457
S':'
asbag57
(g78
g59
NtRp2458
(dp2459
g62
(dp2460
sg71
g2445
sg64
(lp2461
g57
(g58
g59
NtRp2462
(dp2463
g62
(dp2464
g70
I3
ssg71
g2458
sg64
(lp2465
g945
asbasbasbag57
(g73
g59
NtRp2466
(dp2467
g62
(dp2468
sg71
g2357
sg64
(lp2469
g57
(g78
g59
NtRp2470
(dp2471
g62
(dp2472
g82
g83
ssg71
g2466
sg64
(lp2473
S'HTTP_CONNECTION'
p2474
asbag57
(g78
g59
NtRp2475
(dp2476
g62
(dp2477
g89
g90
ssg71
g2466
sg64
(lp2478
S':'
asbag57
(g78
g59
NtRp2479
(dp2480
g62
(dp2481
sg71
g2466
sg64
(lp2482
g57
(g58
g59
NtRp2483
(dp2484
g62
(dp2485
g70
I3
ssg71
g2479
sg64
(lp2486
g967
asbasbasbag57
(g73
g59
NtRp2487
(dp2488
g62
(dp2489
sg71
g2357
sg64
(lp2490
g57
(g78
g59
NtRp2491
(dp2492
g62
(dp2493
g82
g83
ssg71
g2487
sg64
(lp2494
S'HTTP_COOKIE'
p2495
asbag57
(g78
g59
NtRp2496
(dp2497
g62
(dp2498
g89
g90
ssg71
g2487
sg64
(lp2499
S':'
asbag57
(g78
g59
NtRp2500
(dp2501
g62
(dp2502
sg71
g2487
sg64
(lp2503
g57
(g58
g59
NtRp2504
(dp2505
g62
(dp2506
g70
I3
ssg71
g2500
sg64
(lp2507
g989
asbasbasbag57
(g73
g59
NtRp2508
(dp2509
g62
(dp2510
sg71
g2357
sg64
(lp2511
g57
(g78
g59
NtRp2512
(dp2513
g62
(dp2514
g82
g83
ssg71
g2508
sg64
(lp2515
S'HTTP_HOST'
p2516
asbag57
(g78
g59
NtRp2517
(dp2518
g62
(dp2519
g89
g90
ssg71
g2508
sg64
(lp2520
S':'
asbag57
(g78
g59
NtRp2521
(dp2522
g62
(dp2523
sg71
g2508
sg64
(lp2524
g57
(g58
g59
NtRp2525
(dp2526
g62
(dp2527
g70
I3
ssg71
g2521
sg64
(lp2528
g1011
asbasbasbag57
(g73
g59
NtRp2529
(dp2530
g62
(dp2531
sg71
g2357
sg64
(lp2532
g57
(g78
g59
NtRp2533
(dp2534
g62
(dp2535
g82
g83
ssg71
g2529
sg64
(lp2536
S'HTTP_USER_AGENT'
p2537
asbag57
(g78
g59
NtRp2538
(dp2539
g62
(dp2540
g89
g90
ssg71
g2529
sg64
(lp2541
S':'
asbag57
(g78
g59
NtRp2542
(dp2543
g62
(dp2544
sg71
g2529
sg64
(lp2545
g57
(g58
g59
NtRp2546
(dp2547
g62
(dp2548
g70
I3
ssg71
g2542
sg64
(lp2549
g1033
asbasbasbag57
(g73
g59
NtRp2550
(dp2551
g62
(dp2552
sg71
g2357
sg64
(lp2553
g57
(g78
g59
NtRp2554
(dp2555
g62
(dp2556
g82
g83
ssg71
g2550
sg64
(lp2557
S'PATH_INFO'
p2558
asbag57
(g78
g59
NtRp2559
(dp2560
g62
(dp2561
g89
g90
ssg71
g2550
sg64
(lp2562
S':'
asbag57
(g78
g59
NtRp2563
(dp2564
g62
(dp2565
sg71
g2550
sg64
(lp2566
g57
(g58
g59
NtRp2567
(dp2568
g62
(dp2569
g70
I3
ssg71
g2563
sg64
(lp2570
g1097
asbasbasbag57
(g73
g59
NtRp2571
(dp2572
g62
(dp2573
sg71
g2357
sg64
(lp2574
g57
(g78
g59
NtRp2575
(dp2576
g62
(dp2577
g82
g83
ssg71
g2571
sg64
(lp2578
S'QUERY_STRING'
p2579
asbag57
(g78
g59
NtRp2580
(dp2581
g62
(dp2582
g89
g90
ssg71
g2571
sg64
(lp2583
S':'
asbag57
(g78
g59
NtRp2584
(dp2585
g62
(dp2586
sg71
g2571
sg64
(lp2587
g57
(g58
g59
NtRp2588
(dp2589
g62
(dp2590
g70
I3
ssg71
g2584
sg64
(lp2591
g1119
asbasbasbag57
(g73
g59
NtRp2592
(dp2593
g62
(dp2594
sg71
g2357
sg64
(lp2595
g57
(g78
g59
NtRp2596
(dp2597
g62
(dp2598
g82
g83
ssg71
g2592
sg64
(lp2599
S'REMOTE_ADDR'
p2600
asbag57
(g78
g59
NtRp2601
(dp2602
g62
(dp2603
g89
g90
ssg71
g2592
sg64
(lp2604
S':'
asbag57
(g78
g59
NtRp2605
(dp2606
g62
(dp2607
sg71
g2592
sg64
(lp2608
g57
(g58
g59
NtRp2609
(dp2610
g62
(dp2611
g70
I3
ssg71
g2605
sg64
(lp2612
g216
asbasbasbag57
(g73
g59
NtRp2613
(dp2614
g62
(dp2615
sg71
g2357
sg64
(lp2616
g57
(g78
g59
NtRp2617
(dp2618
g62
(dp2619
g82
g83
ssg71
g2613
sg64
(lp2620
S'REMOTE_PORT'
p2621
asbag57
(g78
g59
NtRp2622
(dp2623
g62
(dp2624
g89
g90
ssg71
g2613
sg64
(lp2625
S':'
asbag57
(g78
g59
NtRp2626
(dp2627
g62
(dp2628
sg71
g2613
sg64
(lp2629
g57
(g58
g59
NtRp2630
(dp2631
g62
(dp2632
g70
I3
ssg71
g2626
sg64
(lp2633
g1162
asbasbasbag57
(g73
g59
NtRp2634
(dp2635
g62
(dp2636
sg71
g2357
sg64
(lp2637
g57
(g78
g59
NtRp2638
(dp2639
g62
(dp2640
g82
g83
ssg71
g2634
sg64
(lp2641
S'REQUEST_METHOD'
p2642
asbag57
(g78
g59
NtRp2643
(dp2644
g62
(dp2645
g89
g90
ssg71
g2634
sg64
(lp2646
S':'
asbag57
(g78
g59
NtRp2647
(dp2648
g62
(dp2649
sg71
g2634
sg64
(lp2650
g57
(g58
g59
NtRp2651
(dp2652
g62
(dp2653
g70
I3
ssg71
g2647
sg64
(lp2654
g1184
asbasbasbag57
(g73
g59
NtRp2655
(dp2656
g62
(dp2657
sg71
g2357
sg64
(lp2658
g57
(g78
g59
NtRp2659
(dp2660
g62
(dp2661
g82
g83
ssg71
g2655
sg64
(lp2662
S'SCRIPT_NAME'
p2663
asbag57
(g78
g59
NtRp2664
(dp2665
g62
(dp2666
g89
g90
ssg71
g2655
sg64
(lp2667
S':'
asbag57
(g78
g59
NtRp2668
(dp2669
g62
(dp2670
sg71
g2655
sg64
(lp2671
g57
(g58
g59
NtRp2672
(dp2673
g62
(dp2674
g70
I3
ssg71
g2668
sg64
(lp2675
S''
asbasbasbag57
(g73
g59
NtRp2676
(dp2677
g62
(dp2678
sg71
g2357
sg64
(lp2679
g57
(g78
g59
NtRp2680
(dp2681
g62
(dp2682
g82
g83
ssg71
g2676
sg64
(lp2683
S'SERVER_NAME'
p2684
asbag57
(g78
g59
NtRp2685
(dp2686
g62
(dp2687
g89
g90
ssg71
g2676
sg64
(lp2688
S':'
asbag57
(g78
g59
NtRp2689
(dp2690
g62
(dp2691
sg71
g2676
sg64
(lp2692
g57
(g58
g59
NtRp2693
(dp2694
g62
(dp2695
g70
I3
ssg71
g2689
sg64
(lp2696
g1227
asbasbasbag57
(g73
g59
NtRp2697
(dp2698
g62
(dp2699
sg71
g2357
sg64
(lp2700
g57
(g78
g59
NtRp2701
(dp2702
g62
(dp2703
g82
g83
ssg71
g2697
sg64
(lp2704
S'SERVER_PORT'
p2705
asbag57
(g78
g59
NtRp2706
(dp2707
g62
(dp2708
g89
g90
ssg71
g2697
sg64
(lp2709
S':'
asbag57
(g78
g59
NtRp2710
(dp2711
g62
(dp2712
sg71
g2697
sg64
(lp2713
g57
(g58
g59
NtRp2714
(dp2715
g62
(dp2716
g70
I3
ssg71
g2710
sg64
(lp2717
g1249
asbasbasbag57
(g73
g59
NtRp2718
(dp2719
g62
(dp2720
sg71
g2357
sg64
(lp2721
g57
(g78
g59
NtRp2722
(dp2723
g62
(dp2724
g82
g83
ssg71
g2718
sg64
(lp2725
S'SERVER_PROTOCOL'
p2726
asbag57
(g78
g59
NtRp2727
(dp2728
g62
(dp2729
g89
g90
ssg71
g2718
sg64
(lp2730
S':'
asbag57
(g78
g59
NtRp2731
(dp2732
g62
(dp2733
sg71
g2718
sg64
(lp2734
g57
(g58
g59
NtRp2735
(dp2736
g62
(dp2737
g70
I3
ssg71
g2731
sg64
(lp2738
g1271
asbasbasbag57
(g73
g59
NtRp2739
(dp2740
g62
(dp2741
sg71
g2357
sg64
(lp2742
g57
(g78
g59
NtRp2743
(dp2744
g62
(dp2745
g82
g83
ssg71
g2739
sg64
(lp2746
S'SERVER_SOFTWARE'
p2747
asbag57
(g78
g59
NtRp2748
(dp2749
g62
(dp2750
g89
g90
ssg71
g2739
sg64
(lp2751
S':'
asbag57
(g78
g59
NtRp2752
(dp2753
g62
(dp2754
sg71
g2739
sg64
(lp2755
g57
(g58
g59
NtRp2756
(dp2757
g62
(dp2758
g70
I3
ssg71
g2752
sg64
(lp2759
g1293
asbasbasbag57
(g73
g59
NtRp2760
(dp2761
g62
(dp2762
sg71
g2357
sg64
(lp2763
g57
(g78
g59
NtRp2764
(dp2765
g62
(dp2766
g82
g83
ssg71
g2760
sg64
(lp2767
S'wsgi.errors'
p2768
asbag57
(g78
g59
NtRp2769
(dp2770
g62
(dp2771
g89
g90
ssg71
g2760
sg64
(lp2772
S':'
asbag57
(g78
g59
NtRp2773
(dp2774
g62
(dp2775
sg71
g2760
sg64
(lp2776
g57
(g58
g59
NtRp2777
(dp2778
g62
(dp2779
g70
I3
ssg71
g2773
sg64
(lp2780
S"<open file '<stderr>', mode 'w' at 0x0000000001D0E1E0>"
p2781
asbasbasbag57
(g73
g59
NtRp2782
(dp2783
g62
(dp2784
sg71
g2357
sg64
(lp2785
g57
(g78
g59
NtRp2786
(dp2787
g62
(dp2788
g82
g83
ssg71
g2782
sg64
(lp2789
S'wsgi.file_wrapper'
p2790
asbag57
(g78
g59
NtRp2791
(dp2792
g62
(dp2793
g89
g90
ssg71
g2782
sg64
(lp2794
S':'
asbag57
(g78
g59
NtRp2795
(dp2796
g62
(dp2797
sg71
g2782
sg64
(lp2798
g57
(g58
g59
NtRp2799
(dp2800
g62
(dp2801
g70
I3
ssg71
g2795
sg64
(lp2802
S'<class wsgiref.util.FileWrapper at 0x00000000037FCAC8>'
p2803
asbasbasbag57
(g73
g59
NtRp2804
(dp2805
g62
(dp2806
sg71
g2357
sg64
(lp2807
g57
(g78
g59
NtRp2808
(dp2809
g62
(dp2810
g82
g83
ssg71
g2804
sg64
(lp2811
S'wsgi.input'
p2812
asbag57
(g78
g59
NtRp2813
(dp2814
g62
(dp2815
g89
g90
ssg71
g2804
sg64
(lp2816
S':'
asbag57
(g78
g59
NtRp2817
(dp2818
g62
(dp2819
sg71
g2804
sg64
(lp2820
g57
(g58
g59
NtRp2821
(dp2822
g62
(dp2823
g70
I3
ssg71
g2817
sg64
(lp2824
S'<cStringIO.StringO object at 0x0000000004FB4C00>'
p2825
asbasbasbag57
(g73
g59
NtRp2826
(dp2827
g62
(dp2828
sg71
g2357
sg64
(lp2829
g57
(g78
g59
NtRp2830
(dp2831
g62
(dp2832
g82
g83
ssg71
g2826
sg64
(lp2833
S'wsgi.multiprocess'
p2834
asbag57
(g78
g59
NtRp2835
(dp2836
g62
(dp2837
g89
g90
ssg71
g2826
sg64
(lp2838
S':'
asbag57
(g78
g59
NtRp2839
(dp2840
g62
(dp2841
sg71
g2826
sg64
(lp2842
g57
(g58
g59
NtRp2843
(dp2844
g62
(dp2845
g70
I3
ssg71
g2839
sg64
(lp2846
g100
asbasbasbag57
(g73
g59
NtRp2847
(dp2848
g62
(dp2849
sg71
g2357
sg64
(lp2850
g57
(g78
g59
NtRp2851
(dp2852
g62
(dp2853
g82
g83
ssg71
g2847
sg64
(lp2854
S'wsgi.multithread'
p2855
asbag57
(g78
g59
NtRp2856
(dp2857
g62
(dp2858
g89
g90
ssg71
g2847
sg64
(lp2859
S':'
asbag57
(g78
g59
NtRp2860
(dp2861
g62
(dp2862
sg71
g2847
sg64
(lp2863
g57
(g58
g59
NtRp2864
(dp2865
g62
(dp2866
g70
I3
ssg71
g2860
sg64
(lp2867
g1533
asbasbasbag57
(g73
g59
NtRp2868
(dp2869
g62
(dp2870
sg71
g2357
sg64
(lp2871
g57
(g78
g59
NtRp2872
(dp2873
g62
(dp2874
g82
g83
ssg71
g2868
sg64
(lp2875
S'wsgi.run_once'
p2876
asbag57
(g78
g59
NtRp2877
(dp2878
g62
(dp2879
g89
g90
ssg71
g2868
sg64
(lp2880
S':'
asbag57
(g78
g59
NtRp2881
(dp2882
g62
(dp2883
sg71
g2868
sg64
(lp2884
g57
(g58
g59
NtRp2885
(dp2886
g62
(dp2887
g70
I3
ssg71
g2881
sg64
(lp2888
g100
asbasbasbag57
(g73
g59
NtRp2889
(dp2890
g62
(dp2891
sg71
g2357
sg64
(lp2892
g57
(g78
g59
NtRp2893
(dp2894
g62
(dp2895
g82
g83
ssg71
g2889
sg64
(lp2896
S'wsgi.url_scheme'
p2897
asbag57
(g78
g59
NtRp2898
(dp2899
g62
(dp2900
g89
g90
ssg71
g2889
sg64
(lp2901
S':'
asbag57
(g78
g59
NtRp2902
(dp2903
g62
(dp2904
sg71
g2889
sg64
(lp2905
g57
(g58
g59
NtRp2906
(dp2907
g62
(dp2908
g70
I3
ssg71
g2902
sg64
(lp2909
g1576
asbasbasbag57
(g73
g59
NtRp2910
(dp2911
g62
(dp2912
sg71
g2357
sg64
(lp2913
g57
(g78
g59
NtRp2914
(dp2915
g62
(dp2916
g82
g83
ssg71
g2910
sg64
(lp2917
S'wsgi.version'
p2918
asbag57
(g78
g59
NtRp2919
(dp2920
g62
(dp2921
g89
g90
ssg71
g2910
sg64
(lp2922
S':'
asbag57
(g78
g59
NtRp2923
(dp2924
g62
(dp2925
sg71
g2910
sg64
(lp2926
g57
(g58
g59
NtRp2927
(dp2928
g62
(dp2929
g70
I3
ssg71
g2923
sg64
(lp2930
S'1'
asbasbasbasbasbasbasbasbasbasbasbasbasbsS'frames'
p2931
(lp2932
(dp2933
S'file'
p2934
S'D:\\workspace\\CA\\IgoR\\C_Sources\\Server\\igor-assistant-ca-2012\\gluon\\restricted.py'
p2935
sS'dump'
p2936
(dp2937
S'environment'
p2938
S"{'A': <class 'gluon.html.A'>, 'Auth': <class 'gluon.tools.Auth'>, 'B': <class 'gluon.html.B'>, 'BEAUTIFY': <class 'gluon.html.BEAUTIFY'>, 'BODY': <class 'gluon.html.BODY'>, 'BR': <class 'gluon.html.BR'>, 'BUTTON': <class 'gluon.html.BUTTON'>, 'CAT': <class 'gluon.html.CAT'>, 'CENTER': <class 'gluon.html.CENTER'>, 'CLEANUP': <class 'gluon.validators.CLEANUP'>, ...}"
p2939
sS'ccode'
p2940
S'<code object <module> at 0000000004EC0230, file ...tions\\igor\\controllers/class_subject.py", line 9>'
p2941
ssS'lnum'
p2942
I205
sS'lines'
p2943
(dp2944
I200
S'    try:'
p2945
sI201
S'        if type(code) == types.CodeType:'
p2946
sI202
S'            ccode = code'
p2947
sI203
S'        else:'
p2948
sI204
S'            ccode = compile2(code,layer)'
p2949
sI205
S'        exec ccode in environment'
p2950
sI206
S'    except HTTP:'
p2951
sI207
S'        raise'
p2952
sI208
S'    except RestrictedError:'
p2953
sI209
S'        # do not encapsulate (obfuscate) the original RestrictedError'
p2954
ssS'call'
p2955
S"(code='# -*- coding: utf-8 -*-\\n# this file is released ...urn client\\nresponse._vars=response._caller(call)\\n', environment={'A': <class 'gluon.html.A'>, 'Auth': <class 'gluon.tools.Auth'>, 'B': <class 'gluon.html.B'>, 'BEAUTIFY': <class 'gluon.html.BEAUTIFY'>, 'BODY': <class 'gluon.html.BODY'>, 'BR': <class 'gluon.html.BR'>, 'BUTTON': <class 'gluon.html.BUTTON'>, 'CAT': <class 'gluon.html.CAT'>, 'CENTER': <class 'gluon.html.CENTER'>, 'CLEANUP': <class 'gluon.validators.CLEANUP'>, ...}, layer=r'D:\\workspace\\CA\\IgoR\\C_Sources\\Server\\igor-assis...12\\applications\\igor\\controllers/class_subject.py')"
p2956
sS'func'
p2957
S'restricted'
p2958
sa(dp2959
g2934
S'D:\\workspace\\CA\\IgoR\\C_Sources\\Server\\igor-assistant-ca-2012\\applications\\igor\\controllers\\class_subject.py'
p2960
sg2936
(dp2961
S'service.jsonp'
p2962
S'<bound method Service.jsonp of <gluon.tools.Service object>>'
p2963
sS'service'
p2964
S'<gluon.tools.Service object>'
p2965
ssg2942
I84
sg2943
(dp2966
I79
S'\treturn service()'
p2967
sI80
S''
sI81
S'import gluon.contenttype'
p2968
sI82
S''
sI83
S'@service.json'
p2969
sI84
S'@service.jsonp'
p2970
sI85
S'def get_class_detail(id):'
p2971
sI86
S"\t# response.view = 'generic.jsonp'"
p2972
sI87
S"\t# response.headers['Content-Type'] = gluon.contenttype.contenttype('.js')"
p2973
sI88
S''
ssg2955
S'()'
p2974
sg2957
S'<module>'
p2975
sa(dp2976
g2934
S'D:\\workspace\\CA\\IgoR\\C_Sources\\Server\\igor-assistant-ca-2012\\gluon\\tools.py'
p2977
sg2936
(dp2978
S'f.__name__'
p2979
S'undefined'
p2980
sS'self'
p2981
S'<gluon.tools.Service object>'
p2982
sS'f'
S'None'
p2983
sS'self.json_procedures'
p2984
g43
ssg2942
I3609
sg2943
(dp2985
I3604
S'        Then call it with:'
p2986
sI3605
S''
sI3606
S'            wget http://..../app/default/call/json/myfunction?a=hello&b=world'
p2987
sI3607
S''
sI3608
S'        """'
p2988
sI3609
S'        self.json_procedures[f.__name__] = f'
p2989
sI3610
S'        return f'
p2990
sI3611
S''
sI3612
S'    # phucnh add 20120730'
p2991
sI3613
S'    def jsonp(self, f):'
p2992
ssg2955
S'(self=<gluon.tools.Service object>, f=None)'
p2993
sg2957
S'json'
p2994
sasS'pyver'
p2995
S'Python 2.7.3: C:\\Python27\\python.exe'
p2996
sS'session'
p2997
g57
(g58
g59
NtRp2998
(dp2999
g62
(dp3000
sg64
(lp3001
g57
(g66
g59
NtRp3002
(dp3003
g62
(dp3004
g70
I5
ssg71
Nsg64
(lp3005
sbasbsS'etype'
p3006
S"<type 'exceptions.AttributeError'>"
p3007
sS'date'
p3008
S'Tue Jul 31 09:45:36 2012'
p3009
sS'response'
p3010
g57
(g58
g59
NtRp3011
(dp3012
g62
(dp3013
sg64
(lp3014
g57
(g66
g59
NtRp3015
(dp3016
g62
(dp3017
g70
I5
ssg71
Nsg64
(lp3018
g57
(g73
g59
NtRp3019
(dp3020
g62
(dp3021
sg71
g3015
sg64
(lp3022
g57
(g78
g59
NtRp3023
(dp3024
g62
(dp3025
g82
g83
ssg71
g3019
sg64
(lp3026
g181
asbag57
(g78
g59
NtRp3027
(dp3028
g62
(dp3029
g89
g90
ssg71
g3019
sg64
(lp3030
S':'
asbag57
(g78
g59
NtRp3031
(dp3032
g62
(dp3033
sg71
g3019
sg64
(lp3034
g57
(g58
g59
NtRp3035
(dp3036
g62
(dp3037
g70
I5
ssg71
g3031
sg64
(lp3038
S'<cStringIO.StringO object at 0x0000000004EB5880>'
p3039
asbasbasbag57
(g73
g59
NtRp3040
(dp3041
g62
(dp3042
sg71
g3015
sg64
(lp3043
g57
(g78
g59
NtRp3044
(dp3045
g62
(dp3046
g82
g83
ssg71
g3040
sg64
(lp3047
g247
asbag57
(g78
g59
NtRp3048
(dp3049
g62
(dp3050
g89
g90
ssg71
g3040
sg64
(lp3051
S':'
asbag57
(g78
g59
NtRp3052
(dp3053
g62
(dp3054
sg71
g3040
sg64
(lp3055
g57
(g58
g59
NtRp3056
(dp3057
g62
(dp3058
g70
I5
ssg71
g3052
sg64
(lp3059
g57
(g66
g59
NtRp3060
(dp3061
g62
(dp3062
g70
I4
ssg71
Nsg64
(lp3063
g57
(g73
g59
NtRp3064
(dp3065
g62
(dp3066
sg71
g3060
sg64
(lp3067
g57
(g78
g59
NtRp3068
(dp3069
g62
(dp3070
g82
g83
ssg71
g3064
sg64
(lp3071
S'session_id_igor'
p3072
asbag57
(g78
g59
NtRp3073
(dp3074
g62
(dp3075
g89
g90
ssg71
g3064
sg64
(lp3076
S':'
asbag57
(g78
g59
NtRp3077
(dp3078
g62
(dp3079
sg71
g3064
sg64
(lp3080
g57
(g58
g59
NtRp3081
(dp3082
g62
(dp3083
g70
I4
ssg71
g3077
sg64
(lp3084
g57
(g66
g59
NtRp3085
(dp3086
g62
(dp3087
g70
I3
ssg71
Nsg64
(lp3088
g57
(g73
g59
NtRp3089
(dp3090
g62
(dp3091
sg71
g3085
sg64
(lp3092
g57
(g78
g59
NtRp3093
(dp3094
g62
(dp3095
g82
g83
ssg71
g3089
sg64
(lp3096
g297
asbag57
(g78
g59
NtRp3097
(dp3098
g62
(dp3099
g89
g90
ssg71
g3089
sg64
(lp3100
S':'
asbag57
(g78
g59
NtRp3101
(dp3102
g62
(dp3103
sg71
g3089
sg64
(lp3104
g57
(g58
g59
NtRp3105
(dp3106
g62
(dp3107
g70
I3
ssg71
g3101
sg64
(lp3108
S''
asbasbasbag57
(g73
g59
NtRp3109
(dp3110
g62
(dp3111
sg71
g3085
sg64
(lp3112
g57
(g78
g59
NtRp3113
(dp3114
g62
(dp3115
g82
g83
ssg71
g3109
sg64
(lp3116
g318
asbag57
(g78
g59
NtRp3117
(dp3118
g62
(dp3119
g89
g90
ssg71
g3109
sg64
(lp3120
S':'
asbag57
(g78
g59
NtRp3121
(dp3122
g62
(dp3123
sg71
g3109
sg64
(lp3124
g57
(g58
g59
NtRp3125
(dp3126
g62
(dp3127
g70
I3
ssg71
g3121
sg64
(lp3128
S''
asbasbasbag57
(g73
g59
NtRp3129
(dp3130
g62
(dp3131
sg71
g3085
sg64
(lp3132
g57
(g78
g59
NtRp3133
(dp3134
g62
(dp3135
g82
g83
ssg71
g3129
sg64
(lp3136
g339
asbag57
(g78
g59
NtRp3137
(dp3138
g62
(dp3139
g89
g90
ssg71
g3129
sg64
(lp3140
S':'
asbag57
(g78
g59
NtRp3141
(dp3142
g62
(dp3143
sg71
g3129
sg64
(lp3144
g57
(g58
g59
NtRp3145
(dp3146
g62
(dp3147
g70
I3
ssg71
g3141
sg64
(lp3148
S''
asbasbasbag57
(g73
g59
NtRp3149
(dp3150
g62
(dp3151
sg71
g3085
sg64
(lp3152
g57
(g78
g59
NtRp3153
(dp3154
g62
(dp3155
g82
g83
ssg71
g3149
sg64
(lp3156
g360
asbag57
(g78
g59
NtRp3157
(dp3158
g62
(dp3159
g89
g90
ssg71
g3149
sg64
(lp3160
S':'
asbag57
(g78
g59
NtRp3161
(dp3162
g62
(dp3163
sg71
g3149
sg64
(lp3164
g57
(g58
g59
NtRp3165
(dp3166
g62
(dp3167
g70
I3
ssg71
g3161
sg64
(lp3168
S''
asbasbasbag57
(g73
g59
NtRp3169
(dp3170
g62
(dp3171
sg71
g3085
sg64
(lp3172
g57
(g78
g59
NtRp3173
(dp3174
g62
(dp3175
g82
g83
ssg71
g3169
sg64
(lp3176
g381
asbag57
(g78
g59
NtRp3177
(dp3178
g62
(dp3179
g89
g90
ssg71
g3169
sg64
(lp3180
S':'
asbag57
(g78
g59
NtRp3181
(dp3182
g62
(dp3183
sg71
g3169
sg64
(lp3184
g57
(g58
g59
NtRp3185
(dp3186
g62
(dp3187
g70
I3
ssg71
g3181
sg64
(lp3188
S''
asbasbasbag57
(g73
g59
NtRp3189
(dp3190
g62
(dp3191
sg71
g3085
sg64
(lp3192
g57
(g78
g59
NtRp3193
(dp3194
g62
(dp3195
g82
g83
ssg71
g3189
sg64
(lp3196
g402
asbag57
(g78
g59
NtRp3197
(dp3198
g62
(dp3199
g89
g90
ssg71
g3189
sg64
(lp3200
S':'
asbag57
(g78
g59
NtRp3201
(dp3202
g62
(dp3203
sg71
g3189
sg64
(lp3204
g57
(g58
g59
NtRp3205
(dp3206
g62
(dp3207
g70
I3
ssg71
g3201
sg64
(lp3208
S'/'
asbasbasbag57
(g73
g59
NtRp3209
(dp3210
g62
(dp3211
sg71
g3085
sg64
(lp3212
g57
(g78
g59
NtRp3213
(dp3214
g62
(dp3215
g82
g83
ssg71
g3209
sg64
(lp3216
g423
asbag57
(g78
g59
NtRp3217
(dp3218
g62
(dp3219
g89
g90
ssg71
g3209
sg64
(lp3220
S':'
asbag57
(g78
g59
NtRp3221
(dp3222
g62
(dp3223
sg71
g3209
sg64
(lp3224
g57
(g58
g59
NtRp3225
(dp3226
g62
(dp3227
g70
I3
ssg71
g3221
sg64
(lp3228
S''
asbasbasbag57
(g73
g59
NtRp3229
(dp3230
g62
(dp3231
sg71
g3085
sg64
(lp3232
g57
(g78
g59
NtRp3233
(dp3234
g62
(dp3235
g82
g83
ssg71
g3229
sg64
(lp3236
g444
asbag57
(g78
g59
NtRp3237
(dp3238
g62
(dp3239
g89
g90
ssg71
g3229
sg64
(lp3240
S':'
asbag57
(g78
g59
NtRp3241
(dp3242
g62
(dp3243
sg71
g3229
sg64
(lp3244
g57
(g58
g59
NtRp3245
(dp3246
g62
(dp3247
g70
I3
ssg71
g3241
sg64
(lp3248
S''
asbasbasbasbasbasbasbasbasbasbasbag57
(g73
g59
NtRp3249
(dp3250
g62
(dp3251
sg71
g3015
sg64
(lp3252
g57
(g78
g59
NtRp3253
(dp3254
g62
(dp3255
g82
g83
ssg71
g3249
sg64
(lp3256
S'delimiters'
p3257
asbag57
(g78
g59
NtRp3258
(dp3259
g62
(dp3260
g89
g90
ssg71
g3249
sg64
(lp3261
S':'
asbag57
(g78
g59
NtRp3262
(dp3263
g62
(dp3264
sg71
g3249
sg64
(lp3265
g57
(g58
g59
NtRp3266
(dp3267
g62
(dp3268
g70
I5
ssg71
g3262
sg64
(lp3269
g57
(g66
g59
NtRp3270
(dp3271
g62
(dp3272
g70
I4
ssg71
Nsg64
(lp3273
g57
(g73
g59
NtRp3274
(dp3275
g62
(dp3276
sg71
g3270
sg64
(lp3277
g57
(g78
g59
NtRp3278
(dp3279
g62
(dp3280
sg71
g3274
sg64
(lp3281
g57
(g58
g59
NtRp3282
(dp3283
g62
(dp3284
g70
I4
ssg71
g3278
sg64
(lp3285
S'{{'
p3286
asbasbasbag57
(g73
g59
NtRp3287
(dp3288
g62
(dp3289
sg71
g3270
sg64
(lp3290
g57
(g78
g59
NtRp3291
(dp3292
g62
(dp3293
sg71
g3287
sg64
(lp3294
g57
(g58
g59
NtRp3295
(dp3296
g62
(dp3297
g70
I4
ssg71
g3291
sg64
(lp3298
S'}}'
p3299
asbasbasbasbasbasbasbag57
(g73
g59
NtRp3300
(dp3301
g62
(dp3302
sg71
g3015
sg64
(lp3303
g57
(g78
g59
NtRp3304
(dp3305
g62
(dp3306
g82
g83
ssg71
g3300
sg64
(lp3307
S'files'
p3308
asbag57
(g78
g59
NtRp3309
(dp3310
g62
(dp3311
g89
g90
ssg71
g3300
sg64
(lp3312
S':'
asbag57
(g78
g59
NtRp3313
(dp3314
g62
(dp3315
sg71
g3300
sg64
(lp3316
g57
(g58
g59
NtRp3317
(dp3318
g62
(dp3319
g70
I5
ssg71
g3313
sg64
(lp3320
g57
(g66
g59
NtRp3321
(dp3322
g62
(dp3323
g70
I4
ssg71
Nsg64
(lp3324
sbasbasbasbag57
(g73
g59
NtRp3325
(dp3326
g62
(dp3327
sg71
g3015
sg64
(lp3328
g57
(g78
g59
NtRp3329
(dp3330
g62
(dp3331
g82
g83
ssg71
g3325
sg64
(lp3332
S'flash'
p3333
asbag57
(g78
g59
NtRp3334
(dp3335
g62
(dp3336
g89
g90
ssg71
g3325
sg64
(lp3337
S':'
asbag57
(g78
g59
NtRp3338
(dp3339
g62
(dp3340
sg71
g3325
sg64
(lp3341
g57
(g58
g59
NtRp3342
(dp3343
g62
(dp3344
g70
I5
ssg71
g3338
sg64
(lp3345
S''
asbasbasbag57
(g73
g59
NtRp3346
(dp3347
g62
(dp3348
sg71
g3015
sg64
(lp3349
g57
(g78
g59
NtRp3350
(dp3351
g62
(dp3352
g82
g83
ssg71
g3346
sg64
(lp3353
S'generic_patterns'
p3354
asbag57
(g78
g59
NtRp3355
(dp3356
g62
(dp3357
g89
g90
ssg71
g3346
sg64
(lp3358
S':'
asbag57
(g78
g59
NtRp3359
(dp3360
g62
(dp3361
sg71
g3346
sg64
(lp3362
g57
(g58
g59
NtRp3363
(dp3364
g62
(dp3365
g70
I5
ssg71
g3359
sg64
(lp3366
g57
(g66
g59
NtRp3367
(dp3368
g62
(dp3369
g70
I4
ssg71
Nsg64
(lp3370
g57
(g73
g59
NtRp3371
(dp3372
g62
(dp3373
sg71
g3367
sg64
(lp3374
g57
(g78
g59
NtRp3375
(dp3376
g62
(dp3377
sg71
g3371
sg64
(lp3378
g57
(g58
g59
NtRp3379
(dp3380
g62
(dp3381
g70
I4
ssg71
g3375
sg64
(lp3382
S'*'
asbasbasbasbasbasbasbag57
(g73
g59
NtRp3383
(dp3384
g62
(dp3385
sg71
g3015
sg64
(lp3386
g57
(g78
g59
NtRp3387
(dp3388
g62
(dp3389
g82
g83
ssg71
g3383
sg64
(lp3390
S'headers'
p3391
asbag57
(g78
g59
NtRp3392
(dp3393
g62
(dp3394
g89
g90
ssg71
g3383
sg64
(lp3395
S':'
asbag57
(g78
g59
NtRp3396
(dp3397
g62
(dp3398
sg71
g3383
sg64
(lp3399
g57
(g58
g59
NtRp3400
(dp3401
g62
(dp3402
g70
I5
ssg71
g3396
sg64
(lp3403
g57
(g66
g59
NtRp3404
(dp3405
g62
(dp3406
g70
I4
ssg71
Nsg64
(lp3407
g57
(g73
g59
NtRp3408
(dp3409
g62
(dp3410
sg71
g3404
sg64
(lp3411
g57
(g78
g59
NtRp3412
(dp3413
g62
(dp3414
g82
g83
ssg71
g3408
sg64
(lp3415
S'Cache-Control'
p3416
asbag57
(g78
g59
NtRp3417
(dp3418
g62
(dp3419
g89
g90
ssg71
g3408
sg64
(lp3420
S':'
asbag57
(g78
g59
NtRp3421
(dp3422
g62
(dp3423
sg71
g3408
sg64
(lp3424
g57
(g58
g59
NtRp3425
(dp3426
g62
(dp3427
g70
I4
ssg71
g3421
sg64
(lp3428
S'no-store, no-cache, must-revalidate, post-check=0, pre-check=0'
p3429
asbasbasbag57
(g73
g59
NtRp3430
(dp3431
g62
(dp3432
sg71
g3404
sg64
(lp3433
g57
(g78
g59
NtRp3434
(dp3435
g62
(dp3436
g82
g83
ssg71
g3430
sg64
(lp3437
S'Content-Type'
p3438
asbag57
(g78
g59
NtRp3439
(dp3440
g62
(dp3441
g89
g90
ssg71
g3430
sg64
(lp3442
S':'
asbag57
(g78
g59
NtRp3443
(dp3444
g62
(dp3445
sg71
g3430
sg64
(lp3446
g57
(g58
g59
NtRp3447
(dp3448
g62
(dp3449
g70
I4
ssg71
g3443
sg64
(lp3450
S'text/html; charset=utf-8'
p3451
asbasbasbag57
(g73
g59
NtRp3452
(dp3453
g62
(dp3454
sg71
g3404
sg64
(lp3455
g57
(g78
g59
NtRp3456
(dp3457
g62
(dp3458
g82
g83
ssg71
g3452
sg64
(lp3459
S'Expires'
p3460
asbag57
(g78
g59
NtRp3461
(dp3462
g62
(dp3463
g89
g90
ssg71
g3452
sg64
(lp3464
S':'
asbag57
(g78
g59
NtRp3465
(dp3466
g62
(dp3467
sg71
g3452
sg64
(lp3468
g57
(g58
g59
NtRp3469
(dp3470
g62
(dp3471
g70
I4
ssg71
g3465
sg64
(lp3472
S'Tue, 31 Jul 2012 02:45:36 GMT'
p3473
asbasbasbag57
(g73
g59
NtRp3474
(dp3475
g62
(dp3476
sg71
g3404
sg64
(lp3477
g57
(g78
g59
NtRp3478
(dp3479
g62
(dp3480
g82
g83
ssg71
g3474
sg64
(lp3481
S'Pragma'
p3482
asbag57
(g78
g59
NtRp3483
(dp3484
g62
(dp3485
g89
g90
ssg71
g3474
sg64
(lp3486
S':'
asbag57
(g78
g59
NtRp3487
(dp3488
g62
(dp3489
sg71
g3474
sg64
(lp3490
g57
(g58
g59
NtRp3491
(dp3492
g62
(dp3493
g70
I4
ssg71
g3487
sg64
(lp3494
S'no-cache'
p3495
asbasbasbag57
(g73
g59
NtRp3496
(dp3497
g62
(dp3498
sg71
g3404
sg64
(lp3499
g57
(g78
g59
NtRp3500
(dp3501
g62
(dp3502
g82
g83
ssg71
g3496
sg64
(lp3503
S'X-Powered-By'
p3504
asbag57
(g78
g59
NtRp3505
(dp3506
g62
(dp3507
g89
g90
ssg71
g3496
sg64
(lp3508
S':'
asbag57
(g78
g59
NtRp3509
(dp3510
g62
(dp3511
sg71
g3496
sg64
(lp3512
g57
(g58
g59
NtRp3513
(dp3514
g62
(dp3515
g70
I4
ssg71
g3509
sg64
(lp3516
S'web2py'
p3517
asbasbasbasbasbasbasbag57
(g73
g59
NtRp3518
(dp3519
g62
(dp3520
sg71
g3015
sg64
(lp3521
g57
(g78
g59
NtRp3522
(dp3523
g62
(dp3524
g82
g83
ssg71
g3518
sg64
(lp3525
S'menu'
p3526
asbag57
(g78
g59
NtRp3527
(dp3528
g62
(dp3529
g89
g90
ssg71
g3518
sg64
(lp3530
S':'
asbag57
(g78
g59
NtRp3531
(dp3532
g62
(dp3533
sg71
g3518
sg64
(lp3534
g57
(g58
g59
NtRp3535
(dp3536
g62
(dp3537
g70
I5
ssg71
g3531
sg64
(lp3538
g57
(g66
g59
NtRp3539
(dp3540
g62
(dp3541
g70
I4
ssg71
Nsg64
(lp3542
g57
(g73
g59
NtRp3543
(dp3544
g62
(dp3545
sg71
g3539
sg64
(lp3546
g57
(g78
g59
NtRp3547
(dp3548
g62
(dp3549
sg71
g3543
sg64
(lp3550
g57
(g58
g59
NtRp3551
(dp3552
g62
(dp3553
g70
I4
ssg71
g3547
sg64
(lp3554
g57
(g66
g59
NtRp3555
(dp3556
g62
(dp3557
g70
I3
ssg71
Nsg64
(lp3558
g57
(g73
g59
NtRp3559
(dp3560
g62
(dp3561
sg71
g3555
sg64
(lp3562
g57
(g78
g59
NtRp3563
(dp3564
g62
(dp3565
sg71
g3559
sg64
(lp3566
g57
(g58
g59
NtRp3567
(dp3568
g62
(dp3569
g70
I3
ssg71
g3563
sg64
(lp3570
cgluon.languages
lazyT_unpickle
p3571
(S't\x04\x00\x00\x00Home'
tRp3572
asbasbasbag57
(g73
g59
NtRp3573
(dp3574
g62
(dp3575
sg71
g3555
sg64
(lp3576
g57
(g78
g59
NtRp3577
(dp3578
g62
(dp3579
sg71
g3573
sg64
(lp3580
g57
(g58
g59
NtRp3581
(dp3582
g62
(dp3583
g70
I3
ssg71
g3577
sg64
(lp3584
g100
asbasbasbag57
(g73
g59
NtRp3585
(dp3586
g62
(dp3587
sg71
g3555
sg64
(lp3588
g57
(g78
g59
NtRp3589
(dp3590
g62
(dp3591
sg71
g3585
sg64
(lp3592
g57
(g58
g59
NtRp3593
(dp3594
g62
(dp3595
g70
I3
ssg71
g3589
sg64
(lp3596
S'/igor/default/index'
p3597
asbasbasbag57
(g73
g59
NtRp3598
(dp3599
g62
(dp3600
sg71
g3555
sg64
(lp3601
g57
(g78
g59
NtRp3602
(dp3603
g62
(dp3604
sg71
g3598
sg64
(lp3605
g57
(g58
g59
NtRp3606
(dp3607
g62
(dp3608
g70
I3
ssg71
g3602
sg64
(lp3609
g57
(g66
g59
NtRp3610
(dp3611
g62
(dp3612
g70
I2
ssg71
Nsg64
(lp3613
sbasbasbasbasbasbasbasbag57
(g73
g59
NtRp3614
(dp3615
g62
(dp3616
sg71
g3539
sg64
(lp3617
g57
(g78
g59
NtRp3618
(dp3619
g62
(dp3620
sg71
g3614
sg64
(lp3621
g57
(g58
g59
NtRp3622
(dp3623
g62
(dp3624
g70
I4
ssg71
g3618
sg64
(lp3625
g57
(g66
g59
NtRp3626
(dp3627
g62
(dp3628
g70
I3
ssg71
Nsg64
(lp3629
g57
(g73
g59
NtRp3630
(dp3631
g62
(dp3632
sg71
g3626
sg64
(lp3633
g57
(g78
g59
NtRp3634
(dp3635
g62
(dp3636
sg71
g3630
sg64
(lp3637
g57
(g58
g59
NtRp3638
(dp3639
g62
(dp3640
g70
I3
ssg71
g3634
sg64
(lp3641
g57
(cgluon.html
SPAN
p3642
g59
NtRp3643
(dp3644
g62
(dp3645
g82
S'color:yellow'
p3646
ssg71
Nsg64
(lp3647
g3517
asbasbasbasbag57
(g73
g59
NtRp3648
(dp3649
g62
(dp3650
sg71
g3626
sg64
(lp3651
g57
(g78
g59
NtRp3652
(dp3653
g62
(dp3654
sg71
g3648
sg64
(lp3655
g57
(g58
g59
NtRp3656
(dp3657
g62
(dp3658
g70
I3
ssg71
g3652
sg64
(lp3659
g100
asbasbasbag57
(g73
g59
NtRp3660
(dp3661
g62
(dp3662
sg71
g3626
sg64
(lp3663
g57
(g78
g59
NtRp3664
(dp3665
g62
(dp3666
sg71
g3660
sg64
(lp3667
g57
(g58
g59
NtRp3668
(dp3669
g62
(dp3670
g70
I3
ssg71
g3664
sg64
(lp3671
S'None'
p3672
asbasbasbag57
(g73
g59
NtRp3673
(dp3674
g62
(dp3675
sg71
g3626
sg64
(lp3676
g57
(g78
g59
NtRp3677
(dp3678
g62
(dp3679
sg71
g3673
sg64
(lp3680
g57
(g58
g59
NtRp3681
(dp3682
g62
(dp3683
g70
I3
ssg71
g3677
sg64
(lp3684
g57
(g66
g59
NtRp3685
(dp3686
g62
(dp3687
g70
I2
ssg71
Nsg64
(lp3688
g57
(g73
g59
NtRp3689
(dp3690
g62
(dp3691
sg71
g3685
sg64
(lp3692
g57
(g78
g59
NtRp3693
(dp3694
g62
(dp3695
sg71
g3689
sg64
(lp3696
g57
(g58
g59
NtRp3697
(dp3698
g62
(dp3699
g70
I2
ssg71
g3693
sg64
(lp3700
g57
(g66
g59
NtRp3701
(dp3702
g62
(dp3703
g70
I1
ssg71
Nsg64
(lp3704
g57
(g73
g59
NtRp3705
(dp3706
g62
(dp3707
sg71
g3701
sg64
(lp3708
g57
(g78
g59
NtRp3709
(dp3710
g62
(dp3711
sg71
g3705
sg64
(lp3712
g57
(g58
g59
NtRp3713
(dp3714
g62
(dp3715
g70
I1
ssg71
g3709
sg64
(lp3716
g3571
(S's\x08\x00\x00\x00My Sites'
tRp3717
asbasbasbag57
(g73
g59
NtRp3718
(dp3719
g62
(dp3720
sg71
g3701
sg64
(lp3721
g57
(g78
g59
NtRp3722
(dp3723
g62
(dp3724
sg71
g3718
sg64
(lp3725
g57
(g58
g59
NtRp3726
(dp3727
g62
(dp3728
g70
I1
ssg71
g3722
sg64
(lp3729
I00
asbasbasbag57
(g73
g59
NtRp3730
(dp3731
g62
(dp3732
sg71
g3701
sg64
(lp3733
g57
(g78
g59
NtRp3734
(dp3735
g62
(dp3736
sg71
g3730
sg64
(lp3737
g57
(g58
g59
NtRp3738
(dp3739
g62
(dp3740
g70
I1
ssg71
g3734
sg64
(lp3741
S'/admin/default/site'
p3742
asbasbasbasbasbasbasbag57
(g73
g59
NtRp3743
(dp3744
g62
(dp3745
sg71
g3685
sg64
(lp3746
g57
(g78
g59
NtRp3747
(dp3748
g62
(dp3749
sg71
g3743
sg64
(lp3750
g57
(g58
g59
NtRp3751
(dp3752
g62
(dp3753
g70
I2
ssg71
g3747
sg64
(lp3754
g57
(g66
g59
NtRp3755
(dp3756
g62
(dp3757
g70
I1
ssg71
Nsg64
(lp3758
g57
(g73
g59
NtRp3759
(dp3760
g62
(dp3761
sg71
g3755
sg64
(lp3762
g57
(g78
g59
NtRp3763
(dp3764
g62
(dp3765
sg71
g3759
sg64
(lp3766
g57
(g58
g59
NtRp3767
(dp3768
g62
(dp3769
g70
I1
ssg71
g3763
sg64
(lp3770
g3571
(S's\x08\x00\x00\x00This App'
tRp3771
asbasbasbag57
(g73
g59
NtRp3772
(dp3773
g62
(dp3774
sg71
g3755
sg64
(lp3775
g57
(g78
g59
NtRp3776
(dp3777
g62
(dp3778
sg71
g3772
sg64
(lp3779
g57
(g58
g59
NtRp3780
(dp3781
g62
(dp3782
g70
I1
ssg71
g3776
sg64
(lp3783
I00
asbasbasbag57
(g73
g59
NtRp3784
(dp3785
g62
(dp3786
sg71
g3755
sg64
(lp3787
g57
(g78
g59
NtRp3788
(dp3789
g62
(dp3790
sg71
g3784
sg64
(lp3791
g57
(g58
g59
NtRp3792
(dp3793
g62
(dp3794
g70
I1
ssg71
g3788
sg64
(lp3795
S'/admin/default/design/igor'
p3796
asbasbasbag57
(g73
g59
NtRp3797
(dp3798
g62
(dp3799
sg71
g3755
sg64
(lp3800
g57
(g78
g59
NtRp3801
(dp3802
g62
(dp3803
sg71
g3797
sg64
(lp3804
g57
(g58
g59
NtRp3805
(dp3806
g62
(dp3807
g70
I1
ssg71
g3801
sg64
(lp3808
(lp3809
(g3571
(S't\n\x00\x00\x00Controller'
tRp3810
I00
S'/admin/default/edit/igor/controllers/class_subject.py'
tp3811
a(g3571
(S't\x04\x00\x00\x00View'
tRp3812
I00
S'/admin/default/edit/igor/views/class_subject/call.html'
tp3813
a(g3571
(S't\x06\x00\x00\x00Layout'
tRp3814
I00
S'/admin/default/edit/igor/views/layout.html'
tp3815
a(g3571
(S't\n\x00\x00\x00Stylesheet'
tRp3816
I00
S'/admin/default/edit/igor/static/css/web2py.css'
tp3817
a(g3571
(S's\x08\x00\x00\x00DB Model'
tRp3818
I00
S'/admin/default/edit/igor/models/db.py'
tp3819
a(g3571
(S's\n\x00\x00\x00Menu Model'
tRp3820
I00
S'/admin/default/edit/igor/models/menu.py'
tp3821
a(g3571
(S't\x08\x00\x00\x00Database'
tRp3822
I00
S'/igor/appadmin/index'
tp3823
a(g3571
(S't\x06\x00\x00\x00Errors'
tRp3824
I00
S'/admin/default/errors/igor'
tp3825
a(g3571
(S't\x05\x00\x00\x00About'
tRp3826
I00
S'/admin/default/about/igor'
tp3827
aasbasbasbasbasbasbasbag57
(g73
g59
NtRp3828
(dp3829
g62
(dp3830
sg71
g3685
sg64
(lp3831
g57
(g78
g59
NtRp3832
(dp3833
g62
(dp3834
sg71
g3828
sg64
(lp3835
g57
(g58
g59
NtRp3836
(dp3837
g62
(dp3838
g70
I2
ssg71
g3832
sg64
(lp3839
g57
(g66
g59
NtRp3840
(dp3841
g62
(dp3842
g70
I1
ssg71
Nsg64
(lp3843
g57
(g73
g59
NtRp3844
(dp3845
g62
(dp3846
sg71
g3840
sg64
(lp3847
g57
(g78
g59
NtRp3848
(dp3849
g62
(dp3850
sg71
g3844
sg64
(lp3851
g57
(g58
g59
NtRp3852
(dp3853
g62
(dp3854
g70
I1
ssg71
g3848
sg64
(lp3855
S'web2py.com'
p3856
asbasbasbag57
(g73
g59
NtRp3857
(dp3858
g62
(dp3859
sg71
g3840
sg64
(lp3860
g57
(g78
g59
NtRp3861
(dp3862
g62
(dp3863
sg71
g3857
sg64
(lp3864
g57
(g58
g59
NtRp3865
(dp3866
g62
(dp3867
g70
I1
ssg71
g3861
sg64
(lp3868
I00
asbasbasbag57
(g73
g59
NtRp3869
(dp3870
g62
(dp3871
sg71
g3840
sg64
(lp3872
g57
(g78
g59
NtRp3873
(dp3874
g62
(dp3875
sg71
g3869
sg64
(lp3876
g57
(g58
g59
NtRp3877
(dp3878
g62
(dp3879
g70
I1
ssg71
g3873
sg64
(lp3880
S'http://www.web2py.com'
p3881
asbasbasbag57
(g73
g59
NtRp3882
(dp3883
g62
(dp3884
sg71
g3840
sg64
(lp3885
g57
(g78
g59
NtRp3886
(dp3887
g62
(dp3888
sg71
g3882
sg64
(lp3889
g57
(g58
g59
NtRp3890
(dp3891
g62
(dp3892
g70
I1
ssg71
g3886
sg64
(lp3893
(lp3894
(g3571
(S't\x08\x00\x00\x00Download'
tRp3895
I00
S'http://www.web2py.com/examples/default/download'
p3896
tp3897
a(g3571
(S't\x07\x00\x00\x00Support'
tRp3898
I00
S'http://www.web2py.com/examples/default/support'
p3899
tp3900
a(g3571
(S't\x04\x00\x00\x00Demo'
tRp3901
I00
S'http://web2py.com/demo_admin'
p3902
tp3903
a(g3571
(S's\x0e\x00\x00\x00Quick Examples'
tRp3904
I00
S'http://web2py.com/examples/default/examples'
p3905
tp3906
a(g3571
(S't\x03\x00\x00\x00FAQ'
tRp3907
I00
S'http://web2py.com/AlterEgo'
p3908
tp3909
a(g3571
(S't\x06\x00\x00\x00Videos'
tRp3910
I00
S'http://www.web2py.com/examples/default/videos/'
p3911
tp3912
a(g3571
(S's\x11\x00\x00\x00Free Applications'
tRp3913
I00
S'http://web2py.com/appliances'
p3914
tp3915
a(g3571
(S't\x07\x00\x00\x00Plugins'
tRp3916
I00
S'http://web2py.com/plugins'
p3917
tp3918
a(g3571
(S't\x07\x00\x00\x00Layouts'
tRp3919
I00
S'http://web2py.com/layouts'
p3920
tp3921
a(g3571
(S't\x07\x00\x00\x00Recipes'
tRp3922
I00
S'http://web2pyslices.com/'
p3923
tp3924
a(g3571
(S't\x08\x00\x00\x00Semantic'
tRp3925
I00
S'http://web2py.com/semantic'
p3926
tp3927
aasbasbasbasbasbasbasbag57
(g73
g59
NtRp3928
(dp3929
g62
(dp3930
sg71
g3685
sg64
(lp3931
g57
(g78
g59
NtRp3932
(dp3933
g62
(dp3934
sg71
g3928
sg64
(lp3935
g57
(g58
g59
NtRp3936
(dp3937
g62
(dp3938
g70
I2
ssg71
g3932
sg64
(lp3939
g57
(g66
g59
NtRp3940
(dp3941
g62
(dp3942
g70
I1
ssg71
Nsg64
(lp3943
g57
(g73
g59
NtRp3944
(dp3945
g62
(dp3946
sg71
g3940
sg64
(lp3947
g57
(g78
g59
NtRp3948
(dp3949
g62
(dp3950
sg71
g3944
sg64
(lp3951
g57
(g58
g59
NtRp3952
(dp3953
g62
(dp3954
g70
I1
ssg71
g3948
sg64
(lp3955
g3571
(S't\r\x00\x00\x00Documentation'
tRp3956
asbasbasbag57
(g73
g59
NtRp3957
(dp3958
g62
(dp3959
sg71
g3940
sg64
(lp3960
g57
(g78
g59
NtRp3961
(dp3962
g62
(dp3963
sg71
g3957
sg64
(lp3964
g57
(g58
g59
NtRp3965
(dp3966
g62
(dp3967
g70
I1
ssg71
g3961
sg64
(lp3968
I00
asbasbasbag57
(g73
g59
NtRp3969
(dp3970
g62
(dp3971
sg71
g3940
sg64
(lp3972
g57
(g78
g59
NtRp3973
(dp3974
g62
(dp3975
sg71
g3969
sg64
(lp3976
g57
(g58
g59
NtRp3977
(dp3978
g62
(dp3979
g70
I1
ssg71
g3973
sg64
(lp3980
S'http://www.web2py.com/book'
p3981
asbasbasbag57
(g73
g59
NtRp3982
(dp3983
g62
(dp3984
sg71
g3940
sg64
(lp3985
g57
(g78
g59
NtRp3986
(dp3987
g62
(dp3988
sg71
g3982
sg64
(lp3989
g57
(g58
g59
NtRp3990
(dp3991
g62
(dp3992
g70
I1
ssg71
g3986
sg64
(lp3993
(lp3994
(g3571
(S't\x07\x00\x00\x00Preface'
tRp3995
I00
S'http://www.web2py.com/book/default/chapter/00'
p3996
tp3997
a(g3571
(S't\x0c\x00\x00\x00Introduction'
tRp3998
I00
S'http://www.web2py.com/book/default/chapter/01'
p3999
tp4000
a(g3571
(S't\x06\x00\x00\x00Python'
tRp4001
I00
S'http://www.web2py.com/book/default/chapter/02'
p4002
tp4003
a(g3571
(S't\x08\x00\x00\x00Overview'
tRp4004
I00
S'http://www.web2py.com/book/default/chapter/03'
p4005
tp4006
a(g3571
(S's\x08\x00\x00\x00The Core'
tRp4007
I00
S'http://www.web2py.com/book/default/chapter/04'
p4008
tp4009
a(g3571
(S's\t\x00\x00\x00The Views'
tRp4010
I00
S'http://www.web2py.com/book/default/chapter/05'
p4011
tp4012
a(g3571
(S't\x08\x00\x00\x00Database'
tRp4013
I00
S'http://www.web2py.com/book/default/chapter/06'
p4014
tp4015
a(g3571
(S's\x14\x00\x00\x00Forms and Validators'
tRp4016
I00
S'http://www.web2py.com/book/default/chapter/07'
p4017
tp4018
a(g3571
(S's\r\x00\x00\x00Email and SMS'
tRp4019
I00
S'http://www.web2py.com/book/default/chapter/08'
p4020
tp4021
a(g3571
(S's\x0e\x00\x00\x00Access Control'
tRp4022
I00
S'http://www.web2py.com/book/default/chapter/09'
p4023
tp4024
a(g3571
(S't\x08\x00\x00\x00Services'
tRp4025
I00
S'http://www.web2py.com/book/default/chapter/10'
p4026
tp4027
a(g3571
(S's\x0c\x00\x00\x00Ajax Recipes'
tRp4028
I00
S'http://www.web2py.com/book/default/chapter/11'
p4029
tp4030
a(g3571
(S's\x16\x00\x00\x00Components and Plugins'
tRp4031
I00
S'http://www.web2py.com/book/default/chapter/12'
p4032
tp4033
a(g3571
(S's\x12\x00\x00\x00Deployment Recipes'
tRp4034
I00
S'http://www.web2py.com/book/default/chapter/13'
p4035
tp4036
a(g3571
(S's\r\x00\x00\x00Other Recipes'
tRp4037
I00
S'http://www.web2py.com/book/default/chapter/14'
p4038
tp4039
a(g3571
(S's\r\x00\x00\x00Buy this book'
tRp4040
I00
S'http://stores.lulu.com/web2py'
p4041
tp4042
aasbasbasbasbasbasbasbag57
(g73
g59
NtRp4043
(dp4044
g62
(dp4045
sg71
g3685
sg64
(lp4046
g57
(g78
g59
NtRp4047
(dp4048
g62
(dp4049
sg71
g4043
sg64
(lp4050
g57
(g58
g59
NtRp4051
(dp4052
g62
(dp4053
g70
I2
ssg71
g4047
sg64
(lp4054
g57
(g66
g59
NtRp4055
(dp4056
g62
(dp4057
g70
I1
ssg71
Nsg64
(lp4058
g57
(g73
g59
NtRp4059
(dp4060
g62
(dp4061
sg71
g4055
sg64
(lp4062
g57
(g78
g59
NtRp4063
(dp4064
g62
(dp4065
sg71
g4059
sg64
(lp4066
g57
(g58
g59
NtRp4067
(dp4068
g62
(dp4069
g70
I1
ssg71
g4063
sg64
(lp4070
g3571
(S't\t\x00\x00\x00Community'
tRp4071
asbasbasbag57
(g73
g59
NtRp4072
(dp4073
g62
(dp4074
sg71
g4055
sg64
(lp4075
g57
(g78
g59
NtRp4076
(dp4077
g62
(dp4078
sg71
g4072
sg64
(lp4079
g57
(g58
g59
NtRp4080
(dp4081
g62
(dp4082
g70
I1
ssg71
g4076
sg64
(lp4083
I00
asbasbasbag57
(g73
g59
NtRp4084
(dp4085
g62
(dp4086
sg71
g4055
sg64
(lp4087
g57
(g78
g59
NtRp4088
(dp4089
g62
(dp4090
sg71
g4084
sg64
(lp4091
g57
(g58
g59
NtRp4092
(dp4093
g62
(dp4094
g70
I1
ssg71
g4088
sg64
(lp4095
Nasbasbasbag57
(g73
g59
NtRp4096
(dp4097
g62
(dp4098
sg71
g4055
sg64
(lp4099
g57
(g78
g59
NtRp4100
(dp4101
g62
(dp4102
sg71
g4096
sg64
(lp4103
g57
(g58
g59
NtRp4104
(dp4105
g62
(dp4106
g70
I1
ssg71
g4100
sg64
(lp4107
(lp4108
(g3571
(S't\x06\x00\x00\x00Groups'
tRp4109
I00
S'http://www.web2py.com/examples/default/usergroups'
p4110
tp4111
a(g3571
(S't\x07\x00\x00\x00Twitter'
tRp4112
I00
S'http://twitter.com/web2py'
p4113
tp4114
a(g3571
(S's\t\x00\x00\x00Live Chat'
tRp4115
I00
S'http://webchat.freenode.net/?channels=web2py'
p4116
tp4117
aasbasbasbasbasbasbasbag57
(g73
g59
NtRp4118
(dp4119
g62
(dp4120
sg71
g3685
sg64
(lp4121
g57
(g78
g59
NtRp4122
(dp4123
g62
(dp4124
sg71
g4118
sg64
(lp4125
g57
(g58
g59
NtRp4126
(dp4127
g62
(dp4128
g70
I2
ssg71
g4122
sg64
(lp4129
g57
(g66
g59
NtRp4130
(dp4131
g62
(dp4132
g70
I1
ssg71
Nsg64
(lp4133
g57
(g73
g59
NtRp4134
(dp4135
g62
(dp4136
sg71
g4130
sg64
(lp4137
g57
(g78
g59
NtRp4138
(dp4139
g62
(dp4140
sg71
g4134
sg64
(lp4141
g57
(g58
g59
NtRp4142
(dp4143
g62
(dp4144
g70
I1
ssg71
g4138
sg64
(lp4145
g3571
(S't\x07\x00\x00\x00Plugins'
tRp4146
asbasbasbag57
(g73
g59
NtRp4147
(dp4148
g62
(dp4149
sg71
g4130
sg64
(lp4150
g57
(g78
g59
NtRp4151
(dp4152
g62
(dp4153
sg71
g4147
sg64
(lp4154
g57
(g58
g59
NtRp4155
(dp4156
g62
(dp4157
g70
I1
ssg71
g4151
sg64
(lp4158
I00
asbasbasbag57
(g73
g59
NtRp4159
(dp4160
g62
(dp4161
sg71
g4130
sg64
(lp4162
g57
(g78
g59
NtRp4163
(dp4164
g62
(dp4165
sg71
g4159
sg64
(lp4166
g57
(g58
g59
NtRp4167
(dp4168
g62
(dp4169
g70
I1
ssg71
g4163
sg64
(lp4170
Nasbasbasbag57
(g73
g59
NtRp4171
(dp4172
g62
(dp4173
sg71
g4130
sg64
(lp4174
g57
(g78
g59
NtRp4175
(dp4176
g62
(dp4177
sg71
g4171
sg64
(lp4178
g57
(g58
g59
NtRp4179
(dp4180
g62
(dp4181
g70
I1
ssg71
g4175
sg64
(lp4182
(lp4183
(S'plugin_wiki'
p4184
I00
S'http://web2py.com/examples/default/download'
p4185
tp4186
a(g3571
(S's\r\x00\x00\x00Other Plugins'
tRp4187
I00
g3917
tp4188
a(g3571
(S's\x0e\x00\x00\x00Layout Plugins'
tRp4189
I00
g3920
tp4190
aasbasbasbasbasbasbasbasbasbasbasbasbasbasbasbasbasbasbasbag57
(g73
g59
NtRp4191
(dp4192
g62
(dp4193
sg71
g3015
sg64
(lp4194
g57
(g78
g59
NtRp4195
(dp4196
g62
(dp4197
g82
g83
ssg71
g4191
sg64
(lp4198
S'meta'
p4199
asbag57
(g78
g59
NtRp4200
(dp4201
g62
(dp4202
g89
g90
ssg71
g4191
sg64
(lp4203
S':'
asbag57
(g78
g59
NtRp4204
(dp4205
g62
(dp4206
sg71
g4191
sg64
(lp4207
g57
(g58
g59
NtRp4208
(dp4209
g62
(dp4210
g70
I5
ssg71
g4204
sg64
(lp4211
g57
(g66
g59
NtRp4212
(dp4213
g62
(dp4214
g70
I4
ssg71
Nsg64
(lp4215
g57
(g73
g59
NtRp4216
(dp4217
g62
(dp4218
sg71
g4212
sg64
(lp4219
g57
(g78
g59
NtRp4220
(dp4221
g62
(dp4222
g82
g83
ssg71
g4216
sg64
(lp4223
S'author'
p4224
asbag57
(g78
g59
NtRp4225
(dp4226
g62
(dp4227
g89
g90
ssg71
g4216
sg64
(lp4228
S':'
asbag57
(g78
g59
NtRp4229
(dp4230
g62
(dp4231
sg71
g4216
sg64
(lp4232
g57
(g58
g59
NtRp4233
(dp4234
g62
(dp4235
g70
I4
ssg71
g4229
sg64
(lp4236
S'Your Name <you@example.com>'
p4237
asbasbasbag57
(g73
g59
NtRp4238
(dp4239
g62
(dp4240
sg71
g4212
sg64
(lp4241
g57
(g78
g59
NtRp4242
(dp4243
g62
(dp4244
g82
g83
ssg71
g4238
sg64
(lp4245
S'copyright'
p4246
asbag57
(g78
g59
NtRp4247
(dp4248
g62
(dp4249
g89
g90
ssg71
g4238
sg64
(lp4250
S':'
asbag57
(g78
g59
NtRp4251
(dp4252
g62
(dp4253
sg71
g4238
sg64
(lp4254
g57
(g58
g59
NtRp4255
(dp4256
g62
(dp4257
g70
I4
ssg71
g4251
sg64
(lp4258
S'Copyright 2011'
p4259
asbasbasbag57
(g73
g59
NtRp4260
(dp4261
g62
(dp4262
sg71
g4212
sg64
(lp4263
g57
(g78
g59
NtRp4264
(dp4265
g62
(dp4266
g82
g83
ssg71
g4260
sg64
(lp4267
S'description'
p4268
asbag57
(g78
g59
NtRp4269
(dp4270
g62
(dp4271
g89
g90
ssg71
g4260
sg64
(lp4272
S':'
asbag57
(g78
g59
NtRp4273
(dp4274
g62
(dp4275
sg71
g4260
sg64
(lp4276
g57
(g58
g59
NtRp4277
(dp4278
g62
(dp4279
g70
I4
ssg71
g4273
sg64
(lp4280
S'a cool new app'
p4281
asbasbasbag57
(g73
g59
NtRp4282
(dp4283
g62
(dp4284
sg71
g4212
sg64
(lp4285
g57
(g78
g59
NtRp4286
(dp4287
g62
(dp4288
g82
g83
ssg71
g4282
sg64
(lp4289
S'generator'
p4290
asbag57
(g78
g59
NtRp4291
(dp4292
g62
(dp4293
g89
g90
ssg71
g4282
sg64
(lp4294
S':'
asbag57
(g78
g59
NtRp4295
(dp4296
g62
(dp4297
sg71
g4282
sg64
(lp4298
g57
(g58
g59
NtRp4299
(dp4300
g62
(dp4301
g70
I4
ssg71
g4295
sg64
(lp4302
S'Web2py Web Framework'
p4303
asbasbasbag57
(g73
g59
NtRp4304
(dp4305
g62
(dp4306
sg71
g4212
sg64
(lp4307
g57
(g78
g59
NtRp4308
(dp4309
g62
(dp4310
g82
g83
ssg71
g4304
sg64
(lp4311
S'keywords'
p4312
asbag57
(g78
g59
NtRp4313
(dp4314
g62
(dp4315
g89
g90
ssg71
g4304
sg64
(lp4316
S':'
asbag57
(g78
g59
NtRp4317
(dp4318
g62
(dp4319
sg71
g4304
sg64
(lp4320
g57
(g58
g59
NtRp4321
(dp4322
g62
(dp4323
g70
I4
ssg71
g4317
sg64
(lp4324
S'web2py, python, framework'
p4325
asbasbasbasbasbasbasbag57
(g73
g59
NtRp4326
(dp4327
g62
(dp4328
sg71
g3015
sg64
(lp4329
g57
(g78
g59
NtRp4330
(dp4331
g62
(dp4332
g82
g83
ssg71
g4326
sg64
(lp4333
S'postprocessing'
p4334
asbag57
(g78
g59
NtRp4335
(dp4336
g62
(dp4337
g89
g90
ssg71
g4326
sg64
(lp4338
S':'
asbag57
(g78
g59
NtRp4339
(dp4340
g62
(dp4341
sg71
g4326
sg64
(lp4342
g57
(g58
g59
NtRp4343
(dp4344
g62
(dp4345
g70
I5
ssg71
g4339
sg64
(lp4346
g57
(g66
g59
NtRp4347
(dp4348
g62
(dp4349
g70
I4
ssg71
Nsg64
(lp4350
sbasbasbasbag57
(g73
g59
NtRp4351
(dp4352
g62
(dp4353
sg71
g3015
sg64
(lp4354
g57
(g78
g59
NtRp4355
(dp4356
g62
(dp4357
g82
g83
ssg71
g4351
sg64
(lp4358
S'session_filename'
p4359
asbag57
(g78
g59
NtRp4360
(dp4361
g62
(dp4362
g89
g90
ssg71
g4351
sg64
(lp4363
S':'
asbag57
(g78
g59
NtRp4364
(dp4365
g62
(dp4366
sg71
g4351
sg64
(lp4367
g57
(g58
g59
NtRp4368
(dp4369
g62
(dp4370
g70
I5
ssg71
g4364
sg64
(lp4371
S'D:\\workspace\\CA\\IgoR\\C_Sources\\Server\\igor-assistant-ca-2012\\applications\\igor\\sessions\\127.0.0.1-401ac211-ecef-42b0-9020-c83bc83f8958'
p4372
asbasbasbag57
(g73
g59
NtRp4373
(dp4374
g62
(dp4375
sg71
g3015
sg64
(lp4376
g57
(g78
g59
NtRp4377
(dp4378
g62
(dp4379
g82
g83
ssg71
g4373
sg64
(lp4380
S'session_id'
p4381
asbag57
(g78
g59
NtRp4382
(dp4383
g62
(dp4384
g89
g90
ssg71
g4373
sg64
(lp4385
S':'
asbag57
(g78
g59
NtRp4386
(dp4387
g62
(dp4388
sg71
g4373
sg64
(lp4389
g57
(g58
g59
NtRp4390
(dp4391
g62
(dp4392
g70
I5
ssg71
g4386
sg64
(lp4393
S'127.0.0.1-401ac211-ecef-42b0-9020-c83bc83f8958'
p4394
asbasbasbag57
(g73
g59
NtRp4395
(dp4396
g62
(dp4397
sg71
g3015
sg64
(lp4398
g57
(g78
g59
NtRp4399
(dp4400
g62
(dp4401
g82
g83
ssg71
g4395
sg64
(lp4402
S'session_id_name'
p4403
asbag57
(g78
g59
NtRp4404
(dp4405
g62
(dp4406
g89
g90
ssg71
g4395
sg64
(lp4407
S':'
asbag57
(g78
g59
NtRp4408
(dp4409
g62
(dp4410
sg71
g4395
sg64
(lp4411
g57
(g58
g59
NtRp4412
(dp4413
g62
(dp4414
g70
I5
ssg71
g4408
sg64
(lp4415
g3072
asbasbasbag57
(g73
g59
NtRp4416
(dp4417
g62
(dp4418
sg71
g3015
sg64
(lp4419
g57
(g78
g59
NtRp4420
(dp4421
g62
(dp4422
g82
g83
ssg71
g4416
sg64
(lp4423
S'session_new'
p4424
asbag57
(g78
g59
NtRp4425
(dp4426
g62
(dp4427
g89
g90
ssg71
g4416
sg64
(lp4428
S':'
asbag57
(g78
g59
NtRp4429
(dp4430
g62
(dp4431
sg71
g4416
sg64
(lp4432
g57
(g58
g59
NtRp4433
(dp4434
g62
(dp4435
g70
I5
ssg71
g4429
sg64
(lp4436
g1533
asbasbasbag57
(g73
g59
NtRp4437
(dp4438
g62
(dp4439
sg71
g3015
sg64
(lp4440
g57
(g78
g59
NtRp4441
(dp4442
g62
(dp4443
g82
g83
ssg71
g4437
sg64
(lp4444
S'status'
p4445
asbag57
(g78
g59
NtRp4446
(dp4447
g62
(dp4448
g89
g90
ssg71
g4437
sg64
(lp4449
S':'
asbag57
(g78
g59
NtRp4450
(dp4451
g62
(dp4452
sg71
g4437
sg64
(lp4453
g57
(g58
g59
NtRp4454
(dp4455
g62
(dp4456
g70
I5
ssg71
g4450
sg64
(lp4457
S'200'
p4458
asbasbasbag57
(g73
g59
NtRp4459
(dp4460
g62
(dp4461
sg71
g3015
sg64
(lp4462
g57
(g78
g59
NtRp4463
(dp4464
g62
(dp4465
g82
g83
ssg71
g4459
sg64
(lp4466
S'subtitle'
p4467
asbag57
(g78
g59
NtRp4468
(dp4469
g62
(dp4470
g89
g90
ssg71
g4459
sg64
(lp4471
S':'
asbag57
(g78
g59
NtRp4472
(dp4473
g62
(dp4474
sg71
g4459
sg64
(lp4475
g57
(g58
g59
NtRp4476
(dp4477
g62
(dp4478
g70
I5
ssg71
g4472
sg64
(lp4479
g3571
(S's\r\x00\x00\x00customize me!'
tRp4480
asbasbasbag57
(g73
g59
NtRp4481
(dp4482
g62
(dp4483
sg71
g3015
sg64
(lp4484
g57
(g78
g59
NtRp4485
(dp4486
g62
(dp4487
g82
g83
ssg71
g4481
sg64
(lp4488
S'title'
p4489
asbag57
(g78
g59
NtRp4490
(dp4491
g62
(dp4492
g89
g90
ssg71
g4481
sg64
(lp4493
S':'
asbag57
(g78
g59
NtRp4494
(dp4495
g62
(dp4496
sg71
g4481
sg64
(lp4497
g57
(g58
g59
NtRp4498
(dp4499
g62
(dp4500
g70
I5
ssg71
g4494
sg64
(lp4501
S'Igor'
p4502
asbasbasbag57
(g73
g59
NtRp4503
(dp4504
g62
(dp4505
sg71
g3015
sg64
(lp4506
g57
(g78
g59
NtRp4507
(dp4508
g62
(dp4509
g82
g83
ssg71
g4503
sg64
(lp4510
g2252
asbag57
(g78
g59
NtRp4511
(dp4512
g62
(dp4513
g89
g90
ssg71
g4503
sg64
(lp4514
S':'
asbag57
(g78
g59
NtRp4515
(dp4516
g62
(dp4517
sg71
g4503
sg64
(lp4518
g57
(g58
g59
NtRp4519
(dp4520
g62
(dp4521
g70
I5
ssg71
g4515
sg64
(lp4522
g2265
asbasbasbag57
(g73
g59
NtRp4523
(dp4524
g62
(dp4525
sg71
g3015
sg64
(lp4526
g57
(g78
g59
NtRp4527
(dp4528
g62
(dp4529
g82
g83
ssg71
g4523
sg64
(lp4530
S'view'
p4531
asbag57
(g78
g59
NtRp4532
(dp4533
g62
(dp4534
g89
g90
ssg71
g4523
sg64
(lp4535
S':'
asbag57
(g78
g59
NtRp4536
(dp4537
g62
(dp4538
sg71
g4523
sg64
(lp4539
g57
(g58
g59
NtRp4540
(dp4541
g62
(dp4542
g70
I5
ssg71
g4536
sg64
(lp4543
S'class_subject/call.html'
p4544
asbasbasbasbasbsS'locals'
p4545
(dp4546
S'self'
p4547
S'<gluon.tools.Service object>'
p4548
sS'f'
S'None'
p4549
sssS'traceback'
p4550
S'Traceback (most recent call last):\n  File "D:\\workspace\\CA\\IgoR\\C_Sources\\Server\\igor-assistant-ca-2012\\gluon\\restricted.py", line 205, in restricted\n    exec ccode in environment\n  File "D:\\workspace\\CA\\IgoR\\C_Sources\\Server\\igor-assistant-ca-2012\\applications\\igor\\controllers/class_subject.py", line 84, in <module>\n    @service.jsonp\n  File "D:\\workspace\\CA\\IgoR\\C_Sources\\Server\\igor-assistant-ca-2012\\gluon\\tools.py", line 3609, in json\n    self.json_procedures[f.__name__] = f\nAttributeError: \'NoneType\' object has no attribute \'__name__\'\n'
p4551
s.