(dp1
S'output'
p2
S"<type 'exceptions.SyntaxError'> invalid syntax (controllers/subject.py, line 61)"
p3
sS'layer'
p4
S'D:\\workspace\\CA\\IgoR\\C_Sources\\Server\\igor-assistant-ca-2012\\applications\\igor\\controllers/subject.py'
p5
sS'code'
p6
S'# -*- coding: utf-8 -*-\n# this file is released under public domain and you can use without limitations\n\n#########################################################################\n## This is subject controller\n## Author: phucnh, tuna\n#########################################################################\n\nfrom message_packager import *\nfrom gluon.dal import Rows\nfrom gluon.tools import Service\nimport gluon.contenttype\n\nservice = Service()\n\n\ndef call():\n\tsession.forget()\n\n\treturn service()\n\n@service.jsonp\n@service.json\ndef get_all_subjects():\n\t\n\tsubjects = db(db.subject).select()\n\t\t\t\t\n\treturn MessagePackager.get_packaged_message(MessageStatus.OK, subjects)\n\n@service.jsonp\n@service.json\ndef get_subject_detail(id):\n\n\t# Validate input\n\tif (not id.isdigit()):\n\t\treturn MessagePackager.get_packaged_message (\n\t\t\tMessageStatus.ERROR, \n\t\t\t"subject id must be numberic")\n\n\tif (int (id) < 0):\n\t\treturn MessagePackager.get_packaged_message (\n\t\t\tMessageStatus.ERROR, \n\t\t\t"subject id can not less than 1")\n\n\t# Get data\n\tsubject = db(db.subject.id == id).select()\n\n\treturn MessagePackager.get_packaged_message(MessageStatus.OK, subject)\n\ndef format_client_data(subjects):\n\tif subjects == None:\n\t\treturn\n\n\tclient_data = list()\n\tterm = get_current_term()\n\n\tfor subject in subjects:\n\n\t\tclasses = db(\n\t\t\t(class_subject.subject == subject.id) &\n\t\t\t(class_subject.term = term)).count()\n\n\t\tclient = dict(\n\t\t\tsubject_name = subject.name,\n\t\t\tsubject_code = subject.subject_code,\n\t\t\tnote = note,\n\t\t\tclass_count = classes\n\t\t\t)\n\n\t\tclient_data.append (client)\n\n\treturn client_data\nresponse._vars=response._caller(get_all_subjects)\n'
p7
sS'snapshot'
p8
(dp9
S'exception'
p10
(dp11
S'__getslice__'
p12
S"<method-wrapper '__getslice__' of exceptions.SyntaxError object>"
p13
sS'text'
p14
S"'\\t\\t\\t(class_subject.term = term)).count()\\n'"
p15
sS'__str__'
p16
S"<method-wrapper '__str__' of exceptions.SyntaxError object>"
p17
sS'__reduce__'
p18
S'<built-in method __reduce__ of exceptions.SyntaxError object>'
p19
sS'__dict__'
p20
S'{}'
p21
sS'__sizeof__'
p22
S'<built-in method __sizeof__ of exceptions.SyntaxError object>'
p23
sS'__init__'
p24
S"<method-wrapper '__init__' of exceptions.SyntaxError object>"
p25
sS'__setattr__'
p26
S"<method-wrapper '__setattr__' of exceptions.SyntaxError object>"
p27
sS'__reduce_ex__'
p28
S'<built-in method __reduce_ex__ of exceptions.SyntaxError object>'
p29
sS'__new__'
p30
S'<built-in method __new__ of type object>'
p31
sS'__format__'
p32
S'<built-in method __format__ of exceptions.SyntaxError object>'
p33
sS'__class__'
p34
S"<type 'exceptions.SyntaxError'>"
p35
sS'filename'
p36
S"r'D:\\workspace\\CA\\IgoR\\C_Sources\\Server\\igor-assis...-ca-2012\\applications\\igor\\controllers/subject.py'"
p37
sS'lineno'
p38
S'61'
p39
sS'msg'
p40
S"'invalid syntax'"
p41
sS'__doc__'
p42
S"'Invalid syntax.'"
p43
sS'__getitem__'
p44
S"<method-wrapper '__getitem__' of exceptions.SyntaxError object>"
p45
sS'__setstate__'
p46
S'<built-in method __setstate__ of exceptions.SyntaxError object>'
p47
sS'__getattribute__'
p48
S"<method-wrapper '__getattribute__' of exceptions.SyntaxError object>"
p49
sS'print_file_and_line'
p50
S'None'
p51
sS'args'
p52
S"('invalid syntax', (r'D:\\workspace\\CA\\IgoR\\C_Sources\\Server\\igor-assis...-ca-2012\\applications\\igor\\controllers/subject.py', 61, 24, '\\t\\t\\t(class_subject.term = term)).count()\\n'))"
p53
sS'__subclasshook__'
p54
S'<built-in method __subclasshook__ of type object>'
p55
sS'offset'
p56
S'24'
p57
sS'__unicode__'
p58
S'<built-in method __unicode__ of exceptions.SyntaxError object>'
p59
sS'__delattr__'
p60
S"<method-wrapper '__delattr__' of exceptions.SyntaxError object>"
p61
sS'__repr__'
p62
S"<method-wrapper '__repr__' of exceptions.SyntaxError object>"
p63
sS'__hash__'
p64
S"<method-wrapper '__hash__' of exceptions.SyntaxError object>"
p65
ssS'evalue'
p66
S'invalid syntax (controllers/subject.py, line 61)'
p67
sS'request'
p68
ccopy_reg
_reconstructor
p69
(cgluon.html
BEAUTIFY
p70
c__builtin__
object
p71
NtRp72
(dp73
S'attributes'
p74
(dp75
sS'components'
p76
(lp77
g69
(cgluon.html
TABLE
p78
g71
NtRp79
(dp80
g74
(dp81
S'level'
p82
I5
ssS'parent'
p83
Nsg76
(lp84
g69
(cgluon.html
TR
p85
g71
NtRp86
(dp87
g74
(dp88
sg83
g79
sg76
(lp89
g69
(cgluon.html
TD
p90
g71
NtRp91
(dp92
g74
(dp93
S'_style'
p94
S'font-weight:bold;vertical-align:top'
p95
ssg83
g86
sg76
(lp96
S'ajax'
p97
asbag69
(g90
g71
NtRp98
(dp99
g74
(dp100
S'_valign'
p101
S'top'
p102
ssg83
g86
sg76
(lp103
S':'
asbag69
(g90
g71
NtRp104
(dp105
g74
(dp106
sg83
g86
sg76
(lp107
g69
(g70
g71
NtRp108
(dp109
g74
(dp110
g82
I5
ssg83
g104
sg76
(lp111
S'False'
p112
asbasbasbag69
(g85
g71
NtRp113
(dp114
g74
(dp115
sg83
g79
sg76
(lp116
g69
(g90
g71
NtRp117
(dp118
g74
(dp119
g94
g95
ssg83
g113
sg76
(lp120
S'application'
p121
asbag69
(g90
g71
NtRp122
(dp123
g74
(dp124
g101
g102
ssg83
g113
sg76
(lp125
S':'
asbag69
(g90
g71
NtRp126
(dp127
g74
(dp128
sg83
g113
sg76
(lp129
g69
(g70
g71
NtRp130
(dp131
g74
(dp132
g82
I5
ssg83
g126
sg76
(lp133
S'igor'
p134
asbasbasbag69
(g85
g71
NtRp135
(dp136
g74
(dp137
sg83
g79
sg76
(lp138
g69
(g90
g71
NtRp139
(dp140
g74
(dp141
g94
g95
ssg83
g135
sg76
(lp142
g52
asbag69
(g90
g71
NtRp143
(dp144
g74
(dp145
g101
g102
ssg83
g135
sg76
(lp146
S':'
asbag69
(g90
g71
NtRp147
(dp148
g74
(dp149
sg83
g135
sg76
(lp150
g69
(g70
g71
NtRp151
(dp152
g74
(dp153
g82
I5
ssg83
g147
sg76
(lp154
g69
(g78
g71
NtRp155
(dp156
g74
(dp157
g82
I4
ssg83
Nsg76
(lp158
sbasbasbasbag69
(g85
g71
NtRp159
(dp160
g74
(dp161
sg83
g79
sg76
(lp162
g69
(g90
g71
NtRp163
(dp164
g74
(dp165
g94
g95
ssg83
g159
sg76
(lp166
S'body'
p167
asbag69
(g90
g71
NtRp168
(dp169
g74
(dp170
g101
g102
ssg83
g159
sg76
(lp171
S':'
asbag69
(g90
g71
NtRp172
(dp173
g74
(dp174
sg83
g159
sg76
(lp175
g69
(g70
g71
NtRp176
(dp177
g74
(dp178
g82
I5
ssg83
g172
sg76
(lp179
S'<cStringIO.StringO object at 0x00000000052B0688>'
p180
asbasbasbag69
(g85
g71
NtRp181
(dp182
g74
(dp183
sg83
g79
sg76
(lp184
g69
(g90
g71
NtRp185
(dp186
g74
(dp187
g94
g95
ssg83
g181
sg76
(lp188
S'client'
p189
asbag69
(g90
g71
NtRp190
(dp191
g74
(dp192
g101
g102
ssg83
g181
sg76
(lp193
S':'
asbag69
(g90
g71
NtRp194
(dp195
g74
(dp196
sg83
g181
sg76
(lp197
g69
(g70
g71
NtRp198
(dp199
g74
(dp200
g82
I5
ssg83
g194
sg76
(lp201
S'127.0.0.1'
p202
asbasbasbag69
(g85
g71
NtRp203
(dp204
g74
(dp205
sg83
g79
sg76
(lp206
g69
(g90
g71
NtRp207
(dp208
g74
(dp209
g94
g95
ssg83
g203
sg76
(lp210
S'controller'
p211
asbag69
(g90
g71
NtRp212
(dp213
g74
(dp214
g101
g102
ssg83
g203
sg76
(lp215
S':'
asbag69
(g90
g71
NtRp216
(dp217
g74
(dp218
sg83
g203
sg76
(lp219
g69
(g70
g71
NtRp220
(dp221
g74
(dp222
g82
I5
ssg83
g216
sg76
(lp223
S'subject'
p224
asbasbasbag69
(g85
g71
NtRp225
(dp226
g74
(dp227
sg83
g79
sg76
(lp228
g69
(g90
g71
NtRp229
(dp230
g74
(dp231
g94
g95
ssg83
g225
sg76
(lp232
S'cookies'
p233
asbag69
(g90
g71
NtRp234
(dp235
g74
(dp236
g101
g102
ssg83
g225
sg76
(lp237
S':'
asbag69
(g90
g71
NtRp238
(dp239
g74
(dp240
sg83
g225
sg76
(lp241
g69
(g70
g71
NtRp242
(dp243
g74
(dp244
g82
I5
ssg83
g238
sg76
(lp245
g69
(g78
g71
NtRp246
(dp247
g74
(dp248
g82
I4
ssg83
Nsg76
(lp249
g69
(g85
g71
NtRp250
(dp251
g74
(dp252
sg83
g246
sg76
(lp253
g69
(g90
g71
NtRp254
(dp255
g74
(dp256
g94
g95
ssg83
g250
sg76
(lp257
S'session_id_welcome'
p258
asbag69
(g90
g71
NtRp259
(dp260
g74
(dp261
g101
g102
ssg83
g250
sg76
(lp262
S':'
asbag69
(g90
g71
NtRp263
(dp264
g74
(dp265
sg83
g250
sg76
(lp266
g69
(g70
g71
NtRp267
(dp268
g74
(dp269
g82
I4
ssg83
g263
sg76
(lp270
g69
(g78
g71
NtRp271
(dp272
g74
(dp273
g82
I3
ssg83
Nsg76
(lp274
g69
(g85
g71
NtRp275
(dp276
g74
(dp277
sg83
g271
sg76
(lp278
g69
(g90
g71
NtRp279
(dp280
g74
(dp281
g94
g95
ssg83
g275
sg76
(lp282
S'comment'
p283
asbag69
(g90
g71
NtRp284
(dp285
g74
(dp286
g101
g102
ssg83
g275
sg76
(lp287
S':'
asbag69
(g90
g71
NtRp288
(dp289
g74
(dp290
sg83
g275
sg76
(lp291
g69
(g70
g71
NtRp292
(dp293
g74
(dp294
g82
I3
ssg83
g288
sg76
(lp295
S''
asbasbasbag69
(g85
g71
NtRp296
(dp297
g74
(dp298
sg83
g271
sg76
(lp299
g69
(g90
g71
NtRp300
(dp301
g74
(dp302
g94
g95
ssg83
g296
sg76
(lp303
S'domain'
p304
asbag69
(g90
g71
NtRp305
(dp306
g74
(dp307
g101
g102
ssg83
g296
sg76
(lp308
S':'
asbag69
(g90
g71
NtRp309
(dp310
g74
(dp311
sg83
g296
sg76
(lp312
g69
(g70
g71
NtRp313
(dp314
g74
(dp315
g82
I3
ssg83
g309
sg76
(lp316
S''
asbasbasbag69
(g85
g71
NtRp317
(dp318
g74
(dp319
sg83
g271
sg76
(lp320
g69
(g90
g71
NtRp321
(dp322
g74
(dp323
g94
g95
ssg83
g317
sg76
(lp324
S'expires'
p325
asbag69
(g90
g71
NtRp326
(dp327
g74
(dp328
g101
g102
ssg83
g317
sg76
(lp329
S':'
asbag69
(g90
g71
NtRp330
(dp331
g74
(dp332
sg83
g317
sg76
(lp333
g69
(g70
g71
NtRp334
(dp335
g74
(dp336
g82
I3
ssg83
g330
sg76
(lp337
S''
asbasbasbag69
(g85
g71
NtRp338
(dp339
g74
(dp340
sg83
g271
sg76
(lp341
g69
(g90
g71
NtRp342
(dp343
g74
(dp344
g94
g95
ssg83
g338
sg76
(lp345
S'httponly'
p346
asbag69
(g90
g71
NtRp347
(dp348
g74
(dp349
g101
g102
ssg83
g338
sg76
(lp350
S':'
asbag69
(g90
g71
NtRp351
(dp352
g74
(dp353
sg83
g338
sg76
(lp354
g69
(g70
g71
NtRp355
(dp356
g74
(dp357
g82
I3
ssg83
g351
sg76
(lp358
S''
asbasbasbag69
(g85
g71
NtRp359
(dp360
g74
(dp361
sg83
g271
sg76
(lp362
g69
(g90
g71
NtRp363
(dp364
g74
(dp365
g94
g95
ssg83
g359
sg76
(lp366
S'max-age'
p367
asbag69
(g90
g71
NtRp368
(dp369
g74
(dp370
g101
g102
ssg83
g359
sg76
(lp371
S':'
asbag69
(g90
g71
NtRp372
(dp373
g74
(dp374
sg83
g359
sg76
(lp375
g69
(g70
g71
NtRp376
(dp377
g74
(dp378
g82
I3
ssg83
g372
sg76
(lp379
S''
asbasbasbag69
(g85
g71
NtRp380
(dp381
g74
(dp382
sg83
g271
sg76
(lp383
g69
(g90
g71
NtRp384
(dp385
g74
(dp386
g94
g95
ssg83
g380
sg76
(lp387
S'path'
p388
asbag69
(g90
g71
NtRp389
(dp390
g74
(dp391
g101
g102
ssg83
g380
sg76
(lp392
S':'
asbag69
(g90
g71
NtRp393
(dp394
g74
(dp395
sg83
g380
sg76
(lp396
g69
(g70
g71
NtRp397
(dp398
g74
(dp399
g82
I3
ssg83
g393
sg76
(lp400
S''
asbasbasbag69
(g85
g71
NtRp401
(dp402
g74
(dp403
sg83
g271
sg76
(lp404
g69
(g90
g71
NtRp405
(dp406
g74
(dp407
g94
g95
ssg83
g401
sg76
(lp408
S'secure'
p409
asbag69
(g90
g71
NtRp410
(dp411
g74
(dp412
g101
g102
ssg83
g401
sg76
(lp413
S':'
asbag69
(g90
g71
NtRp414
(dp415
g74
(dp416
sg83
g401
sg76
(lp417
g69
(g70
g71
NtRp418
(dp419
g74
(dp420
g82
I3
ssg83
g414
sg76
(lp421
S''
asbasbasbag69
(g85
g71
NtRp422
(dp423
g74
(dp424
sg83
g271
sg76
(lp425
g69
(g90
g71
NtRp426
(dp427
g74
(dp428
g94
g95
ssg83
g422
sg76
(lp429
S'version'
p430
asbag69
(g90
g71
NtRp431
(dp432
g74
(dp433
g101
g102
ssg83
g422
sg76
(lp434
S':'
asbag69
(g90
g71
NtRp435
(dp436
g74
(dp437
sg83
g422
sg76
(lp438
g69
(g70
g71
NtRp439
(dp440
g74
(dp441
g82
I3
ssg83
g435
sg76
(lp442
S''
asbasbasbasbasbasbasbasbasbasbasbag69
(g85
g71
NtRp443
(dp444
g74
(dp445
sg83
g79
sg76
(lp446
g69
(g90
g71
NtRp447
(dp448
g74
(dp449
g94
g95
ssg83
g443
sg76
(lp450
S'env'
p451
asbag69
(g90
g71
NtRp452
(dp453
g74
(dp454
g101
g102
ssg83
g443
sg76
(lp455
S':'
asbag69
(g90
g71
NtRp456
(dp457
g74
(dp458
sg83
g443
sg76
(lp459
g69
(g70
g71
NtRp460
(dp461
g74
(dp462
g82
I5
ssg83
g456
sg76
(lp463
g69
(g78
g71
NtRp464
(dp465
g74
(dp466
g82
I4
ssg83
Nsg76
(lp467
g69
(g85
g71
NtRp468
(dp469
g74
(dp470
sg83
g464
sg76
(lp471
g69
(g90
g71
NtRp472
(dp473
g74
(dp474
g94
g95
ssg83
g468
sg76
(lp475
S'app_folders'
p476
asbag69
(g90
g71
NtRp477
(dp478
g74
(dp479
g101
g102
ssg83
g468
sg76
(lp480
S':'
asbag69
(g90
g71
NtRp481
(dp482
g74
(dp483
sg83
g468
sg76
(lp484
g69
(g70
g71
NtRp485
(dp486
g74
(dp487
g82
I4
ssg83
g481
sg76
(lp488
S"set(['D:\\\\workspace\\\\CA\\\\IgoR\\\\C_Sources\\\\Server\\\\igor-assistant-ca-2012\\\\applications\\\\igor\\\\', 'D:\\\\workspace\\\\CA\\\\IgoR\\\\C_Sources\\\\Server\\\\igor-assistant-ca-2012\\\\applications\\\\welcome\\\\'])"
p489
asbasbasbag69
(g85
g71
NtRp490
(dp491
g74
(dp492
sg83
g464
sg76
(lp493
g69
(g90
g71
NtRp494
(dp495
g74
(dp496
g94
g95
ssg83
g490
sg76
(lp497
S'applications_parent'
p498
asbag69
(g90
g71
NtRp499
(dp500
g74
(dp501
g101
g102
ssg83
g490
sg76
(lp502
S':'
asbag69
(g90
g71
NtRp503
(dp504
g74
(dp505
sg83
g490
sg76
(lp506
g69
(g70
g71
NtRp507
(dp508
g74
(dp509
g82
I4
ssg83
g503
sg76
(lp510
S'D:\\workspace\\CA\\IgoR\\C_Sources\\Server\\igor-assistant-ca-2012'
p511
asbasbasbag69
(g85
g71
NtRp512
(dp513
g74
(dp514
sg83
g464
sg76
(lp515
g69
(g90
g71
NtRp516
(dp517
g74
(dp518
g94
g95
ssg83
g512
sg76
(lp519
S'cmd_args'
p520
asbag69
(g90
g71
NtRp521
(dp522
g74
(dp523
g101
g102
ssg83
g512
sg76
(lp524
S':'
asbag69
(g90
g71
NtRp525
(dp526
g74
(dp527
sg83
g512
sg76
(lp528
g69
(g70
g71
NtRp529
(dp530
g74
(dp531
g82
I4
ssg83
g525
sg76
(lp532
g69
(g78
g71
NtRp533
(dp534
g74
(dp535
g82
I3
ssg83
Nsg76
(lp536
g69
(g85
g71
NtRp537
(dp538
g74
(dp539
sg83
g533
sg76
(lp540
g69
(g90
g71
NtRp541
(dp542
g74
(dp543
sg83
g537
sg76
(lp544
g69
(g70
g71
NtRp545
(dp546
g74
(dp547
g82
I3
ssg83
g541
sg76
(lp548
S'startserver'
p549
asbasbasbasbasbasbasbag69
(g85
g71
NtRp550
(dp551
g74
(dp552
sg83
g464
sg76
(lp553
g69
(g90
g71
NtRp554
(dp555
g74
(dp556
g94
g95
ssg83
g550
sg76
(lp557
S'cmd_options'
p558
asbag69
(g90
g71
NtRp559
(dp560
g74
(dp561
g101
g102
ssg83
g550
sg76
(lp562
S':'
asbag69
(g90
g71
NtRp563
(dp564
g74
(dp565
sg83
g550
sg76
(lp566
g69
(g70
g71
NtRp567
(dp568
g74
(dp569
g82
I4
ssg83
g563
sg76
(lp570
S"<Values at 0x3764d88: {'verbose': False, 'ip': '127.0.0.1', 'shutdown_timeout': 5, 'taskbar': False, 'nocron': False, 'pid_filename': 'httpserver.pid', 'maxthreads': None, 'softcron': False, 'server_name': 'PHUCNH-PC', 'bpython': False, 'nogui': False, 'port': 8000, 'extcron': False, 'debuglevel': 30, 'test': None, 'folder': 'D:\\\\workspace\\\\CA\\\\IgoR\\\\C_Sources\\\\Server\\\\igor-assistant-ca-2012', 'config': '', 'import_models': False, 'winservice': '', 'shell': None, 'run': '', 'log_filename': 'httpserver.log', 'args': [''], 'socket_timeout': 5, 'ssl_ca_certificate': None, 'scheduler': None, 'profiler_filename': None, 'ssl_private_key': '', 'password': '<ask>', 'request_queue_size': 5, 'ssl_certificate': '', 'cronjob': False, 'numthreads': None, 'quiet': False, 'interfaces': None, 'minthreads': None, 'timeout': 10, 'plain': False, 'nobanner': False}>"
p571
asbasbasbag69
(g85
g71
NtRp572
(dp573
g74
(dp574
sg83
g464
sg76
(lp575
g69
(g90
g71
NtRp576
(dp577
g74
(dp578
g94
g95
ssg83
g572
sg76
(lp579
S'db_sessions'
p580
asbag69
(g90
g71
NtRp581
(dp582
g74
(dp583
g101
g102
ssg83
g572
sg76
(lp584
S':'
asbag69
(g90
g71
NtRp585
(dp586
g74
(dp587
sg83
g572
sg76
(lp588
g69
(g70
g71
NtRp589
(dp590
g74
(dp591
g82
I4
ssg83
g585
sg76
(lp592
S'set([])'
p593
asbasbasbag69
(g85
g71
NtRp594
(dp595
g74
(dp596
sg83
g464
sg76
(lp597
g69
(g90
g71
NtRp598
(dp599
g74
(dp600
g94
g95
ssg83
g594
sg76
(lp601
S'debugging'
p602
asbag69
(g90
g71
NtRp603
(dp604
g74
(dp605
g101
g102
ssg83
g594
sg76
(lp606
S':'
asbag69
(g90
g71
NtRp607
(dp608
g74
(dp609
sg83
g594
sg76
(lp610
g69
(g70
g71
NtRp611
(dp612
g74
(dp613
g82
I4
ssg83
g607
sg76
(lp614
g112
asbasbasbag69
(g85
g71
NtRp615
(dp616
g74
(dp617
sg83
g464
sg76
(lp618
g69
(g90
g71
NtRp619
(dp620
g74
(dp621
g94
g95
ssg83
g615
sg76
(lp622
S'gluon_parent'
p623
asbag69
(g90
g71
NtRp624
(dp625
g74
(dp626
g101
g102
ssg83
g615
sg76
(lp627
S':'
asbag69
(g90
g71
NtRp628
(dp629
g74
(dp630
sg83
g615
sg76
(lp631
g69
(g70
g71
NtRp632
(dp633
g74
(dp634
g82
I4
ssg83
g628
sg76
(lp635
S'D:\\workspace\\CA\\IgoR\\C_Sources\\Server\\igor-assistant-ca-2012'
p636
asbasbasbag69
(g85
g71
NtRp637
(dp638
g74
(dp639
sg83
g464
sg76
(lp640
g69
(g90
g71
NtRp641
(dp642
g74
(dp643
g94
g95
ssg83
g637
sg76
(lp644
S'http_accept'
p645
asbag69
(g90
g71
NtRp646
(dp647
g74
(dp648
g101
g102
ssg83
g637
sg76
(lp649
S':'
asbag69
(g90
g71
NtRp650
(dp651
g74
(dp652
sg83
g637
sg76
(lp653
g69
(g70
g71
NtRp654
(dp655
g74
(dp656
g82
I4
ssg83
g650
sg76
(lp657
S'text/html,application/xhtml+xml,application/xml;q=0.9,*/*;q=0.8'
p658
asbasbasbag69
(g85
g71
NtRp659
(dp660
g74
(dp661
sg83
g464
sg76
(lp662
g69
(g90
g71
NtRp663
(dp664
g74
(dp665
g94
g95
ssg83
g659
sg76
(lp666
S'http_accept_charset'
p667
asbag69
(g90
g71
NtRp668
(dp669
g74
(dp670
g101
g102
ssg83
g659
sg76
(lp671
S':'
asbag69
(g90
g71
NtRp672
(dp673
g74
(dp674
sg83
g659
sg76
(lp675
g69
(g70
g71
NtRp676
(dp677
g74
(dp678
g82
I4
ssg83
g672
sg76
(lp679
S'UTF-8,*;q=0.5'
p680
asbasbasbag69
(g85
g71
NtRp681
(dp682
g74
(dp683
sg83
g464
sg76
(lp684
g69
(g90
g71
NtRp685
(dp686
g74
(dp687
g94
g95
ssg83
g681
sg76
(lp688
S'http_accept_encoding'
p689
asbag69
(g90
g71
NtRp690
(dp691
g74
(dp692
g101
g102
ssg83
g681
sg76
(lp693
S':'
asbag69
(g90
g71
NtRp694
(dp695
g74
(dp696
sg83
g681
sg76
(lp697
g69
(g70
g71
NtRp698
(dp699
g74
(dp700
g82
I4
ssg83
g694
sg76
(lp701
S'gzip,deflate,sdch'
p702
asbasbasbag69
(g85
g71
NtRp703
(dp704
g74
(dp705
sg83
g464
sg76
(lp706
g69
(g90
g71
NtRp707
(dp708
g74
(dp709
g94
g95
ssg83
g703
sg76
(lp710
S'http_accept_language'
p711
asbag69
(g90
g71
NtRp712
(dp713
g74
(dp714
g101
g102
ssg83
g703
sg76
(lp715
S':'
asbag69
(g90
g71
NtRp716
(dp717
g74
(dp718
sg83
g703
sg76
(lp719
g69
(g70
g71
NtRp720
(dp721
g74
(dp722
g82
I4
ssg83
g716
sg76
(lp723
S'en-US,en;q=0.8,vi;q=0.6,fr-FR;q=0.4,fr;q=0.2'
p724
asbasbasbag69
(g85
g71
NtRp725
(dp726
g74
(dp727
sg83
g464
sg76
(lp728
g69
(g90
g71
NtRp729
(dp730
g74
(dp731
g94
g95
ssg83
g725
sg76
(lp732
S'http_connection'
p733
asbag69
(g90
g71
NtRp734
(dp735
g74
(dp736
g101
g102
ssg83
g725
sg76
(lp737
S':'
asbag69
(g90
g71
NtRp738
(dp739
g74
(dp740
sg83
g725
sg76
(lp741
g69
(g70
g71
NtRp742
(dp743
g74
(dp744
g82
I4
ssg83
g738
sg76
(lp745
S'keep-alive'
p746
asbasbasbag69
(g85
g71
NtRp747
(dp748
g74
(dp749
sg83
g464
sg76
(lp750
g69
(g90
g71
NtRp751
(dp752
g74
(dp753
g94
g95
ssg83
g747
sg76
(lp754
S'http_cookie'
p755
asbag69
(g90
g71
NtRp756
(dp757
g74
(dp758
g101
g102
ssg83
g747
sg76
(lp759
S':'
asbag69
(g90
g71
NtRp760
(dp761
g74
(dp762
sg83
g747
sg76
(lp763
g69
(g70
g71
NtRp764
(dp765
g74
(dp766
g82
I4
ssg83
g760
sg76
(lp767
S'session_id_welcome=127.0.0.1-5107e31c-3492-4466-a95c-060cd9959c78'
p768
asbasbasbag69
(g85
g71
NtRp769
(dp770
g74
(dp771
sg83
g464
sg76
(lp772
g69
(g90
g71
NtRp773
(dp774
g74
(dp775
g94
g95
ssg83
g769
sg76
(lp776
S'http_host'
p777
asbag69
(g90
g71
NtRp778
(dp779
g74
(dp780
g101
g102
ssg83
g769
sg76
(lp781
S':'
asbag69
(g90
g71
NtRp782
(dp783
g74
(dp784
sg83
g769
sg76
(lp785
g69
(g70
g71
NtRp786
(dp787
g74
(dp788
g82
I4
ssg83
g782
sg76
(lp789
S'127.0.0.1:8000'
p790
asbasbasbag69
(g85
g71
NtRp791
(dp792
g74
(dp793
sg83
g464
sg76
(lp794
g69
(g90
g71
NtRp795
(dp796
g74
(dp797
g94
g95
ssg83
g791
sg76
(lp798
S'http_user_agent'
p799
asbag69
(g90
g71
NtRp800
(dp801
g74
(dp802
g101
g102
ssg83
g791
sg76
(lp803
S':'
asbag69
(g90
g71
NtRp804
(dp805
g74
(dp806
sg83
g791
sg76
(lp807
g69
(g70
g71
NtRp808
(dp809
g74
(dp810
g82
I4
ssg83
g804
sg76
(lp811
S'Mozilla/5.0 (Windows NT 6.1; WOW64) AppleWebKit/537.1 (KHTML, like Gecko) Chrome/21.0.1180.60 Safari/537.1'
p812
asbasbasbag69
(g85
g71
NtRp813
(dp814
g74
(dp815
sg83
g464
sg76
(lp816
g69
(g90
g71
NtRp817
(dp818
g74
(dp819
g94
g95
ssg83
g813
sg76
(lp820
S'is_jython'
p821
asbag69
(g90
g71
NtRp822
(dp823
g74
(dp824
g101
g102
ssg83
g813
sg76
(lp825
S':'
asbag69
(g90
g71
NtRp826
(dp827
g74
(dp828
sg83
g813
sg76
(lp829
g69
(g70
g71
NtRp830
(dp831
g74
(dp832
g82
I4
ssg83
g826
sg76
(lp833
g112
asbasbasbag69
(g85
g71
NtRp834
(dp835
g74
(dp836
sg83
g464
sg76
(lp837
g69
(g90
g71
NtRp838
(dp839
g74
(dp840
g94
g95
ssg83
g834
sg76
(lp841
S'is_pypy'
p842
asbag69
(g90
g71
NtRp843
(dp844
g74
(dp845
g101
g102
ssg83
g834
sg76
(lp846
S':'
asbag69
(g90
g71
NtRp847
(dp848
g74
(dp849
sg83
g834
sg76
(lp850
g69
(g70
g71
NtRp851
(dp852
g74
(dp853
g82
I4
ssg83
g847
sg76
(lp854
g112
asbasbasbag69
(g85
g71
NtRp855
(dp856
g74
(dp857
sg83
g464
sg76
(lp858
g69
(g90
g71
NtRp859
(dp860
g74
(dp861
g94
g95
ssg83
g855
sg76
(lp862
S'path_info'
p863
asbag69
(g90
g71
NtRp864
(dp865
g74
(dp866
g101
g102
ssg83
g855
sg76
(lp867
S':'
asbag69
(g90
g71
NtRp868
(dp869
g74
(dp870
sg83
g855
sg76
(lp871
g69
(g70
g71
NtRp872
(dp873
g74
(dp874
g82
I4
ssg83
g868
sg76
(lp875
S'/igor/subject/get_all_subjects'
p876
asbasbasbag69
(g85
g71
NtRp877
(dp878
g74
(dp879
sg83
g464
sg76
(lp880
g69
(g90
g71
NtRp881
(dp882
g74
(dp883
g94
g95
ssg83
g877
sg76
(lp884
S'query_string'
p885
asbag69
(g90
g71
NtRp886
(dp887
g74
(dp888
g101
g102
ssg83
g877
sg76
(lp889
S':'
asbag69
(g90
g71
NtRp890
(dp891
g74
(dp892
sg83
g877
sg76
(lp893
g69
(g70
g71
NtRp894
(dp895
g74
(dp896
g82
I4
ssg83
g890
sg76
(lp897
S''
asbasbasbag69
(g85
g71
NtRp898
(dp899
g74
(dp900
sg83
g464
sg76
(lp901
g69
(g90
g71
NtRp902
(dp903
g74
(dp904
g94
g95
ssg83
g898
sg76
(lp905
S'remote_addr'
p906
asbag69
(g90
g71
NtRp907
(dp908
g74
(dp909
g101
g102
ssg83
g898
sg76
(lp910
S':'
asbag69
(g90
g71
NtRp911
(dp912
g74
(dp913
sg83
g898
sg76
(lp914
g69
(g70
g71
NtRp915
(dp916
g74
(dp917
g82
I4
ssg83
g911
sg76
(lp918
g202
asbasbasbag69
(g85
g71
NtRp919
(dp920
g74
(dp921
sg83
g464
sg76
(lp922
g69
(g90
g71
NtRp923
(dp924
g74
(dp925
g94
g95
ssg83
g919
sg76
(lp926
S'remote_port'
p927
asbag69
(g90
g71
NtRp928
(dp929
g74
(dp930
g101
g102
ssg83
g919
sg76
(lp931
S':'
asbag69
(g90
g71
NtRp932
(dp933
g74
(dp934
sg83
g919
sg76
(lp935
g69
(g70
g71
NtRp936
(dp937
g74
(dp938
g82
I4
ssg83
g932
sg76
(lp939
S'45399'
p940
asbasbasbag69
(g85
g71
NtRp941
(dp942
g74
(dp943
sg83
g464
sg76
(lp944
g69
(g90
g71
NtRp945
(dp946
g74
(dp947
g94
g95
ssg83
g941
sg76
(lp948
S'request_method'
p949
asbag69
(g90
g71
NtRp950
(dp951
g74
(dp952
g101
g102
ssg83
g941
sg76
(lp953
S':'
asbag69
(g90
g71
NtRp954
(dp955
g74
(dp956
sg83
g941
sg76
(lp957
g69
(g70
g71
NtRp958
(dp959
g74
(dp960
g82
I4
ssg83
g954
sg76
(lp961
S'GET'
p962
asbasbasbag69
(g85
g71
NtRp963
(dp964
g74
(dp965
sg83
g464
sg76
(lp966
g69
(g90
g71
NtRp967
(dp968
g74
(dp969
g94
g95
ssg83
g963
sg76
(lp970
S'script_name'
p971
asbag69
(g90
g71
NtRp972
(dp973
g74
(dp974
g101
g102
ssg83
g963
sg76
(lp975
S':'
asbag69
(g90
g71
NtRp976
(dp977
g74
(dp978
sg83
g963
sg76
(lp979
g69
(g70
g71
NtRp980
(dp981
g74
(dp982
g82
I4
ssg83
g976
sg76
(lp983
S''
asbasbasbag69
(g85
g71
NtRp984
(dp985
g74
(dp986
sg83
g464
sg76
(lp987
g69
(g90
g71
NtRp988
(dp989
g74
(dp990
g94
g95
ssg83
g984
sg76
(lp991
S'server_name'
p992
asbag69
(g90
g71
NtRp993
(dp994
g74
(dp995
g101
g102
ssg83
g984
sg76
(lp996
S':'
asbag69
(g90
g71
NtRp997
(dp998
g74
(dp999
sg83
g984
sg76
(lp1000
g69
(g70
g71
NtRp1001
(dp1002
g74
(dp1003
g82
I4
ssg83
g997
sg76
(lp1004
S'PHUCNH-PC'
p1005
asbasbasbag69
(g85
g71
NtRp1006
(dp1007
g74
(dp1008
sg83
g464
sg76
(lp1009
g69
(g90
g71
NtRp1010
(dp1011
g74
(dp1012
g94
g95
ssg83
g1006
sg76
(lp1013
S'server_port'
p1014
asbag69
(g90
g71
NtRp1015
(dp1016
g74
(dp1017
g101
g102
ssg83
g1006
sg76
(lp1018
S':'
asbag69
(g90
g71
NtRp1019
(dp1020
g74
(dp1021
sg83
g1006
sg76
(lp1022
g69
(g70
g71
NtRp1023
(dp1024
g74
(dp1025
g82
I4
ssg83
g1019
sg76
(lp1026
S'8000'
p1027
asbasbasbag69
(g85
g71
NtRp1028
(dp1029
g74
(dp1030
sg83
g464
sg76
(lp1031
g69
(g90
g71
NtRp1032
(dp1033
g74
(dp1034
g94
g95
ssg83
g1028
sg76
(lp1035
S'server_protocol'
p1036
asbag69
(g90
g71
NtRp1037
(dp1038
g74
(dp1039
g101
g102
ssg83
g1028
sg76
(lp1040
S':'
asbag69
(g90
g71
NtRp1041
(dp1042
g74
(dp1043
sg83
g1028
sg76
(lp1044
g69
(g70
g71
NtRp1045
(dp1046
g74
(dp1047
g82
I4
ssg83
g1041
sg76
(lp1048
S'HTTP/1.1'
p1049
asbasbasbag69
(g85
g71
NtRp1050
(dp1051
g74
(dp1052
sg83
g464
sg76
(lp1053
g69
(g90
g71
NtRp1054
(dp1055
g74
(dp1056
g94
g95
ssg83
g1050
sg76
(lp1057
S'server_software'
p1058
asbag69
(g90
g71
NtRp1059
(dp1060
g74
(dp1061
g101
g102
ssg83
g1050
sg76
(lp1062
S':'
asbag69
(g90
g71
NtRp1063
(dp1064
g74
(dp1065
sg83
g1050
sg76
(lp1066
g69
(g70
g71
NtRp1067
(dp1068
g74
(dp1069
g82
I4
ssg83
g1063
sg76
(lp1070
S'Rocket 1.2.4'
p1071
asbasbasbag69
(g85
g71
NtRp1072
(dp1073
g74
(dp1074
sg83
g464
sg76
(lp1075
g69
(g90
g71
NtRp1076
(dp1077
g74
(dp1078
g94
g95
ssg83
g1072
sg76
(lp1079
S'web2py_crontype'
p1080
asbag69
(g90
g71
NtRp1081
(dp1082
g74
(dp1083
g101
g102
ssg83
g1072
sg76
(lp1084
S':'
asbag69
(g90
g71
NtRp1085
(dp1086
g74
(dp1087
sg83
g1072
sg76
(lp1088
g69
(g70
g71
NtRp1089
(dp1090
g74
(dp1091
g82
I4
ssg83
g1085
sg76
(lp1092
S'hard'
p1093
asbasbasbag69
(g85
g71
NtRp1094
(dp1095
g74
(dp1096
sg83
g464
sg76
(lp1097
g69
(g90
g71
NtRp1098
(dp1099
g74
(dp1100
g94
g95
ssg83
g1094
sg76
(lp1101
S'web2py_path'
p1102
asbag69
(g90
g71
NtRp1103
(dp1104
g74
(dp1105
g101
g102
ssg83
g1094
sg76
(lp1106
S':'
asbag69
(g90
g71
NtRp1107
(dp1108
g74
(dp1109
sg83
g1094
sg76
(lp1110
g69
(g70
g71
NtRp1111
(dp1112
g74
(dp1113
g82
I4
ssg83
g1107
sg76
(lp1114
g511
asbasbasbag69
(g85
g71
NtRp1115
(dp1116
g74
(dp1117
sg83
g464
sg76
(lp1118
g69
(g90
g71
NtRp1119
(dp1120
g74
(dp1121
g94
g95
ssg83
g1115
sg76
(lp1122
S'web2py_version'
p1123
asbag69
(g90
g71
NtRp1124
(dp1125
g74
(dp1126
g101
g102
ssg83
g1115
sg76
(lp1127
S':'
asbag69
(g90
g71
NtRp1128
(dp1129
g74
(dp1130
sg83
g1115
sg76
(lp1131
g69
(g70
g71
NtRp1132
(dp1133
g74
(dp1134
g82
I4
ssg83
g1128
sg76
(lp1135
g69
(g78
g71
NtRp1136
(dp1137
g74
(dp1138
g82
I3
ssg83
Nsg76
(lp1139
g69
(g85
g71
NtRp1140
(dp1141
g74
(dp1142
sg83
g1136
sg76
(lp1143
g69
(g90
g71
NtRp1144
(dp1145
g74
(dp1146
sg83
g1140
sg76
(lp1147
g69
(g70
g71
NtRp1148
(dp1149
g74
(dp1150
g82
I3
ssg83
g1144
sg76
(lp1151
S'1'
asbasbasbag69
(g85
g71
NtRp1152
(dp1153
g74
(dp1154
sg83
g1136
sg76
(lp1155
g69
(g90
g71
NtRp1156
(dp1157
g74
(dp1158
sg83
g1152
sg76
(lp1159
g69
(g70
g71
NtRp1160
(dp1161
g74
(dp1162
g82
I3
ssg83
g1156
sg76
(lp1163
S'99'
p1164
asbasbasbag69
(g85
g71
NtRp1165
(dp1166
g74
(dp1167
sg83
g1136
sg76
(lp1168
g69
(g90
g71
NtRp1169
(dp1170
g74
(dp1171
sg83
g1165
sg76
(lp1172
g69
(g70
g71
NtRp1173
(dp1174
g74
(dp1175
g82
I3
ssg83
g1169
sg76
(lp1176
S'7'
asbasbasbag69
(g85
g71
NtRp1177
(dp1178
g74
(dp1179
sg83
g1136
sg76
(lp1180
g69
(g90
g71
NtRp1181
(dp1182
g74
(dp1183
sg83
g1177
sg76
(lp1184
g69
(g70
g71
NtRp1185
(dp1186
g74
(dp1187
g82
I3
ssg83
g1181
sg76
(lp1188
S'datetime.datetime(2012, 3, 4, 22, 12, 8)'
p1189
asbasbasbag69
(g85
g71
NtRp1190
(dp1191
g74
(dp1192
sg83
g1136
sg76
(lp1193
g69
(g90
g71
NtRp1194
(dp1195
g74
(dp1196
sg83
g1190
sg76
(lp1197
g69
(g70
g71
NtRp1198
(dp1199
g74
(dp1200
g82
I3
ssg83
g1194
sg76
(lp1201
S'stable'
p1202
asbasbasbasbasbasbasbag69
(g85
g71
NtRp1203
(dp1204
g74
(dp1205
sg83
g464
sg76
(lp1206
g69
(g90
g71
NtRp1207
(dp1208
g74
(dp1209
g94
g95
ssg83
g1203
sg76
(lp1210
S'wsgi_errors'
p1211
asbag69
(g90
g71
NtRp1212
(dp1213
g74
(dp1214
g101
g102
ssg83
g1203
sg76
(lp1215
S':'
asbag69
(g90
g71
NtRp1216
(dp1217
g74
(dp1218
sg83
g1203
sg76
(lp1219
g69
(g70
g71
NtRp1220
(dp1221
g74
(dp1222
g82
I4
ssg83
g1216
sg76
(lp1223
S"<open file '<stderr>', mode 'w' at 0x0000000001CCE1E0>"
p1224
asbasbasbag69
(g85
g71
NtRp1225
(dp1226
g74
(dp1227
sg83
g464
sg76
(lp1228
g69
(g90
g71
NtRp1229
(dp1230
g74
(dp1231
g94
g95
ssg83
g1225
sg76
(lp1232
S'wsgi_file_wrapper'
p1233
asbag69
(g90
g71
NtRp1234
(dp1235
g74
(dp1236
g101
g102
ssg83
g1225
sg76
(lp1237
S':'
asbag69
(g90
g71
NtRp1238
(dp1239
g74
(dp1240
sg83
g1225
sg76
(lp1241
g69
(g70
g71
NtRp1242
(dp1243
g74
(dp1244
g82
I4
ssg83
g1238
sg76
(lp1245
S'<class wsgiref.util.FileWrapper at 0x0000000003648AC8>'
p1246
asbasbasbag69
(g85
g71
NtRp1247
(dp1248
g74
(dp1249
sg83
g464
sg76
(lp1250
g69
(g90
g71
NtRp1251
(dp1252
g74
(dp1253
g94
g95
ssg83
g1247
sg76
(lp1254
S'wsgi_input'
p1255
asbag69
(g90
g71
NtRp1256
(dp1257
g74
(dp1258
g101
g102
ssg83
g1247
sg76
(lp1259
S':'
asbag69
(g90
g71
NtRp1260
(dp1261
g74
(dp1262
sg83
g1247
sg76
(lp1263
g69
(g70
g71
NtRp1264
(dp1265
g74
(dp1266
g82
I4
ssg83
g1260
sg76
(lp1267
S'<socket._fileobject object at 0x0000000005251B10>'
p1268
asbasbasbag69
(g85
g71
NtRp1269
(dp1270
g74
(dp1271
sg83
g464
sg76
(lp1272
g69
(g90
g71
NtRp1273
(dp1274
g74
(dp1275
g94
g95
ssg83
g1269
sg76
(lp1276
S'wsgi_multiprocess'
p1277
asbag69
(g90
g71
NtRp1278
(dp1279
g74
(dp1280
g101
g102
ssg83
g1269
sg76
(lp1281
S':'
asbag69
(g90
g71
NtRp1282
(dp1283
g74
(dp1284
sg83
g1269
sg76
(lp1285
g69
(g70
g71
NtRp1286
(dp1287
g74
(dp1288
g82
I4
ssg83
g1282
sg76
(lp1289
g112
asbasbasbag69
(g85
g71
NtRp1290
(dp1291
g74
(dp1292
sg83
g464
sg76
(lp1293
g69
(g90
g71
NtRp1294
(dp1295
g74
(dp1296
g94
g95
ssg83
g1290
sg76
(lp1297
S'wsgi_multithread'
p1298
asbag69
(g90
g71
NtRp1299
(dp1300
g74
(dp1301
g101
g102
ssg83
g1290
sg76
(lp1302
S':'
asbag69
(g90
g71
NtRp1303
(dp1304
g74
(dp1305
sg83
g1290
sg76
(lp1306
g69
(g70
g71
NtRp1307
(dp1308
g74
(dp1309
g82
I4
ssg83
g1303
sg76
(lp1310
S'True'
p1311
asbasbasbag69
(g85
g71
NtRp1312
(dp1313
g74
(dp1314
sg83
g464
sg76
(lp1315
g69
(g90
g71
NtRp1316
(dp1317
g74
(dp1318
g94
g95
ssg83
g1312
sg76
(lp1319
S'wsgi_run_once'
p1320
asbag69
(g90
g71
NtRp1321
(dp1322
g74
(dp1323
g101
g102
ssg83
g1312
sg76
(lp1324
S':'
asbag69
(g90
g71
NtRp1325
(dp1326
g74
(dp1327
sg83
g1312
sg76
(lp1328
g69
(g70
g71
NtRp1329
(dp1330
g74
(dp1331
g82
I4
ssg83
g1325
sg76
(lp1332
g112
asbasbasbag69
(g85
g71
NtRp1333
(dp1334
g74
(dp1335
sg83
g464
sg76
(lp1336
g69
(g90
g71
NtRp1337
(dp1338
g74
(dp1339
g94
g95
ssg83
g1333
sg76
(lp1340
S'wsgi_url_scheme'
p1341
asbag69
(g90
g71
NtRp1342
(dp1343
g74
(dp1344
g101
g102
ssg83
g1333
sg76
(lp1345
S':'
asbag69
(g90
g71
NtRp1346
(dp1347
g74
(dp1348
sg83
g1333
sg76
(lp1349
g69
(g70
g71
NtRp1350
(dp1351
g74
(dp1352
g82
I4
ssg83
g1346
sg76
(lp1353
S'http'
p1354
asbasbasbag69
(g85
g71
NtRp1355
(dp1356
g74
(dp1357
sg83
g464
sg76
(lp1358
g69
(g90
g71
NtRp1359
(dp1360
g74
(dp1361
g94
g95
ssg83
g1355
sg76
(lp1362
S'wsgi_version'
p1363
asbag69
(g90
g71
NtRp1364
(dp1365
g74
(dp1366
g101
g102
ssg83
g1355
sg76
(lp1367
S':'
asbag69
(g90
g71
NtRp1368
(dp1369
g74
(dp1370
sg83
g1355
sg76
(lp1371
g69
(g70
g71
NtRp1372
(dp1373
g74
(dp1374
g82
I4
ssg83
g1368
sg76
(lp1375
g69
(g78
g71
NtRp1376
(dp1377
g74
(dp1378
g82
I3
ssg83
Nsg76
(lp1379
g69
(g85
g71
NtRp1380
(dp1381
g74
(dp1382
sg83
g1376
sg76
(lp1383
g69
(g90
g71
NtRp1384
(dp1385
g74
(dp1386
sg83
g1380
sg76
(lp1387
g69
(g70
g71
NtRp1388
(dp1389
g74
(dp1390
g82
I3
ssg83
g1384
sg76
(lp1391
S'1'
asbasbasbag69
(g85
g71
NtRp1392
(dp1393
g74
(dp1394
sg83
g1376
sg76
(lp1395
g69
(g90
g71
NtRp1396
(dp1397
g74
(dp1398
sg83
g1392
sg76
(lp1399
g69
(g70
g71
NtRp1400
(dp1401
g74
(dp1402
g82
I3
ssg83
g1396
sg76
(lp1403
S'0'
asbasbasbasbasbasbasbasbasbasbasbag69
(g85
g71
NtRp1404
(dp1405
g74
(dp1406
sg83
g79
sg76
(lp1407
g69
(g90
g71
NtRp1408
(dp1409
g74
(dp1410
g94
g95
ssg83
g1404
sg76
(lp1411
S'extension'
p1412
asbag69
(g90
g71
NtRp1413
(dp1414
g74
(dp1415
g101
g102
ssg83
g1404
sg76
(lp1416
S':'
asbag69
(g90
g71
NtRp1417
(dp1418
g74
(dp1419
sg83
g1404
sg76
(lp1420
g69
(g70
g71
NtRp1421
(dp1422
g74
(dp1423
g82
I5
ssg83
g1417
sg76
(lp1424
S'html'
p1425
asbasbasbag69
(g85
g71
NtRp1426
(dp1427
g74
(dp1428
sg83
g79
sg76
(lp1429
g69
(g90
g71
NtRp1430
(dp1431
g74
(dp1432
g94
g95
ssg83
g1426
sg76
(lp1433
S'folder'
p1434
asbag69
(g90
g71
NtRp1435
(dp1436
g74
(dp1437
g101
g102
ssg83
g1426
sg76
(lp1438
S':'
asbag69
(g90
g71
NtRp1439
(dp1440
g74
(dp1441
sg83
g1426
sg76
(lp1442
g69
(g70
g71
NtRp1443
(dp1444
g74
(dp1445
g82
I5
ssg83
g1439
sg76
(lp1446
S'D:\\workspace\\CA\\IgoR\\C_Sources\\Server\\igor-assistant-ca-2012\\applications\\igor\\'
p1447
asbasbasbag69
(g85
g71
NtRp1448
(dp1449
g74
(dp1450
sg83
g79
sg76
(lp1451
g69
(g90
g71
NtRp1452
(dp1453
g74
(dp1454
g94
g95
ssg83
g1448
sg76
(lp1455
S'function'
p1456
asbag69
(g90
g71
NtRp1457
(dp1458
g74
(dp1459
g101
g102
ssg83
g1448
sg76
(lp1460
S':'
asbag69
(g90
g71
NtRp1461
(dp1462
g74
(dp1463
sg83
g1448
sg76
(lp1464
g69
(g70
g71
NtRp1465
(dp1466
g74
(dp1467
g82
I5
ssg83
g1461
sg76
(lp1468
S'get_all_subjects'
p1469
asbasbasbag69
(g85
g71
NtRp1470
(dp1471
g74
(dp1472
sg83
g79
sg76
(lp1473
g69
(g90
g71
NtRp1474
(dp1475
g74
(dp1476
g94
g95
ssg83
g1470
sg76
(lp1477
S'get_vars'
p1478
asbag69
(g90
g71
NtRp1479
(dp1480
g74
(dp1481
g101
g102
ssg83
g1470
sg76
(lp1482
S':'
asbag69
(g90
g71
NtRp1483
(dp1484
g74
(dp1485
sg83
g1470
sg76
(lp1486
g69
(g70
g71
NtRp1487
(dp1488
g74
(dp1489
g82
I5
ssg83
g1483
sg76
(lp1490
g69
(g78
g71
NtRp1491
(dp1492
g74
(dp1493
g82
I4
ssg83
Nsg76
(lp1494
sbasbasbasbag69
(g85
g71
NtRp1495
(dp1496
g74
(dp1497
sg83
g79
sg76
(lp1498
g69
(g90
g71
NtRp1499
(dp1500
g74
(dp1501
g94
g95
ssg83
g1495
sg76
(lp1502
S'global_settings'
p1503
asbag69
(g90
g71
NtRp1504
(dp1505
g74
(dp1506
g101
g102
ssg83
g1495
sg76
(lp1507
S':'
asbag69
(g90
g71
NtRp1508
(dp1509
g74
(dp1510
sg83
g1495
sg76
(lp1511
g69
(g70
g71
NtRp1512
(dp1513
g74
(dp1514
g82
I5
ssg83
g1508
sg76
(lp1515
g69
(g78
g71
NtRp1516
(dp1517
g74
(dp1518
g82
I4
ssg83
Nsg76
(lp1519
g69
(g85
g71
NtRp1520
(dp1521
g74
(dp1522
sg83
g1516
sg76
(lp1523
g69
(g90
g71
NtRp1524
(dp1525
g74
(dp1526
g94
g95
ssg83
g1520
sg76
(lp1527
g476
asbag69
(g90
g71
NtRp1528
(dp1529
g74
(dp1530
g101
g102
ssg83
g1520
sg76
(lp1531
S':'
asbag69
(g90
g71
NtRp1532
(dp1533
g74
(dp1534
sg83
g1520
sg76
(lp1535
g69
(g70
g71
NtRp1536
(dp1537
g74
(dp1538
g82
I4
ssg83
g1532
sg76
(lp1539
S"set(['D:\\\\workspace\\\\CA\\\\IgoR\\\\C_Sources\\\\Server\\\\igor-assistant-ca-2012\\\\applications\\\\igor\\\\', 'D:\\\\workspace\\\\CA\\\\IgoR\\\\C_Sources\\\\Server\\\\igor-assistant-ca-2012\\\\applications\\\\welcome\\\\'])"
p1540
asbasbasbag69
(g85
g71
NtRp1541
(dp1542
g74
(dp1543
sg83
g1516
sg76
(lp1544
g69
(g90
g71
NtRp1545
(dp1546
g74
(dp1547
g94
g95
ssg83
g1541
sg76
(lp1548
g498
asbag69
(g90
g71
NtRp1549
(dp1550
g74
(dp1551
g101
g102
ssg83
g1541
sg76
(lp1552
S':'
asbag69
(g90
g71
NtRp1553
(dp1554
g74
(dp1555
sg83
g1541
sg76
(lp1556
g69
(g70
g71
NtRp1557
(dp1558
g74
(dp1559
g82
I4
ssg83
g1553
sg76
(lp1560
g511
asbasbasbag69
(g85
g71
NtRp1561
(dp1562
g74
(dp1563
sg83
g1516
sg76
(lp1564
g69
(g90
g71
NtRp1565
(dp1566
g74
(dp1567
g94
g95
ssg83
g1561
sg76
(lp1568
g520
asbag69
(g90
g71
NtRp1569
(dp1570
g74
(dp1571
g101
g102
ssg83
g1561
sg76
(lp1572
S':'
asbag69
(g90
g71
NtRp1573
(dp1574
g74
(dp1575
sg83
g1561
sg76
(lp1576
g69
(g70
g71
NtRp1577
(dp1578
g74
(dp1579
g82
I4
ssg83
g1573
sg76
(lp1580
g69
(g78
g71
NtRp1581
(dp1582
g74
(dp1583
g82
I3
ssg83
Nsg76
(lp1584
g69
(g85
g71
NtRp1585
(dp1586
g74
(dp1587
sg83
g1581
sg76
(lp1588
g69
(g90
g71
NtRp1589
(dp1590
g74
(dp1591
sg83
g1585
sg76
(lp1592
g69
(g70
g71
NtRp1593
(dp1594
g74
(dp1595
g82
I3
ssg83
g1589
sg76
(lp1596
g549
asbasbasbasbasbasbasbag69
(g85
g71
NtRp1597
(dp1598
g74
(dp1599
sg83
g1516
sg76
(lp1600
g69
(g90
g71
NtRp1601
(dp1602
g74
(dp1603
g94
g95
ssg83
g1597
sg76
(lp1604
g558
asbag69
(g90
g71
NtRp1605
(dp1606
g74
(dp1607
g101
g102
ssg83
g1597
sg76
(lp1608
S':'
asbag69
(g90
g71
NtRp1609
(dp1610
g74
(dp1611
sg83
g1597
sg76
(lp1612
g69
(g70
g71
NtRp1613
(dp1614
g74
(dp1615
g82
I4
ssg83
g1609
sg76
(lp1616
S"<Values at 0x3764d88: {'verbose': False, 'ip': '127.0.0.1', 'shutdown_timeout': 5, 'taskbar': False, 'nocron': False, 'pid_filename': 'httpserver.pid', 'maxthreads': None, 'softcron': False, 'server_name': 'PHUCNH-PC', 'bpython': False, 'nogui': False, 'port': 8000, 'extcron': False, 'debuglevel': 30, 'test': None, 'folder': 'D:\\\\workspace\\\\CA\\\\IgoR\\\\C_Sources\\\\Server\\\\igor-assistant-ca-2012', 'config': '', 'import_models': False, 'winservice': '', 'shell': None, 'run': '', 'log_filename': 'httpserver.log', 'args': [''], 'socket_timeout': 5, 'ssl_ca_certificate': None, 'scheduler': None, 'profiler_filename': None, 'ssl_private_key': '', 'password': '<ask>', 'request_queue_size': 5, 'ssl_certificate': '', 'cronjob': False, 'numthreads': None, 'quiet': False, 'interfaces': None, 'minthreads': None, 'timeout': 10, 'plain': False, 'nobanner': False}>"
p1617
asbasbasbag69
(g85
g71
NtRp1618
(dp1619
g74
(dp1620
sg83
g1516
sg76
(lp1621
g69
(g90
g71
NtRp1622
(dp1623
g74
(dp1624
g94
g95
ssg83
g1618
sg76
(lp1625
g580
asbag69
(g90
g71
NtRp1626
(dp1627
g74
(dp1628
g101
g102
ssg83
g1618
sg76
(lp1629
S':'
asbag69
(g90
g71
NtRp1630
(dp1631
g74
(dp1632
sg83
g1618
sg76
(lp1633
g69
(g70
g71
NtRp1634
(dp1635
g74
(dp1636
g82
I4
ssg83
g1630
sg76
(lp1637
S'set([])'
p1638
asbasbasbag69
(g85
g71
NtRp1639
(dp1640
g74
(dp1641
sg83
g1516
sg76
(lp1642
g69
(g90
g71
NtRp1643
(dp1644
g74
(dp1645
g94
g95
ssg83
g1639
sg76
(lp1646
g602
asbag69
(g90
g71
NtRp1647
(dp1648
g74
(dp1649
g101
g102
ssg83
g1639
sg76
(lp1650
S':'
asbag69
(g90
g71
NtRp1651
(dp1652
g74
(dp1653
sg83
g1639
sg76
(lp1654
g69
(g70
g71
NtRp1655
(dp1656
g74
(dp1657
g82
I4
ssg83
g1651
sg76
(lp1658
g112
asbasbasbag69
(g85
g71
NtRp1659
(dp1660
g74
(dp1661
sg83
g1516
sg76
(lp1662
g69
(g90
g71
NtRp1663
(dp1664
g74
(dp1665
g94
g95
ssg83
g1659
sg76
(lp1666
g623
asbag69
(g90
g71
NtRp1667
(dp1668
g74
(dp1669
g101
g102
ssg83
g1659
sg76
(lp1670
S':'
asbag69
(g90
g71
NtRp1671
(dp1672
g74
(dp1673
sg83
g1659
sg76
(lp1674
g69
(g70
g71
NtRp1675
(dp1676
g74
(dp1677
g82
I4
ssg83
g1671
sg76
(lp1678
g636
asbasbasbag69
(g85
g71
NtRp1679
(dp1680
g74
(dp1681
sg83
g1516
sg76
(lp1682
g69
(g90
g71
NtRp1683
(dp1684
g74
(dp1685
g94
g95
ssg83
g1679
sg76
(lp1686
g821
asbag69
(g90
g71
NtRp1687
(dp1688
g74
(dp1689
g101
g102
ssg83
g1679
sg76
(lp1690
S':'
asbag69
(g90
g71
NtRp1691
(dp1692
g74
(dp1693
sg83
g1679
sg76
(lp1694
g69
(g70
g71
NtRp1695
(dp1696
g74
(dp1697
g82
I4
ssg83
g1691
sg76
(lp1698
g112
asbasbasbag69
(g85
g71
NtRp1699
(dp1700
g74
(dp1701
sg83
g1516
sg76
(lp1702
g69
(g90
g71
NtRp1703
(dp1704
g74
(dp1705
g94
g95
ssg83
g1699
sg76
(lp1706
g842
asbag69
(g90
g71
NtRp1707
(dp1708
g74
(dp1709
g101
g102
ssg83
g1699
sg76
(lp1710
S':'
asbag69
(g90
g71
NtRp1711
(dp1712
g74
(dp1713
sg83
g1699
sg76
(lp1714
g69
(g70
g71
NtRp1715
(dp1716
g74
(dp1717
g82
I4
ssg83
g1711
sg76
(lp1718
g112
asbasbasbag69
(g85
g71
NtRp1719
(dp1720
g74
(dp1721
sg83
g1516
sg76
(lp1722
g69
(g90
g71
NtRp1723
(dp1724
g74
(dp1725
g94
g95
ssg83
g1719
sg76
(lp1726
g1080
asbag69
(g90
g71
NtRp1727
(dp1728
g74
(dp1729
g101
g102
ssg83
g1719
sg76
(lp1730
S':'
asbag69
(g90
g71
NtRp1731
(dp1732
g74
(dp1733
sg83
g1719
sg76
(lp1734
g69
(g70
g71
NtRp1735
(dp1736
g74
(dp1737
g82
I4
ssg83
g1731
sg76
(lp1738
g1093
asbasbasbag69
(g85
g71
NtRp1739
(dp1740
g74
(dp1741
sg83
g1516
sg76
(lp1742
g69
(g90
g71
NtRp1743
(dp1744
g74
(dp1745
g94
g95
ssg83
g1739
sg76
(lp1746
g1123
asbag69
(g90
g71
NtRp1747
(dp1748
g74
(dp1749
g101
g102
ssg83
g1739
sg76
(lp1750
S':'
asbag69
(g90
g71
NtRp1751
(dp1752
g74
(dp1753
sg83
g1739
sg76
(lp1754
g69
(g70
g71
NtRp1755
(dp1756
g74
(dp1757
g82
I4
ssg83
g1751
sg76
(lp1758
g69
(g78
g71
NtRp1759
(dp1760
g74
(dp1761
g82
I3
ssg83
Nsg76
(lp1762
g69
(g85
g71
NtRp1763
(dp1764
g74
(dp1765
sg83
g1759
sg76
(lp1766
g69
(g90
g71
NtRp1767
(dp1768
g74
(dp1769
sg83
g1763
sg76
(lp1770
g69
(g70
g71
NtRp1771
(dp1772
g74
(dp1773
g82
I3
ssg83
g1767
sg76
(lp1774
S'1'
asbasbasbag69
(g85
g71
NtRp1775
(dp1776
g74
(dp1777
sg83
g1759
sg76
(lp1778
g69
(g90
g71
NtRp1779
(dp1780
g74
(dp1781
sg83
g1775
sg76
(lp1782
g69
(g70
g71
NtRp1783
(dp1784
g74
(dp1785
g82
I3
ssg83
g1779
sg76
(lp1786
S'99'
p1787
asbasbasbag69
(g85
g71
NtRp1788
(dp1789
g74
(dp1790
sg83
g1759
sg76
(lp1791
g69
(g90
g71
NtRp1792
(dp1793
g74
(dp1794
sg83
g1788
sg76
(lp1795
g69
(g70
g71
NtRp1796
(dp1797
g74
(dp1798
g82
I3
ssg83
g1792
sg76
(lp1799
S'7'
asbasbasbag69
(g85
g71
NtRp1800
(dp1801
g74
(dp1802
sg83
g1759
sg76
(lp1803
g69
(g90
g71
NtRp1804
(dp1805
g74
(dp1806
sg83
g1800
sg76
(lp1807
g69
(g70
g71
NtRp1808
(dp1809
g74
(dp1810
g82
I3
ssg83
g1804
sg76
(lp1811
S'datetime.datetime(2012, 3, 4, 22, 12, 8)'
p1812
asbasbasbag69
(g85
g71
NtRp1813
(dp1814
g74
(dp1815
sg83
g1759
sg76
(lp1816
g69
(g90
g71
NtRp1817
(dp1818
g74
(dp1819
sg83
g1813
sg76
(lp1820
g69
(g70
g71
NtRp1821
(dp1822
g74
(dp1823
g82
I3
ssg83
g1817
sg76
(lp1824
g1202
asbasbasbasbasbasbasbasbasbasbasbag69
(g85
g71
NtRp1825
(dp1826
g74
(dp1827
sg83
g79
sg76
(lp1828
g69
(g90
g71
NtRp1829
(dp1830
g74
(dp1831
g94
g95
ssg83
g1825
sg76
(lp1832
S'is_https'
p1833
asbag69
(g90
g71
NtRp1834
(dp1835
g74
(dp1836
g101
g102
ssg83
g1825
sg76
(lp1837
S':'
asbag69
(g90
g71
NtRp1838
(dp1839
g74
(dp1840
sg83
g1825
sg76
(lp1841
g69
(g70
g71
NtRp1842
(dp1843
g74
(dp1844
g82
I5
ssg83
g1838
sg76
(lp1845
g112
asbasbasbag69
(g85
g71
NtRp1846
(dp1847
g74
(dp1848
sg83
g79
sg76
(lp1849
g69
(g90
g71
NtRp1850
(dp1851
g74
(dp1852
g94
g95
ssg83
g1846
sg76
(lp1853
S'is_local'
p1854
asbag69
(g90
g71
NtRp1855
(dp1856
g74
(dp1857
g101
g102
ssg83
g1846
sg76
(lp1858
S':'
asbag69
(g90
g71
NtRp1859
(dp1860
g74
(dp1861
sg83
g1846
sg76
(lp1862
g69
(g70
g71
NtRp1863
(dp1864
g74
(dp1865
g82
I5
ssg83
g1859
sg76
(lp1866
g1311
asbasbasbag69
(g85
g71
NtRp1867
(dp1868
g74
(dp1869
sg83
g79
sg76
(lp1870
g69
(g90
g71
NtRp1871
(dp1872
g74
(dp1873
g94
g95
ssg83
g1867
sg76
(lp1874
S'is_restful'
p1875
asbag69
(g90
g71
NtRp1876
(dp1877
g74
(dp1878
g101
g102
ssg83
g1867
sg76
(lp1879
S':'
asbag69
(g90
g71
NtRp1880
(dp1881
g74
(dp1882
sg83
g1867
sg76
(lp1883
g69
(g70
g71
NtRp1884
(dp1885
g74
(dp1886
g82
I5
ssg83
g1880
sg76
(lp1887
g112
asbasbasbag69
(g85
g71
NtRp1888
(dp1889
g74
(dp1890
sg83
g79
sg76
(lp1891
g69
(g90
g71
NtRp1892
(dp1893
g74
(dp1894
g94
g95
ssg83
g1888
sg76
(lp1895
S'now'
p1896
asbag69
(g90
g71
NtRp1897
(dp1898
g74
(dp1899
g101
g102
ssg83
g1888
sg76
(lp1900
S':'
asbag69
(g90
g71
NtRp1901
(dp1902
g74
(dp1903
sg83
g1888
sg76
(lp1904
g69
(g70
g71
NtRp1905
(dp1906
g74
(dp1907
g82
I5
ssg83
g1901
sg76
(lp1908
S'datetime.datetime(2012, 8, 4, 21, 55, 16, 520000)'
p1909
asbasbasbag69
(g85
g71
NtRp1910
(dp1911
g74
(dp1912
sg83
g79
sg76
(lp1913
g69
(g90
g71
NtRp1914
(dp1915
g74
(dp1916
g94
g95
ssg83
g1910
sg76
(lp1917
S'post_vars'
p1918
asbag69
(g90
g71
NtRp1919
(dp1920
g74
(dp1921
g101
g102
ssg83
g1910
sg76
(lp1922
S':'
asbag69
(g90
g71
NtRp1923
(dp1924
g74
(dp1925
sg83
g1910
sg76
(lp1926
g69
(g70
g71
NtRp1927
(dp1928
g74
(dp1929
g82
I5
ssg83
g1923
sg76
(lp1930
g69
(g78
g71
NtRp1931
(dp1932
g74
(dp1933
g82
I4
ssg83
Nsg76
(lp1934
sbasbasbasbag69
(g85
g71
NtRp1935
(dp1936
g74
(dp1937
sg83
g79
sg76
(lp1938
g69
(g90
g71
NtRp1939
(dp1940
g74
(dp1941
g94
g95
ssg83
g1935
sg76
(lp1942
S'url'
p1943
asbag69
(g90
g71
NtRp1944
(dp1945
g74
(dp1946
g101
g102
ssg83
g1935
sg76
(lp1947
S':'
asbag69
(g90
g71
NtRp1948
(dp1949
g74
(dp1950
sg83
g1935
sg76
(lp1951
g69
(g70
g71
NtRp1952
(dp1953
g74
(dp1954
g82
I5
ssg83
g1948
sg76
(lp1955
S'/igor/subject/get_all_subjects'
p1956
asbasbasbag69
(g85
g71
NtRp1957
(dp1958
g74
(dp1959
sg83
g79
sg76
(lp1960
g69
(g90
g71
NtRp1961
(dp1962
g74
(dp1963
g94
g95
ssg83
g1957
sg76
(lp1964
S'utcnow'
p1965
asbag69
(g90
g71
NtRp1966
(dp1967
g74
(dp1968
g101
g102
ssg83
g1957
sg76
(lp1969
S':'
asbag69
(g90
g71
NtRp1970
(dp1971
g74
(dp1972
sg83
g1957
sg76
(lp1973
g69
(g70
g71
NtRp1974
(dp1975
g74
(dp1976
g82
I5
ssg83
g1970
sg76
(lp1977
S'datetime.datetime(2012, 8, 4, 14, 55, 16, 521000)'
p1978
asbasbasbag69
(g85
g71
NtRp1979
(dp1980
g74
(dp1981
sg83
g79
sg76
(lp1982
g69
(g90
g71
NtRp1983
(dp1984
g74
(dp1985
g94
g95
ssg83
g1979
sg76
(lp1986
S'uuid'
p1987
asbag69
(g90
g71
NtRp1988
(dp1989
g74
(dp1990
g101
g102
ssg83
g1979
sg76
(lp1991
S':'
asbag69
(g90
g71
NtRp1992
(dp1993
g74
(dp1994
sg83
g1979
sg76
(lp1995
g69
(g70
g71
NtRp1996
(dp1997
g74
(dp1998
g82
I5
ssg83
g1992
sg76
(lp1999
S'igor/127.0.0.1.2012-08-04.21-55-16.ae4e3efb-c33f-4537-8e32-c934c3318e2c'
p2000
asbasbasbag69
(g85
g71
NtRp2001
(dp2002
g74
(dp2003
sg83
g79
sg76
(lp2004
g69
(g90
g71
NtRp2005
(dp2006
g74
(dp2007
g94
g95
ssg83
g2001
sg76
(lp2008
S'vars'
p2009
asbag69
(g90
g71
NtRp2010
(dp2011
g74
(dp2012
g101
g102
ssg83
g2001
sg76
(lp2013
S':'
asbag69
(g90
g71
NtRp2014
(dp2015
g74
(dp2016
sg83
g2001
sg76
(lp2017
g69
(g70
g71
NtRp2018
(dp2019
g74
(dp2020
g82
I5
ssg83
g2014
sg76
(lp2021
g69
(g78
g71
NtRp2022
(dp2023
g74
(dp2024
g82
I4
ssg83
Nsg76
(lp2025
sbasbasbasbag69
(g85
g71
NtRp2026
(dp2027
g74
(dp2028
sg83
g79
sg76
(lp2029
g69
(g90
g71
NtRp2030
(dp2031
g74
(dp2032
g94
g95
ssg83
g2026
sg76
(lp2033
S'wsgi'
p2034
asbag69
(g90
g71
NtRp2035
(dp2036
g74
(dp2037
g101
g102
ssg83
g2026
sg76
(lp2038
S':'
asbag69
(g90
g71
NtRp2039
(dp2040
g74
(dp2041
sg83
g2026
sg76
(lp2042
g69
(g70
g71
NtRp2043
(dp2044
g74
(dp2045
g82
I5
ssg83
g2039
sg76
(lp2046
g69
(g78
g71
NtRp2047
(dp2048
g74
(dp2049
g82
I4
ssg83
Nsg76
(lp2050
g69
(g85
g71
NtRp2051
(dp2052
g74
(dp2053
sg83
g2047
sg76
(lp2054
g69
(g90
g71
NtRp2055
(dp2056
g74
(dp2057
g94
g95
ssg83
g2051
sg76
(lp2058
S'environ'
p2059
asbag69
(g90
g71
NtRp2060
(dp2061
g74
(dp2062
g101
g102
ssg83
g2051
sg76
(lp2063
S':'
asbag69
(g90
g71
NtRp2064
(dp2065
g74
(dp2066
sg83
g2051
sg76
(lp2067
g69
(g70
g71
NtRp2068
(dp2069
g74
(dp2070
g82
I4
ssg83
g2064
sg76
(lp2071
g69
(g78
g71
NtRp2072
(dp2073
g74
(dp2074
g82
I3
ssg83
Nsg76
(lp2075
g69
(g85
g71
NtRp2076
(dp2077
g74
(dp2078
sg83
g2072
sg76
(lp2079
g69
(g90
g71
NtRp2080
(dp2081
g74
(dp2082
g94
g95
ssg83
g2076
sg76
(lp2083
S'HTTP_ACCEPT'
p2084
asbag69
(g90
g71
NtRp2085
(dp2086
g74
(dp2087
g101
g102
ssg83
g2076
sg76
(lp2088
S':'
asbag69
(g90
g71
NtRp2089
(dp2090
g74
(dp2091
sg83
g2076
sg76
(lp2092
g69
(g70
g71
NtRp2093
(dp2094
g74
(dp2095
g82
I3
ssg83
g2089
sg76
(lp2096
g658
asbasbasbag69
(g85
g71
NtRp2097
(dp2098
g74
(dp2099
sg83
g2072
sg76
(lp2100
g69
(g90
g71
NtRp2101
(dp2102
g74
(dp2103
g94
g95
ssg83
g2097
sg76
(lp2104
S'HTTP_ACCEPT_CHARSET'
p2105
asbag69
(g90
g71
NtRp2106
(dp2107
g74
(dp2108
g101
g102
ssg83
g2097
sg76
(lp2109
S':'
asbag69
(g90
g71
NtRp2110
(dp2111
g74
(dp2112
sg83
g2097
sg76
(lp2113
g69
(g70
g71
NtRp2114
(dp2115
g74
(dp2116
g82
I3
ssg83
g2110
sg76
(lp2117
g680
asbasbasbag69
(g85
g71
NtRp2118
(dp2119
g74
(dp2120
sg83
g2072
sg76
(lp2121
g69
(g90
g71
NtRp2122
(dp2123
g74
(dp2124
g94
g95
ssg83
g2118
sg76
(lp2125
S'HTTP_ACCEPT_ENCODING'
p2126
asbag69
(g90
g71
NtRp2127
(dp2128
g74
(dp2129
g101
g102
ssg83
g2118
sg76
(lp2130
S':'
asbag69
(g90
g71
NtRp2131
(dp2132
g74
(dp2133
sg83
g2118
sg76
(lp2134
g69
(g70
g71
NtRp2135
(dp2136
g74
(dp2137
g82
I3
ssg83
g2131
sg76
(lp2138
g702
asbasbasbag69
(g85
g71
NtRp2139
(dp2140
g74
(dp2141
sg83
g2072
sg76
(lp2142
g69
(g90
g71
NtRp2143
(dp2144
g74
(dp2145
g94
g95
ssg83
g2139
sg76
(lp2146
S'HTTP_ACCEPT_LANGUAGE'
p2147
asbag69
(g90
g71
NtRp2148
(dp2149
g74
(dp2150
g101
g102
ssg83
g2139
sg76
(lp2151
S':'
asbag69
(g90
g71
NtRp2152
(dp2153
g74
(dp2154
sg83
g2139
sg76
(lp2155
g69
(g70
g71
NtRp2156
(dp2157
g74
(dp2158
g82
I3
ssg83
g2152
sg76
(lp2159
g724
asbasbasbag69
(g85
g71
NtRp2160
(dp2161
g74
(dp2162
sg83
g2072
sg76
(lp2163
g69
(g90
g71
NtRp2164
(dp2165
g74
(dp2166
g94
g95
ssg83
g2160
sg76
(lp2167
S'HTTP_CONNECTION'
p2168
asbag69
(g90
g71
NtRp2169
(dp2170
g74
(dp2171
g101
g102
ssg83
g2160
sg76
(lp2172
S':'
asbag69
(g90
g71
NtRp2173
(dp2174
g74
(dp2175
sg83
g2160
sg76
(lp2176
g69
(g70
g71
NtRp2177
(dp2178
g74
(dp2179
g82
I3
ssg83
g2173
sg76
(lp2180
g746
asbasbasbag69
(g85
g71
NtRp2181
(dp2182
g74
(dp2183
sg83
g2072
sg76
(lp2184
g69
(g90
g71
NtRp2185
(dp2186
g74
(dp2187
g94
g95
ssg83
g2181
sg76
(lp2188
S'HTTP_COOKIE'
p2189
asbag69
(g90
g71
NtRp2190
(dp2191
g74
(dp2192
g101
g102
ssg83
g2181
sg76
(lp2193
S':'
asbag69
(g90
g71
NtRp2194
(dp2195
g74
(dp2196
sg83
g2181
sg76
(lp2197
g69
(g70
g71
NtRp2198
(dp2199
g74
(dp2200
g82
I3
ssg83
g2194
sg76
(lp2201
g768
asbasbasbag69
(g85
g71
NtRp2202
(dp2203
g74
(dp2204
sg83
g2072
sg76
(lp2205
g69
(g90
g71
NtRp2206
(dp2207
g74
(dp2208
g94
g95
ssg83
g2202
sg76
(lp2209
S'HTTP_HOST'
p2210
asbag69
(g90
g71
NtRp2211
(dp2212
g74
(dp2213
g101
g102
ssg83
g2202
sg76
(lp2214
S':'
asbag69
(g90
g71
NtRp2215
(dp2216
g74
(dp2217
sg83
g2202
sg76
(lp2218
g69
(g70
g71
NtRp2219
(dp2220
g74
(dp2221
g82
I3
ssg83
g2215
sg76
(lp2222
g790
asbasbasbag69
(g85
g71
NtRp2223
(dp2224
g74
(dp2225
sg83
g2072
sg76
(lp2226
g69
(g90
g71
NtRp2227
(dp2228
g74
(dp2229
g94
g95
ssg83
g2223
sg76
(lp2230
S'HTTP_USER_AGENT'
p2231
asbag69
(g90
g71
NtRp2232
(dp2233
g74
(dp2234
g101
g102
ssg83
g2223
sg76
(lp2235
S':'
asbag69
(g90
g71
NtRp2236
(dp2237
g74
(dp2238
sg83
g2223
sg76
(lp2239
g69
(g70
g71
NtRp2240
(dp2241
g74
(dp2242
g82
I3
ssg83
g2236
sg76
(lp2243
g812
asbasbasbag69
(g85
g71
NtRp2244
(dp2245
g74
(dp2246
sg83
g2072
sg76
(lp2247
g69
(g90
g71
NtRp2248
(dp2249
g74
(dp2250
g94
g95
ssg83
g2244
sg76
(lp2251
S'PATH_INFO'
p2252
asbag69
(g90
g71
NtRp2253
(dp2254
g74
(dp2255
g101
g102
ssg83
g2244
sg76
(lp2256
S':'
asbag69
(g90
g71
NtRp2257
(dp2258
g74
(dp2259
sg83
g2244
sg76
(lp2260
g69
(g70
g71
NtRp2261
(dp2262
g74
(dp2263
g82
I3
ssg83
g2257
sg76
(lp2264
g876
asbasbasbag69
(g85
g71
NtRp2265
(dp2266
g74
(dp2267
sg83
g2072
sg76
(lp2268
g69
(g90
g71
NtRp2269
(dp2270
g74
(dp2271
g94
g95
ssg83
g2265
sg76
(lp2272
S'QUERY_STRING'
p2273
asbag69
(g90
g71
NtRp2274
(dp2275
g74
(dp2276
g101
g102
ssg83
g2265
sg76
(lp2277
S':'
asbag69
(g90
g71
NtRp2278
(dp2279
g74
(dp2280
sg83
g2265
sg76
(lp2281
g69
(g70
g71
NtRp2282
(dp2283
g74
(dp2284
g82
I3
ssg83
g2278
sg76
(lp2285
S''
asbasbasbag69
(g85
g71
NtRp2286
(dp2287
g74
(dp2288
sg83
g2072
sg76
(lp2289
g69
(g90
g71
NtRp2290
(dp2291
g74
(dp2292
g94
g95
ssg83
g2286
sg76
(lp2293
S'REMOTE_ADDR'
p2294
asbag69
(g90
g71
NtRp2295
(dp2296
g74
(dp2297
g101
g102
ssg83
g2286
sg76
(lp2298
S':'
asbag69
(g90
g71
NtRp2299
(dp2300
g74
(dp2301
sg83
g2286
sg76
(lp2302
g69
(g70
g71
NtRp2303
(dp2304
g74
(dp2305
g82
I3
ssg83
g2299
sg76
(lp2306
g202
asbasbasbag69
(g85
g71
NtRp2307
(dp2308
g74
(dp2309
sg83
g2072
sg76
(lp2310
g69
(g90
g71
NtRp2311
(dp2312
g74
(dp2313
g94
g95
ssg83
g2307
sg76
(lp2314
S'REMOTE_PORT'
p2315
asbag69
(g90
g71
NtRp2316
(dp2317
g74
(dp2318
g101
g102
ssg83
g2307
sg76
(lp2319
S':'
asbag69
(g90
g71
NtRp2320
(dp2321
g74
(dp2322
sg83
g2307
sg76
(lp2323
g69
(g70
g71
NtRp2324
(dp2325
g74
(dp2326
g82
I3
ssg83
g2320
sg76
(lp2327
g940
asbasbasbag69
(g85
g71
NtRp2328
(dp2329
g74
(dp2330
sg83
g2072
sg76
(lp2331
g69
(g90
g71
NtRp2332
(dp2333
g74
(dp2334
g94
g95
ssg83
g2328
sg76
(lp2335
S'REQUEST_METHOD'
p2336
asbag69
(g90
g71
NtRp2337
(dp2338
g74
(dp2339
g101
g102
ssg83
g2328
sg76
(lp2340
S':'
asbag69
(g90
g71
NtRp2341
(dp2342
g74
(dp2343
sg83
g2328
sg76
(lp2344
g69
(g70
g71
NtRp2345
(dp2346
g74
(dp2347
g82
I3
ssg83
g2341
sg76
(lp2348
g962
asbasbasbag69
(g85
g71
NtRp2349
(dp2350
g74
(dp2351
sg83
g2072
sg76
(lp2352
g69
(g90
g71
NtRp2353
(dp2354
g74
(dp2355
g94
g95
ssg83
g2349
sg76
(lp2356
S'SCRIPT_NAME'
p2357
asbag69
(g90
g71
NtRp2358
(dp2359
g74
(dp2360
g101
g102
ssg83
g2349
sg76
(lp2361
S':'
asbag69
(g90
g71
NtRp2362
(dp2363
g74
(dp2364
sg83
g2349
sg76
(lp2365
g69
(g70
g71
NtRp2366
(dp2367
g74
(dp2368
g82
I3
ssg83
g2362
sg76
(lp2369
S''
asbasbasbag69
(g85
g71
NtRp2370
(dp2371
g74
(dp2372
sg83
g2072
sg76
(lp2373
g69
(g90
g71
NtRp2374
(dp2375
g74
(dp2376
g94
g95
ssg83
g2370
sg76
(lp2377
S'SERVER_NAME'
p2378
asbag69
(g90
g71
NtRp2379
(dp2380
g74
(dp2381
g101
g102
ssg83
g2370
sg76
(lp2382
S':'
asbag69
(g90
g71
NtRp2383
(dp2384
g74
(dp2385
sg83
g2370
sg76
(lp2386
g69
(g70
g71
NtRp2387
(dp2388
g74
(dp2389
g82
I3
ssg83
g2383
sg76
(lp2390
g1005
asbasbasbag69
(g85
g71
NtRp2391
(dp2392
g74
(dp2393
sg83
g2072
sg76
(lp2394
g69
(g90
g71
NtRp2395
(dp2396
g74
(dp2397
g94
g95
ssg83
g2391
sg76
(lp2398
S'SERVER_PORT'
p2399
asbag69
(g90
g71
NtRp2400
(dp2401
g74
(dp2402
g101
g102
ssg83
g2391
sg76
(lp2403
S':'
asbag69
(g90
g71
NtRp2404
(dp2405
g74
(dp2406
sg83
g2391
sg76
(lp2407
g69
(g70
g71
NtRp2408
(dp2409
g74
(dp2410
g82
I3
ssg83
g2404
sg76
(lp2411
g1027
asbasbasbag69
(g85
g71
NtRp2412
(dp2413
g74
(dp2414
sg83
g2072
sg76
(lp2415
g69
(g90
g71
NtRp2416
(dp2417
g74
(dp2418
g94
g95
ssg83
g2412
sg76
(lp2419
S'SERVER_PROTOCOL'
p2420
asbag69
(g90
g71
NtRp2421
(dp2422
g74
(dp2423
g101
g102
ssg83
g2412
sg76
(lp2424
S':'
asbag69
(g90
g71
NtRp2425
(dp2426
g74
(dp2427
sg83
g2412
sg76
(lp2428
g69
(g70
g71
NtRp2429
(dp2430
g74
(dp2431
g82
I3
ssg83
g2425
sg76
(lp2432
g1049
asbasbasbag69
(g85
g71
NtRp2433
(dp2434
g74
(dp2435
sg83
g2072
sg76
(lp2436
g69
(g90
g71
NtRp2437
(dp2438
g74
(dp2439
g94
g95
ssg83
g2433
sg76
(lp2440
S'SERVER_SOFTWARE'
p2441
asbag69
(g90
g71
NtRp2442
(dp2443
g74
(dp2444
g101
g102
ssg83
g2433
sg76
(lp2445
S':'
asbag69
(g90
g71
NtRp2446
(dp2447
g74
(dp2448
sg83
g2433
sg76
(lp2449
g69
(g70
g71
NtRp2450
(dp2451
g74
(dp2452
g82
I3
ssg83
g2446
sg76
(lp2453
g1071
asbasbasbag69
(g85
g71
NtRp2454
(dp2455
g74
(dp2456
sg83
g2072
sg76
(lp2457
g69
(g90
g71
NtRp2458
(dp2459
g74
(dp2460
g94
g95
ssg83
g2454
sg76
(lp2461
S'wsgi.errors'
p2462
asbag69
(g90
g71
NtRp2463
(dp2464
g74
(dp2465
g101
g102
ssg83
g2454
sg76
(lp2466
S':'
asbag69
(g90
g71
NtRp2467
(dp2468
g74
(dp2469
sg83
g2454
sg76
(lp2470
g69
(g70
g71
NtRp2471
(dp2472
g74
(dp2473
g82
I3
ssg83
g2467
sg76
(lp2474
S"<open file '<stderr>', mode 'w' at 0x0000000001CCE1E0>"
p2475
asbasbasbag69
(g85
g71
NtRp2476
(dp2477
g74
(dp2478
sg83
g2072
sg76
(lp2479
g69
(g90
g71
NtRp2480
(dp2481
g74
(dp2482
g94
g95
ssg83
g2476
sg76
(lp2483
S'wsgi.file_wrapper'
p2484
asbag69
(g90
g71
NtRp2485
(dp2486
g74
(dp2487
g101
g102
ssg83
g2476
sg76
(lp2488
S':'
asbag69
(g90
g71
NtRp2489
(dp2490
g74
(dp2491
sg83
g2476
sg76
(lp2492
g69
(g70
g71
NtRp2493
(dp2494
g74
(dp2495
g82
I3
ssg83
g2489
sg76
(lp2496
S'<class wsgiref.util.FileWrapper at 0x0000000003648AC8>'
p2497
asbasbasbag69
(g85
g71
NtRp2498
(dp2499
g74
(dp2500
sg83
g2072
sg76
(lp2501
g69
(g90
g71
NtRp2502
(dp2503
g74
(dp2504
g94
g95
ssg83
g2498
sg76
(lp2505
S'wsgi.input'
p2506
asbag69
(g90
g71
NtRp2507
(dp2508
g74
(dp2509
g101
g102
ssg83
g2498
sg76
(lp2510
S':'
asbag69
(g90
g71
NtRp2511
(dp2512
g74
(dp2513
sg83
g2498
sg76
(lp2514
g69
(g70
g71
NtRp2515
(dp2516
g74
(dp2517
g82
I3
ssg83
g2511
sg76
(lp2518
S'<cStringIO.StringO object at 0x00000000052B0688>'
p2519
asbasbasbag69
(g85
g71
NtRp2520
(dp2521
g74
(dp2522
sg83
g2072
sg76
(lp2523
g69
(g90
g71
NtRp2524
(dp2525
g74
(dp2526
g94
g95
ssg83
g2520
sg76
(lp2527
S'wsgi.multiprocess'
p2528
asbag69
(g90
g71
NtRp2529
(dp2530
g74
(dp2531
g101
g102
ssg83
g2520
sg76
(lp2532
S':'
asbag69
(g90
g71
NtRp2533
(dp2534
g74
(dp2535
sg83
g2520
sg76
(lp2536
g69
(g70
g71
NtRp2537
(dp2538
g74
(dp2539
g82
I3
ssg83
g2533
sg76
(lp2540
g112
asbasbasbag69
(g85
g71
NtRp2541
(dp2542
g74
(dp2543
sg83
g2072
sg76
(lp2544
g69
(g90
g71
NtRp2545
(dp2546
g74
(dp2547
g94
g95
ssg83
g2541
sg76
(lp2548
S'wsgi.multithread'
p2549
asbag69
(g90
g71
NtRp2550
(dp2551
g74
(dp2552
g101
g102
ssg83
g2541
sg76
(lp2553
S':'
asbag69
(g90
g71
NtRp2554
(dp2555
g74
(dp2556
sg83
g2541
sg76
(lp2557
g69
(g70
g71
NtRp2558
(dp2559
g74
(dp2560
g82
I3
ssg83
g2554
sg76
(lp2561
g1311
asbasbasbag69
(g85
g71
NtRp2562
(dp2563
g74
(dp2564
sg83
g2072
sg76
(lp2565
g69
(g90
g71
NtRp2566
(dp2567
g74
(dp2568
g94
g95
ssg83
g2562
sg76
(lp2569
S'wsgi.run_once'
p2570
asbag69
(g90
g71
NtRp2571
(dp2572
g74
(dp2573
g101
g102
ssg83
g2562
sg76
(lp2574
S':'
asbag69
(g90
g71
NtRp2575
(dp2576
g74
(dp2577
sg83
g2562
sg76
(lp2578
g69
(g70
g71
NtRp2579
(dp2580
g74
(dp2581
g82
I3
ssg83
g2575
sg76
(lp2582
g112
asbasbasbag69
(g85
g71
NtRp2583
(dp2584
g74
(dp2585
sg83
g2072
sg76
(lp2586
g69
(g90
g71
NtRp2587
(dp2588
g74
(dp2589
g94
g95
ssg83
g2583
sg76
(lp2590
S'wsgi.url_scheme'
p2591
asbag69
(g90
g71
NtRp2592
(dp2593
g74
(dp2594
g101
g102
ssg83
g2583
sg76
(lp2595
S':'
asbag69
(g90
g71
NtRp2596
(dp2597
g74
(dp2598
sg83
g2583
sg76
(lp2599
g69
(g70
g71
NtRp2600
(dp2601
g74
(dp2602
g82
I3
ssg83
g2596
sg76
(lp2603
g1354
asbasbasbag69
(g85
g71
NtRp2604
(dp2605
g74
(dp2606
sg83
g2072
sg76
(lp2607
g69
(g90
g71
NtRp2608
(dp2609
g74
(dp2610
g94
g95
ssg83
g2604
sg76
(lp2611
S'wsgi.version'
p2612
asbag69
(g90
g71
NtRp2613
(dp2614
g74
(dp2615
g101
g102
ssg83
g2604
sg76
(lp2616
S':'
asbag69
(g90
g71
NtRp2617
(dp2618
g74
(dp2619
sg83
g2604
sg76
(lp2620
g69
(g70
g71
NtRp2621
(dp2622
g74
(dp2623
g82
I3
ssg83
g2617
sg76
(lp2624
S'1'
asbasbasbasbasbasbasbasbasbasbasbasbasbsS'frames'
p2625
(lp2626
(dp2627
S'file'
p2628
S'D:\\workspace\\CA\\IgoR\\C_Sources\\Server\\igor-assistant-ca-2012\\gluon\\restricted.py'
p2629
sS'dump'
p2630
(dp2631
S'code'
p2632
S"'# -*- coding: utf-8 -*-\\n# this file is released ...esponse._vars=response._caller(get_all_subjects)\\n'"
p2633
sS'layer'
p2634
S"r'D:\\workspace\\CA\\IgoR\\C_Sources\\Server\\igor-assis...-ca-2012\\applications\\igor\\controllers/subject.py'"
p2635
sS'global compile2'
p2636
S'<function compile2>'
p2637
sS'ccode'
p2638
S'undefined'
p2639
ssS'lnum'
p2640
I204
sS'lines'
p2641
(dp2642
I199
S"    environment['__name__'] = '__restricted__'"
p2643
sI200
S'    try:'
p2644
sI201
S'        if type(code) == types.CodeType:'
p2645
sI202
S'            ccode = code'
p2646
sI203
S'        else:'
p2647
sI204
S'            ccode = compile2(code,layer)'
p2648
sI205
S'        exec ccode in environment'
p2649
sI206
S'    except HTTP:'
p2650
sI207
S'        raise'
p2651
sI208
S'    except RestrictedError:'
p2652
ssS'call'
p2653
S"(code='# -*- coding: utf-8 -*-\\n# this file is released ...esponse._vars=response._caller(get_all_subjects)\\n', environment={'A': <class 'gluon.html.A'>, 'Auth': <class 'gluon.tools.Auth'>, 'B': <class 'gluon.html.B'>, 'BEAUTIFY': <class 'gluon.html.BEAUTIFY'>, 'BODY': <class 'gluon.html.BODY'>, 'BR': <class 'gluon.html.BR'>, 'BUTTON': <class 'gluon.html.BUTTON'>, 'CAT': <class 'gluon.html.CAT'>, 'CENTER': <class 'gluon.html.CENTER'>, 'CLEANUP': <class 'gluon.validators.CLEANUP'>, ...}, layer=r'D:\\workspace\\CA\\IgoR\\C_Sources\\Server\\igor-assis...-ca-2012\\applications\\igor\\controllers/subject.py')"
p2654
sS'func'
p2655
S'restricted'
p2656
sa(dp2657
g2628
S'D:\\workspace\\CA\\IgoR\\C_Sources\\Server\\igor-assistant-ca-2012\\gluon\\restricted.py'
p2658
sg2630
(dp2659
S'builtincompile'
p2660
S'<built-in function compile>'
p2661
sS'code'
p2662
S"'# -*- coding: utf-8 -*-\\n# this file is released ...esponse._vars=response._caller(get_all_subjects)\\n'"
p2663
sS'code.rstrip'
p2664
S'<built-in method rstrip of str object>'
p2665
sS').replace'
p2666
g2639
sS'layer'
p2667
S"r'D:\\workspace\\CA\\IgoR\\C_Sources\\Server\\igor-assis...-ca-2012\\applications\\igor\\controllers/subject.py'"
p2668
ssg2640
I189
sg2641
(dp2669
I192
S'    """'
p2670
sI193
S'    runs code in environment and returns the output. if an exception occurs'
p2671
sI184
S''
sI185
S'def compile2(code,layer):'
p2672
sI186
S'    """'
p2673
sI187
S"    The +'\\n' is necessary else compile fails when code ends in a comment."
p2674
sI188
S'    """'
p2675
sI189
S"    return compile(code.rstrip().replace('\\r\\n','\\n')+'\\n', layer, 'exec')"
p2676
sI190
S''
sI191
S"def restricted(code, environment=None, layer='Unknown'):"
p2677
ssg2653
S"(code='# -*- coding: utf-8 -*-\\n# this file is released ...esponse._vars=response._caller(get_all_subjects)\\n', layer=r'D:\\workspace\\CA\\IgoR\\C_Sources\\Server\\igor-assis...-ca-2012\\applications\\igor\\controllers/subject.py')"
p2678
sg2655
S'compile2'
p2679
sasS'pyver'
p2680
S'Python 2.7.3: C:\\Python27\\python.exe'
p2681
sS'session'
p2682
g69
(g70
g71
NtRp2683
(dp2684
g74
(dp2685
sg76
(lp2686
g69
(g78
g71
NtRp2687
(dp2688
g74
(dp2689
g82
I5
ssg83
Nsg76
(lp2690
sbasbsS'etype'
p2691
S"<type 'exceptions.SyntaxError'>"
p2692
sS'date'
p2693
S'Sat Aug 04 21:55:16 2012'
p2694
sS'response'
p2695
g69
(g70
g71
NtRp2696
(dp2697
g74
(dp2698
sg76
(lp2699
g69
(g78
g71
NtRp2700
(dp2701
g74
(dp2702
g82
I5
ssg83
Nsg76
(lp2703
g69
(g85
g71
NtRp2704
(dp2705
g74
(dp2706
sg83
g2700
sg76
(lp2707
g69
(g90
g71
NtRp2708
(dp2709
g74
(dp2710
g94
g95
ssg83
g2704
sg76
(lp2711
g167
asbag69
(g90
g71
NtRp2712
(dp2713
g74
(dp2714
g101
g102
ssg83
g2704
sg76
(lp2715
S':'
asbag69
(g90
g71
NtRp2716
(dp2717
g74
(dp2718
sg83
g2704
sg76
(lp2719
g69
(g70
g71
NtRp2720
(dp2721
g74
(dp2722
g82
I5
ssg83
g2716
sg76
(lp2723
S'<cStringIO.StringO object at 0x000000000529DD88>'
p2724
asbasbasbag69
(g85
g71
NtRp2725
(dp2726
g74
(dp2727
sg83
g2700
sg76
(lp2728
g69
(g90
g71
NtRp2729
(dp2730
g74
(dp2731
g94
g95
ssg83
g2725
sg76
(lp2732
g233
asbag69
(g90
g71
NtRp2733
(dp2734
g74
(dp2735
g101
g102
ssg83
g2725
sg76
(lp2736
S':'
asbag69
(g90
g71
NtRp2737
(dp2738
g74
(dp2739
sg83
g2725
sg76
(lp2740
g69
(g70
g71
NtRp2741
(dp2742
g74
(dp2743
g82
I5
ssg83
g2737
sg76
(lp2744
g69
(g78
g71
NtRp2745
(dp2746
g74
(dp2747
g82
I4
ssg83
Nsg76
(lp2748
g69
(g85
g71
NtRp2749
(dp2750
g74
(dp2751
sg83
g2745
sg76
(lp2752
g69
(g90
g71
NtRp2753
(dp2754
g74
(dp2755
g94
g95
ssg83
g2749
sg76
(lp2756
S'session_id_igor'
p2757
asbag69
(g90
g71
NtRp2758
(dp2759
g74
(dp2760
g101
g102
ssg83
g2749
sg76
(lp2761
S':'
asbag69
(g90
g71
NtRp2762
(dp2763
g74
(dp2764
sg83
g2749
sg76
(lp2765
g69
(g70
g71
NtRp2766
(dp2767
g74
(dp2768
g82
I4
ssg83
g2762
sg76
(lp2769
g69
(g78
g71
NtRp2770
(dp2771
g74
(dp2772
g82
I3
ssg83
Nsg76
(lp2773
g69
(g85
g71
NtRp2774
(dp2775
g74
(dp2776
sg83
g2770
sg76
(lp2777
g69
(g90
g71
NtRp2778
(dp2779
g74
(dp2780
g94
g95
ssg83
g2774
sg76
(lp2781
g283
asbag69
(g90
g71
NtRp2782
(dp2783
g74
(dp2784
g101
g102
ssg83
g2774
sg76
(lp2785
S':'
asbag69
(g90
g71
NtRp2786
(dp2787
g74
(dp2788
sg83
g2774
sg76
(lp2789
g69
(g70
g71
NtRp2790
(dp2791
g74
(dp2792
g82
I3
ssg83
g2786
sg76
(lp2793
S''
asbasbasbag69
(g85
g71
NtRp2794
(dp2795
g74
(dp2796
sg83
g2770
sg76
(lp2797
g69
(g90
g71
NtRp2798
(dp2799
g74
(dp2800
g94
g95
ssg83
g2794
sg76
(lp2801
g304
asbag69
(g90
g71
NtRp2802
(dp2803
g74
(dp2804
g101
g102
ssg83
g2794
sg76
(lp2805
S':'
asbag69
(g90
g71
NtRp2806
(dp2807
g74
(dp2808
sg83
g2794
sg76
(lp2809
g69
(g70
g71
NtRp2810
(dp2811
g74
(dp2812
g82
I3
ssg83
g2806
sg76
(lp2813
S''
asbasbasbag69
(g85
g71
NtRp2814
(dp2815
g74
(dp2816
sg83
g2770
sg76
(lp2817
g69
(g90
g71
NtRp2818
(dp2819
g74
(dp2820
g94
g95
ssg83
g2814
sg76
(lp2821
g325
asbag69
(g90
g71
NtRp2822
(dp2823
g74
(dp2824
g101
g102
ssg83
g2814
sg76
(lp2825
S':'
asbag69
(g90
g71
NtRp2826
(dp2827
g74
(dp2828
sg83
g2814
sg76
(lp2829
g69
(g70
g71
NtRp2830
(dp2831
g74
(dp2832
g82
I3
ssg83
g2826
sg76
(lp2833
S''
asbasbasbag69
(g85
g71
NtRp2834
(dp2835
g74
(dp2836
sg83
g2770
sg76
(lp2837
g69
(g90
g71
NtRp2838
(dp2839
g74
(dp2840
g94
g95
ssg83
g2834
sg76
(lp2841
g346
asbag69
(g90
g71
NtRp2842
(dp2843
g74
(dp2844
g101
g102
ssg83
g2834
sg76
(lp2845
S':'
asbag69
(g90
g71
NtRp2846
(dp2847
g74
(dp2848
sg83
g2834
sg76
(lp2849
g69
(g70
g71
NtRp2850
(dp2851
g74
(dp2852
g82
I3
ssg83
g2846
sg76
(lp2853
S''
asbasbasbag69
(g85
g71
NtRp2854
(dp2855
g74
(dp2856
sg83
g2770
sg76
(lp2857
g69
(g90
g71
NtRp2858
(dp2859
g74
(dp2860
g94
g95
ssg83
g2854
sg76
(lp2861
g367
asbag69
(g90
g71
NtRp2862
(dp2863
g74
(dp2864
g101
g102
ssg83
g2854
sg76
(lp2865
S':'
asbag69
(g90
g71
NtRp2866
(dp2867
g74
(dp2868
sg83
g2854
sg76
(lp2869
g69
(g70
g71
NtRp2870
(dp2871
g74
(dp2872
g82
I3
ssg83
g2866
sg76
(lp2873
S''
asbasbasbag69
(g85
g71
NtRp2874
(dp2875
g74
(dp2876
sg83
g2770
sg76
(lp2877
g69
(g90
g71
NtRp2878
(dp2879
g74
(dp2880
g94
g95
ssg83
g2874
sg76
(lp2881
g388
asbag69
(g90
g71
NtRp2882
(dp2883
g74
(dp2884
g101
g102
ssg83
g2874
sg76
(lp2885
S':'
asbag69
(g90
g71
NtRp2886
(dp2887
g74
(dp2888
sg83
g2874
sg76
(lp2889
g69
(g70
g71
NtRp2890
(dp2891
g74
(dp2892
g82
I3
ssg83
g2886
sg76
(lp2893
S'/'
asbasbasbag69
(g85
g71
NtRp2894
(dp2895
g74
(dp2896
sg83
g2770
sg76
(lp2897
g69
(g90
g71
NtRp2898
(dp2899
g74
(dp2900
g94
g95
ssg83
g2894
sg76
(lp2901
g409
asbag69
(g90
g71
NtRp2902
(dp2903
g74
(dp2904
g101
g102
ssg83
g2894
sg76
(lp2905
S':'
asbag69
(g90
g71
NtRp2906
(dp2907
g74
(dp2908
sg83
g2894
sg76
(lp2909
g69
(g70
g71
NtRp2910
(dp2911
g74
(dp2912
g82
I3
ssg83
g2906
sg76
(lp2913
S''
asbasbasbag69
(g85
g71
NtRp2914
(dp2915
g74
(dp2916
sg83
g2770
sg76
(lp2917
g69
(g90
g71
NtRp2918
(dp2919
g74
(dp2920
g94
g95
ssg83
g2914
sg76
(lp2921
g430
asbag69
(g90
g71
NtRp2922
(dp2923
g74
(dp2924
g101
g102
ssg83
g2914
sg76
(lp2925
S':'
asbag69
(g90
g71
NtRp2926
(dp2927
g74
(dp2928
sg83
g2914
sg76
(lp2929
g69
(g70
g71
NtRp2930
(dp2931
g74
(dp2932
g82
I3
ssg83
g2926
sg76
(lp2933
S''
asbasbasbasbasbasbasbasbasbasbasbag69
(g85
g71
NtRp2934
(dp2935
g74
(dp2936
sg83
g2700
sg76
(lp2937
g69
(g90
g71
NtRp2938
(dp2939
g74
(dp2940
g94
g95
ssg83
g2934
sg76
(lp2941
S'delimiters'
p2942
asbag69
(g90
g71
NtRp2943
(dp2944
g74
(dp2945
g101
g102
ssg83
g2934
sg76
(lp2946
S':'
asbag69
(g90
g71
NtRp2947
(dp2948
g74
(dp2949
sg83
g2934
sg76
(lp2950
g69
(g70
g71
NtRp2951
(dp2952
g74
(dp2953
g82
I5
ssg83
g2947
sg76
(lp2954
g69
(g78
g71
NtRp2955
(dp2956
g74
(dp2957
g82
I4
ssg83
Nsg76
(lp2958
g69
(g85
g71
NtRp2959
(dp2960
g74
(dp2961
sg83
g2955
sg76
(lp2962
g69
(g90
g71
NtRp2963
(dp2964
g74
(dp2965
sg83
g2959
sg76
(lp2966
g69
(g70
g71
NtRp2967
(dp2968
g74
(dp2969
g82
I4
ssg83
g2963
sg76
(lp2970
S'{{'
p2971
asbasbasbag69
(g85
g71
NtRp2972
(dp2973
g74
(dp2974
sg83
g2955
sg76
(lp2975
g69
(g90
g71
NtRp2976
(dp2977
g74
(dp2978
sg83
g2972
sg76
(lp2979
g69
(g70
g71
NtRp2980
(dp2981
g74
(dp2982
g82
I4
ssg83
g2976
sg76
(lp2983
S'}}'
p2984
asbasbasbasbasbasbasbag69
(g85
g71
NtRp2985
(dp2986
g74
(dp2987
sg83
g2700
sg76
(lp2988
g69
(g90
g71
NtRp2989
(dp2990
g74
(dp2991
g94
g95
ssg83
g2985
sg76
(lp2992
S'files'
p2993
asbag69
(g90
g71
NtRp2994
(dp2995
g74
(dp2996
g101
g102
ssg83
g2985
sg76
(lp2997
S':'
asbag69
(g90
g71
NtRp2998
(dp2999
g74
(dp3000
sg83
g2985
sg76
(lp3001
g69
(g70
g71
NtRp3002
(dp3003
g74
(dp3004
g82
I5
ssg83
g2998
sg76
(lp3005
g69
(g78
g71
NtRp3006
(dp3007
g74
(dp3008
g82
I4
ssg83
Nsg76
(lp3009
sbasbasbasbag69
(g85
g71
NtRp3010
(dp3011
g74
(dp3012
sg83
g2700
sg76
(lp3013
g69
(g90
g71
NtRp3014
(dp3015
g74
(dp3016
g94
g95
ssg83
g3010
sg76
(lp3017
S'flash'
p3018
asbag69
(g90
g71
NtRp3019
(dp3020
g74
(dp3021
g101
g102
ssg83
g3010
sg76
(lp3022
S':'
asbag69
(g90
g71
NtRp3023
(dp3024
g74
(dp3025
sg83
g3010
sg76
(lp3026
g69
(g70
g71
NtRp3027
(dp3028
g74
(dp3029
g82
I5
ssg83
g3023
sg76
(lp3030
S''
asbasbasbag69
(g85
g71
NtRp3031
(dp3032
g74
(dp3033
sg83
g2700
sg76
(lp3034
g69
(g90
g71
NtRp3035
(dp3036
g74
(dp3037
g94
g95
ssg83
g3031
sg76
(lp3038
S'generic_patterns'
p3039
asbag69
(g90
g71
NtRp3040
(dp3041
g74
(dp3042
g101
g102
ssg83
g3031
sg76
(lp3043
S':'
asbag69
(g90
g71
NtRp3044
(dp3045
g74
(dp3046
sg83
g3031
sg76
(lp3047
g69
(g70
g71
NtRp3048
(dp3049
g74
(dp3050
g82
I5
ssg83
g3044
sg76
(lp3051
g69
(g78
g71
NtRp3052
(dp3053
g74
(dp3054
g82
I4
ssg83
Nsg76
(lp3055
g69
(g85
g71
NtRp3056
(dp3057
g74
(dp3058
sg83
g3052
sg76
(lp3059
g69
(g90
g71
NtRp3060
(dp3061
g74
(dp3062
sg83
g3056
sg76
(lp3063
g69
(g70
g71
NtRp3064
(dp3065
g74
(dp3066
g82
I4
ssg83
g3060
sg76
(lp3067
S'*'
asbasbasbasbasbasbasbag69
(g85
g71
NtRp3068
(dp3069
g74
(dp3070
sg83
g2700
sg76
(lp3071
g69
(g90
g71
NtRp3072
(dp3073
g74
(dp3074
g94
g95
ssg83
g3068
sg76
(lp3075
S'headers'
p3076
asbag69
(g90
g71
NtRp3077
(dp3078
g74
(dp3079
g101
g102
ssg83
g3068
sg76
(lp3080
S':'
asbag69
(g90
g71
NtRp3081
(dp3082
g74
(dp3083
sg83
g3068
sg76
(lp3084
g69
(g70
g71
NtRp3085
(dp3086
g74
(dp3087
g82
I5
ssg83
g3081
sg76
(lp3088
g69
(g78
g71
NtRp3089
(dp3090
g74
(dp3091
g82
I4
ssg83
Nsg76
(lp3092
g69
(g85
g71
NtRp3093
(dp3094
g74
(dp3095
sg83
g3089
sg76
(lp3096
g69
(g90
g71
NtRp3097
(dp3098
g74
(dp3099
g94
g95
ssg83
g3093
sg76
(lp3100
S'Cache-Control'
p3101
asbag69
(g90
g71
NtRp3102
(dp3103
g74
(dp3104
g101
g102
ssg83
g3093
sg76
(lp3105
S':'
asbag69
(g90
g71
NtRp3106
(dp3107
g74
(dp3108
sg83
g3093
sg76
(lp3109
g69
(g70
g71
NtRp3110
(dp3111
g74
(dp3112
g82
I4
ssg83
g3106
sg76
(lp3113
S'no-store, no-cache, must-revalidate, post-check=0, pre-check=0'
p3114
asbasbasbag69
(g85
g71
NtRp3115
(dp3116
g74
(dp3117
sg83
g3089
sg76
(lp3118
g69
(g90
g71
NtRp3119
(dp3120
g74
(dp3121
g94
g95
ssg83
g3115
sg76
(lp3122
S'Content-Type'
p3123
asbag69
(g90
g71
NtRp3124
(dp3125
g74
(dp3126
g101
g102
ssg83
g3115
sg76
(lp3127
S':'
asbag69
(g90
g71
NtRp3128
(dp3129
g74
(dp3130
sg83
g3115
sg76
(lp3131
g69
(g70
g71
NtRp3132
(dp3133
g74
(dp3134
g82
I4
ssg83
g3128
sg76
(lp3135
S'text/html; charset=utf-8'
p3136
asbasbasbag69
(g85
g71
NtRp3137
(dp3138
g74
(dp3139
sg83
g3089
sg76
(lp3140
g69
(g90
g71
NtRp3141
(dp3142
g74
(dp3143
g94
g95
ssg83
g3137
sg76
(lp3144
S'Expires'
p3145
asbag69
(g90
g71
NtRp3146
(dp3147
g74
(dp3148
g101
g102
ssg83
g3137
sg76
(lp3149
S':'
asbag69
(g90
g71
NtRp3150
(dp3151
g74
(dp3152
sg83
g3137
sg76
(lp3153
g69
(g70
g71
NtRp3154
(dp3155
g74
(dp3156
g82
I4
ssg83
g3150
sg76
(lp3157
S'Sat, 04 Aug 2012 14:55:16 GMT'
p3158
asbasbasbag69
(g85
g71
NtRp3159
(dp3160
g74
(dp3161
sg83
g3089
sg76
(lp3162
g69
(g90
g71
NtRp3163
(dp3164
g74
(dp3165
g94
g95
ssg83
g3159
sg76
(lp3166
S'Pragma'
p3167
asbag69
(g90
g71
NtRp3168
(dp3169
g74
(dp3170
g101
g102
ssg83
g3159
sg76
(lp3171
S':'
asbag69
(g90
g71
NtRp3172
(dp3173
g74
(dp3174
sg83
g3159
sg76
(lp3175
g69
(g70
g71
NtRp3176
(dp3177
g74
(dp3178
g82
I4
ssg83
g3172
sg76
(lp3179
S'no-cache'
p3180
asbasbasbag69
(g85
g71
NtRp3181
(dp3182
g74
(dp3183
sg83
g3089
sg76
(lp3184
g69
(g90
g71
NtRp3185
(dp3186
g74
(dp3187
g94
g95
ssg83
g3181
sg76
(lp3188
S'X-Powered-By'
p3189
asbag69
(g90
g71
NtRp3190
(dp3191
g74
(dp3192
g101
g102
ssg83
g3181
sg76
(lp3193
S':'
asbag69
(g90
g71
NtRp3194
(dp3195
g74
(dp3196
sg83
g3181
sg76
(lp3197
g69
(g70
g71
NtRp3198
(dp3199
g74
(dp3200
g82
I4
ssg83
g3194
sg76
(lp3201
S'web2py'
p3202
asbasbasbasbasbasbasbag69
(g85
g71
NtRp3203
(dp3204
g74
(dp3205
sg83
g2700
sg76
(lp3206
g69
(g90
g71
NtRp3207
(dp3208
g74
(dp3209
g94
g95
ssg83
g3203
sg76
(lp3210
S'menu'
p3211
asbag69
(g90
g71
NtRp3212
(dp3213
g74
(dp3214
g101
g102
ssg83
g3203
sg76
(lp3215
S':'
asbag69
(g90
g71
NtRp3216
(dp3217
g74
(dp3218
sg83
g3203
sg76
(lp3219
g69
(g70
g71
NtRp3220
(dp3221
g74
(dp3222
g82
I5
ssg83
g3216
sg76
(lp3223
g69
(g78
g71
NtRp3224
(dp3225
g74
(dp3226
g82
I4
ssg83
Nsg76
(lp3227
g69
(g85
g71
NtRp3228
(dp3229
g74
(dp3230
sg83
g3224
sg76
(lp3231
g69
(g90
g71
NtRp3232
(dp3233
g74
(dp3234
sg83
g3228
sg76
(lp3235
g69
(g70
g71
NtRp3236
(dp3237
g74
(dp3238
g82
I4
ssg83
g3232
sg76
(lp3239
g69
(g78
g71
NtRp3240
(dp3241
g74
(dp3242
g82
I3
ssg83
Nsg76
(lp3243
g69
(g85
g71
NtRp3244
(dp3245
g74
(dp3246
sg83
g3240
sg76
(lp3247
g69
(g90
g71
NtRp3248
(dp3249
g74
(dp3250
sg83
g3244
sg76
(lp3251
g69
(g70
g71
NtRp3252
(dp3253
g74
(dp3254
g82
I3
ssg83
g3248
sg76
(lp3255
cgluon.languages
lazyT_unpickle
p3256
(S't\x04\x00\x00\x00Home'
tRp3257
asbasbasbag69
(g85
g71
NtRp3258
(dp3259
g74
(dp3260
sg83
g3240
sg76
(lp3261
g69
(g90
g71
NtRp3262
(dp3263
g74
(dp3264
sg83
g3258
sg76
(lp3265
g69
(g70
g71
NtRp3266
(dp3267
g74
(dp3268
g82
I3
ssg83
g3262
sg76
(lp3269
g112
asbasbasbag69
(g85
g71
NtRp3270
(dp3271
g74
(dp3272
sg83
g3240
sg76
(lp3273
g69
(g90
g71
NtRp3274
(dp3275
g74
(dp3276
sg83
g3270
sg76
(lp3277
g69
(g70
g71
NtRp3278
(dp3279
g74
(dp3280
g82
I3
ssg83
g3274
sg76
(lp3281
S'/igor/default/index'
p3282
asbasbasbag69
(g85
g71
NtRp3283
(dp3284
g74
(dp3285
sg83
g3240
sg76
(lp3286
g69
(g90
g71
NtRp3287
(dp3288
g74
(dp3289
sg83
g3283
sg76
(lp3290
g69
(g70
g71
NtRp3291
(dp3292
g74
(dp3293
g82
I3
ssg83
g3287
sg76
(lp3294
g69
(g78
g71
NtRp3295
(dp3296
g74
(dp3297
g82
I2
ssg83
Nsg76
(lp3298
sbasbasbasbasbasbasbasbag69
(g85
g71
NtRp3299
(dp3300
g74
(dp3301
sg83
g3224
sg76
(lp3302
g69
(g90
g71
NtRp3303
(dp3304
g74
(dp3305
sg83
g3299
sg76
(lp3306
g69
(g70
g71
NtRp3307
(dp3308
g74
(dp3309
g82
I4
ssg83
g3303
sg76
(lp3310
g69
(g78
g71
NtRp3311
(dp3312
g74
(dp3313
g82
I3
ssg83
Nsg76
(lp3314
g69
(g85
g71
NtRp3315
(dp3316
g74
(dp3317
sg83
g3311
sg76
(lp3318
g69
(g90
g71
NtRp3319
(dp3320
g74
(dp3321
sg83
g3315
sg76
(lp3322
g69
(g70
g71
NtRp3323
(dp3324
g74
(dp3325
g82
I3
ssg83
g3319
sg76
(lp3326
g69
(cgluon.html
SPAN
p3327
g71
NtRp3328
(dp3329
g74
(dp3330
g94
S'color:yellow'
p3331
ssg83
Nsg76
(lp3332
g3202
asbasbasbasbag69
(g85
g71
NtRp3333
(dp3334
g74
(dp3335
sg83
g3311
sg76
(lp3336
g69
(g90
g71
NtRp3337
(dp3338
g74
(dp3339
sg83
g3333
sg76
(lp3340
g69
(g70
g71
NtRp3341
(dp3342
g74
(dp3343
g82
I3
ssg83
g3337
sg76
(lp3344
g112
asbasbasbag69
(g85
g71
NtRp3345
(dp3346
g74
(dp3347
sg83
g3311
sg76
(lp3348
g69
(g90
g71
NtRp3349
(dp3350
g74
(dp3351
sg83
g3345
sg76
(lp3352
g69
(g70
g71
NtRp3353
(dp3354
g74
(dp3355
g82
I3
ssg83
g3349
sg76
(lp3356
S'None'
p3357
asbasbasbag69
(g85
g71
NtRp3358
(dp3359
g74
(dp3360
sg83
g3311
sg76
(lp3361
g69
(g90
g71
NtRp3362
(dp3363
g74
(dp3364
sg83
g3358
sg76
(lp3365
g69
(g70
g71
NtRp3366
(dp3367
g74
(dp3368
g82
I3
ssg83
g3362
sg76
(lp3369
g69
(g78
g71
NtRp3370
(dp3371
g74
(dp3372
g82
I2
ssg83
Nsg76
(lp3373
g69
(g85
g71
NtRp3374
(dp3375
g74
(dp3376
sg83
g3370
sg76
(lp3377
g69
(g90
g71
NtRp3378
(dp3379
g74
(dp3380
sg83
g3374
sg76
(lp3381
g69
(g70
g71
NtRp3382
(dp3383
g74
(dp3384
g82
I2
ssg83
g3378
sg76
(lp3385
g69
(g78
g71
NtRp3386
(dp3387
g74
(dp3388
g82
I1
ssg83
Nsg76
(lp3389
g69
(g85
g71
NtRp3390
(dp3391
g74
(dp3392
sg83
g3386
sg76
(lp3393
g69
(g90
g71
NtRp3394
(dp3395
g74
(dp3396
sg83
g3390
sg76
(lp3397
g69
(g70
g71
NtRp3398
(dp3399
g74
(dp3400
g82
I1
ssg83
g3394
sg76
(lp3401
g3256
(S's\x08\x00\x00\x00My Sites'
tRp3402
asbasbasbag69
(g85
g71
NtRp3403
(dp3404
g74
(dp3405
sg83
g3386
sg76
(lp3406
g69
(g90
g71
NtRp3407
(dp3408
g74
(dp3409
sg83
g3403
sg76
(lp3410
g69
(g70
g71
NtRp3411
(dp3412
g74
(dp3413
g82
I1
ssg83
g3407
sg76
(lp3414
I00
asbasbasbag69
(g85
g71
NtRp3415
(dp3416
g74
(dp3417
sg83
g3386
sg76
(lp3418
g69
(g90
g71
NtRp3419
(dp3420
g74
(dp3421
sg83
g3415
sg76
(lp3422
g69
(g70
g71
NtRp3423
(dp3424
g74
(dp3425
g82
I1
ssg83
g3419
sg76
(lp3426
S'/admin/default/site'
p3427
asbasbasbasbasbasbasbag69
(g85
g71
NtRp3428
(dp3429
g74
(dp3430
sg83
g3370
sg76
(lp3431
g69
(g90
g71
NtRp3432
(dp3433
g74
(dp3434
sg83
g3428
sg76
(lp3435
g69
(g70
g71
NtRp3436
(dp3437
g74
(dp3438
g82
I2
ssg83
g3432
sg76
(lp3439
g69
(g78
g71
NtRp3440
(dp3441
g74
(dp3442
g82
I1
ssg83
Nsg76
(lp3443
g69
(g85
g71
NtRp3444
(dp3445
g74
(dp3446
sg83
g3440
sg76
(lp3447
g69
(g90
g71
NtRp3448
(dp3449
g74
(dp3450
sg83
g3444
sg76
(lp3451
g69
(g70
g71
NtRp3452
(dp3453
g74
(dp3454
g82
I1
ssg83
g3448
sg76
(lp3455
g3256
(S's\x08\x00\x00\x00This App'
tRp3456
asbasbasbag69
(g85
g71
NtRp3457
(dp3458
g74
(dp3459
sg83
g3440
sg76
(lp3460
g69
(g90
g71
NtRp3461
(dp3462
g74
(dp3463
sg83
g3457
sg76
(lp3464
g69
(g70
g71
NtRp3465
(dp3466
g74
(dp3467
g82
I1
ssg83
g3461
sg76
(lp3468
I00
asbasbasbag69
(g85
g71
NtRp3469
(dp3470
g74
(dp3471
sg83
g3440
sg76
(lp3472
g69
(g90
g71
NtRp3473
(dp3474
g74
(dp3475
sg83
g3469
sg76
(lp3476
g69
(g70
g71
NtRp3477
(dp3478
g74
(dp3479
g82
I1
ssg83
g3473
sg76
(lp3480
S'/admin/default/design/igor'
p3481
asbasbasbag69
(g85
g71
NtRp3482
(dp3483
g74
(dp3484
sg83
g3440
sg76
(lp3485
g69
(g90
g71
NtRp3486
(dp3487
g74
(dp3488
sg83
g3482
sg76
(lp3489
g69
(g70
g71
NtRp3490
(dp3491
g74
(dp3492
g82
I1
ssg83
g3486
sg76
(lp3493
(lp3494
(g3256
(S't\n\x00\x00\x00Controller'
tRp3495
I00
S'/admin/default/edit/igor/controllers/subject.py'
tp3496
a(g3256
(S't\x04\x00\x00\x00View'
tRp3497
I00
S'/admin/default/edit/igor/views/subject/get_all_subjects.html'
tp3498
a(g3256
(S't\x06\x00\x00\x00Layout'
tRp3499
I00
S'/admin/default/edit/igor/views/layout.html'
tp3500
a(g3256
(S't\n\x00\x00\x00Stylesheet'
tRp3501
I00
S'/admin/default/edit/igor/static/css/web2py.css'
tp3502
a(g3256
(S's\x08\x00\x00\x00DB Model'
tRp3503
I00
S'/admin/default/edit/igor/models/db.py'
tp3504
a(g3256
(S's\n\x00\x00\x00Menu Model'
tRp3505
I00
S'/admin/default/edit/igor/models/menu.py'
tp3506
a(g3256
(S't\x08\x00\x00\x00Database'
tRp3507
I00
S'/igor/appadmin/index'
tp3508
a(g3256
(S't\x06\x00\x00\x00Errors'
tRp3509
I00
S'/admin/default/errors/igor'
tp3510
a(g3256
(S't\x05\x00\x00\x00About'
tRp3511
I00
S'/admin/default/about/igor'
tp3512
aasbasbasbasbasbasbasbag69
(g85
g71
NtRp3513
(dp3514
g74
(dp3515
sg83
g3370
sg76
(lp3516
g69
(g90
g71
NtRp3517
(dp3518
g74
(dp3519
sg83
g3513
sg76
(lp3520
g69
(g70
g71
NtRp3521
(dp3522
g74
(dp3523
g82
I2
ssg83
g3517
sg76
(lp3524
g69
(g78
g71
NtRp3525
(dp3526
g74
(dp3527
g82
I1
ssg83
Nsg76
(lp3528
g69
(g85
g71
NtRp3529
(dp3530
g74
(dp3531
sg83
g3525
sg76
(lp3532
g69
(g90
g71
NtRp3533
(dp3534
g74
(dp3535
sg83
g3529
sg76
(lp3536
g69
(g70
g71
NtRp3537
(dp3538
g74
(dp3539
g82
I1
ssg83
g3533
sg76
(lp3540
S'web2py.com'
p3541
asbasbasbag69
(g85
g71
NtRp3542
(dp3543
g74
(dp3544
sg83
g3525
sg76
(lp3545
g69
(g90
g71
NtRp3546
(dp3547
g74
(dp3548
sg83
g3542
sg76
(lp3549
g69
(g70
g71
NtRp3550
(dp3551
g74
(dp3552
g82
I1
ssg83
g3546
sg76
(lp3553
I00
asbasbasbag69
(g85
g71
NtRp3554
(dp3555
g74
(dp3556
sg83
g3525
sg76
(lp3557
g69
(g90
g71
NtRp3558
(dp3559
g74
(dp3560
sg83
g3554
sg76
(lp3561
g69
(g70
g71
NtRp3562
(dp3563
g74
(dp3564
g82
I1
ssg83
g3558
sg76
(lp3565
S'http://www.web2py.com'
p3566
asbasbasbag69
(g85
g71
NtRp3567
(dp3568
g74
(dp3569
sg83
g3525
sg76
(lp3570
g69
(g90
g71
NtRp3571
(dp3572
g74
(dp3573
sg83
g3567
sg76
(lp3574
g69
(g70
g71
NtRp3575
(dp3576
g74
(dp3577
g82
I1
ssg83
g3571
sg76
(lp3578
(lp3579
(g3256
(S't\x08\x00\x00\x00Download'
tRp3580
I00
S'http://www.web2py.com/examples/default/download'
p3581
tp3582
a(g3256
(S't\x07\x00\x00\x00Support'
tRp3583
I00
S'http://www.web2py.com/examples/default/support'
p3584
tp3585
a(g3256
(S't\x04\x00\x00\x00Demo'
tRp3586
I00
S'http://web2py.com/demo_admin'
p3587
tp3588
a(g3256
(S's\x0e\x00\x00\x00Quick Examples'
tRp3589
I00
S'http://web2py.com/examples/default/examples'
p3590
tp3591
a(g3256
(S't\x03\x00\x00\x00FAQ'
tRp3592
I00
S'http://web2py.com/AlterEgo'
p3593
tp3594
a(g3256
(S't\x06\x00\x00\x00Videos'
tRp3595
I00
S'http://www.web2py.com/examples/default/videos/'
p3596
tp3597
a(g3256
(S's\x11\x00\x00\x00Free Applications'
tRp3598
I00
S'http://web2py.com/appliances'
p3599
tp3600
a(g3256
(S't\x07\x00\x00\x00Plugins'
tRp3601
I00
S'http://web2py.com/plugins'
p3602
tp3603
a(g3256
(S't\x07\x00\x00\x00Layouts'
tRp3604
I00
S'http://web2py.com/layouts'
p3605
tp3606
a(g3256
(S't\x07\x00\x00\x00Recipes'
tRp3607
I00
S'http://web2pyslices.com/'
p3608
tp3609
a(g3256
(S't\x08\x00\x00\x00Semantic'
tRp3610
I00
S'http://web2py.com/semantic'
p3611
tp3612
aasbasbasbasbasbasbasbag69
(g85
g71
NtRp3613
(dp3614
g74
(dp3615
sg83
g3370
sg76
(lp3616
g69
(g90
g71
NtRp3617
(dp3618
g74
(dp3619
sg83
g3613
sg76
(lp3620
g69
(g70
g71
NtRp3621
(dp3622
g74
(dp3623
g82
I2
ssg83
g3617
sg76
(lp3624
g69
(g78
g71
NtRp3625
(dp3626
g74
(dp3627
g82
I1
ssg83
Nsg76
(lp3628
g69
(g85
g71
NtRp3629
(dp3630
g74
(dp3631
sg83
g3625
sg76
(lp3632
g69
(g90
g71
NtRp3633
(dp3634
g74
(dp3635
sg83
g3629
sg76
(lp3636
g69
(g70
g71
NtRp3637
(dp3638
g74
(dp3639
g82
I1
ssg83
g3633
sg76
(lp3640
g3256
(S't\r\x00\x00\x00Documentation'
tRp3641
asbasbasbag69
(g85
g71
NtRp3642
(dp3643
g74
(dp3644
sg83
g3625
sg76
(lp3645
g69
(g90
g71
NtRp3646
(dp3647
g74
(dp3648
sg83
g3642
sg76
(lp3649
g69
(g70
g71
NtRp3650
(dp3651
g74
(dp3652
g82
I1
ssg83
g3646
sg76
(lp3653
I00
asbasbasbag69
(g85
g71
NtRp3654
(dp3655
g74
(dp3656
sg83
g3625
sg76
(lp3657
g69
(g90
g71
NtRp3658
(dp3659
g74
(dp3660
sg83
g3654
sg76
(lp3661
g69
(g70
g71
NtRp3662
(dp3663
g74
(dp3664
g82
I1
ssg83
g3658
sg76
(lp3665
S'http://www.web2py.com/book'
p3666
asbasbasbag69
(g85
g71
NtRp3667
(dp3668
g74
(dp3669
sg83
g3625
sg76
(lp3670
g69
(g90
g71
NtRp3671
(dp3672
g74
(dp3673
sg83
g3667
sg76
(lp3674
g69
(g70
g71
NtRp3675
(dp3676
g74
(dp3677
g82
I1
ssg83
g3671
sg76
(lp3678
(lp3679
(g3256
(S't\x07\x00\x00\x00Preface'
tRp3680
I00
S'http://www.web2py.com/book/default/chapter/00'
p3681
tp3682
a(g3256
(S't\x0c\x00\x00\x00Introduction'
tRp3683
I00
S'http://www.web2py.com/book/default/chapter/01'
p3684
tp3685
a(g3256
(S't\x06\x00\x00\x00Python'
tRp3686
I00
S'http://www.web2py.com/book/default/chapter/02'
p3687
tp3688
a(g3256
(S't\x08\x00\x00\x00Overview'
tRp3689
I00
S'http://www.web2py.com/book/default/chapter/03'
p3690
tp3691
a(g3256
(S's\x08\x00\x00\x00The Core'
tRp3692
I00
S'http://www.web2py.com/book/default/chapter/04'
p3693
tp3694
a(g3256
(S's\t\x00\x00\x00The Views'
tRp3695
I00
S'http://www.web2py.com/book/default/chapter/05'
p3696
tp3697
a(g3256
(S't\x08\x00\x00\x00Database'
tRp3698
I00
S'http://www.web2py.com/book/default/chapter/06'
p3699
tp3700
a(g3256
(S's\x14\x00\x00\x00Forms and Validators'
tRp3701
I00
S'http://www.web2py.com/book/default/chapter/07'
p3702
tp3703
a(g3256
(S's\r\x00\x00\x00Email and SMS'
tRp3704
I00
S'http://www.web2py.com/book/default/chapter/08'
p3705
tp3706
a(g3256
(S's\x0e\x00\x00\x00Access Control'
tRp3707
I00
S'http://www.web2py.com/book/default/chapter/09'
p3708
tp3709
a(g3256
(S't\x08\x00\x00\x00Services'
tRp3710
I00
S'http://www.web2py.com/book/default/chapter/10'
p3711
tp3712
a(g3256
(S's\x0c\x00\x00\x00Ajax Recipes'
tRp3713
I00
S'http://www.web2py.com/book/default/chapter/11'
p3714
tp3715
a(g3256
(S's\x16\x00\x00\x00Components and Plugins'
tRp3716
I00
S'http://www.web2py.com/book/default/chapter/12'
p3717
tp3718
a(g3256
(S's\x12\x00\x00\x00Deployment Recipes'
tRp3719
I00
S'http://www.web2py.com/book/default/chapter/13'
p3720
tp3721
a(g3256
(S's\r\x00\x00\x00Other Recipes'
tRp3722
I00
S'http://www.web2py.com/book/default/chapter/14'
p3723
tp3724
a(g3256
(S's\r\x00\x00\x00Buy this book'
tRp3725
I00
S'http://stores.lulu.com/web2py'
p3726
tp3727
aasbasbasbasbasbasbasbag69
(g85
g71
NtRp3728
(dp3729
g74
(dp3730
sg83
g3370
sg76
(lp3731
g69
(g90
g71
NtRp3732
(dp3733
g74
(dp3734
sg83
g3728
sg76
(lp3735
g69
(g70
g71
NtRp3736
(dp3737
g74
(dp3738
g82
I2
ssg83
g3732
sg76
(lp3739
g69
(g78
g71
NtRp3740
(dp3741
g74
(dp3742
g82
I1
ssg83
Nsg76
(lp3743
g69
(g85
g71
NtRp3744
(dp3745
g74
(dp3746
sg83
g3740
sg76
(lp3747
g69
(g90
g71
NtRp3748
(dp3749
g74
(dp3750
sg83
g3744
sg76
(lp3751
g69
(g70
g71
NtRp3752
(dp3753
g74
(dp3754
g82
I1
ssg83
g3748
sg76
(lp3755
g3256
(S't\t\x00\x00\x00Community'
tRp3756
asbasbasbag69
(g85
g71
NtRp3757
(dp3758
g74
(dp3759
sg83
g3740
sg76
(lp3760
g69
(g90
g71
NtRp3761
(dp3762
g74
(dp3763
sg83
g3757
sg76
(lp3764
g69
(g70
g71
NtRp3765
(dp3766
g74
(dp3767
g82
I1
ssg83
g3761
sg76
(lp3768
I00
asbasbasbag69
(g85
g71
NtRp3769
(dp3770
g74
(dp3771
sg83
g3740
sg76
(lp3772
g69
(g90
g71
NtRp3773
(dp3774
g74
(dp3775
sg83
g3769
sg76
(lp3776
g69
(g70
g71
NtRp3777
(dp3778
g74
(dp3779
g82
I1
ssg83
g3773
sg76
(lp3780
Nasbasbasbag69
(g85
g71
NtRp3781
(dp3782
g74
(dp3783
sg83
g3740
sg76
(lp3784
g69
(g90
g71
NtRp3785
(dp3786
g74
(dp3787
sg83
g3781
sg76
(lp3788
g69
(g70
g71
NtRp3789
(dp3790
g74
(dp3791
g82
I1
ssg83
g3785
sg76
(lp3792
(lp3793
(g3256
(S't\x06\x00\x00\x00Groups'
tRp3794
I00
S'http://www.web2py.com/examples/default/usergroups'
p3795
tp3796
a(g3256
(S't\x07\x00\x00\x00Twitter'
tRp3797
I00
S'http://twitter.com/web2py'
p3798
tp3799
a(g3256
(S's\t\x00\x00\x00Live Chat'
tRp3800
I00
S'http://webchat.freenode.net/?channels=web2py'
p3801
tp3802
aasbasbasbasbasbasbasbag69
(g85
g71
NtRp3803
(dp3804
g74
(dp3805
sg83
g3370
sg76
(lp3806
g69
(g90
g71
NtRp3807
(dp3808
g74
(dp3809
sg83
g3803
sg76
(lp3810
g69
(g70
g71
NtRp3811
(dp3812
g74
(dp3813
g82
I2
ssg83
g3807
sg76
(lp3814
g69
(g78
g71
NtRp3815
(dp3816
g74
(dp3817
g82
I1
ssg83
Nsg76
(lp3818
g69
(g85
g71
NtRp3819
(dp3820
g74
(dp3821
sg83
g3815
sg76
(lp3822
g69
(g90
g71
NtRp3823
(dp3824
g74
(dp3825
sg83
g3819
sg76
(lp3826
g69
(g70
g71
NtRp3827
(dp3828
g74
(dp3829
g82
I1
ssg83
g3823
sg76
(lp3830
g3256
(S't\x07\x00\x00\x00Plugins'
tRp3831
asbasbasbag69
(g85
g71
NtRp3832
(dp3833
g74
(dp3834
sg83
g3815
sg76
(lp3835
g69
(g90
g71
NtRp3836
(dp3837
g74
(dp3838
sg83
g3832
sg76
(lp3839
g69
(g70
g71
NtRp3840
(dp3841
g74
(dp3842
g82
I1
ssg83
g3836
sg76
(lp3843
I00
asbasbasbag69
(g85
g71
NtRp3844
(dp3845
g74
(dp3846
sg83
g3815
sg76
(lp3847
g69
(g90
g71
NtRp3848
(dp3849
g74
(dp3850
sg83
g3844
sg76
(lp3851
g69
(g70
g71
NtRp3852
(dp3853
g74
(dp3854
g82
I1
ssg83
g3848
sg76
(lp3855
Nasbasbasbag69
(g85
g71
NtRp3856
(dp3857
g74
(dp3858
sg83
g3815
sg76
(lp3859
g69
(g90
g71
NtRp3860
(dp3861
g74
(dp3862
sg83
g3856
sg76
(lp3863
g69
(g70
g71
NtRp3864
(dp3865
g74
(dp3866
g82
I1
ssg83
g3860
sg76
(lp3867
(lp3868
(S'plugin_wiki'
p3869
I00
S'http://web2py.com/examples/default/download'
p3870
tp3871
a(g3256
(S's\r\x00\x00\x00Other Plugins'
tRp3872
I00
g3602
tp3873
a(g3256
(S's\x0e\x00\x00\x00Layout Plugins'
tRp3874
I00
g3605
tp3875
aasbasbasbasbasbasbasbasbasbasbasbasbasbasbasbasbasbasbasbag69
(g85
g71
NtRp3876
(dp3877
g74
(dp3878
sg83
g2700
sg76
(lp3879
g69
(g90
g71
NtRp3880
(dp3881
g74
(dp3882
g94
g95
ssg83
g3876
sg76
(lp3883
S'meta'
p3884
asbag69
(g90
g71
NtRp3885
(dp3886
g74
(dp3887
g101
g102
ssg83
g3876
sg76
(lp3888
S':'
asbag69
(g90
g71
NtRp3889
(dp3890
g74
(dp3891
sg83
g3876
sg76
(lp3892
g69
(g70
g71
NtRp3893
(dp3894
g74
(dp3895
g82
I5
ssg83
g3889
sg76
(lp3896
g69
(g78
g71
NtRp3897
(dp3898
g74
(dp3899
g82
I4
ssg83
Nsg76
(lp3900
g69
(g85
g71
NtRp3901
(dp3902
g74
(dp3903
sg83
g3897
sg76
(lp3904
g69
(g90
g71
NtRp3905
(dp3906
g74
(dp3907
g94
g95
ssg83
g3901
sg76
(lp3908
S'author'
p3909
asbag69
(g90
g71
NtRp3910
(dp3911
g74
(dp3912
g101
g102
ssg83
g3901
sg76
(lp3913
S':'
asbag69
(g90
g71
NtRp3914
(dp3915
g74
(dp3916
sg83
g3901
sg76
(lp3917
g69
(g70
g71
NtRp3918
(dp3919
g74
(dp3920
g82
I4
ssg83
g3914
sg76
(lp3921
S'Your Name <you@example.com>'
p3922
asbasbasbag69
(g85
g71
NtRp3923
(dp3924
g74
(dp3925
sg83
g3897
sg76
(lp3926
g69
(g90
g71
NtRp3927
(dp3928
g74
(dp3929
g94
g95
ssg83
g3923
sg76
(lp3930
S'copyright'
p3931
asbag69
(g90
g71
NtRp3932
(dp3933
g74
(dp3934
g101
g102
ssg83
g3923
sg76
(lp3935
S':'
asbag69
(g90
g71
NtRp3936
(dp3937
g74
(dp3938
sg83
g3923
sg76
(lp3939
g69
(g70
g71
NtRp3940
(dp3941
g74
(dp3942
g82
I4
ssg83
g3936
sg76
(lp3943
S'Copyright 2011'
p3944
asbasbasbag69
(g85
g71
NtRp3945
(dp3946
g74
(dp3947
sg83
g3897
sg76
(lp3948
g69
(g90
g71
NtRp3949
(dp3950
g74
(dp3951
g94
g95
ssg83
g3945
sg76
(lp3952
S'description'
p3953
asbag69
(g90
g71
NtRp3954
(dp3955
g74
(dp3956
g101
g102
ssg83
g3945
sg76
(lp3957
S':'
asbag69
(g90
g71
NtRp3958
(dp3959
g74
(dp3960
sg83
g3945
sg76
(lp3961
g69
(g70
g71
NtRp3962
(dp3963
g74
(dp3964
g82
I4
ssg83
g3958
sg76
(lp3965
S'a cool new app'
p3966
asbasbasbag69
(g85
g71
NtRp3967
(dp3968
g74
(dp3969
sg83
g3897
sg76
(lp3970
g69
(g90
g71
NtRp3971
(dp3972
g74
(dp3973
g94
g95
ssg83
g3967
sg76
(lp3974
S'generator'
p3975
asbag69
(g90
g71
NtRp3976
(dp3977
g74
(dp3978
g101
g102
ssg83
g3967
sg76
(lp3979
S':'
asbag69
(g90
g71
NtRp3980
(dp3981
g74
(dp3982
sg83
g3967
sg76
(lp3983
g69
(g70
g71
NtRp3984
(dp3985
g74
(dp3986
g82
I4
ssg83
g3980
sg76
(lp3987
S'Web2py Web Framework'
p3988
asbasbasbag69
(g85
g71
NtRp3989
(dp3990
g74
(dp3991
sg83
g3897
sg76
(lp3992
g69
(g90
g71
NtRp3993
(dp3994
g74
(dp3995
g94
g95
ssg83
g3989
sg76
(lp3996
S'keywords'
p3997
asbag69
(g90
g71
NtRp3998
(dp3999
g74
(dp4000
g101
g102
ssg83
g3989
sg76
(lp4001
S':'
asbag69
(g90
g71
NtRp4002
(dp4003
g74
(dp4004
sg83
g3989
sg76
(lp4005
g69
(g70
g71
NtRp4006
(dp4007
g74
(dp4008
g82
I4
ssg83
g4002
sg76
(lp4009
S'web2py, python, framework'
p4010
asbasbasbasbasbasbasbag69
(g85
g71
NtRp4011
(dp4012
g74
(dp4013
sg83
g2700
sg76
(lp4014
g69
(g90
g71
NtRp4015
(dp4016
g74
(dp4017
g94
g95
ssg83
g4011
sg76
(lp4018
S'postprocessing'
p4019
asbag69
(g90
g71
NtRp4020
(dp4021
g74
(dp4022
g101
g102
ssg83
g4011
sg76
(lp4023
S':'
asbag69
(g90
g71
NtRp4024
(dp4025
g74
(dp4026
sg83
g4011
sg76
(lp4027
g69
(g70
g71
NtRp4028
(dp4029
g74
(dp4030
g82
I5
ssg83
g4024
sg76
(lp4031
g69
(g78
g71
NtRp4032
(dp4033
g74
(dp4034
g82
I4
ssg83
Nsg76
(lp4035
sbasbasbasbag69
(g85
g71
NtRp4036
(dp4037
g74
(dp4038
sg83
g2700
sg76
(lp4039
g69
(g90
g71
NtRp4040
(dp4041
g74
(dp4042
g94
g95
ssg83
g4036
sg76
(lp4043
S'session_filename'
p4044
asbag69
(g90
g71
NtRp4045
(dp4046
g74
(dp4047
g101
g102
ssg83
g4036
sg76
(lp4048
S':'
asbag69
(g90
g71
NtRp4049
(dp4050
g74
(dp4051
sg83
g4036
sg76
(lp4052
g69
(g70
g71
NtRp4053
(dp4054
g74
(dp4055
g82
I5
ssg83
g4049
sg76
(lp4056
S'D:\\workspace\\CA\\IgoR\\C_Sources\\Server\\igor-assistant-ca-2012\\applications\\igor\\sessions\\127.0.0.1-d4510a7b-e7d9-419e-963c-23eedcf18254'
p4057
asbasbasbag69
(g85
g71
NtRp4058
(dp4059
g74
(dp4060
sg83
g2700
sg76
(lp4061
g69
(g90
g71
NtRp4062
(dp4063
g74
(dp4064
g94
g95
ssg83
g4058
sg76
(lp4065
S'session_id'
p4066
asbag69
(g90
g71
NtRp4067
(dp4068
g74
(dp4069
g101
g102
ssg83
g4058
sg76
(lp4070
S':'
asbag69
(g90
g71
NtRp4071
(dp4072
g74
(dp4073
sg83
g4058
sg76
(lp4074
g69
(g70
g71
NtRp4075
(dp4076
g74
(dp4077
g82
I5
ssg83
g4071
sg76
(lp4078
S'127.0.0.1-d4510a7b-e7d9-419e-963c-23eedcf18254'
p4079
asbasbasbag69
(g85
g71
NtRp4080
(dp4081
g74
(dp4082
sg83
g2700
sg76
(lp4083
g69
(g90
g71
NtRp4084
(dp4085
g74
(dp4086
g94
g95
ssg83
g4080
sg76
(lp4087
S'session_id_name'
p4088
asbag69
(g90
g71
NtRp4089
(dp4090
g74
(dp4091
g101
g102
ssg83
g4080
sg76
(lp4092
S':'
asbag69
(g90
g71
NtRp4093
(dp4094
g74
(dp4095
sg83
g4080
sg76
(lp4096
g69
(g70
g71
NtRp4097
(dp4098
g74
(dp4099
g82
I5
ssg83
g4093
sg76
(lp4100
g2757
asbasbasbag69
(g85
g71
NtRp4101
(dp4102
g74
(dp4103
sg83
g2700
sg76
(lp4104
g69
(g90
g71
NtRp4105
(dp4106
g74
(dp4107
g94
g95
ssg83
g4101
sg76
(lp4108
S'session_new'
p4109
asbag69
(g90
g71
NtRp4110
(dp4111
g74
(dp4112
g101
g102
ssg83
g4101
sg76
(lp4113
S':'
asbag69
(g90
g71
NtRp4114
(dp4115
g74
(dp4116
sg83
g4101
sg76
(lp4117
g69
(g70
g71
NtRp4118
(dp4119
g74
(dp4120
g82
I5
ssg83
g4114
sg76
(lp4121
g1311
asbasbasbag69
(g85
g71
NtRp4122
(dp4123
g74
(dp4124
sg83
g2700
sg76
(lp4125
g69
(g90
g71
NtRp4126
(dp4127
g74
(dp4128
g94
g95
ssg83
g4122
sg76
(lp4129
S'status'
p4130
asbag69
(g90
g71
NtRp4131
(dp4132
g74
(dp4133
g101
g102
ssg83
g4122
sg76
(lp4134
S':'
asbag69
(g90
g71
NtRp4135
(dp4136
g74
(dp4137
sg83
g4122
sg76
(lp4138
g69
(g70
g71
NtRp4139
(dp4140
g74
(dp4141
g82
I5
ssg83
g4135
sg76
(lp4142
S'200'
p4143
asbasbasbag69
(g85
g71
NtRp4144
(dp4145
g74
(dp4146
sg83
g2700
sg76
(lp4147
g69
(g90
g71
NtRp4148
(dp4149
g74
(dp4150
g94
g95
ssg83
g4144
sg76
(lp4151
S'subtitle'
p4152
asbag69
(g90
g71
NtRp4153
(dp4154
g74
(dp4155
g101
g102
ssg83
g4144
sg76
(lp4156
S':'
asbag69
(g90
g71
NtRp4157
(dp4158
g74
(dp4159
sg83
g4144
sg76
(lp4160
g69
(g70
g71
NtRp4161
(dp4162
g74
(dp4163
g82
I5
ssg83
g4157
sg76
(lp4164
g3256
(S's\r\x00\x00\x00customize me!'
tRp4165
asbasbasbag69
(g85
g71
NtRp4166
(dp4167
g74
(dp4168
sg83
g2700
sg76
(lp4169
g69
(g90
g71
NtRp4170
(dp4171
g74
(dp4172
g94
g95
ssg83
g4166
sg76
(lp4173
S'title'
p4174
asbag69
(g90
g71
NtRp4175
(dp4176
g74
(dp4177
g101
g102
ssg83
g4166
sg76
(lp4178
S':'
asbag69
(g90
g71
NtRp4179
(dp4180
g74
(dp4181
sg83
g4166
sg76
(lp4182
g69
(g70
g71
NtRp4183
(dp4184
g74
(dp4185
g82
I5
ssg83
g4179
sg76
(lp4186
S'Igor'
p4187
asbasbasbag69
(g85
g71
NtRp4188
(dp4189
g74
(dp4190
sg83
g2700
sg76
(lp4191
g69
(g90
g71
NtRp4192
(dp4193
g74
(dp4194
g94
g95
ssg83
g4188
sg76
(lp4195
g1987
asbag69
(g90
g71
NtRp4196
(dp4197
g74
(dp4198
g101
g102
ssg83
g4188
sg76
(lp4199
S':'
asbag69
(g90
g71
NtRp4200
(dp4201
g74
(dp4202
sg83
g4188
sg76
(lp4203
g69
(g70
g71
NtRp4204
(dp4205
g74
(dp4206
g82
I5
ssg83
g4200
sg76
(lp4207
g2000
asbasbasbag69
(g85
g71
NtRp4208
(dp4209
g74
(dp4210
sg83
g2700
sg76
(lp4211
g69
(g90
g71
NtRp4212
(dp4213
g74
(dp4214
g94
g95
ssg83
g4208
sg76
(lp4215
S'view'
p4216
asbag69
(g90
g71
NtRp4217
(dp4218
g74
(dp4219
g101
g102
ssg83
g4208
sg76
(lp4220
S':'
asbag69
(g90
g71
NtRp4221
(dp4222
g74
(dp4223
sg83
g4208
sg76
(lp4224
g69
(g70
g71
NtRp4225
(dp4226
g74
(dp4227
g82
I5
ssg83
g4221
sg76
(lp4228
S'subject/get_all_subjects.html'
p4229
asbasbasbasbasbsS'locals'
p4230
(dp4231
g4
S"r'D:\\workspace\\CA\\IgoR\\C_Sources\\Server\\igor-assis...-ca-2012\\applications\\igor\\controllers/subject.py'"
p4232
sg6
S"'# -*- coding: utf-8 -*-\\n# this file is released ...esponse._vars=response._caller(get_all_subjects)\\n'"
p4233
sssS'traceback'
p4234
S'Traceback (most recent call last):\n  File "D:\\workspace\\CA\\IgoR\\C_Sources\\Server\\igor-assistant-ca-2012\\gluon\\restricted.py", line 204, in restricted\n    ccode = compile2(code,layer)\n  File "D:\\workspace\\CA\\IgoR\\C_Sources\\Server\\igor-assistant-ca-2012\\gluon\\restricted.py", line 189, in compile2\n    return compile(code.rstrip().replace(\'\\r\\n\',\'\\n\')+\'\\n\', layer, \'exec\')\n  File "D:\\workspace\\CA\\IgoR\\C_Sources\\Server\\igor-assistant-ca-2012\\applications\\igor\\controllers/subject.py", line 61\n    (class_subject.term = term)).count()\n                        ^\nSyntaxError: invalid syntax\n'
p4235
s.