(dp1
S'output'
p2
S"<type 'exceptions.SyntaxError'> not enough information to build the url"
p3
sS'layer'
p4
S'D:\\workspace\\CA\\IgoR\\C_Sources\\Server\\igor-assistant-ca-2012\\applications\\igor\\controllers/user.py'
p5
sS'code'
p6
S'# -*- coding: utf-8 -*-\n# this file is released under public domain and you can use without limitations\n\n#########################################################################\n## This is subject controller\n## Author: phucnh, tuna\n#########################################################################\n\nfrom message_packager import *\nfrom gluon.dal import Rows\nfrom gluon.tools import Service\nimport gluon.contenttype\n\nservice = Service()\n\n\ndef call():\n\tsession.forget()\n\n\treturn service()\n\n# Registration new user\n@service.jsonp\n@service.json\ndef register(email, password, name, class_group, student_code, user_course, avatar = \'\'):\n\n\ttry:\n\t\tuser = db.auth_user.insert(\n\t\t\tfirst_name = name,\n\t\t\tlast_name  = name,\n\t\t\temail      = email,\n\t\t\tpassword   = db.auth_user.password.requires[0](password)[0]\n\t\t\t)\n\n\t\tif user:\n\n\t\t\tif avatar == \'\':\n\t\t\t\tavatar = URL(\'static\', \'igor.jpg\')\n\n\t\t\tuser = db.user.insert(\n\t\t\t\tname         = name,\n\t\t\t\tclass_group  = class_group,\n\t\t\t\tstudent_code = student_code,\n\t\t\t\tuser_course  = user_course,\n\t\t\t\tavatar       = avatar,\n\t\t\t\tauth         = user\n\t\t\t\t)\n\texcept Exception, eerr:\n\t\tdb.rollback()\n\t\treturn MessagePackager.get_packaged_message(MessageStatus.ERROR, str (err) )\n\n\treturn MessagePackager.get_packaged_message(MessageStatus.OK, user)\n\n# Check user\'s email available\n@service.jsonp\n@service.json\ndef check_email_available(email):\n\t\n\tif (db(db.auth_user.email == email).isempty()):\n\t\treturn MessagePackager.get_packaged_message (MessageStatus.OK, \n\t\t\t"1")\n\telse:\n\t\treturn MessagePackager.get_packaged_message (MessageStatus.OK, \n\t\t\t"0")\n\n# Login \n@service.jsonp\n@service.json\ndef login(email, password):\n\n\tis_login = auth.login_bare(email, password)\n\t\n\tif not is_login:\n\t\treturn MessagePackager.get_packaged_message (MessageStatus.OK, \n\t\t\t"Authentication failed! Check your email or password again")\n\n\tprint session\n\treturn MessagePackager.get_packaged_message (MessageStatus.OK, "Success")\n\n# Search user\n# Input\n# \ttype: integer. 2: by class, 3: by subject, 5: by user name\n@service.jsonp\n@service.json\ndef search_user(type, value = \'\'):\n\t\t\n\tif (not type.isdigit()):\n\t\treturn MessagePackager.get_packaged_message (\n\t\t\tMessageStatus.ERROR, \n\t\t\t"type must be numberic! - 2: get by class, 3: get by subject, 5: by user name")\n\n\tusers = dict()\n\n\tif (int (type) == 5):\n\t\tusers = get_user_by_name (value)\n\t\t#users = db(db.user).select()\n\t\t\t\n\tusers = format_client_data (users)\n\n\treturn MessagePackager.get_packaged_message (MessageStatus.OK, users)\n\n# Get user information\n@service.jsonp\n@service.json\ndef get_user_detail(id):\n\n\tif (not id.isdigit()):\n\t\treturn MessagePackager.get_packaged_message (\n\t\t\tMessageStatus.ERROR, \n\t\t\t"user id must be numberic!")\n\n\tif (int (id) < 0):\n\t\t\treturn MessagePackager.get_packaged_message (\n\t\t\tMessageStatus.ERROR, \n\t\t\t"user id can not less than 0!")\n\t\t\n\tuser = \tdb(db.user.id == id).select ()\n\t\n\tuser = format_client_data (user)\n\n\treturn MessagePackager.get_packaged_message (MessageStatus.OK, user)\n\n# Format data for client \ndef format_client_data(users):\n\tif (users == None):\n\t\treturn\n\n\tclient_data = list()\n\n\tfor user in users:\n\t\tauth = db(db.auth_user.id == user.auth).select().first()\n\n\t\tif (auth != None):\n\t\t\tclient = dict(\n\t\t\t\tuserid    = user.id,\n\t\t\t\t#username  = user.name,\n\t\t\t\tfullname  = user.name,\n\t\t\t\t#password = \n\t\t\t\tavatar    = get_avatar_full_url(user.avatar),\n\t\t\t\tstudentid = user.student_code,\n\t\t\t\temail     = auth.email,\n\t\t\t\tgroup     = user.class_group,\n\t\t\t\tcourse    = user.user_course\n\t\t\t\t)\n\n\t\tclient_data.append (client)\n\n\treturn client_data\nresponse._vars=response._caller(call)\n'
p7
sS'snapshot'
p8
(dp9
S'exception'
p10
(dp11
S'__getslice__'
p12
S"<method-wrapper '__getslice__' of exceptions.SyntaxError object>"
p13
sS'text'
p14
S'None'
p15
sS'__str__'
p16
S"<method-wrapper '__str__' of exceptions.SyntaxError object>"
p17
sS'__reduce__'
p18
S'<built-in method __reduce__ of exceptions.SyntaxError object>'
p19
sS'__dict__'
p20
S'{}'
p21
sS'__sizeof__'
p22
S'<built-in method __sizeof__ of exceptions.SyntaxError object>'
p23
sS'__init__'
p24
S"<method-wrapper '__init__' of exceptions.SyntaxError object>"
p25
sS'__setattr__'
p26
S"<method-wrapper '__setattr__' of exceptions.SyntaxError object>"
p27
sS'__reduce_ex__'
p28
S'<built-in method __reduce_ex__ of exceptions.SyntaxError object>'
p29
sS'__new__'
p30
S'<built-in method __new__ of type object>'
p31
sS'__format__'
p32
S'<built-in method __format__ of exceptions.SyntaxError object>'
p33
sS'__class__'
p34
S"<type 'exceptions.SyntaxError'>"
p35
sS'filename'
p36
S'None'
p37
sS'lineno'
p38
S'None'
p39
sS'msg'
p40
S"'not enough information to build the url'"
p41
sS'__doc__'
p42
S"'Invalid syntax.'"
p43
sS'__getitem__'
p44
S"<method-wrapper '__getitem__' of exceptions.SyntaxError object>"
p45
sS'__setstate__'
p46
S'<built-in method __setstate__ of exceptions.SyntaxError object>'
p47
sS'__getattribute__'
p48
S"<method-wrapper '__getattribute__' of exceptions.SyntaxError object>"
p49
sS'print_file_and_line'
p50
S'None'
p51
sS'args'
p52
S"('not enough information to build the url',)"
p53
sS'__subclasshook__'
p54
S'<built-in method __subclasshook__ of type object>'
p55
sS'offset'
p56
S'None'
p57
sS'__unicode__'
p58
S'<built-in method __unicode__ of exceptions.SyntaxError object>'
p59
sS'__delattr__'
p60
S"<method-wrapper '__delattr__' of exceptions.SyntaxError object>"
p61
sS'__repr__'
p62
S"<method-wrapper '__repr__' of exceptions.SyntaxError object>"
p63
sS'__hash__'
p64
S"<method-wrapper '__hash__' of exceptions.SyntaxError object>"
p65
ssS'evalue'
p66
S'not enough information to build the url'
p67
sS'request'
p68
ccopy_reg
_reconstructor
p69
(cgluon.html
BEAUTIFY
p70
c__builtin__
object
p71
NtRp72
(dp73
S'attributes'
p74
(dp75
sS'components'
p76
(lp77
g69
(cgluon.html
TABLE
p78
g71
NtRp79
(dp80
g74
(dp81
S'level'
p82
I5
ssS'parent'
p83
Nsg76
(lp84
g69
(cgluon.html
TR
p85
g71
NtRp86
(dp87
g74
(dp88
sg83
g79
sg76
(lp89
g69
(cgluon.html
TD
p90
g71
NtRp91
(dp92
g74
(dp93
S'_style'
p94
S'font-weight:bold;vertical-align:top'
p95
ssg83
g86
sg76
(lp96
S'ajax'
p97
asbag69
(g90
g71
NtRp98
(dp99
g74
(dp100
S'_valign'
p101
S'top'
p102
ssg83
g86
sg76
(lp103
S':'
asbag69
(g90
g71
NtRp104
(dp105
g74
(dp106
sg83
g86
sg76
(lp107
g69
(g70
g71
NtRp108
(dp109
g74
(dp110
g82
I5
ssg83
g104
sg76
(lp111
S'False'
p112
asbasbasbag69
(g85
g71
NtRp113
(dp114
g74
(dp115
sg83
g79
sg76
(lp116
g69
(g90
g71
NtRp117
(dp118
g74
(dp119
g94
g95
ssg83
g113
sg76
(lp120
S'application'
p121
asbag69
(g90
g71
NtRp122
(dp123
g74
(dp124
g101
g102
ssg83
g113
sg76
(lp125
S':'
asbag69
(g90
g71
NtRp126
(dp127
g74
(dp128
sg83
g113
sg76
(lp129
g69
(g70
g71
NtRp130
(dp131
g74
(dp132
g82
I5
ssg83
g126
sg76
(lp133
S'igor'
p134
asbasbasbag69
(g85
g71
NtRp135
(dp136
g74
(dp137
sg83
g79
sg76
(lp138
g69
(g90
g71
NtRp139
(dp140
g74
(dp141
g94
g95
ssg83
g135
sg76
(lp142
g52
asbag69
(g90
g71
NtRp143
(dp144
g74
(dp145
g101
g102
ssg83
g135
sg76
(lp146
S':'
asbag69
(g90
g71
NtRp147
(dp148
g74
(dp149
sg83
g135
sg76
(lp150
g69
(g70
g71
NtRp151
(dp152
g74
(dp153
g82
I5
ssg83
g147
sg76
(lp154
g69
(g78
g71
NtRp155
(dp156
g74
(dp157
g82
I4
ssg83
Nsg76
(lp158
g69
(g85
g71
NtRp159
(dp160
g74
(dp161
sg83
g155
sg76
(lp162
g69
(g90
g71
NtRp163
(dp164
g74
(dp165
sg83
g159
sg76
(lp166
g69
(g70
g71
NtRp167
(dp168
g74
(dp169
g82
I4
ssg83
g163
sg76
(lp170
S'json'
p171
asbasbasbag69
(g85
g71
NtRp172
(dp173
g74
(dp174
sg83
g155
sg76
(lp175
g69
(g90
g71
NtRp176
(dp177
g74
(dp178
sg83
g172
sg76
(lp179
g69
(g70
g71
NtRp180
(dp181
g74
(dp182
g82
I4
ssg83
g176
sg76
(lp183
S'search_user'
p184
asbasbasbasbasbasbasbag69
(g85
g71
NtRp185
(dp186
g74
(dp187
sg83
g79
sg76
(lp188
g69
(g90
g71
NtRp189
(dp190
g74
(dp191
g94
g95
ssg83
g185
sg76
(lp192
S'body'
p193
asbag69
(g90
g71
NtRp194
(dp195
g74
(dp196
g101
g102
ssg83
g185
sg76
(lp197
S':'
asbag69
(g90
g71
NtRp198
(dp199
g74
(dp200
sg83
g185
sg76
(lp201
g69
(g70
g71
NtRp202
(dp203
g74
(dp204
g82
I5
ssg83
g198
sg76
(lp205
S'<cStringIO.StringO object at 0x00000000093D7C38>'
p206
asbasbasbag69
(g85
g71
NtRp207
(dp208
g74
(dp209
sg83
g79
sg76
(lp210
g69
(g90
g71
NtRp211
(dp212
g74
(dp213
g94
g95
ssg83
g207
sg76
(lp214
S'client'
p215
asbag69
(g90
g71
NtRp216
(dp217
g74
(dp218
g101
g102
ssg83
g207
sg76
(lp219
S':'
asbag69
(g90
g71
NtRp220
(dp221
g74
(dp222
sg83
g207
sg76
(lp223
g69
(g70
g71
NtRp224
(dp225
g74
(dp226
g82
I5
ssg83
g220
sg76
(lp227
S'127.0.0.1'
p228
asbasbasbag69
(g85
g71
NtRp229
(dp230
g74
(dp231
sg83
g79
sg76
(lp232
g69
(g90
g71
NtRp233
(dp234
g74
(dp235
g94
g95
ssg83
g229
sg76
(lp236
S'controller'
p237
asbag69
(g90
g71
NtRp238
(dp239
g74
(dp240
g101
g102
ssg83
g229
sg76
(lp241
S':'
asbag69
(g90
g71
NtRp242
(dp243
g74
(dp244
sg83
g229
sg76
(lp245
g69
(g70
g71
NtRp246
(dp247
g74
(dp248
g82
I5
ssg83
g242
sg76
(lp249
S'user'
p250
asbasbasbag69
(g85
g71
NtRp251
(dp252
g74
(dp253
sg83
g79
sg76
(lp254
g69
(g90
g71
NtRp255
(dp256
g74
(dp257
g94
g95
ssg83
g251
sg76
(lp258
S'cookies'
p259
asbag69
(g90
g71
NtRp260
(dp261
g74
(dp262
g101
g102
ssg83
g251
sg76
(lp263
S':'
asbag69
(g90
g71
NtRp264
(dp265
g74
(dp266
sg83
g251
sg76
(lp267
g69
(g70
g71
NtRp268
(dp269
g74
(dp270
g82
I5
ssg83
g264
sg76
(lp271
g69
(g78
g71
NtRp272
(dp273
g74
(dp274
g82
I4
ssg83
Nsg76
(lp275
g69
(g85
g71
NtRp276
(dp277
g74
(dp278
sg83
g272
sg76
(lp279
g69
(g90
g71
NtRp280
(dp281
g74
(dp282
g94
g95
ssg83
g276
sg76
(lp283
S'session_id_admin'
p284
asbag69
(g90
g71
NtRp285
(dp286
g74
(dp287
g101
g102
ssg83
g276
sg76
(lp288
S':'
asbag69
(g90
g71
NtRp289
(dp290
g74
(dp291
sg83
g276
sg76
(lp292
g69
(g70
g71
NtRp293
(dp294
g74
(dp295
g82
I4
ssg83
g289
sg76
(lp296
g69
(g78
g71
NtRp297
(dp298
g74
(dp299
g82
I3
ssg83
Nsg76
(lp300
g69
(g85
g71
NtRp301
(dp302
g74
(dp303
sg83
g297
sg76
(lp304
g69
(g90
g71
NtRp305
(dp306
g74
(dp307
g94
g95
ssg83
g301
sg76
(lp308
S'comment'
p309
asbag69
(g90
g71
NtRp310
(dp311
g74
(dp312
g101
g102
ssg83
g301
sg76
(lp313
S':'
asbag69
(g90
g71
NtRp314
(dp315
g74
(dp316
sg83
g301
sg76
(lp317
g69
(g70
g71
NtRp318
(dp319
g74
(dp320
g82
I3
ssg83
g314
sg76
(lp321
S''
asbasbasbag69
(g85
g71
NtRp322
(dp323
g74
(dp324
sg83
g297
sg76
(lp325
g69
(g90
g71
NtRp326
(dp327
g74
(dp328
g94
g95
ssg83
g322
sg76
(lp329
S'domain'
p330
asbag69
(g90
g71
NtRp331
(dp332
g74
(dp333
g101
g102
ssg83
g322
sg76
(lp334
S':'
asbag69
(g90
g71
NtRp335
(dp336
g74
(dp337
sg83
g322
sg76
(lp338
g69
(g70
g71
NtRp339
(dp340
g74
(dp341
g82
I3
ssg83
g335
sg76
(lp342
S''
asbasbasbag69
(g85
g71
NtRp343
(dp344
g74
(dp345
sg83
g297
sg76
(lp346
g69
(g90
g71
NtRp347
(dp348
g74
(dp349
g94
g95
ssg83
g343
sg76
(lp350
S'expires'
p351
asbag69
(g90
g71
NtRp352
(dp353
g74
(dp354
g101
g102
ssg83
g343
sg76
(lp355
S':'
asbag69
(g90
g71
NtRp356
(dp357
g74
(dp358
sg83
g343
sg76
(lp359
g69
(g70
g71
NtRp360
(dp361
g74
(dp362
g82
I3
ssg83
g356
sg76
(lp363
S''
asbasbasbag69
(g85
g71
NtRp364
(dp365
g74
(dp366
sg83
g297
sg76
(lp367
g69
(g90
g71
NtRp368
(dp369
g74
(dp370
g94
g95
ssg83
g364
sg76
(lp371
S'httponly'
p372
asbag69
(g90
g71
NtRp373
(dp374
g74
(dp375
g101
g102
ssg83
g364
sg76
(lp376
S':'
asbag69
(g90
g71
NtRp377
(dp378
g74
(dp379
sg83
g364
sg76
(lp380
g69
(g70
g71
NtRp381
(dp382
g74
(dp383
g82
I3
ssg83
g377
sg76
(lp384
S''
asbasbasbag69
(g85
g71
NtRp385
(dp386
g74
(dp387
sg83
g297
sg76
(lp388
g69
(g90
g71
NtRp389
(dp390
g74
(dp391
g94
g95
ssg83
g385
sg76
(lp392
S'max-age'
p393
asbag69
(g90
g71
NtRp394
(dp395
g74
(dp396
g101
g102
ssg83
g385
sg76
(lp397
S':'
asbag69
(g90
g71
NtRp398
(dp399
g74
(dp400
sg83
g385
sg76
(lp401
g69
(g70
g71
NtRp402
(dp403
g74
(dp404
g82
I3
ssg83
g398
sg76
(lp405
S''
asbasbasbag69
(g85
g71
NtRp406
(dp407
g74
(dp408
sg83
g297
sg76
(lp409
g69
(g90
g71
NtRp410
(dp411
g74
(dp412
g94
g95
ssg83
g406
sg76
(lp413
S'path'
p414
asbag69
(g90
g71
NtRp415
(dp416
g74
(dp417
g101
g102
ssg83
g406
sg76
(lp418
S':'
asbag69
(g90
g71
NtRp419
(dp420
g74
(dp421
sg83
g406
sg76
(lp422
g69
(g70
g71
NtRp423
(dp424
g74
(dp425
g82
I3
ssg83
g419
sg76
(lp426
S''
asbasbasbag69
(g85
g71
NtRp427
(dp428
g74
(dp429
sg83
g297
sg76
(lp430
g69
(g90
g71
NtRp431
(dp432
g74
(dp433
g94
g95
ssg83
g427
sg76
(lp434
S'secure'
p435
asbag69
(g90
g71
NtRp436
(dp437
g74
(dp438
g101
g102
ssg83
g427
sg76
(lp439
S':'
asbag69
(g90
g71
NtRp440
(dp441
g74
(dp442
sg83
g427
sg76
(lp443
g69
(g70
g71
NtRp444
(dp445
g74
(dp446
g82
I3
ssg83
g440
sg76
(lp447
S''
asbasbasbag69
(g85
g71
NtRp448
(dp449
g74
(dp450
sg83
g297
sg76
(lp451
g69
(g90
g71
NtRp452
(dp453
g74
(dp454
g94
g95
ssg83
g448
sg76
(lp455
S'version'
p456
asbag69
(g90
g71
NtRp457
(dp458
g74
(dp459
g101
g102
ssg83
g448
sg76
(lp460
S':'
asbag69
(g90
g71
NtRp461
(dp462
g74
(dp463
sg83
g448
sg76
(lp464
g69
(g70
g71
NtRp465
(dp466
g74
(dp467
g82
I3
ssg83
g461
sg76
(lp468
S''
asbasbasbasbasbasbasbag69
(g85
g71
NtRp469
(dp470
g74
(dp471
sg83
g272
sg76
(lp472
g69
(g90
g71
NtRp473
(dp474
g74
(dp475
g94
g95
ssg83
g469
sg76
(lp476
S'session_id_igor'
p477
asbag69
(g90
g71
NtRp478
(dp479
g74
(dp480
g101
g102
ssg83
g469
sg76
(lp481
S':'
asbag69
(g90
g71
NtRp482
(dp483
g74
(dp484
sg83
g469
sg76
(lp485
g69
(g70
g71
NtRp486
(dp487
g74
(dp488
g82
I4
ssg83
g482
sg76
(lp489
g69
(g78
g71
NtRp490
(dp491
g74
(dp492
g82
I3
ssg83
Nsg76
(lp493
g69
(g85
g71
NtRp494
(dp495
g74
(dp496
sg83
g490
sg76
(lp497
g69
(g90
g71
NtRp498
(dp499
g74
(dp500
g94
g95
ssg83
g494
sg76
(lp501
g309
asbag69
(g90
g71
NtRp502
(dp503
g74
(dp504
g101
g102
ssg83
g494
sg76
(lp505
S':'
asbag69
(g90
g71
NtRp506
(dp507
g74
(dp508
sg83
g494
sg76
(lp509
g69
(g70
g71
NtRp510
(dp511
g74
(dp512
g82
I3
ssg83
g506
sg76
(lp513
S''
asbasbasbag69
(g85
g71
NtRp514
(dp515
g74
(dp516
sg83
g490
sg76
(lp517
g69
(g90
g71
NtRp518
(dp519
g74
(dp520
g94
g95
ssg83
g514
sg76
(lp521
g330
asbag69
(g90
g71
NtRp522
(dp523
g74
(dp524
g101
g102
ssg83
g514
sg76
(lp525
S':'
asbag69
(g90
g71
NtRp526
(dp527
g74
(dp528
sg83
g514
sg76
(lp529
g69
(g70
g71
NtRp530
(dp531
g74
(dp532
g82
I3
ssg83
g526
sg76
(lp533
S''
asbasbasbag69
(g85
g71
NtRp534
(dp535
g74
(dp536
sg83
g490
sg76
(lp537
g69
(g90
g71
NtRp538
(dp539
g74
(dp540
g94
g95
ssg83
g534
sg76
(lp541
g351
asbag69
(g90
g71
NtRp542
(dp543
g74
(dp544
g101
g102
ssg83
g534
sg76
(lp545
S':'
asbag69
(g90
g71
NtRp546
(dp547
g74
(dp548
sg83
g534
sg76
(lp549
g69
(g70
g71
NtRp550
(dp551
g74
(dp552
g82
I3
ssg83
g546
sg76
(lp553
S''
asbasbasbag69
(g85
g71
NtRp554
(dp555
g74
(dp556
sg83
g490
sg76
(lp557
g69
(g90
g71
NtRp558
(dp559
g74
(dp560
g94
g95
ssg83
g554
sg76
(lp561
g372
asbag69
(g90
g71
NtRp562
(dp563
g74
(dp564
g101
g102
ssg83
g554
sg76
(lp565
S':'
asbag69
(g90
g71
NtRp566
(dp567
g74
(dp568
sg83
g554
sg76
(lp569
g69
(g70
g71
NtRp570
(dp571
g74
(dp572
g82
I3
ssg83
g566
sg76
(lp573
S''
asbasbasbag69
(g85
g71
NtRp574
(dp575
g74
(dp576
sg83
g490
sg76
(lp577
g69
(g90
g71
NtRp578
(dp579
g74
(dp580
g94
g95
ssg83
g574
sg76
(lp581
g393
asbag69
(g90
g71
NtRp582
(dp583
g74
(dp584
g101
g102
ssg83
g574
sg76
(lp585
S':'
asbag69
(g90
g71
NtRp586
(dp587
g74
(dp588
sg83
g574
sg76
(lp589
g69
(g70
g71
NtRp590
(dp591
g74
(dp592
g82
I3
ssg83
g586
sg76
(lp593
S''
asbasbasbag69
(g85
g71
NtRp594
(dp595
g74
(dp596
sg83
g490
sg76
(lp597
g69
(g90
g71
NtRp598
(dp599
g74
(dp600
g94
g95
ssg83
g594
sg76
(lp601
g414
asbag69
(g90
g71
NtRp602
(dp603
g74
(dp604
g101
g102
ssg83
g594
sg76
(lp605
S':'
asbag69
(g90
g71
NtRp606
(dp607
g74
(dp608
sg83
g594
sg76
(lp609
g69
(g70
g71
NtRp610
(dp611
g74
(dp612
g82
I3
ssg83
g606
sg76
(lp613
S''
asbasbasbag69
(g85
g71
NtRp614
(dp615
g74
(dp616
sg83
g490
sg76
(lp617
g69
(g90
g71
NtRp618
(dp619
g74
(dp620
g94
g95
ssg83
g614
sg76
(lp621
g435
asbag69
(g90
g71
NtRp622
(dp623
g74
(dp624
g101
g102
ssg83
g614
sg76
(lp625
S':'
asbag69
(g90
g71
NtRp626
(dp627
g74
(dp628
sg83
g614
sg76
(lp629
g69
(g70
g71
NtRp630
(dp631
g74
(dp632
g82
I3
ssg83
g626
sg76
(lp633
S''
asbasbasbag69
(g85
g71
NtRp634
(dp635
g74
(dp636
sg83
g490
sg76
(lp637
g69
(g90
g71
NtRp638
(dp639
g74
(dp640
g94
g95
ssg83
g634
sg76
(lp641
g456
asbag69
(g90
g71
NtRp642
(dp643
g74
(dp644
g101
g102
ssg83
g634
sg76
(lp645
S':'
asbag69
(g90
g71
NtRp646
(dp647
g74
(dp648
sg83
g634
sg76
(lp649
g69
(g70
g71
NtRp650
(dp651
g74
(dp652
g82
I3
ssg83
g646
sg76
(lp653
S''
asbasbasbasbasbasbasbag69
(g85
g71
NtRp654
(dp655
g74
(dp656
sg83
g272
sg76
(lp657
g69
(g90
g71
NtRp658
(dp659
g74
(dp660
g94
g95
ssg83
g654
sg76
(lp661
S'session_id_welcome'
p662
asbag69
(g90
g71
NtRp663
(dp664
g74
(dp665
g101
g102
ssg83
g654
sg76
(lp666
S':'
asbag69
(g90
g71
NtRp667
(dp668
g74
(dp669
sg83
g654
sg76
(lp670
g69
(g70
g71
NtRp671
(dp672
g74
(dp673
g82
I4
ssg83
g667
sg76
(lp674
g69
(g78
g71
NtRp675
(dp676
g74
(dp677
g82
I3
ssg83
Nsg76
(lp678
g69
(g85
g71
NtRp679
(dp680
g74
(dp681
sg83
g675
sg76
(lp682
g69
(g90
g71
NtRp683
(dp684
g74
(dp685
g94
g95
ssg83
g679
sg76
(lp686
g309
asbag69
(g90
g71
NtRp687
(dp688
g74
(dp689
g101
g102
ssg83
g679
sg76
(lp690
S':'
asbag69
(g90
g71
NtRp691
(dp692
g74
(dp693
sg83
g679
sg76
(lp694
g69
(g70
g71
NtRp695
(dp696
g74
(dp697
g82
I3
ssg83
g691
sg76
(lp698
S''
asbasbasbag69
(g85
g71
NtRp699
(dp700
g74
(dp701
sg83
g675
sg76
(lp702
g69
(g90
g71
NtRp703
(dp704
g74
(dp705
g94
g95
ssg83
g699
sg76
(lp706
g330
asbag69
(g90
g71
NtRp707
(dp708
g74
(dp709
g101
g102
ssg83
g699
sg76
(lp710
S':'
asbag69
(g90
g71
NtRp711
(dp712
g74
(dp713
sg83
g699
sg76
(lp714
g69
(g70
g71
NtRp715
(dp716
g74
(dp717
g82
I3
ssg83
g711
sg76
(lp718
S''
asbasbasbag69
(g85
g71
NtRp719
(dp720
g74
(dp721
sg83
g675
sg76
(lp722
g69
(g90
g71
NtRp723
(dp724
g74
(dp725
g94
g95
ssg83
g719
sg76
(lp726
g351
asbag69
(g90
g71
NtRp727
(dp728
g74
(dp729
g101
g102
ssg83
g719
sg76
(lp730
S':'
asbag69
(g90
g71
NtRp731
(dp732
g74
(dp733
sg83
g719
sg76
(lp734
g69
(g70
g71
NtRp735
(dp736
g74
(dp737
g82
I3
ssg83
g731
sg76
(lp738
S''
asbasbasbag69
(g85
g71
NtRp739
(dp740
g74
(dp741
sg83
g675
sg76
(lp742
g69
(g90
g71
NtRp743
(dp744
g74
(dp745
g94
g95
ssg83
g739
sg76
(lp746
g372
asbag69
(g90
g71
NtRp747
(dp748
g74
(dp749
g101
g102
ssg83
g739
sg76
(lp750
S':'
asbag69
(g90
g71
NtRp751
(dp752
g74
(dp753
sg83
g739
sg76
(lp754
g69
(g70
g71
NtRp755
(dp756
g74
(dp757
g82
I3
ssg83
g751
sg76
(lp758
S''
asbasbasbag69
(g85
g71
NtRp759
(dp760
g74
(dp761
sg83
g675
sg76
(lp762
g69
(g90
g71
NtRp763
(dp764
g74
(dp765
g94
g95
ssg83
g759
sg76
(lp766
g393
asbag69
(g90
g71
NtRp767
(dp768
g74
(dp769
g101
g102
ssg83
g759
sg76
(lp770
S':'
asbag69
(g90
g71
NtRp771
(dp772
g74
(dp773
sg83
g759
sg76
(lp774
g69
(g70
g71
NtRp775
(dp776
g74
(dp777
g82
I3
ssg83
g771
sg76
(lp778
S''
asbasbasbag69
(g85
g71
NtRp779
(dp780
g74
(dp781
sg83
g675
sg76
(lp782
g69
(g90
g71
NtRp783
(dp784
g74
(dp785
g94
g95
ssg83
g779
sg76
(lp786
g414
asbag69
(g90
g71
NtRp787
(dp788
g74
(dp789
g101
g102
ssg83
g779
sg76
(lp790
S':'
asbag69
(g90
g71
NtRp791
(dp792
g74
(dp793
sg83
g779
sg76
(lp794
g69
(g70
g71
NtRp795
(dp796
g74
(dp797
g82
I3
ssg83
g791
sg76
(lp798
S''
asbasbasbag69
(g85
g71
NtRp799
(dp800
g74
(dp801
sg83
g675
sg76
(lp802
g69
(g90
g71
NtRp803
(dp804
g74
(dp805
g94
g95
ssg83
g799
sg76
(lp806
g435
asbag69
(g90
g71
NtRp807
(dp808
g74
(dp809
g101
g102
ssg83
g799
sg76
(lp810
S':'
asbag69
(g90
g71
NtRp811
(dp812
g74
(dp813
sg83
g799
sg76
(lp814
g69
(g70
g71
NtRp815
(dp816
g74
(dp817
g82
I3
ssg83
g811
sg76
(lp818
S''
asbasbasbag69
(g85
g71
NtRp819
(dp820
g74
(dp821
sg83
g675
sg76
(lp822
g69
(g90
g71
NtRp823
(dp824
g74
(dp825
g94
g95
ssg83
g819
sg76
(lp826
g456
asbag69
(g90
g71
NtRp827
(dp828
g74
(dp829
g101
g102
ssg83
g819
sg76
(lp830
S':'
asbag69
(g90
g71
NtRp831
(dp832
g74
(dp833
sg83
g819
sg76
(lp834
g69
(g70
g71
NtRp835
(dp836
g74
(dp837
g82
I3
ssg83
g831
sg76
(lp838
S''
asbasbasbasbasbasbasbasbasbasbasbag69
(g85
g71
NtRp839
(dp840
g74
(dp841
sg83
g79
sg76
(lp842
g69
(g90
g71
NtRp843
(dp844
g74
(dp845
g94
g95
ssg83
g839
sg76
(lp846
S'env'
p847
asbag69
(g90
g71
NtRp848
(dp849
g74
(dp850
g101
g102
ssg83
g839
sg76
(lp851
S':'
asbag69
(g90
g71
NtRp852
(dp853
g74
(dp854
sg83
g839
sg76
(lp855
g69
(g70
g71
NtRp856
(dp857
g74
(dp858
g82
I5
ssg83
g852
sg76
(lp859
g69
(g78
g71
NtRp860
(dp861
g74
(dp862
g82
I4
ssg83
Nsg76
(lp863
g69
(g85
g71
NtRp864
(dp865
g74
(dp866
sg83
g860
sg76
(lp867
g69
(g90
g71
NtRp868
(dp869
g74
(dp870
g94
g95
ssg83
g864
sg76
(lp871
S'app_folders'
p872
asbag69
(g90
g71
NtRp873
(dp874
g74
(dp875
g101
g102
ssg83
g864
sg76
(lp876
S':'
asbag69
(g90
g71
NtRp877
(dp878
g74
(dp879
sg83
g864
sg76
(lp880
g69
(g70
g71
NtRp881
(dp882
g74
(dp883
g82
I4
ssg83
g877
sg76
(lp884
S"set(['D:\\\\workspace\\\\CA\\\\IgoR\\\\C_Sources\\\\Server\\\\igor-assistant-ca-2012\\\\applications\\\\admin\\\\', 'D:\\\\workspace\\\\CA\\\\IgoR\\\\C_Sources\\\\Server\\\\igor-assistant-ca-2012\\\\applications\\\\igor\\\\', 'D:\\\\workspace\\\\CA\\\\IgoR\\\\C_Sources\\\\Server\\\\igor-assistant-ca-2012\\\\applications\\\\welcome\\\\'])"
p885
asbasbasbag69
(g85
g71
NtRp886
(dp887
g74
(dp888
sg83
g860
sg76
(lp889
g69
(g90
g71
NtRp890
(dp891
g74
(dp892
g94
g95
ssg83
g886
sg76
(lp893
S'applications_parent'
p894
asbag69
(g90
g71
NtRp895
(dp896
g74
(dp897
g101
g102
ssg83
g886
sg76
(lp898
S':'
asbag69
(g90
g71
NtRp899
(dp900
g74
(dp901
sg83
g886
sg76
(lp902
g69
(g70
g71
NtRp903
(dp904
g74
(dp905
g82
I4
ssg83
g899
sg76
(lp906
S'D:\\workspace\\CA\\IgoR\\C_Sources\\Server\\igor-assistant-ca-2012'
p907
asbasbasbag69
(g85
g71
NtRp908
(dp909
g74
(dp910
sg83
g860
sg76
(lp911
g69
(g90
g71
NtRp912
(dp913
g74
(dp914
g94
g95
ssg83
g908
sg76
(lp915
S'cmd_args'
p916
asbag69
(g90
g71
NtRp917
(dp918
g74
(dp919
g101
g102
ssg83
g908
sg76
(lp920
S':'
asbag69
(g90
g71
NtRp921
(dp922
g74
(dp923
sg83
g908
sg76
(lp924
g69
(g70
g71
NtRp925
(dp926
g74
(dp927
g82
I4
ssg83
g921
sg76
(lp928
g69
(g78
g71
NtRp929
(dp930
g74
(dp931
g82
I3
ssg83
Nsg76
(lp932
g69
(g85
g71
NtRp933
(dp934
g74
(dp935
sg83
g929
sg76
(lp936
g69
(g90
g71
NtRp937
(dp938
g74
(dp939
sg83
g933
sg76
(lp940
g69
(g70
g71
NtRp941
(dp942
g74
(dp943
g82
I3
ssg83
g937
sg76
(lp944
S'startserver'
p945
asbasbasbasbasbasbasbag69
(g85
g71
NtRp946
(dp947
g74
(dp948
sg83
g860
sg76
(lp949
g69
(g90
g71
NtRp950
(dp951
g74
(dp952
g94
g95
ssg83
g946
sg76
(lp953
S'cmd_options'
p954
asbag69
(g90
g71
NtRp955
(dp956
g74
(dp957
g101
g102
ssg83
g946
sg76
(lp958
S':'
asbag69
(g90
g71
NtRp959
(dp960
g74
(dp961
sg83
g946
sg76
(lp962
g69
(g70
g71
NtRp963
(dp964
g74
(dp965
g82
I4
ssg83
g959
sg76
(lp966
S"<Values at 0x3927d88: {'verbose': False, 'ip': '127.0.0.1', 'shutdown_timeout': 5, 'taskbar': False, 'nocron': False, 'pid_filename': 'httpserver.pid', 'maxthreads': None, 'softcron': False, 'server_name': 'PHUCNH-PC', 'bpython': False, 'nogui': False, 'port': 8000, 'extcron': False, 'debuglevel': 30, 'test': None, 'folder': 'D:\\\\workspace\\\\CA\\\\IgoR\\\\C_Sources\\\\Server\\\\igor-assistant-ca-2012', 'config': '', 'import_models': False, 'winservice': '', 'shell': None, 'run': '', 'log_filename': 'httpserver.log', 'args': [''], 'socket_timeout': 5, 'ssl_ca_certificate': None, 'scheduler': None, 'profiler_filename': None, 'ssl_private_key': '', 'password': '<ask>', 'request_queue_size': 5, 'ssl_certificate': '', 'cronjob': False, 'numthreads': None, 'quiet': False, 'interfaces': None, 'minthreads': None, 'timeout': 10, 'plain': False, 'nobanner': False}>"
p967
asbasbasbag69
(g85
g71
NtRp968
(dp969
g74
(dp970
sg83
g860
sg76
(lp971
g69
(g90
g71
NtRp972
(dp973
g74
(dp974
g94
g95
ssg83
g968
sg76
(lp975
S'db_sessions'
p976
asbag69
(g90
g71
NtRp977
(dp978
g74
(dp979
g101
g102
ssg83
g968
sg76
(lp980
S':'
asbag69
(g90
g71
NtRp981
(dp982
g74
(dp983
sg83
g968
sg76
(lp984
g69
(g70
g71
NtRp985
(dp986
g74
(dp987
g82
I4
ssg83
g981
sg76
(lp988
S'set([])'
p989
asbasbasbag69
(g85
g71
NtRp990
(dp991
g74
(dp992
sg83
g860
sg76
(lp993
g69
(g90
g71
NtRp994
(dp995
g74
(dp996
g94
g95
ssg83
g990
sg76
(lp997
S'debugging'
p998
asbag69
(g90
g71
NtRp999
(dp1000
g74
(dp1001
g101
g102
ssg83
g990
sg76
(lp1002
S':'
asbag69
(g90
g71
NtRp1003
(dp1004
g74
(dp1005
sg83
g990
sg76
(lp1006
g69
(g70
g71
NtRp1007
(dp1008
g74
(dp1009
g82
I4
ssg83
g1003
sg76
(lp1010
g112
asbasbasbag69
(g85
g71
NtRp1011
(dp1012
g74
(dp1013
sg83
g860
sg76
(lp1014
g69
(g90
g71
NtRp1015
(dp1016
g74
(dp1017
g94
g95
ssg83
g1011
sg76
(lp1018
S'gluon_parent'
p1019
asbag69
(g90
g71
NtRp1020
(dp1021
g74
(dp1022
g101
g102
ssg83
g1011
sg76
(lp1023
S':'
asbag69
(g90
g71
NtRp1024
(dp1025
g74
(dp1026
sg83
g1011
sg76
(lp1027
g69
(g70
g71
NtRp1028
(dp1029
g74
(dp1030
g82
I4
ssg83
g1024
sg76
(lp1031
S'D:\\workspace\\CA\\IgoR\\C_Sources\\Server\\igor-assistant-ca-2012'
p1032
asbasbasbag69
(g85
g71
NtRp1033
(dp1034
g74
(dp1035
sg83
g860
sg76
(lp1036
g69
(g90
g71
NtRp1037
(dp1038
g74
(dp1039
g94
g95
ssg83
g1033
sg76
(lp1040
S'http_accept'
p1041
asbag69
(g90
g71
NtRp1042
(dp1043
g74
(dp1044
g101
g102
ssg83
g1033
sg76
(lp1045
S':'
asbag69
(g90
g71
NtRp1046
(dp1047
g74
(dp1048
sg83
g1033
sg76
(lp1049
g69
(g70
g71
NtRp1050
(dp1051
g74
(dp1052
g82
I4
ssg83
g1046
sg76
(lp1053
S'text/html,application/xhtml+xml,application/xml;q=0.9,*/*;q=0.8'
p1054
asbasbasbag69
(g85
g71
NtRp1055
(dp1056
g74
(dp1057
sg83
g860
sg76
(lp1058
g69
(g90
g71
NtRp1059
(dp1060
g74
(dp1061
g94
g95
ssg83
g1055
sg76
(lp1062
S'http_accept_charset'
p1063
asbag69
(g90
g71
NtRp1064
(dp1065
g74
(dp1066
g101
g102
ssg83
g1055
sg76
(lp1067
S':'
asbag69
(g90
g71
NtRp1068
(dp1069
g74
(dp1070
sg83
g1055
sg76
(lp1071
g69
(g70
g71
NtRp1072
(dp1073
g74
(dp1074
g82
I4
ssg83
g1068
sg76
(lp1075
S'UTF-8,*;q=0.5'
p1076
asbasbasbag69
(g85
g71
NtRp1077
(dp1078
g74
(dp1079
sg83
g860
sg76
(lp1080
g69
(g90
g71
NtRp1081
(dp1082
g74
(dp1083
g94
g95
ssg83
g1077
sg76
(lp1084
S'http_accept_encoding'
p1085
asbag69
(g90
g71
NtRp1086
(dp1087
g74
(dp1088
g101
g102
ssg83
g1077
sg76
(lp1089
S':'
asbag69
(g90
g71
NtRp1090
(dp1091
g74
(dp1092
sg83
g1077
sg76
(lp1093
g69
(g70
g71
NtRp1094
(dp1095
g74
(dp1096
g82
I4
ssg83
g1090
sg76
(lp1097
S'gzip,deflate,sdch'
p1098
asbasbasbag69
(g85
g71
NtRp1099
(dp1100
g74
(dp1101
sg83
g860
sg76
(lp1102
g69
(g90
g71
NtRp1103
(dp1104
g74
(dp1105
g94
g95
ssg83
g1099
sg76
(lp1106
S'http_accept_language'
p1107
asbag69
(g90
g71
NtRp1108
(dp1109
g74
(dp1110
g101
g102
ssg83
g1099
sg76
(lp1111
S':'
asbag69
(g90
g71
NtRp1112
(dp1113
g74
(dp1114
sg83
g1099
sg76
(lp1115
g69
(g70
g71
NtRp1116
(dp1117
g74
(dp1118
g82
I4
ssg83
g1112
sg76
(lp1119
S'en-US,en;q=0.8,vi;q=0.6,fr-FR;q=0.4,fr;q=0.2'
p1120
asbasbasbag69
(g85
g71
NtRp1121
(dp1122
g74
(dp1123
sg83
g860
sg76
(lp1124
g69
(g90
g71
NtRp1125
(dp1126
g74
(dp1127
g94
g95
ssg83
g1121
sg76
(lp1128
S'http_connection'
p1129
asbag69
(g90
g71
NtRp1130
(dp1131
g74
(dp1132
g101
g102
ssg83
g1121
sg76
(lp1133
S':'
asbag69
(g90
g71
NtRp1134
(dp1135
g74
(dp1136
sg83
g1121
sg76
(lp1137
g69
(g70
g71
NtRp1138
(dp1139
g74
(dp1140
g82
I4
ssg83
g1134
sg76
(lp1141
S'keep-alive'
p1142
asbasbasbag69
(g85
g71
NtRp1143
(dp1144
g74
(dp1145
sg83
g860
sg76
(lp1146
g69
(g90
g71
NtRp1147
(dp1148
g74
(dp1149
g94
g95
ssg83
g1143
sg76
(lp1150
S'http_cookie'
p1151
asbag69
(g90
g71
NtRp1152
(dp1153
g74
(dp1154
g101
g102
ssg83
g1143
sg76
(lp1155
S':'
asbag69
(g90
g71
NtRp1156
(dp1157
g74
(dp1158
sg83
g1143
sg76
(lp1159
g69
(g70
g71
NtRp1160
(dp1161
g74
(dp1162
g82
I4
ssg83
g1156
sg76
(lp1163
S'session_id_welcome=127.0.0.1-f4d1faa4-aebd-4cd8-9afb-2c920137d110; session_id_admin=127.0.0.1-cb802793-3bdf-4758-b538-b2d687711887; session_id_igor=127.0.0.1-a04fa524-60aa-4124-a73f-56d6938d7384'
p1164
asbasbasbag69
(g85
g71
NtRp1165
(dp1166
g74
(dp1167
sg83
g860
sg76
(lp1168
g69
(g90
g71
NtRp1169
(dp1170
g74
(dp1171
g94
g95
ssg83
g1165
sg76
(lp1172
S'http_host'
p1173
asbag69
(g90
g71
NtRp1174
(dp1175
g74
(dp1176
g101
g102
ssg83
g1165
sg76
(lp1177
S':'
asbag69
(g90
g71
NtRp1178
(dp1179
g74
(dp1180
sg83
g1165
sg76
(lp1181
g69
(g70
g71
NtRp1182
(dp1183
g74
(dp1184
g82
I4
ssg83
g1178
sg76
(lp1185
S'127.0.0.1:8000'
p1186
asbasbasbag69
(g85
g71
NtRp1187
(dp1188
g74
(dp1189
sg83
g860
sg76
(lp1190
g69
(g90
g71
NtRp1191
(dp1192
g74
(dp1193
g94
g95
ssg83
g1187
sg76
(lp1194
S'http_user_agent'
p1195
asbag69
(g90
g71
NtRp1196
(dp1197
g74
(dp1198
g101
g102
ssg83
g1187
sg76
(lp1199
S':'
asbag69
(g90
g71
NtRp1200
(dp1201
g74
(dp1202
sg83
g1187
sg76
(lp1203
g69
(g70
g71
NtRp1204
(dp1205
g74
(dp1206
g82
I4
ssg83
g1200
sg76
(lp1207
S'Mozilla/5.0 (Windows NT 6.1; WOW64) AppleWebKit/536.11 (KHTML, like Gecko) Chrome/20.0.1132.57 Safari/536.11'
p1208
asbasbasbag69
(g85
g71
NtRp1209
(dp1210
g74
(dp1211
sg83
g860
sg76
(lp1212
g69
(g90
g71
NtRp1213
(dp1214
g74
(dp1215
g94
g95
ssg83
g1209
sg76
(lp1216
S'is_jython'
p1217
asbag69
(g90
g71
NtRp1218
(dp1219
g74
(dp1220
g101
g102
ssg83
g1209
sg76
(lp1221
S':'
asbag69
(g90
g71
NtRp1222
(dp1223
g74
(dp1224
sg83
g1209
sg76
(lp1225
g69
(g70
g71
NtRp1226
(dp1227
g74
(dp1228
g82
I4
ssg83
g1222
sg76
(lp1229
g112
asbasbasbag69
(g85
g71
NtRp1230
(dp1231
g74
(dp1232
sg83
g860
sg76
(lp1233
g69
(g90
g71
NtRp1234
(dp1235
g74
(dp1236
g94
g95
ssg83
g1230
sg76
(lp1237
S'is_pypy'
p1238
asbag69
(g90
g71
NtRp1239
(dp1240
g74
(dp1241
g101
g102
ssg83
g1230
sg76
(lp1242
S':'
asbag69
(g90
g71
NtRp1243
(dp1244
g74
(dp1245
sg83
g1230
sg76
(lp1246
g69
(g70
g71
NtRp1247
(dp1248
g74
(dp1249
g82
I4
ssg83
g1243
sg76
(lp1250
g112
asbasbasbag69
(g85
g71
NtRp1251
(dp1252
g74
(dp1253
sg83
g860
sg76
(lp1254
g69
(g90
g71
NtRp1255
(dp1256
g74
(dp1257
g94
g95
ssg83
g1251
sg76
(lp1258
S'path_info'
p1259
asbag69
(g90
g71
NtRp1260
(dp1261
g74
(dp1262
g101
g102
ssg83
g1251
sg76
(lp1263
S':'
asbag69
(g90
g71
NtRp1264
(dp1265
g74
(dp1266
sg83
g1251
sg76
(lp1267
g69
(g70
g71
NtRp1268
(dp1269
g74
(dp1270
g82
I4
ssg83
g1264
sg76
(lp1271
S'/igor/user/call/json/search_user'
p1272
asbasbasbag69
(g85
g71
NtRp1273
(dp1274
g74
(dp1275
sg83
g860
sg76
(lp1276
g69
(g90
g71
NtRp1277
(dp1278
g74
(dp1279
g94
g95
ssg83
g1273
sg76
(lp1280
S'query_string'
p1281
asbag69
(g90
g71
NtRp1282
(dp1283
g74
(dp1284
g101
g102
ssg83
g1273
sg76
(lp1285
S':'
asbag69
(g90
g71
NtRp1286
(dp1287
g74
(dp1288
sg83
g1273
sg76
(lp1289
g69
(g70
g71
NtRp1290
(dp1291
g74
(dp1292
g82
I4
ssg83
g1286
sg76
(lp1293
S'type=5&value=phuc'
p1294
asbasbasbag69
(g85
g71
NtRp1295
(dp1296
g74
(dp1297
sg83
g860
sg76
(lp1298
g69
(g90
g71
NtRp1299
(dp1300
g74
(dp1301
g94
g95
ssg83
g1295
sg76
(lp1302
S'remote_addr'
p1303
asbag69
(g90
g71
NtRp1304
(dp1305
g74
(dp1306
g101
g102
ssg83
g1295
sg76
(lp1307
S':'
asbag69
(g90
g71
NtRp1308
(dp1309
g74
(dp1310
sg83
g1295
sg76
(lp1311
g69
(g70
g71
NtRp1312
(dp1313
g74
(dp1314
g82
I4
ssg83
g1308
sg76
(lp1315
g228
asbasbasbag69
(g85
g71
NtRp1316
(dp1317
g74
(dp1318
sg83
g860
sg76
(lp1319
g69
(g90
g71
NtRp1320
(dp1321
g74
(dp1322
g94
g95
ssg83
g1316
sg76
(lp1323
S'remote_port'
p1324
asbag69
(g90
g71
NtRp1325
(dp1326
g74
(dp1327
g101
g102
ssg83
g1316
sg76
(lp1328
S':'
asbag69
(g90
g71
NtRp1329
(dp1330
g74
(dp1331
sg83
g1316
sg76
(lp1332
g69
(g70
g71
NtRp1333
(dp1334
g74
(dp1335
g82
I4
ssg83
g1329
sg76
(lp1336
S'8090'
p1337
asbasbasbag69
(g85
g71
NtRp1338
(dp1339
g74
(dp1340
sg83
g860
sg76
(lp1341
g69
(g90
g71
NtRp1342
(dp1343
g74
(dp1344
g94
g95
ssg83
g1338
sg76
(lp1345
S'request_method'
p1346
asbag69
(g90
g71
NtRp1347
(dp1348
g74
(dp1349
g101
g102
ssg83
g1338
sg76
(lp1350
S':'
asbag69
(g90
g71
NtRp1351
(dp1352
g74
(dp1353
sg83
g1338
sg76
(lp1354
g69
(g70
g71
NtRp1355
(dp1356
g74
(dp1357
g82
I4
ssg83
g1351
sg76
(lp1358
S'GET'
p1359
asbasbasbag69
(g85
g71
NtRp1360
(dp1361
g74
(dp1362
sg83
g860
sg76
(lp1363
g69
(g90
g71
NtRp1364
(dp1365
g74
(dp1366
g94
g95
ssg83
g1360
sg76
(lp1367
S'script_name'
p1368
asbag69
(g90
g71
NtRp1369
(dp1370
g74
(dp1371
g101
g102
ssg83
g1360
sg76
(lp1372
S':'
asbag69
(g90
g71
NtRp1373
(dp1374
g74
(dp1375
sg83
g1360
sg76
(lp1376
g69
(g70
g71
NtRp1377
(dp1378
g74
(dp1379
g82
I4
ssg83
g1373
sg76
(lp1380
S''
asbasbasbag69
(g85
g71
NtRp1381
(dp1382
g74
(dp1383
sg83
g860
sg76
(lp1384
g69
(g90
g71
NtRp1385
(dp1386
g74
(dp1387
g94
g95
ssg83
g1381
sg76
(lp1388
S'server_name'
p1389
asbag69
(g90
g71
NtRp1390
(dp1391
g74
(dp1392
g101
g102
ssg83
g1381
sg76
(lp1393
S':'
asbag69
(g90
g71
NtRp1394
(dp1395
g74
(dp1396
sg83
g1381
sg76
(lp1397
g69
(g70
g71
NtRp1398
(dp1399
g74
(dp1400
g82
I4
ssg83
g1394
sg76
(lp1401
S'PHUCNH-PC'
p1402
asbasbasbag69
(g85
g71
NtRp1403
(dp1404
g74
(dp1405
sg83
g860
sg76
(lp1406
g69
(g90
g71
NtRp1407
(dp1408
g74
(dp1409
g94
g95
ssg83
g1403
sg76
(lp1410
S'server_port'
p1411
asbag69
(g90
g71
NtRp1412
(dp1413
g74
(dp1414
g101
g102
ssg83
g1403
sg76
(lp1415
S':'
asbag69
(g90
g71
NtRp1416
(dp1417
g74
(dp1418
sg83
g1403
sg76
(lp1419
g69
(g70
g71
NtRp1420
(dp1421
g74
(dp1422
g82
I4
ssg83
g1416
sg76
(lp1423
S'8000'
p1424
asbasbasbag69
(g85
g71
NtRp1425
(dp1426
g74
(dp1427
sg83
g860
sg76
(lp1428
g69
(g90
g71
NtRp1429
(dp1430
g74
(dp1431
g94
g95
ssg83
g1425
sg76
(lp1432
S'server_protocol'
p1433
asbag69
(g90
g71
NtRp1434
(dp1435
g74
(dp1436
g101
g102
ssg83
g1425
sg76
(lp1437
S':'
asbag69
(g90
g71
NtRp1438
(dp1439
g74
(dp1440
sg83
g1425
sg76
(lp1441
g69
(g70
g71
NtRp1442
(dp1443
g74
(dp1444
g82
I4
ssg83
g1438
sg76
(lp1445
S'HTTP/1.1'
p1446
asbasbasbag69
(g85
g71
NtRp1447
(dp1448
g74
(dp1449
sg83
g860
sg76
(lp1450
g69
(g90
g71
NtRp1451
(dp1452
g74
(dp1453
g94
g95
ssg83
g1447
sg76
(lp1454
S'server_software'
p1455
asbag69
(g90
g71
NtRp1456
(dp1457
g74
(dp1458
g101
g102
ssg83
g1447
sg76
(lp1459
S':'
asbag69
(g90
g71
NtRp1460
(dp1461
g74
(dp1462
sg83
g1447
sg76
(lp1463
g69
(g70
g71
NtRp1464
(dp1465
g74
(dp1466
g82
I4
ssg83
g1460
sg76
(lp1467
S'Rocket 1.2.4'
p1468
asbasbasbag69
(g85
g71
NtRp1469
(dp1470
g74
(dp1471
sg83
g860
sg76
(lp1472
g69
(g90
g71
NtRp1473
(dp1474
g74
(dp1475
g94
g95
ssg83
g1469
sg76
(lp1476
S'web2py_crontype'
p1477
asbag69
(g90
g71
NtRp1478
(dp1479
g74
(dp1480
g101
g102
ssg83
g1469
sg76
(lp1481
S':'
asbag69
(g90
g71
NtRp1482
(dp1483
g74
(dp1484
sg83
g1469
sg76
(lp1485
g69
(g70
g71
NtRp1486
(dp1487
g74
(dp1488
g82
I4
ssg83
g1482
sg76
(lp1489
S'hard'
p1490
asbasbasbag69
(g85
g71
NtRp1491
(dp1492
g74
(dp1493
sg83
g860
sg76
(lp1494
g69
(g90
g71
NtRp1495
(dp1496
g74
(dp1497
g94
g95
ssg83
g1491
sg76
(lp1498
S'web2py_path'
p1499
asbag69
(g90
g71
NtRp1500
(dp1501
g74
(dp1502
g101
g102
ssg83
g1491
sg76
(lp1503
S':'
asbag69
(g90
g71
NtRp1504
(dp1505
g74
(dp1506
sg83
g1491
sg76
(lp1507
g69
(g70
g71
NtRp1508
(dp1509
g74
(dp1510
g82
I4
ssg83
g1504
sg76
(lp1511
g907
asbasbasbag69
(g85
g71
NtRp1512
(dp1513
g74
(dp1514
sg83
g860
sg76
(lp1515
g69
(g90
g71
NtRp1516
(dp1517
g74
(dp1518
g94
g95
ssg83
g1512
sg76
(lp1519
S'web2py_version'
p1520
asbag69
(g90
g71
NtRp1521
(dp1522
g74
(dp1523
g101
g102
ssg83
g1512
sg76
(lp1524
S':'
asbag69
(g90
g71
NtRp1525
(dp1526
g74
(dp1527
sg83
g1512
sg76
(lp1528
g69
(g70
g71
NtRp1529
(dp1530
g74
(dp1531
g82
I4
ssg83
g1525
sg76
(lp1532
g69
(g78
g71
NtRp1533
(dp1534
g74
(dp1535
g82
I3
ssg83
Nsg76
(lp1536
g69
(g85
g71
NtRp1537
(dp1538
g74
(dp1539
sg83
g1533
sg76
(lp1540
g69
(g90
g71
NtRp1541
(dp1542
g74
(dp1543
sg83
g1537
sg76
(lp1544
g69
(g70
g71
NtRp1545
(dp1546
g74
(dp1547
g82
I3
ssg83
g1541
sg76
(lp1548
S'1'
asbasbasbag69
(g85
g71
NtRp1549
(dp1550
g74
(dp1551
sg83
g1533
sg76
(lp1552
g69
(g90
g71
NtRp1553
(dp1554
g74
(dp1555
sg83
g1549
sg76
(lp1556
g69
(g70
g71
NtRp1557
(dp1558
g74
(dp1559
g82
I3
ssg83
g1553
sg76
(lp1560
S'99'
p1561
asbasbasbag69
(g85
g71
NtRp1562
(dp1563
g74
(dp1564
sg83
g1533
sg76
(lp1565
g69
(g90
g71
NtRp1566
(dp1567
g74
(dp1568
sg83
g1562
sg76
(lp1569
g69
(g70
g71
NtRp1570
(dp1571
g74
(dp1572
g82
I3
ssg83
g1566
sg76
(lp1573
S'7'
asbasbasbag69
(g85
g71
NtRp1574
(dp1575
g74
(dp1576
sg83
g1533
sg76
(lp1577
g69
(g90
g71
NtRp1578
(dp1579
g74
(dp1580
sg83
g1574
sg76
(lp1581
g69
(g70
g71
NtRp1582
(dp1583
g74
(dp1584
g82
I3
ssg83
g1578
sg76
(lp1585
S'datetime.datetime(2012, 3, 4, 22, 12, 8)'
p1586
asbasbasbag69
(g85
g71
NtRp1587
(dp1588
g74
(dp1589
sg83
g1533
sg76
(lp1590
g69
(g90
g71
NtRp1591
(dp1592
g74
(dp1593
sg83
g1587
sg76
(lp1594
g69
(g70
g71
NtRp1595
(dp1596
g74
(dp1597
g82
I3
ssg83
g1591
sg76
(lp1598
S'stable'
p1599
asbasbasbasbasbasbasbag69
(g85
g71
NtRp1600
(dp1601
g74
(dp1602
sg83
g860
sg76
(lp1603
g69
(g90
g71
NtRp1604
(dp1605
g74
(dp1606
g94
g95
ssg83
g1600
sg76
(lp1607
S'wsgi_errors'
p1608
asbag69
(g90
g71
NtRp1609
(dp1610
g74
(dp1611
g101
g102
ssg83
g1600
sg76
(lp1612
S':'
asbag69
(g90
g71
NtRp1613
(dp1614
g74
(dp1615
sg83
g1600
sg76
(lp1616
g69
(g70
g71
NtRp1617
(dp1618
g74
(dp1619
g82
I4
ssg83
g1613
sg76
(lp1620
S"<open file '<stderr>', mode 'w' at 0x0000000001D0E1E0>"
p1621
asbasbasbag69
(g85
g71
NtRp1622
(dp1623
g74
(dp1624
sg83
g860
sg76
(lp1625
g69
(g90
g71
NtRp1626
(dp1627
g74
(dp1628
g94
g95
ssg83
g1622
sg76
(lp1629
S'wsgi_file_wrapper'
p1630
asbag69
(g90
g71
NtRp1631
(dp1632
g74
(dp1633
g101
g102
ssg83
g1622
sg76
(lp1634
S':'
asbag69
(g90
g71
NtRp1635
(dp1636
g74
(dp1637
sg83
g1622
sg76
(lp1638
g69
(g70
g71
NtRp1639
(dp1640
g74
(dp1641
g82
I4
ssg83
g1635
sg76
(lp1642
S'<class wsgiref.util.FileWrapper at 0x00000000037FCAC8>'
p1643
asbasbasbag69
(g85
g71
NtRp1644
(dp1645
g74
(dp1646
sg83
g860
sg76
(lp1647
g69
(g90
g71
NtRp1648
(dp1649
g74
(dp1650
g94
g95
ssg83
g1644
sg76
(lp1651
S'wsgi_input'
p1652
asbag69
(g90
g71
NtRp1653
(dp1654
g74
(dp1655
g101
g102
ssg83
g1644
sg76
(lp1656
S':'
asbag69
(g90
g71
NtRp1657
(dp1658
g74
(dp1659
sg83
g1644
sg76
(lp1660
g69
(g70
g71
NtRp1661
(dp1662
g74
(dp1663
g82
I4
ssg83
g1657
sg76
(lp1664
S'<socket._fileobject object at 0x000000000533B6D8>'
p1665
asbasbasbag69
(g85
g71
NtRp1666
(dp1667
g74
(dp1668
sg83
g860
sg76
(lp1669
g69
(g90
g71
NtRp1670
(dp1671
g74
(dp1672
g94
g95
ssg83
g1666
sg76
(lp1673
S'wsgi_multiprocess'
p1674
asbag69
(g90
g71
NtRp1675
(dp1676
g74
(dp1677
g101
g102
ssg83
g1666
sg76
(lp1678
S':'
asbag69
(g90
g71
NtRp1679
(dp1680
g74
(dp1681
sg83
g1666
sg76
(lp1682
g69
(g70
g71
NtRp1683
(dp1684
g74
(dp1685
g82
I4
ssg83
g1679
sg76
(lp1686
g112
asbasbasbag69
(g85
g71
NtRp1687
(dp1688
g74
(dp1689
sg83
g860
sg76
(lp1690
g69
(g90
g71
NtRp1691
(dp1692
g74
(dp1693
g94
g95
ssg83
g1687
sg76
(lp1694
S'wsgi_multithread'
p1695
asbag69
(g90
g71
NtRp1696
(dp1697
g74
(dp1698
g101
g102
ssg83
g1687
sg76
(lp1699
S':'
asbag69
(g90
g71
NtRp1700
(dp1701
g74
(dp1702
sg83
g1687
sg76
(lp1703
g69
(g70
g71
NtRp1704
(dp1705
g74
(dp1706
g82
I4
ssg83
g1700
sg76
(lp1707
S'True'
p1708
asbasbasbag69
(g85
g71
NtRp1709
(dp1710
g74
(dp1711
sg83
g860
sg76
(lp1712
g69
(g90
g71
NtRp1713
(dp1714
g74
(dp1715
g94
g95
ssg83
g1709
sg76
(lp1716
S'wsgi_run_once'
p1717
asbag69
(g90
g71
NtRp1718
(dp1719
g74
(dp1720
g101
g102
ssg83
g1709
sg76
(lp1721
S':'
asbag69
(g90
g71
NtRp1722
(dp1723
g74
(dp1724
sg83
g1709
sg76
(lp1725
g69
(g70
g71
NtRp1726
(dp1727
g74
(dp1728
g82
I4
ssg83
g1722
sg76
(lp1729
g112
asbasbasbag69
(g85
g71
NtRp1730
(dp1731
g74
(dp1732
sg83
g860
sg76
(lp1733
g69
(g90
g71
NtRp1734
(dp1735
g74
(dp1736
g94
g95
ssg83
g1730
sg76
(lp1737
S'wsgi_url_scheme'
p1738
asbag69
(g90
g71
NtRp1739
(dp1740
g74
(dp1741
g101
g102
ssg83
g1730
sg76
(lp1742
S':'
asbag69
(g90
g71
NtRp1743
(dp1744
g74
(dp1745
sg83
g1730
sg76
(lp1746
g69
(g70
g71
NtRp1747
(dp1748
g74
(dp1749
g82
I4
ssg83
g1743
sg76
(lp1750
S'http'
p1751
asbasbasbag69
(g85
g71
NtRp1752
(dp1753
g74
(dp1754
sg83
g860
sg76
(lp1755
g69
(g90
g71
NtRp1756
(dp1757
g74
(dp1758
g94
g95
ssg83
g1752
sg76
(lp1759
S'wsgi_version'
p1760
asbag69
(g90
g71
NtRp1761
(dp1762
g74
(dp1763
g101
g102
ssg83
g1752
sg76
(lp1764
S':'
asbag69
(g90
g71
NtRp1765
(dp1766
g74
(dp1767
sg83
g1752
sg76
(lp1768
g69
(g70
g71
NtRp1769
(dp1770
g74
(dp1771
g82
I4
ssg83
g1765
sg76
(lp1772
g69
(g78
g71
NtRp1773
(dp1774
g74
(dp1775
g82
I3
ssg83
Nsg76
(lp1776
g69
(g85
g71
NtRp1777
(dp1778
g74
(dp1779
sg83
g1773
sg76
(lp1780
g69
(g90
g71
NtRp1781
(dp1782
g74
(dp1783
sg83
g1777
sg76
(lp1784
g69
(g70
g71
NtRp1785
(dp1786
g74
(dp1787
g82
I3
ssg83
g1781
sg76
(lp1788
S'1'
asbasbasbag69
(g85
g71
NtRp1789
(dp1790
g74
(dp1791
sg83
g1773
sg76
(lp1792
g69
(g90
g71
NtRp1793
(dp1794
g74
(dp1795
sg83
g1789
sg76
(lp1796
g69
(g70
g71
NtRp1797
(dp1798
g74
(dp1799
g82
I3
ssg83
g1793
sg76
(lp1800
S'0'
asbasbasbasbasbasbasbasbasbasbasbag69
(g85
g71
NtRp1801
(dp1802
g74
(dp1803
sg83
g79
sg76
(lp1804
g69
(g90
g71
NtRp1805
(dp1806
g74
(dp1807
g94
g95
ssg83
g1801
sg76
(lp1808
S'extension'
p1809
asbag69
(g90
g71
NtRp1810
(dp1811
g74
(dp1812
g101
g102
ssg83
g1801
sg76
(lp1813
S':'
asbag69
(g90
g71
NtRp1814
(dp1815
g74
(dp1816
sg83
g1801
sg76
(lp1817
g69
(g70
g71
NtRp1818
(dp1819
g74
(dp1820
g82
I5
ssg83
g1814
sg76
(lp1821
S'html'
p1822
asbasbasbag69
(g85
g71
NtRp1823
(dp1824
g74
(dp1825
sg83
g79
sg76
(lp1826
g69
(g90
g71
NtRp1827
(dp1828
g74
(dp1829
g94
g95
ssg83
g1823
sg76
(lp1830
S'folder'
p1831
asbag69
(g90
g71
NtRp1832
(dp1833
g74
(dp1834
g101
g102
ssg83
g1823
sg76
(lp1835
S':'
asbag69
(g90
g71
NtRp1836
(dp1837
g74
(dp1838
sg83
g1823
sg76
(lp1839
g69
(g70
g71
NtRp1840
(dp1841
g74
(dp1842
g82
I5
ssg83
g1836
sg76
(lp1843
S'D:\\workspace\\CA\\IgoR\\C_Sources\\Server\\igor-assistant-ca-2012\\applications\\igor\\'
p1844
asbasbasbag69
(g85
g71
NtRp1845
(dp1846
g74
(dp1847
sg83
g79
sg76
(lp1848
g69
(g90
g71
NtRp1849
(dp1850
g74
(dp1851
g94
g95
ssg83
g1845
sg76
(lp1852
S'function'
p1853
asbag69
(g90
g71
NtRp1854
(dp1855
g74
(dp1856
g101
g102
ssg83
g1845
sg76
(lp1857
S':'
asbag69
(g90
g71
NtRp1858
(dp1859
g74
(dp1860
sg83
g1845
sg76
(lp1861
g69
(g70
g71
NtRp1862
(dp1863
g74
(dp1864
g82
I5
ssg83
g1858
sg76
(lp1865
S'call'
p1866
asbasbasbag69
(g85
g71
NtRp1867
(dp1868
g74
(dp1869
sg83
g79
sg76
(lp1870
g69
(g90
g71
NtRp1871
(dp1872
g74
(dp1873
g94
g95
ssg83
g1867
sg76
(lp1874
S'get_vars'
p1875
asbag69
(g90
g71
NtRp1876
(dp1877
g74
(dp1878
g101
g102
ssg83
g1867
sg76
(lp1879
S':'
asbag69
(g90
g71
NtRp1880
(dp1881
g74
(dp1882
sg83
g1867
sg76
(lp1883
g69
(g70
g71
NtRp1884
(dp1885
g74
(dp1886
g82
I5
ssg83
g1880
sg76
(lp1887
g69
(g78
g71
NtRp1888
(dp1889
g74
(dp1890
g82
I4
ssg83
Nsg76
(lp1891
g69
(g85
g71
NtRp1892
(dp1893
g74
(dp1894
sg83
g1888
sg76
(lp1895
g69
(g90
g71
NtRp1896
(dp1897
g74
(dp1898
g94
g95
ssg83
g1892
sg76
(lp1899
S'type'
p1900
asbag69
(g90
g71
NtRp1901
(dp1902
g74
(dp1903
g101
g102
ssg83
g1892
sg76
(lp1904
S':'
asbag69
(g90
g71
NtRp1905
(dp1906
g74
(dp1907
sg83
g1892
sg76
(lp1908
g69
(g70
g71
NtRp1909
(dp1910
g74
(dp1911
g82
I4
ssg83
g1905
sg76
(lp1912
S'5'
asbasbasbag69
(g85
g71
NtRp1913
(dp1914
g74
(dp1915
sg83
g1888
sg76
(lp1916
g69
(g90
g71
NtRp1917
(dp1918
g74
(dp1919
g94
g95
ssg83
g1913
sg76
(lp1920
S'value'
p1921
asbag69
(g90
g71
NtRp1922
(dp1923
g74
(dp1924
g101
g102
ssg83
g1913
sg76
(lp1925
S':'
asbag69
(g90
g71
NtRp1926
(dp1927
g74
(dp1928
sg83
g1913
sg76
(lp1929
g69
(g70
g71
NtRp1930
(dp1931
g74
(dp1932
g82
I4
ssg83
g1926
sg76
(lp1933
S'phuc'
p1934
asbasbasbasbasbasbasbag69
(g85
g71
NtRp1935
(dp1936
g74
(dp1937
sg83
g79
sg76
(lp1938
g69
(g90
g71
NtRp1939
(dp1940
g74
(dp1941
g94
g95
ssg83
g1935
sg76
(lp1942
S'global_settings'
p1943
asbag69
(g90
g71
NtRp1944
(dp1945
g74
(dp1946
g101
g102
ssg83
g1935
sg76
(lp1947
S':'
asbag69
(g90
g71
NtRp1948
(dp1949
g74
(dp1950
sg83
g1935
sg76
(lp1951
g69
(g70
g71
NtRp1952
(dp1953
g74
(dp1954
g82
I5
ssg83
g1948
sg76
(lp1955
g69
(g78
g71
NtRp1956
(dp1957
g74
(dp1958
g82
I4
ssg83
Nsg76
(lp1959
g69
(g85
g71
NtRp1960
(dp1961
g74
(dp1962
sg83
g1956
sg76
(lp1963
g69
(g90
g71
NtRp1964
(dp1965
g74
(dp1966
g94
g95
ssg83
g1960
sg76
(lp1967
g872
asbag69
(g90
g71
NtRp1968
(dp1969
g74
(dp1970
g101
g102
ssg83
g1960
sg76
(lp1971
S':'
asbag69
(g90
g71
NtRp1972
(dp1973
g74
(dp1974
sg83
g1960
sg76
(lp1975
g69
(g70
g71
NtRp1976
(dp1977
g74
(dp1978
g82
I4
ssg83
g1972
sg76
(lp1979
S"set(['D:\\\\workspace\\\\CA\\\\IgoR\\\\C_Sources\\\\Server\\\\igor-assistant-ca-2012\\\\applications\\\\admin\\\\', 'D:\\\\workspace\\\\CA\\\\IgoR\\\\C_Sources\\\\Server\\\\igor-assistant-ca-2012\\\\applications\\\\igor\\\\', 'D:\\\\workspace\\\\CA\\\\IgoR\\\\C_Sources\\\\Server\\\\igor-assistant-ca-2012\\\\applications\\\\welcome\\\\'])"
p1980
asbasbasbag69
(g85
g71
NtRp1981
(dp1982
g74
(dp1983
sg83
g1956
sg76
(lp1984
g69
(g90
g71
NtRp1985
(dp1986
g74
(dp1987
g94
g95
ssg83
g1981
sg76
(lp1988
g894
asbag69
(g90
g71
NtRp1989
(dp1990
g74
(dp1991
g101
g102
ssg83
g1981
sg76
(lp1992
S':'
asbag69
(g90
g71
NtRp1993
(dp1994
g74
(dp1995
sg83
g1981
sg76
(lp1996
g69
(g70
g71
NtRp1997
(dp1998
g74
(dp1999
g82
I4
ssg83
g1993
sg76
(lp2000
g907
asbasbasbag69
(g85
g71
NtRp2001
(dp2002
g74
(dp2003
sg83
g1956
sg76
(lp2004
g69
(g90
g71
NtRp2005
(dp2006
g74
(dp2007
g94
g95
ssg83
g2001
sg76
(lp2008
g916
asbag69
(g90
g71
NtRp2009
(dp2010
g74
(dp2011
g101
g102
ssg83
g2001
sg76
(lp2012
S':'
asbag69
(g90
g71
NtRp2013
(dp2014
g74
(dp2015
sg83
g2001
sg76
(lp2016
g69
(g70
g71
NtRp2017
(dp2018
g74
(dp2019
g82
I4
ssg83
g2013
sg76
(lp2020
g69
(g78
g71
NtRp2021
(dp2022
g74
(dp2023
g82
I3
ssg83
Nsg76
(lp2024
g69
(g85
g71
NtRp2025
(dp2026
g74
(dp2027
sg83
g2021
sg76
(lp2028
g69
(g90
g71
NtRp2029
(dp2030
g74
(dp2031
sg83
g2025
sg76
(lp2032
g69
(g70
g71
NtRp2033
(dp2034
g74
(dp2035
g82
I3
ssg83
g2029
sg76
(lp2036
g945
asbasbasbasbasbasbasbag69
(g85
g71
NtRp2037
(dp2038
g74
(dp2039
sg83
g1956
sg76
(lp2040
g69
(g90
g71
NtRp2041
(dp2042
g74
(dp2043
g94
g95
ssg83
g2037
sg76
(lp2044
g954
asbag69
(g90
g71
NtRp2045
(dp2046
g74
(dp2047
g101
g102
ssg83
g2037
sg76
(lp2048
S':'
asbag69
(g90
g71
NtRp2049
(dp2050
g74
(dp2051
sg83
g2037
sg76
(lp2052
g69
(g70
g71
NtRp2053
(dp2054
g74
(dp2055
g82
I4
ssg83
g2049
sg76
(lp2056
S"<Values at 0x3927d88: {'verbose': False, 'ip': '127.0.0.1', 'shutdown_timeout': 5, 'taskbar': False, 'nocron': False, 'pid_filename': 'httpserver.pid', 'maxthreads': None, 'softcron': False, 'server_name': 'PHUCNH-PC', 'bpython': False, 'nogui': False, 'port': 8000, 'extcron': False, 'debuglevel': 30, 'test': None, 'folder': 'D:\\\\workspace\\\\CA\\\\IgoR\\\\C_Sources\\\\Server\\\\igor-assistant-ca-2012', 'config': '', 'import_models': False, 'winservice': '', 'shell': None, 'run': '', 'log_filename': 'httpserver.log', 'args': [''], 'socket_timeout': 5, 'ssl_ca_certificate': None, 'scheduler': None, 'profiler_filename': None, 'ssl_private_key': '', 'password': '<ask>', 'request_queue_size': 5, 'ssl_certificate': '', 'cronjob': False, 'numthreads': None, 'quiet': False, 'interfaces': None, 'minthreads': None, 'timeout': 10, 'plain': False, 'nobanner': False}>"
p2057
asbasbasbag69
(g85
g71
NtRp2058
(dp2059
g74
(dp2060
sg83
g1956
sg76
(lp2061
g69
(g90
g71
NtRp2062
(dp2063
g74
(dp2064
g94
g95
ssg83
g2058
sg76
(lp2065
g976
asbag69
(g90
g71
NtRp2066
(dp2067
g74
(dp2068
g101
g102
ssg83
g2058
sg76
(lp2069
S':'
asbag69
(g90
g71
NtRp2070
(dp2071
g74
(dp2072
sg83
g2058
sg76
(lp2073
g69
(g70
g71
NtRp2074
(dp2075
g74
(dp2076
g82
I4
ssg83
g2070
sg76
(lp2077
S'set([])'
p2078
asbasbasbag69
(g85
g71
NtRp2079
(dp2080
g74
(dp2081
sg83
g1956
sg76
(lp2082
g69
(g90
g71
NtRp2083
(dp2084
g74
(dp2085
g94
g95
ssg83
g2079
sg76
(lp2086
g998
asbag69
(g90
g71
NtRp2087
(dp2088
g74
(dp2089
g101
g102
ssg83
g2079
sg76
(lp2090
S':'
asbag69
(g90
g71
NtRp2091
(dp2092
g74
(dp2093
sg83
g2079
sg76
(lp2094
g69
(g70
g71
NtRp2095
(dp2096
g74
(dp2097
g82
I4
ssg83
g2091
sg76
(lp2098
g112
asbasbasbag69
(g85
g71
NtRp2099
(dp2100
g74
(dp2101
sg83
g1956
sg76
(lp2102
g69
(g90
g71
NtRp2103
(dp2104
g74
(dp2105
g94
g95
ssg83
g2099
sg76
(lp2106
g1019
asbag69
(g90
g71
NtRp2107
(dp2108
g74
(dp2109
g101
g102
ssg83
g2099
sg76
(lp2110
S':'
asbag69
(g90
g71
NtRp2111
(dp2112
g74
(dp2113
sg83
g2099
sg76
(lp2114
g69
(g70
g71
NtRp2115
(dp2116
g74
(dp2117
g82
I4
ssg83
g2111
sg76
(lp2118
g1032
asbasbasbag69
(g85
g71
NtRp2119
(dp2120
g74
(dp2121
sg83
g1956
sg76
(lp2122
g69
(g90
g71
NtRp2123
(dp2124
g74
(dp2125
g94
g95
ssg83
g2119
sg76
(lp2126
g1217
asbag69
(g90
g71
NtRp2127
(dp2128
g74
(dp2129
g101
g102
ssg83
g2119
sg76
(lp2130
S':'
asbag69
(g90
g71
NtRp2131
(dp2132
g74
(dp2133
sg83
g2119
sg76
(lp2134
g69
(g70
g71
NtRp2135
(dp2136
g74
(dp2137
g82
I4
ssg83
g2131
sg76
(lp2138
g112
asbasbasbag69
(g85
g71
NtRp2139
(dp2140
g74
(dp2141
sg83
g1956
sg76
(lp2142
g69
(g90
g71
NtRp2143
(dp2144
g74
(dp2145
g94
g95
ssg83
g2139
sg76
(lp2146
g1238
asbag69
(g90
g71
NtRp2147
(dp2148
g74
(dp2149
g101
g102
ssg83
g2139
sg76
(lp2150
S':'
asbag69
(g90
g71
NtRp2151
(dp2152
g74
(dp2153
sg83
g2139
sg76
(lp2154
g69
(g70
g71
NtRp2155
(dp2156
g74
(dp2157
g82
I4
ssg83
g2151
sg76
(lp2158
g112
asbasbasbag69
(g85
g71
NtRp2159
(dp2160
g74
(dp2161
sg83
g1956
sg76
(lp2162
g69
(g90
g71
NtRp2163
(dp2164
g74
(dp2165
g94
g95
ssg83
g2159
sg76
(lp2166
g1477
asbag69
(g90
g71
NtRp2167
(dp2168
g74
(dp2169
g101
g102
ssg83
g2159
sg76
(lp2170
S':'
asbag69
(g90
g71
NtRp2171
(dp2172
g74
(dp2173
sg83
g2159
sg76
(lp2174
g69
(g70
g71
NtRp2175
(dp2176
g74
(dp2177
g82
I4
ssg83
g2171
sg76
(lp2178
g1490
asbasbasbag69
(g85
g71
NtRp2179
(dp2180
g74
(dp2181
sg83
g1956
sg76
(lp2182
g69
(g90
g71
NtRp2183
(dp2184
g74
(dp2185
g94
g95
ssg83
g2179
sg76
(lp2186
g1520
asbag69
(g90
g71
NtRp2187
(dp2188
g74
(dp2189
g101
g102
ssg83
g2179
sg76
(lp2190
S':'
asbag69
(g90
g71
NtRp2191
(dp2192
g74
(dp2193
sg83
g2179
sg76
(lp2194
g69
(g70
g71
NtRp2195
(dp2196
g74
(dp2197
g82
I4
ssg83
g2191
sg76
(lp2198
g69
(g78
g71
NtRp2199
(dp2200
g74
(dp2201
g82
I3
ssg83
Nsg76
(lp2202
g69
(g85
g71
NtRp2203
(dp2204
g74
(dp2205
sg83
g2199
sg76
(lp2206
g69
(g90
g71
NtRp2207
(dp2208
g74
(dp2209
sg83
g2203
sg76
(lp2210
g69
(g70
g71
NtRp2211
(dp2212
g74
(dp2213
g82
I3
ssg83
g2207
sg76
(lp2214
S'1'
asbasbasbag69
(g85
g71
NtRp2215
(dp2216
g74
(dp2217
sg83
g2199
sg76
(lp2218
g69
(g90
g71
NtRp2219
(dp2220
g74
(dp2221
sg83
g2215
sg76
(lp2222
g69
(g70
g71
NtRp2223
(dp2224
g74
(dp2225
g82
I3
ssg83
g2219
sg76
(lp2226
S'99'
p2227
asbasbasbag69
(g85
g71
NtRp2228
(dp2229
g74
(dp2230
sg83
g2199
sg76
(lp2231
g69
(g90
g71
NtRp2232
(dp2233
g74
(dp2234
sg83
g2228
sg76
(lp2235
g69
(g70
g71
NtRp2236
(dp2237
g74
(dp2238
g82
I3
ssg83
g2232
sg76
(lp2239
S'7'
asbasbasbag69
(g85
g71
NtRp2240
(dp2241
g74
(dp2242
sg83
g2199
sg76
(lp2243
g69
(g90
g71
NtRp2244
(dp2245
g74
(dp2246
sg83
g2240
sg76
(lp2247
g69
(g70
g71
NtRp2248
(dp2249
g74
(dp2250
g82
I3
ssg83
g2244
sg76
(lp2251
S'datetime.datetime(2012, 3, 4, 22, 12, 8)'
p2252
asbasbasbag69
(g85
g71
NtRp2253
(dp2254
g74
(dp2255
sg83
g2199
sg76
(lp2256
g69
(g90
g71
NtRp2257
(dp2258
g74
(dp2259
sg83
g2253
sg76
(lp2260
g69
(g70
g71
NtRp2261
(dp2262
g74
(dp2263
g82
I3
ssg83
g2257
sg76
(lp2264
g1599
asbasbasbasbasbasbasbasbasbasbasbag69
(g85
g71
NtRp2265
(dp2266
g74
(dp2267
sg83
g79
sg76
(lp2268
g69
(g90
g71
NtRp2269
(dp2270
g74
(dp2271
g94
g95
ssg83
g2265
sg76
(lp2272
S'is_https'
p2273
asbag69
(g90
g71
NtRp2274
(dp2275
g74
(dp2276
g101
g102
ssg83
g2265
sg76
(lp2277
S':'
asbag69
(g90
g71
NtRp2278
(dp2279
g74
(dp2280
sg83
g2265
sg76
(lp2281
g69
(g70
g71
NtRp2282
(dp2283
g74
(dp2284
g82
I5
ssg83
g2278
sg76
(lp2285
g112
asbasbasbag69
(g85
g71
NtRp2286
(dp2287
g74
(dp2288
sg83
g79
sg76
(lp2289
g69
(g90
g71
NtRp2290
(dp2291
g74
(dp2292
g94
g95
ssg83
g2286
sg76
(lp2293
S'is_local'
p2294
asbag69
(g90
g71
NtRp2295
(dp2296
g74
(dp2297
g101
g102
ssg83
g2286
sg76
(lp2298
S':'
asbag69
(g90
g71
NtRp2299
(dp2300
g74
(dp2301
sg83
g2286
sg76
(lp2302
g69
(g70
g71
NtRp2303
(dp2304
g74
(dp2305
g82
I5
ssg83
g2299
sg76
(lp2306
g1708
asbasbasbag69
(g85
g71
NtRp2307
(dp2308
g74
(dp2309
sg83
g79
sg76
(lp2310
g69
(g90
g71
NtRp2311
(dp2312
g74
(dp2313
g94
g95
ssg83
g2307
sg76
(lp2314
S'is_restful'
p2315
asbag69
(g90
g71
NtRp2316
(dp2317
g74
(dp2318
g101
g102
ssg83
g2307
sg76
(lp2319
S':'
asbag69
(g90
g71
NtRp2320
(dp2321
g74
(dp2322
sg83
g2307
sg76
(lp2323
g69
(g70
g71
NtRp2324
(dp2325
g74
(dp2326
g82
I5
ssg83
g2320
sg76
(lp2327
g112
asbasbasbag69
(g85
g71
NtRp2328
(dp2329
g74
(dp2330
sg83
g79
sg76
(lp2331
g69
(g90
g71
NtRp2332
(dp2333
g74
(dp2334
g94
g95
ssg83
g2328
sg76
(lp2335
S'now'
p2336
asbag69
(g90
g71
NtRp2337
(dp2338
g74
(dp2339
g101
g102
ssg83
g2328
sg76
(lp2340
S':'
asbag69
(g90
g71
NtRp2341
(dp2342
g74
(dp2343
sg83
g2328
sg76
(lp2344
g69
(g70
g71
NtRp2345
(dp2346
g74
(dp2347
g82
I5
ssg83
g2341
sg76
(lp2348
S'datetime.datetime(2012, 7, 31, 13, 38, 47, 46000)'
p2349
asbasbasbag69
(g85
g71
NtRp2350
(dp2351
g74
(dp2352
sg83
g79
sg76
(lp2353
g69
(g90
g71
NtRp2354
(dp2355
g74
(dp2356
g94
g95
ssg83
g2350
sg76
(lp2357
S'post_vars'
p2358
asbag69
(g90
g71
NtRp2359
(dp2360
g74
(dp2361
g101
g102
ssg83
g2350
sg76
(lp2362
S':'
asbag69
(g90
g71
NtRp2363
(dp2364
g74
(dp2365
sg83
g2350
sg76
(lp2366
g69
(g70
g71
NtRp2367
(dp2368
g74
(dp2369
g82
I5
ssg83
g2363
sg76
(lp2370
g69
(g78
g71
NtRp2371
(dp2372
g74
(dp2373
g82
I4
ssg83
Nsg76
(lp2374
sbasbasbasbag69
(g85
g71
NtRp2375
(dp2376
g74
(dp2377
sg83
g79
sg76
(lp2378
g69
(g90
g71
NtRp2379
(dp2380
g74
(dp2381
g94
g95
ssg83
g2375
sg76
(lp2382
S'raw_args'
p2383
asbag69
(g90
g71
NtRp2384
(dp2385
g74
(dp2386
g101
g102
ssg83
g2375
sg76
(lp2387
S':'
asbag69
(g90
g71
NtRp2388
(dp2389
g74
(dp2390
sg83
g2375
sg76
(lp2391
g69
(g70
g71
NtRp2392
(dp2393
g74
(dp2394
g82
I5
ssg83
g2388
sg76
(lp2395
S'json/search_user'
p2396
asbasbasbag69
(g85
g71
NtRp2397
(dp2398
g74
(dp2399
sg83
g79
sg76
(lp2400
g69
(g90
g71
NtRp2401
(dp2402
g74
(dp2403
g94
g95
ssg83
g2397
sg76
(lp2404
S'url'
p2405
asbag69
(g90
g71
NtRp2406
(dp2407
g74
(dp2408
g101
g102
ssg83
g2397
sg76
(lp2409
S':'
asbag69
(g90
g71
NtRp2410
(dp2411
g74
(dp2412
sg83
g2397
sg76
(lp2413
g69
(g70
g71
NtRp2414
(dp2415
g74
(dp2416
g82
I5
ssg83
g2410
sg76
(lp2417
S'/igor/user/call/json/search_user'
p2418
asbasbasbag69
(g85
g71
NtRp2419
(dp2420
g74
(dp2421
sg83
g79
sg76
(lp2422
g69
(g90
g71
NtRp2423
(dp2424
g74
(dp2425
g94
g95
ssg83
g2419
sg76
(lp2426
S'utcnow'
p2427
asbag69
(g90
g71
NtRp2428
(dp2429
g74
(dp2430
g101
g102
ssg83
g2419
sg76
(lp2431
S':'
asbag69
(g90
g71
NtRp2432
(dp2433
g74
(dp2434
sg83
g2419
sg76
(lp2435
g69
(g70
g71
NtRp2436
(dp2437
g74
(dp2438
g82
I5
ssg83
g2432
sg76
(lp2439
S'datetime.datetime(2012, 7, 31, 6, 38, 47, 46000)'
p2440
asbasbasbag69
(g85
g71
NtRp2441
(dp2442
g74
(dp2443
sg83
g79
sg76
(lp2444
g69
(g90
g71
NtRp2445
(dp2446
g74
(dp2447
g94
g95
ssg83
g2441
sg76
(lp2448
S'uuid'
p2449
asbag69
(g90
g71
NtRp2450
(dp2451
g74
(dp2452
g101
g102
ssg83
g2441
sg76
(lp2453
S':'
asbag69
(g90
g71
NtRp2454
(dp2455
g74
(dp2456
sg83
g2441
sg76
(lp2457
g69
(g70
g71
NtRp2458
(dp2459
g74
(dp2460
g82
I5
ssg83
g2454
sg76
(lp2461
S'igor/127.0.0.1.2012-07-31.13-38-47.1652ca66-d561-4603-aacd-b98cb9b99eeb'
p2462
asbasbasbag69
(g85
g71
NtRp2463
(dp2464
g74
(dp2465
sg83
g79
sg76
(lp2466
g69
(g90
g71
NtRp2467
(dp2468
g74
(dp2469
g94
g95
ssg83
g2463
sg76
(lp2470
S'vars'
p2471
asbag69
(g90
g71
NtRp2472
(dp2473
g74
(dp2474
g101
g102
ssg83
g2463
sg76
(lp2475
S':'
asbag69
(g90
g71
NtRp2476
(dp2477
g74
(dp2478
sg83
g2463
sg76
(lp2479
g69
(g70
g71
NtRp2480
(dp2481
g74
(dp2482
g82
I5
ssg83
g2476
sg76
(lp2483
g69
(g78
g71
NtRp2484
(dp2485
g74
(dp2486
g82
I4
ssg83
Nsg76
(lp2487
g69
(g85
g71
NtRp2488
(dp2489
g74
(dp2490
sg83
g2484
sg76
(lp2491
g69
(g90
g71
NtRp2492
(dp2493
g74
(dp2494
g94
g95
ssg83
g2488
sg76
(lp2495
g1900
asbag69
(g90
g71
NtRp2496
(dp2497
g74
(dp2498
g101
g102
ssg83
g2488
sg76
(lp2499
S':'
asbag69
(g90
g71
NtRp2500
(dp2501
g74
(dp2502
sg83
g2488
sg76
(lp2503
g69
(g70
g71
NtRp2504
(dp2505
g74
(dp2506
g82
I4
ssg83
g2500
sg76
(lp2507
S'5'
asbasbasbag69
(g85
g71
NtRp2508
(dp2509
g74
(dp2510
sg83
g2484
sg76
(lp2511
g69
(g90
g71
NtRp2512
(dp2513
g74
(dp2514
g94
g95
ssg83
g2508
sg76
(lp2515
g1921
asbag69
(g90
g71
NtRp2516
(dp2517
g74
(dp2518
g101
g102
ssg83
g2508
sg76
(lp2519
S':'
asbag69
(g90
g71
NtRp2520
(dp2521
g74
(dp2522
sg83
g2508
sg76
(lp2523
g69
(g70
g71
NtRp2524
(dp2525
g74
(dp2526
g82
I4
ssg83
g2520
sg76
(lp2527
g1934
asbasbasbasbasbasbasbag69
(g85
g71
NtRp2528
(dp2529
g74
(dp2530
sg83
g79
sg76
(lp2531
g69
(g90
g71
NtRp2532
(dp2533
g74
(dp2534
g94
g95
ssg83
g2528
sg76
(lp2535
S'wsgi'
p2536
asbag69
(g90
g71
NtRp2537
(dp2538
g74
(dp2539
g101
g102
ssg83
g2528
sg76
(lp2540
S':'
asbag69
(g90
g71
NtRp2541
(dp2542
g74
(dp2543
sg83
g2528
sg76
(lp2544
g69
(g70
g71
NtRp2545
(dp2546
g74
(dp2547
g82
I5
ssg83
g2541
sg76
(lp2548
g69
(g78
g71
NtRp2549
(dp2550
g74
(dp2551
g82
I4
ssg83
Nsg76
(lp2552
g69
(g85
g71
NtRp2553
(dp2554
g74
(dp2555
sg83
g2549
sg76
(lp2556
g69
(g90
g71
NtRp2557
(dp2558
g74
(dp2559
g94
g95
ssg83
g2553
sg76
(lp2560
S'environ'
p2561
asbag69
(g90
g71
NtRp2562
(dp2563
g74
(dp2564
g101
g102
ssg83
g2553
sg76
(lp2565
S':'
asbag69
(g90
g71
NtRp2566
(dp2567
g74
(dp2568
sg83
g2553
sg76
(lp2569
g69
(g70
g71
NtRp2570
(dp2571
g74
(dp2572
g82
I4
ssg83
g2566
sg76
(lp2573
g69
(g78
g71
NtRp2574
(dp2575
g74
(dp2576
g82
I3
ssg83
Nsg76
(lp2577
g69
(g85
g71
NtRp2578
(dp2579
g74
(dp2580
sg83
g2574
sg76
(lp2581
g69
(g90
g71
NtRp2582
(dp2583
g74
(dp2584
g94
g95
ssg83
g2578
sg76
(lp2585
S'HTTP_ACCEPT'
p2586
asbag69
(g90
g71
NtRp2587
(dp2588
g74
(dp2589
g101
g102
ssg83
g2578
sg76
(lp2590
S':'
asbag69
(g90
g71
NtRp2591
(dp2592
g74
(dp2593
sg83
g2578
sg76
(lp2594
g69
(g70
g71
NtRp2595
(dp2596
g74
(dp2597
g82
I3
ssg83
g2591
sg76
(lp2598
g1054
asbasbasbag69
(g85
g71
NtRp2599
(dp2600
g74
(dp2601
sg83
g2574
sg76
(lp2602
g69
(g90
g71
NtRp2603
(dp2604
g74
(dp2605
g94
g95
ssg83
g2599
sg76
(lp2606
S'HTTP_ACCEPT_CHARSET'
p2607
asbag69
(g90
g71
NtRp2608
(dp2609
g74
(dp2610
g101
g102
ssg83
g2599
sg76
(lp2611
S':'
asbag69
(g90
g71
NtRp2612
(dp2613
g74
(dp2614
sg83
g2599
sg76
(lp2615
g69
(g70
g71
NtRp2616
(dp2617
g74
(dp2618
g82
I3
ssg83
g2612
sg76
(lp2619
g1076
asbasbasbag69
(g85
g71
NtRp2620
(dp2621
g74
(dp2622
sg83
g2574
sg76
(lp2623
g69
(g90
g71
NtRp2624
(dp2625
g74
(dp2626
g94
g95
ssg83
g2620
sg76
(lp2627
S'HTTP_ACCEPT_ENCODING'
p2628
asbag69
(g90
g71
NtRp2629
(dp2630
g74
(dp2631
g101
g102
ssg83
g2620
sg76
(lp2632
S':'
asbag69
(g90
g71
NtRp2633
(dp2634
g74
(dp2635
sg83
g2620
sg76
(lp2636
g69
(g70
g71
NtRp2637
(dp2638
g74
(dp2639
g82
I3
ssg83
g2633
sg76
(lp2640
g1098
asbasbasbag69
(g85
g71
NtRp2641
(dp2642
g74
(dp2643
sg83
g2574
sg76
(lp2644
g69
(g90
g71
NtRp2645
(dp2646
g74
(dp2647
g94
g95
ssg83
g2641
sg76
(lp2648
S'HTTP_ACCEPT_LANGUAGE'
p2649
asbag69
(g90
g71
NtRp2650
(dp2651
g74
(dp2652
g101
g102
ssg83
g2641
sg76
(lp2653
S':'
asbag69
(g90
g71
NtRp2654
(dp2655
g74
(dp2656
sg83
g2641
sg76
(lp2657
g69
(g70
g71
NtRp2658
(dp2659
g74
(dp2660
g82
I3
ssg83
g2654
sg76
(lp2661
g1120
asbasbasbag69
(g85
g71
NtRp2662
(dp2663
g74
(dp2664
sg83
g2574
sg76
(lp2665
g69
(g90
g71
NtRp2666
(dp2667
g74
(dp2668
g94
g95
ssg83
g2662
sg76
(lp2669
S'HTTP_CONNECTION'
p2670
asbag69
(g90
g71
NtRp2671
(dp2672
g74
(dp2673
g101
g102
ssg83
g2662
sg76
(lp2674
S':'
asbag69
(g90
g71
NtRp2675
(dp2676
g74
(dp2677
sg83
g2662
sg76
(lp2678
g69
(g70
g71
NtRp2679
(dp2680
g74
(dp2681
g82
I3
ssg83
g2675
sg76
(lp2682
g1142
asbasbasbag69
(g85
g71
NtRp2683
(dp2684
g74
(dp2685
sg83
g2574
sg76
(lp2686
g69
(g90
g71
NtRp2687
(dp2688
g74
(dp2689
g94
g95
ssg83
g2683
sg76
(lp2690
S'HTTP_COOKIE'
p2691
asbag69
(g90
g71
NtRp2692
(dp2693
g74
(dp2694
g101
g102
ssg83
g2683
sg76
(lp2695
S':'
asbag69
(g90
g71
NtRp2696
(dp2697
g74
(dp2698
sg83
g2683
sg76
(lp2699
g69
(g70
g71
NtRp2700
(dp2701
g74
(dp2702
g82
I3
ssg83
g2696
sg76
(lp2703
g1164
asbasbasbag69
(g85
g71
NtRp2704
(dp2705
g74
(dp2706
sg83
g2574
sg76
(lp2707
g69
(g90
g71
NtRp2708
(dp2709
g74
(dp2710
g94
g95
ssg83
g2704
sg76
(lp2711
S'HTTP_HOST'
p2712
asbag69
(g90
g71
NtRp2713
(dp2714
g74
(dp2715
g101
g102
ssg83
g2704
sg76
(lp2716
S':'
asbag69
(g90
g71
NtRp2717
(dp2718
g74
(dp2719
sg83
g2704
sg76
(lp2720
g69
(g70
g71
NtRp2721
(dp2722
g74
(dp2723
g82
I3
ssg83
g2717
sg76
(lp2724
g1186
asbasbasbag69
(g85
g71
NtRp2725
(dp2726
g74
(dp2727
sg83
g2574
sg76
(lp2728
g69
(g90
g71
NtRp2729
(dp2730
g74
(dp2731
g94
g95
ssg83
g2725
sg76
(lp2732
S'HTTP_USER_AGENT'
p2733
asbag69
(g90
g71
NtRp2734
(dp2735
g74
(dp2736
g101
g102
ssg83
g2725
sg76
(lp2737
S':'
asbag69
(g90
g71
NtRp2738
(dp2739
g74
(dp2740
sg83
g2725
sg76
(lp2741
g69
(g70
g71
NtRp2742
(dp2743
g74
(dp2744
g82
I3
ssg83
g2738
sg76
(lp2745
g1208
asbasbasbag69
(g85
g71
NtRp2746
(dp2747
g74
(dp2748
sg83
g2574
sg76
(lp2749
g69
(g90
g71
NtRp2750
(dp2751
g74
(dp2752
g94
g95
ssg83
g2746
sg76
(lp2753
S'PATH_INFO'
p2754
asbag69
(g90
g71
NtRp2755
(dp2756
g74
(dp2757
g101
g102
ssg83
g2746
sg76
(lp2758
S':'
asbag69
(g90
g71
NtRp2759
(dp2760
g74
(dp2761
sg83
g2746
sg76
(lp2762
g69
(g70
g71
NtRp2763
(dp2764
g74
(dp2765
g82
I3
ssg83
g2759
sg76
(lp2766
g1272
asbasbasbag69
(g85
g71
NtRp2767
(dp2768
g74
(dp2769
sg83
g2574
sg76
(lp2770
g69
(g90
g71
NtRp2771
(dp2772
g74
(dp2773
g94
g95
ssg83
g2767
sg76
(lp2774
S'QUERY_STRING'
p2775
asbag69
(g90
g71
NtRp2776
(dp2777
g74
(dp2778
g101
g102
ssg83
g2767
sg76
(lp2779
S':'
asbag69
(g90
g71
NtRp2780
(dp2781
g74
(dp2782
sg83
g2767
sg76
(lp2783
g69
(g70
g71
NtRp2784
(dp2785
g74
(dp2786
g82
I3
ssg83
g2780
sg76
(lp2787
g1294
asbasbasbag69
(g85
g71
NtRp2788
(dp2789
g74
(dp2790
sg83
g2574
sg76
(lp2791
g69
(g90
g71
NtRp2792
(dp2793
g74
(dp2794
g94
g95
ssg83
g2788
sg76
(lp2795
S'REMOTE_ADDR'
p2796
asbag69
(g90
g71
NtRp2797
(dp2798
g74
(dp2799
g101
g102
ssg83
g2788
sg76
(lp2800
S':'
asbag69
(g90
g71
NtRp2801
(dp2802
g74
(dp2803
sg83
g2788
sg76
(lp2804
g69
(g70
g71
NtRp2805
(dp2806
g74
(dp2807
g82
I3
ssg83
g2801
sg76
(lp2808
g228
asbasbasbag69
(g85
g71
NtRp2809
(dp2810
g74
(dp2811
sg83
g2574
sg76
(lp2812
g69
(g90
g71
NtRp2813
(dp2814
g74
(dp2815
g94
g95
ssg83
g2809
sg76
(lp2816
S'REMOTE_PORT'
p2817
asbag69
(g90
g71
NtRp2818
(dp2819
g74
(dp2820
g101
g102
ssg83
g2809
sg76
(lp2821
S':'
asbag69
(g90
g71
NtRp2822
(dp2823
g74
(dp2824
sg83
g2809
sg76
(lp2825
g69
(g70
g71
NtRp2826
(dp2827
g74
(dp2828
g82
I3
ssg83
g2822
sg76
(lp2829
g1337
asbasbasbag69
(g85
g71
NtRp2830
(dp2831
g74
(dp2832
sg83
g2574
sg76
(lp2833
g69
(g90
g71
NtRp2834
(dp2835
g74
(dp2836
g94
g95
ssg83
g2830
sg76
(lp2837
S'REQUEST_METHOD'
p2838
asbag69
(g90
g71
NtRp2839
(dp2840
g74
(dp2841
g101
g102
ssg83
g2830
sg76
(lp2842
S':'
asbag69
(g90
g71
NtRp2843
(dp2844
g74
(dp2845
sg83
g2830
sg76
(lp2846
g69
(g70
g71
NtRp2847
(dp2848
g74
(dp2849
g82
I3
ssg83
g2843
sg76
(lp2850
g1359
asbasbasbag69
(g85
g71
NtRp2851
(dp2852
g74
(dp2853
sg83
g2574
sg76
(lp2854
g69
(g90
g71
NtRp2855
(dp2856
g74
(dp2857
g94
g95
ssg83
g2851
sg76
(lp2858
S'SCRIPT_NAME'
p2859
asbag69
(g90
g71
NtRp2860
(dp2861
g74
(dp2862
g101
g102
ssg83
g2851
sg76
(lp2863
S':'
asbag69
(g90
g71
NtRp2864
(dp2865
g74
(dp2866
sg83
g2851
sg76
(lp2867
g69
(g70
g71
NtRp2868
(dp2869
g74
(dp2870
g82
I3
ssg83
g2864
sg76
(lp2871
S''
asbasbasbag69
(g85
g71
NtRp2872
(dp2873
g74
(dp2874
sg83
g2574
sg76
(lp2875
g69
(g90
g71
NtRp2876
(dp2877
g74
(dp2878
g94
g95
ssg83
g2872
sg76
(lp2879
S'SERVER_NAME'
p2880
asbag69
(g90
g71
NtRp2881
(dp2882
g74
(dp2883
g101
g102
ssg83
g2872
sg76
(lp2884
S':'
asbag69
(g90
g71
NtRp2885
(dp2886
g74
(dp2887
sg83
g2872
sg76
(lp2888
g69
(g70
g71
NtRp2889
(dp2890
g74
(dp2891
g82
I3
ssg83
g2885
sg76
(lp2892
g1402
asbasbasbag69
(g85
g71
NtRp2893
(dp2894
g74
(dp2895
sg83
g2574
sg76
(lp2896
g69
(g90
g71
NtRp2897
(dp2898
g74
(dp2899
g94
g95
ssg83
g2893
sg76
(lp2900
S'SERVER_PORT'
p2901
asbag69
(g90
g71
NtRp2902
(dp2903
g74
(dp2904
g101
g102
ssg83
g2893
sg76
(lp2905
S':'
asbag69
(g90
g71
NtRp2906
(dp2907
g74
(dp2908
sg83
g2893
sg76
(lp2909
g69
(g70
g71
NtRp2910
(dp2911
g74
(dp2912
g82
I3
ssg83
g2906
sg76
(lp2913
g1424
asbasbasbag69
(g85
g71
NtRp2914
(dp2915
g74
(dp2916
sg83
g2574
sg76
(lp2917
g69
(g90
g71
NtRp2918
(dp2919
g74
(dp2920
g94
g95
ssg83
g2914
sg76
(lp2921
S'SERVER_PROTOCOL'
p2922
asbag69
(g90
g71
NtRp2923
(dp2924
g74
(dp2925
g101
g102
ssg83
g2914
sg76
(lp2926
S':'
asbag69
(g90
g71
NtRp2927
(dp2928
g74
(dp2929
sg83
g2914
sg76
(lp2930
g69
(g70
g71
NtRp2931
(dp2932
g74
(dp2933
g82
I3
ssg83
g2927
sg76
(lp2934
g1446
asbasbasbag69
(g85
g71
NtRp2935
(dp2936
g74
(dp2937
sg83
g2574
sg76
(lp2938
g69
(g90
g71
NtRp2939
(dp2940
g74
(dp2941
g94
g95
ssg83
g2935
sg76
(lp2942
S'SERVER_SOFTWARE'
p2943
asbag69
(g90
g71
NtRp2944
(dp2945
g74
(dp2946
g101
g102
ssg83
g2935
sg76
(lp2947
S':'
asbag69
(g90
g71
NtRp2948
(dp2949
g74
(dp2950
sg83
g2935
sg76
(lp2951
g69
(g70
g71
NtRp2952
(dp2953
g74
(dp2954
g82
I3
ssg83
g2948
sg76
(lp2955
g1468
asbasbasbag69
(g85
g71
NtRp2956
(dp2957
g74
(dp2958
sg83
g2574
sg76
(lp2959
g69
(g90
g71
NtRp2960
(dp2961
g74
(dp2962
g94
g95
ssg83
g2956
sg76
(lp2963
S'wsgi.errors'
p2964
asbag69
(g90
g71
NtRp2965
(dp2966
g74
(dp2967
g101
g102
ssg83
g2956
sg76
(lp2968
S':'
asbag69
(g90
g71
NtRp2969
(dp2970
g74
(dp2971
sg83
g2956
sg76
(lp2972
g69
(g70
g71
NtRp2973
(dp2974
g74
(dp2975
g82
I3
ssg83
g2969
sg76
(lp2976
S"<open file '<stderr>', mode 'w' at 0x0000000001D0E1E0>"
p2977
asbasbasbag69
(g85
g71
NtRp2978
(dp2979
g74
(dp2980
sg83
g2574
sg76
(lp2981
g69
(g90
g71
NtRp2982
(dp2983
g74
(dp2984
g94
g95
ssg83
g2978
sg76
(lp2985
S'wsgi.file_wrapper'
p2986
asbag69
(g90
g71
NtRp2987
(dp2988
g74
(dp2989
g101
g102
ssg83
g2978
sg76
(lp2990
S':'
asbag69
(g90
g71
NtRp2991
(dp2992
g74
(dp2993
sg83
g2978
sg76
(lp2994
g69
(g70
g71
NtRp2995
(dp2996
g74
(dp2997
g82
I3
ssg83
g2991
sg76
(lp2998
S'<class wsgiref.util.FileWrapper at 0x00000000037FCAC8>'
p2999
asbasbasbag69
(g85
g71
NtRp3000
(dp3001
g74
(dp3002
sg83
g2574
sg76
(lp3003
g69
(g90
g71
NtRp3004
(dp3005
g74
(dp3006
g94
g95
ssg83
g3000
sg76
(lp3007
S'wsgi.input'
p3008
asbag69
(g90
g71
NtRp3009
(dp3010
g74
(dp3011
g101
g102
ssg83
g3000
sg76
(lp3012
S':'
asbag69
(g90
g71
NtRp3013
(dp3014
g74
(dp3015
sg83
g3000
sg76
(lp3016
g69
(g70
g71
NtRp3017
(dp3018
g74
(dp3019
g82
I3
ssg83
g3013
sg76
(lp3020
S'<cStringIO.StringO object at 0x00000000093D7C38>'
p3021
asbasbasbag69
(g85
g71
NtRp3022
(dp3023
g74
(dp3024
sg83
g2574
sg76
(lp3025
g69
(g90
g71
NtRp3026
(dp3027
g74
(dp3028
g94
g95
ssg83
g3022
sg76
(lp3029
S'wsgi.multiprocess'
p3030
asbag69
(g90
g71
NtRp3031
(dp3032
g74
(dp3033
g101
g102
ssg83
g3022
sg76
(lp3034
S':'
asbag69
(g90
g71
NtRp3035
(dp3036
g74
(dp3037
sg83
g3022
sg76
(lp3038
g69
(g70
g71
NtRp3039
(dp3040
g74
(dp3041
g82
I3
ssg83
g3035
sg76
(lp3042
g112
asbasbasbag69
(g85
g71
NtRp3043
(dp3044
g74
(dp3045
sg83
g2574
sg76
(lp3046
g69
(g90
g71
NtRp3047
(dp3048
g74
(dp3049
g94
g95
ssg83
g3043
sg76
(lp3050
S'wsgi.multithread'
p3051
asbag69
(g90
g71
NtRp3052
(dp3053
g74
(dp3054
g101
g102
ssg83
g3043
sg76
(lp3055
S':'
asbag69
(g90
g71
NtRp3056
(dp3057
g74
(dp3058
sg83
g3043
sg76
(lp3059
g69
(g70
g71
NtRp3060
(dp3061
g74
(dp3062
g82
I3
ssg83
g3056
sg76
(lp3063
g1708
asbasbasbag69
(g85
g71
NtRp3064
(dp3065
g74
(dp3066
sg83
g2574
sg76
(lp3067
g69
(g90
g71
NtRp3068
(dp3069
g74
(dp3070
g94
g95
ssg83
g3064
sg76
(lp3071
S'wsgi.run_once'
p3072
asbag69
(g90
g71
NtRp3073
(dp3074
g74
(dp3075
g101
g102
ssg83
g3064
sg76
(lp3076
S':'
asbag69
(g90
g71
NtRp3077
(dp3078
g74
(dp3079
sg83
g3064
sg76
(lp3080
g69
(g70
g71
NtRp3081
(dp3082
g74
(dp3083
g82
I3
ssg83
g3077
sg76
(lp3084
g112
asbasbasbag69
(g85
g71
NtRp3085
(dp3086
g74
(dp3087
sg83
g2574
sg76
(lp3088
g69
(g90
g71
NtRp3089
(dp3090
g74
(dp3091
g94
g95
ssg83
g3085
sg76
(lp3092
S'wsgi.url_scheme'
p3093
asbag69
(g90
g71
NtRp3094
(dp3095
g74
(dp3096
g101
g102
ssg83
g3085
sg76
(lp3097
S':'
asbag69
(g90
g71
NtRp3098
(dp3099
g74
(dp3100
sg83
g3085
sg76
(lp3101
g69
(g70
g71
NtRp3102
(dp3103
g74
(dp3104
g82
I3
ssg83
g3098
sg76
(lp3105
g1751
asbasbasbag69
(g85
g71
NtRp3106
(dp3107
g74
(dp3108
sg83
g2574
sg76
(lp3109
g69
(g90
g71
NtRp3110
(dp3111
g74
(dp3112
g94
g95
ssg83
g3106
sg76
(lp3113
S'wsgi.version'
p3114
asbag69
(g90
g71
NtRp3115
(dp3116
g74
(dp3117
g101
g102
ssg83
g3106
sg76
(lp3118
S':'
asbag69
(g90
g71
NtRp3119
(dp3120
g74
(dp3121
sg83
g3106
sg76
(lp3122
g69
(g70
g71
NtRp3123
(dp3124
g74
(dp3125
g82
I3
ssg83
g3119
sg76
(lp3126
S'1'
asbasbasbasbasbasbasbasbasbasbasbasbasbsS'frames'
p3127
(lp3128
(dp3129
S'file'
p3130
S'D:\\workspace\\CA\\IgoR\\C_Sources\\Server\\igor-assistant-ca-2012\\gluon\\restricted.py'
p3131
sS'dump'
p3132
(dp3133
S'environment'
p3134
S"{'A': <class 'gluon.html.A'>, 'Auth': <class 'gluon.tools.Auth'>, 'B': <class 'gluon.html.B'>, 'BEAUTIFY': <class 'gluon.html.BEAUTIFY'>, 'BODY': <class 'gluon.html.BODY'>, 'BR': <class 'gluon.html.BR'>, 'BUTTON': <class 'gluon.html.BUTTON'>, 'CAT': <class 'gluon.html.CAT'>, 'CENTER': <class 'gluon.html.CENTER'>, 'CLEANUP': <class 'gluon.validators.CLEANUP'>, ...}"
p3135
sS'ccode'
p3136
S'<code object <module> at 00000000053419B0, file ...2\\applications\\igor\\controllers/user.py", line 9>'
p3137
ssS'lnum'
p3138
I205
sS'lines'
p3139
(dp3140
I200
S'    try:'
p3141
sI201
S'        if type(code) == types.CodeType:'
p3142
sI202
S'            ccode = code'
p3143
sI203
S'        else:'
p3144
sI204
S'            ccode = compile2(code,layer)'
p3145
sI205
S'        exec ccode in environment'
p3146
sI206
S'    except HTTP:'
p3147
sI207
S'        raise'
p3148
sI208
S'    except RestrictedError:'
p3149
sI209
S'        # do not encapsulate (obfuscate) the original RestrictedError'
p3150
ssS'call'
p3151
S"(code='# -*- coding: utf-8 -*-\\n# this file is released ...lient_data\\nresponse._vars=response._caller(call)\\n', environment={'A': <class 'gluon.html.A'>, 'Auth': <class 'gluon.tools.Auth'>, 'B': <class 'gluon.html.B'>, 'BEAUTIFY': <class 'gluon.html.BEAUTIFY'>, 'BODY': <class 'gluon.html.BODY'>, 'BR': <class 'gluon.html.BR'>, 'BUTTON': <class 'gluon.html.BUTTON'>, 'CAT': <class 'gluon.html.CAT'>, 'CENTER': <class 'gluon.html.CENTER'>, 'CLEANUP': <class 'gluon.validators.CLEANUP'>, ...}, layer=r'D:\\workspace\\CA\\IgoR\\C_Sources\\Server\\igor-assistant-ca-2012\\applications\\igor\\controllers/user.py')"
p3152
sS'func'
p3153
S'restricted'
p3154
sa(dp3155
g3130
S'D:\\workspace\\CA\\IgoR\\C_Sources\\Server\\igor-assistant-ca-2012\\applications\\igor\\controllers\\user.py'
p3156
sg3132
(dp3157
sg3138
I149
sg3139
(dp3158
I139
S'\t\t\t\tavatar    = get_avatar_full_url(user.avatar),'
p3159
sI140
S'\t\t\t\tstudentid = user.student_code,'
p3160
sI141
S'\t\t\t\temail     = auth.email,'
p3161
sI142
S'\t\t\t\tgroup     = user.class_group,'
p3162
sI143
S'\t\t\t\tcourse    = user.user_course'
p3163
sI144
S'\t\t\t\t)'
p3164
sI145
S''
sI146
S'\t\tclient_data.append (client)'
p3165
sI147
S''
sI148
S'\treturn client_data'
p3166
ssg3151
S'()'
p3167
sg3153
S'<module>'
p3168
sa(dp3169
g3130
S'D:\\workspace\\CA\\IgoR\\C_Sources\\Server\\igor-assistant-ca-2012\\gluon\\globals.py'
p3170
sg3132
(dp3171
S'self'
p3172
S'undefined'
p3173
sS'f'
S'<function call>'
p3174
ssg3138
I173
sg3139
(dp3175
I168
S'        self.menu = []             # used by the default view layout'
p3176
sI169
S'        self.files = []            # used by web2py_ajax.html'
p3177
sI170
S'        self.generic_patterns = [] # patterns to allow generic views'
p3178
sI171
S"        self.delimiters = ('{{','}}')"
p3179
sI172
S'        self._vars = None'
p3180
sI173
S'        self._caller = lambda f: f()'
p3181
sI174
S'        self._view_environment = None'
p3182
sI175
S'        self._custom_commit = None'
p3183
sI176
S'        self._custom_rollback = None'
p3184
sI177
S''
ssg3151
S'(f=<function call>)'
p3185
sg3153
S'<lambda>'
p3186
sa(dp3187
g3130
S'D:\\workspace\\CA\\IgoR\\C_Sources\\Server\\igor-assistant-ca-2012\\applications\\igor\\controllers\\user.py'
p3188
sg3132
(dp3189
S'global service'
p3190
S'<gluon.tools.Service object>'
p3191
ssg3138
I20
sg3139
(dp3192
I15
S''
sI16
S''
sI17
S'def call():'
p3193
sI18
S'\tsession.forget()'
p3194
sI19
S''
sI20
S'\treturn service()'
p3195
sI21
S''
sI22
S'# Registration new user'
p3196
sI23
S'@service.jsonp'
p3197
sI24
S'@service.json'
p3198
ssg3151
S'()'
p3199
sg3153
g3151
sa(dp3200
g3130
S'D:\\workspace\\CA\\IgoR\\C_Sources\\Server\\igor-assistant-ca-2012\\gluon\\tools.py'
p3201
sg3132
(dp3202
S'request.args'
p3203
S"['json', 'search_user']"
p3204
sS'self.serve_json'
p3205
S'<bound method Service.serve_json of <gluon.tools.Service object>>'
p3206
sS'self'
p3207
S'<gluon.tools.Service object>'
p3208
sS'request'
p3209
S"<Storage {'body': <cStringIO.StringO object at 0...', 'value': 'phuc'}>, 'post_vars': <Storage {}>}>"
p3210
ssg3138
I4015
sg3139
(dp3211
I4010
S"        elif arg0 == 'csv':"
p3212
sI4011
S'            return self.serve_csv(request.args[1:])'
p3213
sI4012
S"        elif arg0 == 'xml':"
p3214
sI4013
S'            return self.serve_xml(request.args[1:])'
p3215
sI4014
S"        elif arg0 == 'json':"
p3216
sI4015
S'            return self.serve_json(request.args[1:])'
p3217
sI4016
S'        # phucnh add 20120730'
p3218
sI4017
S"        elif arg0 == 'jsonp':"
p3219
sI4018
S'            return self.serve_jsonp(request.args[1:])'
p3220
sI4019
S'        # end phucnh add 20120730'
p3221
ssg3151
S'(self=<gluon.tools.Service object>)'
p3222
sg3153
S'__call__'
p3223
sa(dp3224
g3130
S'D:\\workspace\\CA\\IgoR\\C_Sources\\Server\\igor-assistant-ca-2012\\gluon\\tools.py'
p3225
sg3132
(dp3226
S'args'
p3227
S"['search_user']"
p3228
sS'd'
S"{'type': '5', 'value': 'phuc'}"
p3229
sS'self'
p3230
S'<gluon.tools.Service object>'
p3231
sS'global universal_caller'
p3232
S'<function universal_caller>'
p3233
sS'self.json_procedures'
p3234
S"{'check_email_available': <function check_email_available>, 'get_user_detail': <function get_user_detail>, 'login': <function login>, 'register': <function register>, 'search_user': <function search_user>}"
p3235
sS's'
g3173
ssg3138
I3808
sg3139
(dp3236
I3808
S'            s = universal_caller(self.json_procedures[args[0]],*args[1:],**d)'
p3237
sI3809
S"            if hasattr(s, 'as_list'):"
p3238
sI3810
S'                s = s.as_list()'
p3239
sI3811
S'            return response.json(s)'
p3240
sI3812
S'        self.error()'
p3241
sI3803
S"        response.headers['Content-Type'] = 'application/json; charset=utf-8'"
p3242
sI3804
S'        if not args:'
p3243
sI3805
S'            args = request.args'
p3244
sI3806
S'        d = dict(request.vars)'
p3245
sI3807
S'        if args and args[0] in self.json_procedures:'
p3246
ssg3151
S"(self=<gluon.tools.Service object>, args=['search_user'])"
p3247
sg3153
S'serve_json'
p3248
sa(dp3249
g3130
S'D:\\workspace\\CA\\IgoR\\C_Sources\\Server\\igor-assistant-ca-2012\\gluon\\tools.py'
p3250
sg3132
(dp3251
S'arg_dict'
p3252
S"{'type': '5', 'value': 'phuc'}"
p3253
sS'f'
S'<function search_user>'
p3254
ssg3138
I3490
sg3139
(dp3255
I3488
S'                arg_dict[arg_name] = b[arg_name]'
p3256
sI3489
S''
sI3490
S'        return f(**arg_dict)'
p3257
sI3491
S''
sI3492
S'    # Raise an error, the function cannot be called.'
p3258
sI3493
S'    raise HTTP(404, "Object does not exist")'
p3259
sI3494
S''
sI3485
S'        # However, we need to update the arg_dict with the values from the named arguments as well.'
p3260
sI3486
S'        for arg_name in named_args:'
p3261
sI3487
S'            if b.has_key(arg_name):'
p3262
ssg3151
S"(f=<function search_user>, *a=(), **b={'type': '5', 'value': 'phuc'})"
p3263
sg3153
S'universal_caller'
p3264
sa(dp3265
g3130
S'D:\\workspace\\CA\\IgoR\\C_Sources\\Server\\igor-assistant-ca-2012\\applications\\igor\\controllers\\user.py'
p3266
sg3132
(dp3267
S'avatar'
p3268
g3173
sS'user'
p3269
g3173
ssg3138
I98
sg3139
(dp3270
I96
S'\t\t#users = db(db.user).select()'
p3271
sI97
S''
sI98
S'\tusers = format_client_data (users)'
p3272
sI99
S''
sI100
S'\treturn MessagePackager.get_packaged_message (MessageStatus.OK, users)'
p3273
sI101
S''
sI102
S'# Get user information'
p3274
sI93
S''
sI94
S'\tif (int (type) == 5):'
p3275
sI95
S'\t\tusers = get_user_by_name (value)'
p3276
ssg3151
S"(type='5', value='phuc')"
p3277
sg3153
S'search_user'
p3278
sa(dp3279
g3130
S'D:\\workspace\\CA\\IgoR\\C_Sources\\Server\\igor-assistant-ca-2012\\applications\\igor\\controllers\\user.py'
p3280
sg3132
(dp3281
sg3138
I139
sg3139
(dp3282
I134
S'\t\t\tclient = dict('
p3283
sI135
S'\t\t\t\tuserid    = user.id,'
p3284
sI136
S'\t\t\t\t#username  = user.name,'
p3285
sI137
S'\t\t\t\tfullname  = user.name,'
p3286
sI138
S'\t\t\t\t#password ='
p3287
sI139
S'\t\t\t\tavatar    = get_avatar_full_url(user.avatar),'
p3288
sI140
S'\t\t\t\tstudentid = user.student_code,'
p3289
sI141
S'\t\t\t\temail     = auth.email,'
p3290
sI142
S'\t\t\t\tgroup     = user.class_group,'
p3291
sI143
S'\t\t\t\tcourse    = user.user_course'
p3292
ssg3151
S'(users=<gluon.dal.Rows object>)'
p3293
sg3153
S'format_client_data'
p3294
sa(dp3295
g3130
S'D:\\workspace\\CA\\IgoR\\C_Sources\\Server\\igor-assistant-ca-2012\\applications\\igor\\models\\db_igor_function.py'
p3296
sg3132
(dp3297
S'global URL'
p3298
S'<function URL>'
p3299
sS'avatar_url'
p3300
S"'/igor/static/igor.jpg'"
p3301
ssg3138
I94
sg3139
(dp3302
I96
S'######################################################################################'
p3303
sI97
S'# Scheduler functions'
p3304
sI98
S'######################################################################################'
p3305
sI89
S'def get_avatar_full_url(avatar_url):'
p3306
sI90
S''
sI91
S"\tif avatar_url == '' or avatar_url == None:"
p3307
sI92
S"\t\treturn URL('static','images/igor.jpg', scheme='http')"
p3308
sI93
S'\telse:'
p3309
sI94
S"\t\treturn URL('static',avatar_url)"
p3310
sI95
S''
ssg3151
S"(avatar_url='/igor/static/igor.jpg')"
p3311
sg3153
S'get_avatar_full_url'
p3312
sa(dp3313
g3130
S'D:\\workspace\\CA\\IgoR\\C_Sources\\Server\\igor-assistant-ca-2012\\gluon\\html.py'
p3314
sg3132
(dp3315
S'builtinSyntaxError'
p3316
S"<type 'exceptions.SyntaxError'>"
p3317
ssg3138
I274
sg3139
(dp3318
I269
S"            function, extension = function.split('.', 1)"
p3319
sI270
S''
sI271
S"    function2 = '%s.%s' % (function,extension or 'html')"
p3320
sI272
S''
sI273
S'    if not (application and controller and function):'
p3321
sI274
S"        raise SyntaxError, 'not enough information to build the url'"
p3322
sI275
S''
sI276
S'    if args:'
p3323
sI277
S'        if url_encode:'
p3324
sI278
S'            if encode_embedded_slash:'
p3325
ssg3151
S"(a=None, c='static', f='', r=<Storage {'body': <cStringIO.StringO object at 0...', 'value': 'phuc'}>, 'post_vars': <Storage {}>}>, args=['igor', 'static', 'igor.jpg'], vars={}, anchor='', extension=None, env=<Storage {'debugging': False, 'http_user_agent':...g': 'type=5&value=phuc', 'wsgi_run_once': False}>, hmac_key=None, hash_vars=True, salt=None, user_signature=None, scheme=None, host=None, port=None, encode_embedded_slash=False, url_encode=True)"
p3326
sg3153
S'URL'
p3327
sasS'pyver'
p3328
S'Python 2.7.3: C:\\Python27\\python.exe'
p3329
sS'session'
p3330
g69
(g70
g71
NtRp3331
(dp3332
g74
(dp3333
sg76
(lp3334
g69
(g78
g71
NtRp3335
(dp3336
g74
(dp3337
g82
I5
ssg83
Nsg76
(lp3338
sbasbsS'etype'
p3339
S"<type 'exceptions.SyntaxError'>"
p3340
sS'date'
p3341
S'Tue Jul 31 13:38:47 2012'
p3342
sS'response'
p3343
g69
(g70
g71
NtRp3344
(dp3345
g74
(dp3346
sg76
(lp3347
g69
(g78
g71
NtRp3348
(dp3349
g74
(dp3350
g82
I5
ssg83
Nsg76
(lp3351
g69
(g85
g71
NtRp3352
(dp3353
g74
(dp3354
sg83
g3348
sg76
(lp3355
g69
(g90
g71
NtRp3356
(dp3357
g74
(dp3358
g94
g95
ssg83
g3352
sg76
(lp3359
g193
asbag69
(g90
g71
NtRp3360
(dp3361
g74
(dp3362
g101
g102
ssg83
g3352
sg76
(lp3363
S':'
asbag69
(g90
g71
NtRp3364
(dp3365
g74
(dp3366
sg83
g3352
sg76
(lp3367
g69
(g70
g71
NtRp3368
(dp3369
g74
(dp3370
g82
I5
ssg83
g3364
sg76
(lp3371
S'<cStringIO.StringO object at 0x0000000004C20AB0>'
p3372
asbasbasbag69
(g85
g71
NtRp3373
(dp3374
g74
(dp3375
sg83
g3348
sg76
(lp3376
g69
(g90
g71
NtRp3377
(dp3378
g74
(dp3379
g94
g95
ssg83
g3373
sg76
(lp3380
g259
asbag69
(g90
g71
NtRp3381
(dp3382
g74
(dp3383
g101
g102
ssg83
g3373
sg76
(lp3384
S':'
asbag69
(g90
g71
NtRp3385
(dp3386
g74
(dp3387
sg83
g3373
sg76
(lp3388
g69
(g70
g71
NtRp3389
(dp3390
g74
(dp3391
g82
I5
ssg83
g3385
sg76
(lp3392
g69
(g78
g71
NtRp3393
(dp3394
g74
(dp3395
g82
I4
ssg83
Nsg76
(lp3396
g69
(g85
g71
NtRp3397
(dp3398
g74
(dp3399
sg83
g3393
sg76
(lp3400
g69
(g90
g71
NtRp3401
(dp3402
g74
(dp3403
g94
g95
ssg83
g3397
sg76
(lp3404
S'session_id_igor'
p3405
asbag69
(g90
g71
NtRp3406
(dp3407
g74
(dp3408
g101
g102
ssg83
g3397
sg76
(lp3409
S':'
asbag69
(g90
g71
NtRp3410
(dp3411
g74
(dp3412
sg83
g3397
sg76
(lp3413
g69
(g70
g71
NtRp3414
(dp3415
g74
(dp3416
g82
I4
ssg83
g3410
sg76
(lp3417
g69
(g78
g71
NtRp3418
(dp3419
g74
(dp3420
g82
I3
ssg83
Nsg76
(lp3421
g69
(g85
g71
NtRp3422
(dp3423
g74
(dp3424
sg83
g3418
sg76
(lp3425
g69
(g90
g71
NtRp3426
(dp3427
g74
(dp3428
g94
g95
ssg83
g3422
sg76
(lp3429
g309
asbag69
(g90
g71
NtRp3430
(dp3431
g74
(dp3432
g101
g102
ssg83
g3422
sg76
(lp3433
S':'
asbag69
(g90
g71
NtRp3434
(dp3435
g74
(dp3436
sg83
g3422
sg76
(lp3437
g69
(g70
g71
NtRp3438
(dp3439
g74
(dp3440
g82
I3
ssg83
g3434
sg76
(lp3441
S''
asbasbasbag69
(g85
g71
NtRp3442
(dp3443
g74
(dp3444
sg83
g3418
sg76
(lp3445
g69
(g90
g71
NtRp3446
(dp3447
g74
(dp3448
g94
g95
ssg83
g3442
sg76
(lp3449
g330
asbag69
(g90
g71
NtRp3450
(dp3451
g74
(dp3452
g101
g102
ssg83
g3442
sg76
(lp3453
S':'
asbag69
(g90
g71
NtRp3454
(dp3455
g74
(dp3456
sg83
g3442
sg76
(lp3457
g69
(g70
g71
NtRp3458
(dp3459
g74
(dp3460
g82
I3
ssg83
g3454
sg76
(lp3461
S''
asbasbasbag69
(g85
g71
NtRp3462
(dp3463
g74
(dp3464
sg83
g3418
sg76
(lp3465
g69
(g90
g71
NtRp3466
(dp3467
g74
(dp3468
g94
g95
ssg83
g3462
sg76
(lp3469
g351
asbag69
(g90
g71
NtRp3470
(dp3471
g74
(dp3472
g101
g102
ssg83
g3462
sg76
(lp3473
S':'
asbag69
(g90
g71
NtRp3474
(dp3475
g74
(dp3476
sg83
g3462
sg76
(lp3477
g69
(g70
g71
NtRp3478
(dp3479
g74
(dp3480
g82
I3
ssg83
g3474
sg76
(lp3481
S''
asbasbasbag69
(g85
g71
NtRp3482
(dp3483
g74
(dp3484
sg83
g3418
sg76
(lp3485
g69
(g90
g71
NtRp3486
(dp3487
g74
(dp3488
g94
g95
ssg83
g3482
sg76
(lp3489
g372
asbag69
(g90
g71
NtRp3490
(dp3491
g74
(dp3492
g101
g102
ssg83
g3482
sg76
(lp3493
S':'
asbag69
(g90
g71
NtRp3494
(dp3495
g74
(dp3496
sg83
g3482
sg76
(lp3497
g69
(g70
g71
NtRp3498
(dp3499
g74
(dp3500
g82
I3
ssg83
g3494
sg76
(lp3501
S''
asbasbasbag69
(g85
g71
NtRp3502
(dp3503
g74
(dp3504
sg83
g3418
sg76
(lp3505
g69
(g90
g71
NtRp3506
(dp3507
g74
(dp3508
g94
g95
ssg83
g3502
sg76
(lp3509
g393
asbag69
(g90
g71
NtRp3510
(dp3511
g74
(dp3512
g101
g102
ssg83
g3502
sg76
(lp3513
S':'
asbag69
(g90
g71
NtRp3514
(dp3515
g74
(dp3516
sg83
g3502
sg76
(lp3517
g69
(g70
g71
NtRp3518
(dp3519
g74
(dp3520
g82
I3
ssg83
g3514
sg76
(lp3521
S''
asbasbasbag69
(g85
g71
NtRp3522
(dp3523
g74
(dp3524
sg83
g3418
sg76
(lp3525
g69
(g90
g71
NtRp3526
(dp3527
g74
(dp3528
g94
g95
ssg83
g3522
sg76
(lp3529
g414
asbag69
(g90
g71
NtRp3530
(dp3531
g74
(dp3532
g101
g102
ssg83
g3522
sg76
(lp3533
S':'
asbag69
(g90
g71
NtRp3534
(dp3535
g74
(dp3536
sg83
g3522
sg76
(lp3537
g69
(g70
g71
NtRp3538
(dp3539
g74
(dp3540
g82
I3
ssg83
g3534
sg76
(lp3541
S'/'
asbasbasbag69
(g85
g71
NtRp3542
(dp3543
g74
(dp3544
sg83
g3418
sg76
(lp3545
g69
(g90
g71
NtRp3546
(dp3547
g74
(dp3548
g94
g95
ssg83
g3542
sg76
(lp3549
g435
asbag69
(g90
g71
NtRp3550
(dp3551
g74
(dp3552
g101
g102
ssg83
g3542
sg76
(lp3553
S':'
asbag69
(g90
g71
NtRp3554
(dp3555
g74
(dp3556
sg83
g3542
sg76
(lp3557
g69
(g70
g71
NtRp3558
(dp3559
g74
(dp3560
g82
I3
ssg83
g3554
sg76
(lp3561
S''
asbasbasbag69
(g85
g71
NtRp3562
(dp3563
g74
(dp3564
sg83
g3418
sg76
(lp3565
g69
(g90
g71
NtRp3566
(dp3567
g74
(dp3568
g94
g95
ssg83
g3562
sg76
(lp3569
g456
asbag69
(g90
g71
NtRp3570
(dp3571
g74
(dp3572
g101
g102
ssg83
g3562
sg76
(lp3573
S':'
asbag69
(g90
g71
NtRp3574
(dp3575
g74
(dp3576
sg83
g3562
sg76
(lp3577
g69
(g70
g71
NtRp3578
(dp3579
g74
(dp3580
g82
I3
ssg83
g3574
sg76
(lp3581
S''
asbasbasbasbasbasbasbasbasbasbasbag69
(g85
g71
NtRp3582
(dp3583
g74
(dp3584
sg83
g3348
sg76
(lp3585
g69
(g90
g71
NtRp3586
(dp3587
g74
(dp3588
g94
g95
ssg83
g3582
sg76
(lp3589
S'delimiters'
p3590
asbag69
(g90
g71
NtRp3591
(dp3592
g74
(dp3593
g101
g102
ssg83
g3582
sg76
(lp3594
S':'
asbag69
(g90
g71
NtRp3595
(dp3596
g74
(dp3597
sg83
g3582
sg76
(lp3598
g69
(g70
g71
NtRp3599
(dp3600
g74
(dp3601
g82
I5
ssg83
g3595
sg76
(lp3602
g69
(g78
g71
NtRp3603
(dp3604
g74
(dp3605
g82
I4
ssg83
Nsg76
(lp3606
g69
(g85
g71
NtRp3607
(dp3608
g74
(dp3609
sg83
g3603
sg76
(lp3610
g69
(g90
g71
NtRp3611
(dp3612
g74
(dp3613
sg83
g3607
sg76
(lp3614
g69
(g70
g71
NtRp3615
(dp3616
g74
(dp3617
g82
I4
ssg83
g3611
sg76
(lp3618
S'{{'
p3619
asbasbasbag69
(g85
g71
NtRp3620
(dp3621
g74
(dp3622
sg83
g3603
sg76
(lp3623
g69
(g90
g71
NtRp3624
(dp3625
g74
(dp3626
sg83
g3620
sg76
(lp3627
g69
(g70
g71
NtRp3628
(dp3629
g74
(dp3630
g82
I4
ssg83
g3624
sg76
(lp3631
S'}}'
p3632
asbasbasbasbasbasbasbag69
(g85
g71
NtRp3633
(dp3634
g74
(dp3635
sg83
g3348
sg76
(lp3636
g69
(g90
g71
NtRp3637
(dp3638
g74
(dp3639
g94
g95
ssg83
g3633
sg76
(lp3640
S'files'
p3641
asbag69
(g90
g71
NtRp3642
(dp3643
g74
(dp3644
g101
g102
ssg83
g3633
sg76
(lp3645
S':'
asbag69
(g90
g71
NtRp3646
(dp3647
g74
(dp3648
sg83
g3633
sg76
(lp3649
g69
(g70
g71
NtRp3650
(dp3651
g74
(dp3652
g82
I5
ssg83
g3646
sg76
(lp3653
g69
(g78
g71
NtRp3654
(dp3655
g74
(dp3656
g82
I4
ssg83
Nsg76
(lp3657
sbasbasbasbag69
(g85
g71
NtRp3658
(dp3659
g74
(dp3660
sg83
g3348
sg76
(lp3661
g69
(g90
g71
NtRp3662
(dp3663
g74
(dp3664
g94
g95
ssg83
g3658
sg76
(lp3665
S'flash'
p3666
asbag69
(g90
g71
NtRp3667
(dp3668
g74
(dp3669
g101
g102
ssg83
g3658
sg76
(lp3670
S':'
asbag69
(g90
g71
NtRp3671
(dp3672
g74
(dp3673
sg83
g3658
sg76
(lp3674
g69
(g70
g71
NtRp3675
(dp3676
g74
(dp3677
g82
I5
ssg83
g3671
sg76
(lp3678
S''
asbasbasbag69
(g85
g71
NtRp3679
(dp3680
g74
(dp3681
sg83
g3348
sg76
(lp3682
g69
(g90
g71
NtRp3683
(dp3684
g74
(dp3685
g94
g95
ssg83
g3679
sg76
(lp3686
S'generic_patterns'
p3687
asbag69
(g90
g71
NtRp3688
(dp3689
g74
(dp3690
g101
g102
ssg83
g3679
sg76
(lp3691
S':'
asbag69
(g90
g71
NtRp3692
(dp3693
g74
(dp3694
sg83
g3679
sg76
(lp3695
g69
(g70
g71
NtRp3696
(dp3697
g74
(dp3698
g82
I5
ssg83
g3692
sg76
(lp3699
g69
(g78
g71
NtRp3700
(dp3701
g74
(dp3702
g82
I4
ssg83
Nsg76
(lp3703
g69
(g85
g71
NtRp3704
(dp3705
g74
(dp3706
sg83
g3700
sg76
(lp3707
g69
(g90
g71
NtRp3708
(dp3709
g74
(dp3710
sg83
g3704
sg76
(lp3711
g69
(g70
g71
NtRp3712
(dp3713
g74
(dp3714
g82
I4
ssg83
g3708
sg76
(lp3715
S'*'
asbasbasbasbasbasbasbag69
(g85
g71
NtRp3716
(dp3717
g74
(dp3718
sg83
g3348
sg76
(lp3719
g69
(g90
g71
NtRp3720
(dp3721
g74
(dp3722
g94
g95
ssg83
g3716
sg76
(lp3723
S'headers'
p3724
asbag69
(g90
g71
NtRp3725
(dp3726
g74
(dp3727
g101
g102
ssg83
g3716
sg76
(lp3728
S':'
asbag69
(g90
g71
NtRp3729
(dp3730
g74
(dp3731
sg83
g3716
sg76
(lp3732
g69
(g70
g71
NtRp3733
(dp3734
g74
(dp3735
g82
I5
ssg83
g3729
sg76
(lp3736
g69
(g78
g71
NtRp3737
(dp3738
g74
(dp3739
g82
I4
ssg83
Nsg76
(lp3740
g69
(g85
g71
NtRp3741
(dp3742
g74
(dp3743
sg83
g3737
sg76
(lp3744
g69
(g90
g71
NtRp3745
(dp3746
g74
(dp3747
g94
g95
ssg83
g3741
sg76
(lp3748
S'Cache-Control'
p3749
asbag69
(g90
g71
NtRp3750
(dp3751
g74
(dp3752
g101
g102
ssg83
g3741
sg76
(lp3753
S':'
asbag69
(g90
g71
NtRp3754
(dp3755
g74
(dp3756
sg83
g3741
sg76
(lp3757
g69
(g70
g71
NtRp3758
(dp3759
g74
(dp3760
g82
I4
ssg83
g3754
sg76
(lp3761
S'no-store, no-cache, must-revalidate, post-check=0, pre-check=0'
p3762
asbasbasbag69
(g85
g71
NtRp3763
(dp3764
g74
(dp3765
sg83
g3737
sg76
(lp3766
g69
(g90
g71
NtRp3767
(dp3768
g74
(dp3769
g94
g95
ssg83
g3763
sg76
(lp3770
S'Content-Type'
p3771
asbag69
(g90
g71
NtRp3772
(dp3773
g74
(dp3774
g101
g102
ssg83
g3763
sg76
(lp3775
S':'
asbag69
(g90
g71
NtRp3776
(dp3777
g74
(dp3778
sg83
g3763
sg76
(lp3779
g69
(g70
g71
NtRp3780
(dp3781
g74
(dp3782
g82
I4
ssg83
g3776
sg76
(lp3783
S'application/json; charset=utf-8'
p3784
asbasbasbag69
(g85
g71
NtRp3785
(dp3786
g74
(dp3787
sg83
g3737
sg76
(lp3788
g69
(g90
g71
NtRp3789
(dp3790
g74
(dp3791
g94
g95
ssg83
g3785
sg76
(lp3792
S'Expires'
p3793
asbag69
(g90
g71
NtRp3794
(dp3795
g74
(dp3796
g101
g102
ssg83
g3785
sg76
(lp3797
S':'
asbag69
(g90
g71
NtRp3798
(dp3799
g74
(dp3800
sg83
g3785
sg76
(lp3801
g69
(g70
g71
NtRp3802
(dp3803
g74
(dp3804
g82
I4
ssg83
g3798
sg76
(lp3805
S'Tue, 31 Jul 2012 06:38:47 GMT'
p3806
asbasbasbag69
(g85
g71
NtRp3807
(dp3808
g74
(dp3809
sg83
g3737
sg76
(lp3810
g69
(g90
g71
NtRp3811
(dp3812
g74
(dp3813
g94
g95
ssg83
g3807
sg76
(lp3814
S'Pragma'
p3815
asbag69
(g90
g71
NtRp3816
(dp3817
g74
(dp3818
g101
g102
ssg83
g3807
sg76
(lp3819
S':'
asbag69
(g90
g71
NtRp3820
(dp3821
g74
(dp3822
sg83
g3807
sg76
(lp3823
g69
(g70
g71
NtRp3824
(dp3825
g74
(dp3826
g82
I4
ssg83
g3820
sg76
(lp3827
S'no-cache'
p3828
asbasbasbag69
(g85
g71
NtRp3829
(dp3830
g74
(dp3831
sg83
g3737
sg76
(lp3832
g69
(g90
g71
NtRp3833
(dp3834
g74
(dp3835
g94
g95
ssg83
g3829
sg76
(lp3836
S'X-Powered-By'
p3837
asbag69
(g90
g71
NtRp3838
(dp3839
g74
(dp3840
g101
g102
ssg83
g3829
sg76
(lp3841
S':'
asbag69
(g90
g71
NtRp3842
(dp3843
g74
(dp3844
sg83
g3829
sg76
(lp3845
g69
(g70
g71
NtRp3846
(dp3847
g74
(dp3848
g82
I4
ssg83
g3842
sg76
(lp3849
S'web2py'
p3850
asbasbasbasbasbasbasbag69
(g85
g71
NtRp3851
(dp3852
g74
(dp3853
sg83
g3348
sg76
(lp3854
g69
(g90
g71
NtRp3855
(dp3856
g74
(dp3857
g94
g95
ssg83
g3851
sg76
(lp3858
S'menu'
p3859
asbag69
(g90
g71
NtRp3860
(dp3861
g74
(dp3862
g101
g102
ssg83
g3851
sg76
(lp3863
S':'
asbag69
(g90
g71
NtRp3864
(dp3865
g74
(dp3866
sg83
g3851
sg76
(lp3867
g69
(g70
g71
NtRp3868
(dp3869
g74
(dp3870
g82
I5
ssg83
g3864
sg76
(lp3871
g69
(g78
g71
NtRp3872
(dp3873
g74
(dp3874
g82
I4
ssg83
Nsg76
(lp3875
g69
(g85
g71
NtRp3876
(dp3877
g74
(dp3878
sg83
g3872
sg76
(lp3879
g69
(g90
g71
NtRp3880
(dp3881
g74
(dp3882
sg83
g3876
sg76
(lp3883
g69
(g70
g71
NtRp3884
(dp3885
g74
(dp3886
g82
I4
ssg83
g3880
sg76
(lp3887
g69
(g78
g71
NtRp3888
(dp3889
g74
(dp3890
g82
I3
ssg83
Nsg76
(lp3891
g69
(g85
g71
NtRp3892
(dp3893
g74
(dp3894
sg83
g3888
sg76
(lp3895
g69
(g90
g71
NtRp3896
(dp3897
g74
(dp3898
sg83
g3892
sg76
(lp3899
g69
(g70
g71
NtRp3900
(dp3901
g74
(dp3902
g82
I3
ssg83
g3896
sg76
(lp3903
cgluon.languages
lazyT_unpickle
p3904
(S't\x04\x00\x00\x00Home'
tRp3905
asbasbasbag69
(g85
g71
NtRp3906
(dp3907
g74
(dp3908
sg83
g3888
sg76
(lp3909
g69
(g90
g71
NtRp3910
(dp3911
g74
(dp3912
sg83
g3906
sg76
(lp3913
g69
(g70
g71
NtRp3914
(dp3915
g74
(dp3916
g82
I3
ssg83
g3910
sg76
(lp3917
g112
asbasbasbag69
(g85
g71
NtRp3918
(dp3919
g74
(dp3920
sg83
g3888
sg76
(lp3921
g69
(g90
g71
NtRp3922
(dp3923
g74
(dp3924
sg83
g3918
sg76
(lp3925
g69
(g70
g71
NtRp3926
(dp3927
g74
(dp3928
g82
I3
ssg83
g3922
sg76
(lp3929
S'/igor/default/index'
p3930
asbasbasbag69
(g85
g71
NtRp3931
(dp3932
g74
(dp3933
sg83
g3888
sg76
(lp3934
g69
(g90
g71
NtRp3935
(dp3936
g74
(dp3937
sg83
g3931
sg76
(lp3938
g69
(g70
g71
NtRp3939
(dp3940
g74
(dp3941
g82
I3
ssg83
g3935
sg76
(lp3942
g69
(g78
g71
NtRp3943
(dp3944
g74
(dp3945
g82
I2
ssg83
Nsg76
(lp3946
sbasbasbasbasbasbasbasbag69
(g85
g71
NtRp3947
(dp3948
g74
(dp3949
sg83
g3872
sg76
(lp3950
g69
(g90
g71
NtRp3951
(dp3952
g74
(dp3953
sg83
g3947
sg76
(lp3954
g69
(g70
g71
NtRp3955
(dp3956
g74
(dp3957
g82
I4
ssg83
g3951
sg76
(lp3958
g69
(g78
g71
NtRp3959
(dp3960
g74
(dp3961
g82
I3
ssg83
Nsg76
(lp3962
g69
(g85
g71
NtRp3963
(dp3964
g74
(dp3965
sg83
g3959
sg76
(lp3966
g69
(g90
g71
NtRp3967
(dp3968
g74
(dp3969
sg83
g3963
sg76
(lp3970
g69
(g70
g71
NtRp3971
(dp3972
g74
(dp3973
g82
I3
ssg83
g3967
sg76
(lp3974
g69
(cgluon.html
SPAN
p3975
g71
NtRp3976
(dp3977
g74
(dp3978
g94
S'color:yellow'
p3979
ssg83
Nsg76
(lp3980
g3850
asbasbasbasbag69
(g85
g71
NtRp3981
(dp3982
g74
(dp3983
sg83
g3959
sg76
(lp3984
g69
(g90
g71
NtRp3985
(dp3986
g74
(dp3987
sg83
g3981
sg76
(lp3988
g69
(g70
g71
NtRp3989
(dp3990
g74
(dp3991
g82
I3
ssg83
g3985
sg76
(lp3992
g112
asbasbasbag69
(g85
g71
NtRp3993
(dp3994
g74
(dp3995
sg83
g3959
sg76
(lp3996
g69
(g90
g71
NtRp3997
(dp3998
g74
(dp3999
sg83
g3993
sg76
(lp4000
g69
(g70
g71
NtRp4001
(dp4002
g74
(dp4003
g82
I3
ssg83
g3997
sg76
(lp4004
S'None'
p4005
asbasbasbag69
(g85
g71
NtRp4006
(dp4007
g74
(dp4008
sg83
g3959
sg76
(lp4009
g69
(g90
g71
NtRp4010
(dp4011
g74
(dp4012
sg83
g4006
sg76
(lp4013
g69
(g70
g71
NtRp4014
(dp4015
g74
(dp4016
g82
I3
ssg83
g4010
sg76
(lp4017
g69
(g78
g71
NtRp4018
(dp4019
g74
(dp4020
g82
I2
ssg83
Nsg76
(lp4021
g69
(g85
g71
NtRp4022
(dp4023
g74
(dp4024
sg83
g4018
sg76
(lp4025
g69
(g90
g71
NtRp4026
(dp4027
g74
(dp4028
sg83
g4022
sg76
(lp4029
g69
(g70
g71
NtRp4030
(dp4031
g74
(dp4032
g82
I2
ssg83
g4026
sg76
(lp4033
g69
(g78
g71
NtRp4034
(dp4035
g74
(dp4036
g82
I1
ssg83
Nsg76
(lp4037
g69
(g85
g71
NtRp4038
(dp4039
g74
(dp4040
sg83
g4034
sg76
(lp4041
g69
(g90
g71
NtRp4042
(dp4043
g74
(dp4044
sg83
g4038
sg76
(lp4045
g69
(g70
g71
NtRp4046
(dp4047
g74
(dp4048
g82
I1
ssg83
g4042
sg76
(lp4049
g3904
(S's\x08\x00\x00\x00My Sites'
tRp4050
asbasbasbag69
(g85
g71
NtRp4051
(dp4052
g74
(dp4053
sg83
g4034
sg76
(lp4054
g69
(g90
g71
NtRp4055
(dp4056
g74
(dp4057
sg83
g4051
sg76
(lp4058
g69
(g70
g71
NtRp4059
(dp4060
g74
(dp4061
g82
I1
ssg83
g4055
sg76
(lp4062
I00
asbasbasbag69
(g85
g71
NtRp4063
(dp4064
g74
(dp4065
sg83
g4034
sg76
(lp4066
g69
(g90
g71
NtRp4067
(dp4068
g74
(dp4069
sg83
g4063
sg76
(lp4070
g69
(g70
g71
NtRp4071
(dp4072
g74
(dp4073
g82
I1
ssg83
g4067
sg76
(lp4074
S'/admin/default/site'
p4075
asbasbasbasbasbasbasbag69
(g85
g71
NtRp4076
(dp4077
g74
(dp4078
sg83
g4018
sg76
(lp4079
g69
(g90
g71
NtRp4080
(dp4081
g74
(dp4082
sg83
g4076
sg76
(lp4083
g69
(g70
g71
NtRp4084
(dp4085
g74
(dp4086
g82
I2
ssg83
g4080
sg76
(lp4087
g69
(g78
g71
NtRp4088
(dp4089
g74
(dp4090
g82
I1
ssg83
Nsg76
(lp4091
g69
(g85
g71
NtRp4092
(dp4093
g74
(dp4094
sg83
g4088
sg76
(lp4095
g69
(g90
g71
NtRp4096
(dp4097
g74
(dp4098
sg83
g4092
sg76
(lp4099
g69
(g70
g71
NtRp4100
(dp4101
g74
(dp4102
g82
I1
ssg83
g4096
sg76
(lp4103
g3904
(S's\x08\x00\x00\x00This App'
tRp4104
asbasbasbag69
(g85
g71
NtRp4105
(dp4106
g74
(dp4107
sg83
g4088
sg76
(lp4108
g69
(g90
g71
NtRp4109
(dp4110
g74
(dp4111
sg83
g4105
sg76
(lp4112
g69
(g70
g71
NtRp4113
(dp4114
g74
(dp4115
g82
I1
ssg83
g4109
sg76
(lp4116
I00
asbasbasbag69
(g85
g71
NtRp4117
(dp4118
g74
(dp4119
sg83
g4088
sg76
(lp4120
g69
(g90
g71
NtRp4121
(dp4122
g74
(dp4123
sg83
g4117
sg76
(lp4124
g69
(g70
g71
NtRp4125
(dp4126
g74
(dp4127
g82
I1
ssg83
g4121
sg76
(lp4128
S'/admin/default/design/igor'
p4129
asbasbasbag69
(g85
g71
NtRp4130
(dp4131
g74
(dp4132
sg83
g4088
sg76
(lp4133
g69
(g90
g71
NtRp4134
(dp4135
g74
(dp4136
sg83
g4130
sg76
(lp4137
g69
(g70
g71
NtRp4138
(dp4139
g74
(dp4140
g82
I1
ssg83
g4134
sg76
(lp4141
(lp4142
(g3904
(S't\n\x00\x00\x00Controller'
tRp4143
I00
S'/admin/default/edit/igor/controllers/user.py'
tp4144
a(g3904
(S't\x04\x00\x00\x00View'
tRp4145
I00
S'/admin/default/edit/igor/views/user/call.html'
tp4146
a(g3904
(S't\x06\x00\x00\x00Layout'
tRp4147
I00
S'/admin/default/edit/igor/views/layout.html'
tp4148
a(g3904
(S't\n\x00\x00\x00Stylesheet'
tRp4149
I00
S'/admin/default/edit/igor/static/css/web2py.css'
tp4150
a(g3904
(S's\x08\x00\x00\x00DB Model'
tRp4151
I00
S'/admin/default/edit/igor/models/db.py'
tp4152
a(g3904
(S's\n\x00\x00\x00Menu Model'
tRp4153
I00
S'/admin/default/edit/igor/models/menu.py'
tp4154
a(g3904
(S't\x08\x00\x00\x00Database'
tRp4155
I00
S'/igor/appadmin/index'
tp4156
a(g3904
(S't\x06\x00\x00\x00Errors'
tRp4157
I00
S'/admin/default/errors/igor'
tp4158
a(g3904
(S't\x05\x00\x00\x00About'
tRp4159
I00
S'/admin/default/about/igor'
tp4160
aasbasbasbasbasbasbasbag69
(g85
g71
NtRp4161
(dp4162
g74
(dp4163
sg83
g4018
sg76
(lp4164
g69
(g90
g71
NtRp4165
(dp4166
g74
(dp4167
sg83
g4161
sg76
(lp4168
g69
(g70
g71
NtRp4169
(dp4170
g74
(dp4171
g82
I2
ssg83
g4165
sg76
(lp4172
g69
(g78
g71
NtRp4173
(dp4174
g74
(dp4175
g82
I1
ssg83
Nsg76
(lp4176
g69
(g85
g71
NtRp4177
(dp4178
g74
(dp4179
sg83
g4173
sg76
(lp4180
g69
(g90
g71
NtRp4181
(dp4182
g74
(dp4183
sg83
g4177
sg76
(lp4184
g69
(g70
g71
NtRp4185
(dp4186
g74
(dp4187
g82
I1
ssg83
g4181
sg76
(lp4188
S'web2py.com'
p4189
asbasbasbag69
(g85
g71
NtRp4190
(dp4191
g74
(dp4192
sg83
g4173
sg76
(lp4193
g69
(g90
g71
NtRp4194
(dp4195
g74
(dp4196
sg83
g4190
sg76
(lp4197
g69
(g70
g71
NtRp4198
(dp4199
g74
(dp4200
g82
I1
ssg83
g4194
sg76
(lp4201
I00
asbasbasbag69
(g85
g71
NtRp4202
(dp4203
g74
(dp4204
sg83
g4173
sg76
(lp4205
g69
(g90
g71
NtRp4206
(dp4207
g74
(dp4208
sg83
g4202
sg76
(lp4209
g69
(g70
g71
NtRp4210
(dp4211
g74
(dp4212
g82
I1
ssg83
g4206
sg76
(lp4213
S'http://www.web2py.com'
p4214
asbasbasbag69
(g85
g71
NtRp4215
(dp4216
g74
(dp4217
sg83
g4173
sg76
(lp4218
g69
(g90
g71
NtRp4219
(dp4220
g74
(dp4221
sg83
g4215
sg76
(lp4222
g69
(g70
g71
NtRp4223
(dp4224
g74
(dp4225
g82
I1
ssg83
g4219
sg76
(lp4226
(lp4227
(g3904
(S't\x08\x00\x00\x00Download'
tRp4228
I00
S'http://www.web2py.com/examples/default/download'
p4229
tp4230
a(g3904
(S't\x07\x00\x00\x00Support'
tRp4231
I00
S'http://www.web2py.com/examples/default/support'
p4232
tp4233
a(g3904
(S't\x04\x00\x00\x00Demo'
tRp4234
I00
S'http://web2py.com/demo_admin'
p4235
tp4236
a(g3904
(S's\x0e\x00\x00\x00Quick Examples'
tRp4237
I00
S'http://web2py.com/examples/default/examples'
p4238
tp4239
a(g3904
(S't\x03\x00\x00\x00FAQ'
tRp4240
I00
S'http://web2py.com/AlterEgo'
p4241
tp4242
a(g3904
(S't\x06\x00\x00\x00Videos'
tRp4243
I00
S'http://www.web2py.com/examples/default/videos/'
p4244
tp4245
a(g3904
(S's\x11\x00\x00\x00Free Applications'
tRp4246
I00
S'http://web2py.com/appliances'
p4247
tp4248
a(g3904
(S't\x07\x00\x00\x00Plugins'
tRp4249
I00
S'http://web2py.com/plugins'
p4250
tp4251
a(g3904
(S't\x07\x00\x00\x00Layouts'
tRp4252
I00
S'http://web2py.com/layouts'
p4253
tp4254
a(g3904
(S't\x07\x00\x00\x00Recipes'
tRp4255
I00
S'http://web2pyslices.com/'
p4256
tp4257
a(g3904
(S't\x08\x00\x00\x00Semantic'
tRp4258
I00
S'http://web2py.com/semantic'
p4259
tp4260
aasbasbasbasbasbasbasbag69
(g85
g71
NtRp4261
(dp4262
g74
(dp4263
sg83
g4018
sg76
(lp4264
g69
(g90
g71
NtRp4265
(dp4266
g74
(dp4267
sg83
g4261
sg76
(lp4268
g69
(g70
g71
NtRp4269
(dp4270
g74
(dp4271
g82
I2
ssg83
g4265
sg76
(lp4272
g69
(g78
g71
NtRp4273
(dp4274
g74
(dp4275
g82
I1
ssg83
Nsg76
(lp4276
g69
(g85
g71
NtRp4277
(dp4278
g74
(dp4279
sg83
g4273
sg76
(lp4280
g69
(g90
g71
NtRp4281
(dp4282
g74
(dp4283
sg83
g4277
sg76
(lp4284
g69
(g70
g71
NtRp4285
(dp4286
g74
(dp4287
g82
I1
ssg83
g4281
sg76
(lp4288
g3904
(S't\r\x00\x00\x00Documentation'
tRp4289
asbasbasbag69
(g85
g71
NtRp4290
(dp4291
g74
(dp4292
sg83
g4273
sg76
(lp4293
g69
(g90
g71
NtRp4294
(dp4295
g74
(dp4296
sg83
g4290
sg76
(lp4297
g69
(g70
g71
NtRp4298
(dp4299
g74
(dp4300
g82
I1
ssg83
g4294
sg76
(lp4301
I00
asbasbasbag69
(g85
g71
NtRp4302
(dp4303
g74
(dp4304
sg83
g4273
sg76
(lp4305
g69
(g90
g71
NtRp4306
(dp4307
g74
(dp4308
sg83
g4302
sg76
(lp4309
g69
(g70
g71
NtRp4310
(dp4311
g74
(dp4312
g82
I1
ssg83
g4306
sg76
(lp4313
S'http://www.web2py.com/book'
p4314
asbasbasbag69
(g85
g71
NtRp4315
(dp4316
g74
(dp4317
sg83
g4273
sg76
(lp4318
g69
(g90
g71
NtRp4319
(dp4320
g74
(dp4321
sg83
g4315
sg76
(lp4322
g69
(g70
g71
NtRp4323
(dp4324
g74
(dp4325
g82
I1
ssg83
g4319
sg76
(lp4326
(lp4327
(g3904
(S't\x07\x00\x00\x00Preface'
tRp4328
I00
S'http://www.web2py.com/book/default/chapter/00'
p4329
tp4330
a(g3904
(S't\x0c\x00\x00\x00Introduction'
tRp4331
I00
S'http://www.web2py.com/book/default/chapter/01'
p4332
tp4333
a(g3904
(S't\x06\x00\x00\x00Python'
tRp4334
I00
S'http://www.web2py.com/book/default/chapter/02'
p4335
tp4336
a(g3904
(S't\x08\x00\x00\x00Overview'
tRp4337
I00
S'http://www.web2py.com/book/default/chapter/03'
p4338
tp4339
a(g3904
(S's\x08\x00\x00\x00The Core'
tRp4340
I00
S'http://www.web2py.com/book/default/chapter/04'
p4341
tp4342
a(g3904
(S's\t\x00\x00\x00The Views'
tRp4343
I00
S'http://www.web2py.com/book/default/chapter/05'
p4344
tp4345
a(g3904
(S't\x08\x00\x00\x00Database'
tRp4346
I00
S'http://www.web2py.com/book/default/chapter/06'
p4347
tp4348
a(g3904
(S's\x14\x00\x00\x00Forms and Validators'
tRp4349
I00
S'http://www.web2py.com/book/default/chapter/07'
p4350
tp4351
a(g3904
(S's\r\x00\x00\x00Email and SMS'
tRp4352
I00
S'http://www.web2py.com/book/default/chapter/08'
p4353
tp4354
a(g3904
(S's\x0e\x00\x00\x00Access Control'
tRp4355
I00
S'http://www.web2py.com/book/default/chapter/09'
p4356
tp4357
a(g3904
(S't\x08\x00\x00\x00Services'
tRp4358
I00
S'http://www.web2py.com/book/default/chapter/10'
p4359
tp4360
a(g3904
(S's\x0c\x00\x00\x00Ajax Recipes'
tRp4361
I00
S'http://www.web2py.com/book/default/chapter/11'
p4362
tp4363
a(g3904
(S's\x16\x00\x00\x00Components and Plugins'
tRp4364
I00
S'http://www.web2py.com/book/default/chapter/12'
p4365
tp4366
a(g3904
(S's\x12\x00\x00\x00Deployment Recipes'
tRp4367
I00
S'http://www.web2py.com/book/default/chapter/13'
p4368
tp4369
a(g3904
(S's\r\x00\x00\x00Other Recipes'
tRp4370
I00
S'http://www.web2py.com/book/default/chapter/14'
p4371
tp4372
a(g3904
(S's\r\x00\x00\x00Buy this book'
tRp4373
I00
S'http://stores.lulu.com/web2py'
p4374
tp4375
aasbasbasbasbasbasbasbag69
(g85
g71
NtRp4376
(dp4377
g74
(dp4378
sg83
g4018
sg76
(lp4379
g69
(g90
g71
NtRp4380
(dp4381
g74
(dp4382
sg83
g4376
sg76
(lp4383
g69
(g70
g71
NtRp4384
(dp4385
g74
(dp4386
g82
I2
ssg83
g4380
sg76
(lp4387
g69
(g78
g71
NtRp4388
(dp4389
g74
(dp4390
g82
I1
ssg83
Nsg76
(lp4391
g69
(g85
g71
NtRp4392
(dp4393
g74
(dp4394
sg83
g4388
sg76
(lp4395
g69
(g90
g71
NtRp4396
(dp4397
g74
(dp4398
sg83
g4392
sg76
(lp4399
g69
(g70
g71
NtRp4400
(dp4401
g74
(dp4402
g82
I1
ssg83
g4396
sg76
(lp4403
g3904
(S't\t\x00\x00\x00Community'
tRp4404
asbasbasbag69
(g85
g71
NtRp4405
(dp4406
g74
(dp4407
sg83
g4388
sg76
(lp4408
g69
(g90
g71
NtRp4409
(dp4410
g74
(dp4411
sg83
g4405
sg76
(lp4412
g69
(g70
g71
NtRp4413
(dp4414
g74
(dp4415
g82
I1
ssg83
g4409
sg76
(lp4416
I00
asbasbasbag69
(g85
g71
NtRp4417
(dp4418
g74
(dp4419
sg83
g4388
sg76
(lp4420
g69
(g90
g71
NtRp4421
(dp4422
g74
(dp4423
sg83
g4417
sg76
(lp4424
g69
(g70
g71
NtRp4425
(dp4426
g74
(dp4427
g82
I1
ssg83
g4421
sg76
(lp4428
Nasbasbasbag69
(g85
g71
NtRp4429
(dp4430
g74
(dp4431
sg83
g4388
sg76
(lp4432
g69
(g90
g71
NtRp4433
(dp4434
g74
(dp4435
sg83
g4429
sg76
(lp4436
g69
(g70
g71
NtRp4437
(dp4438
g74
(dp4439
g82
I1
ssg83
g4433
sg76
(lp4440
(lp4441
(g3904
(S't\x06\x00\x00\x00Groups'
tRp4442
I00
S'http://www.web2py.com/examples/default/usergroups'
p4443
tp4444
a(g3904
(S't\x07\x00\x00\x00Twitter'
tRp4445
I00
S'http://twitter.com/web2py'
p4446
tp4447
a(g3904
(S's\t\x00\x00\x00Live Chat'
tRp4448
I00
S'http://webchat.freenode.net/?channels=web2py'
p4449
tp4450
aasbasbasbasbasbasbasbag69
(g85
g71
NtRp4451
(dp4452
g74
(dp4453
sg83
g4018
sg76
(lp4454
g69
(g90
g71
NtRp4455
(dp4456
g74
(dp4457
sg83
g4451
sg76
(lp4458
g69
(g70
g71
NtRp4459
(dp4460
g74
(dp4461
g82
I2
ssg83
g4455
sg76
(lp4462
g69
(g78
g71
NtRp4463
(dp4464
g74
(dp4465
g82
I1
ssg83
Nsg76
(lp4466
g69
(g85
g71
NtRp4467
(dp4468
g74
(dp4469
sg83
g4463
sg76
(lp4470
g69
(g90
g71
NtRp4471
(dp4472
g74
(dp4473
sg83
g4467
sg76
(lp4474
g69
(g70
g71
NtRp4475
(dp4476
g74
(dp4477
g82
I1
ssg83
g4471
sg76
(lp4478
g3904
(S't\x07\x00\x00\x00Plugins'
tRp4479
asbasbasbag69
(g85
g71
NtRp4480
(dp4481
g74
(dp4482
sg83
g4463
sg76
(lp4483
g69
(g90
g71
NtRp4484
(dp4485
g74
(dp4486
sg83
g4480
sg76
(lp4487
g69
(g70
g71
NtRp4488
(dp4489
g74
(dp4490
g82
I1
ssg83
g4484
sg76
(lp4491
I00
asbasbasbag69
(g85
g71
NtRp4492
(dp4493
g74
(dp4494
sg83
g4463
sg76
(lp4495
g69
(g90
g71
NtRp4496
(dp4497
g74
(dp4498
sg83
g4492
sg76
(lp4499
g69
(g70
g71
NtRp4500
(dp4501
g74
(dp4502
g82
I1
ssg83
g4496
sg76
(lp4503
Nasbasbasbag69
(g85
g71
NtRp4504
(dp4505
g74
(dp4506
sg83
g4463
sg76
(lp4507
g69
(g90
g71
NtRp4508
(dp4509
g74
(dp4510
sg83
g4504
sg76
(lp4511
g69
(g70
g71
NtRp4512
(dp4513
g74
(dp4514
g82
I1
ssg83
g4508
sg76
(lp4515
(lp4516
(S'plugin_wiki'
p4517
I00
S'http://web2py.com/examples/default/download'
p4518
tp4519
a(g3904
(S's\r\x00\x00\x00Other Plugins'
tRp4520
I00
g4250
tp4521
a(g3904
(S's\x0e\x00\x00\x00Layout Plugins'
tRp4522
I00
g4253
tp4523
aasbasbasbasbasbasbasbasbasbasbasbasbasbasbasbasbasbasbasbag69
(g85
g71
NtRp4524
(dp4525
g74
(dp4526
sg83
g3348
sg76
(lp4527
g69
(g90
g71
NtRp4528
(dp4529
g74
(dp4530
g94
g95
ssg83
g4524
sg76
(lp4531
S'meta'
p4532
asbag69
(g90
g71
NtRp4533
(dp4534
g74
(dp4535
g101
g102
ssg83
g4524
sg76
(lp4536
S':'
asbag69
(g90
g71
NtRp4537
(dp4538
g74
(dp4539
sg83
g4524
sg76
(lp4540
g69
(g70
g71
NtRp4541
(dp4542
g74
(dp4543
g82
I5
ssg83
g4537
sg76
(lp4544
g69
(g78
g71
NtRp4545
(dp4546
g74
(dp4547
g82
I4
ssg83
Nsg76
(lp4548
g69
(g85
g71
NtRp4549
(dp4550
g74
(dp4551
sg83
g4545
sg76
(lp4552
g69
(g90
g71
NtRp4553
(dp4554
g74
(dp4555
g94
g95
ssg83
g4549
sg76
(lp4556
S'author'
p4557
asbag69
(g90
g71
NtRp4558
(dp4559
g74
(dp4560
g101
g102
ssg83
g4549
sg76
(lp4561
S':'
asbag69
(g90
g71
NtRp4562
(dp4563
g74
(dp4564
sg83
g4549
sg76
(lp4565
g69
(g70
g71
NtRp4566
(dp4567
g74
(dp4568
g82
I4
ssg83
g4562
sg76
(lp4569
S'Your Name <you@example.com>'
p4570
asbasbasbag69
(g85
g71
NtRp4571
(dp4572
g74
(dp4573
sg83
g4545
sg76
(lp4574
g69
(g90
g71
NtRp4575
(dp4576
g74
(dp4577
g94
g95
ssg83
g4571
sg76
(lp4578
S'copyright'
p4579
asbag69
(g90
g71
NtRp4580
(dp4581
g74
(dp4582
g101
g102
ssg83
g4571
sg76
(lp4583
S':'
asbag69
(g90
g71
NtRp4584
(dp4585
g74
(dp4586
sg83
g4571
sg76
(lp4587
g69
(g70
g71
NtRp4588
(dp4589
g74
(dp4590
g82
I4
ssg83
g4584
sg76
(lp4591
S'Copyright 2011'
p4592
asbasbasbag69
(g85
g71
NtRp4593
(dp4594
g74
(dp4595
sg83
g4545
sg76
(lp4596
g69
(g90
g71
NtRp4597
(dp4598
g74
(dp4599
g94
g95
ssg83
g4593
sg76
(lp4600
S'description'
p4601
asbag69
(g90
g71
NtRp4602
(dp4603
g74
(dp4604
g101
g102
ssg83
g4593
sg76
(lp4605
S':'
asbag69
(g90
g71
NtRp4606
(dp4607
g74
(dp4608
sg83
g4593
sg76
(lp4609
g69
(g70
g71
NtRp4610
(dp4611
g74
(dp4612
g82
I4
ssg83
g4606
sg76
(lp4613
S'a cool new app'
p4614
asbasbasbag69
(g85
g71
NtRp4615
(dp4616
g74
(dp4617
sg83
g4545
sg76
(lp4618
g69
(g90
g71
NtRp4619
(dp4620
g74
(dp4621
g94
g95
ssg83
g4615
sg76
(lp4622
S'generator'
p4623
asbag69
(g90
g71
NtRp4624
(dp4625
g74
(dp4626
g101
g102
ssg83
g4615
sg76
(lp4627
S':'
asbag69
(g90
g71
NtRp4628
(dp4629
g74
(dp4630
sg83
g4615
sg76
(lp4631
g69
(g70
g71
NtRp4632
(dp4633
g74
(dp4634
g82
I4
ssg83
g4628
sg76
(lp4635
S'Web2py Web Framework'
p4636
asbasbasbag69
(g85
g71
NtRp4637
(dp4638
g74
(dp4639
sg83
g4545
sg76
(lp4640
g69
(g90
g71
NtRp4641
(dp4642
g74
(dp4643
g94
g95
ssg83
g4637
sg76
(lp4644
S'keywords'
p4645
asbag69
(g90
g71
NtRp4646
(dp4647
g74
(dp4648
g101
g102
ssg83
g4637
sg76
(lp4649
S':'
asbag69
(g90
g71
NtRp4650
(dp4651
g74
(dp4652
sg83
g4637
sg76
(lp4653
g69
(g70
g71
NtRp4654
(dp4655
g74
(dp4656
g82
I4
ssg83
g4650
sg76
(lp4657
S'web2py, python, framework'
p4658
asbasbasbasbasbasbasbag69
(g85
g71
NtRp4659
(dp4660
g74
(dp4661
sg83
g3348
sg76
(lp4662
g69
(g90
g71
NtRp4663
(dp4664
g74
(dp4665
g94
g95
ssg83
g4659
sg76
(lp4666
S'postprocessing'
p4667
asbag69
(g90
g71
NtRp4668
(dp4669
g74
(dp4670
g101
g102
ssg83
g4659
sg76
(lp4671
S':'
asbag69
(g90
g71
NtRp4672
(dp4673
g74
(dp4674
sg83
g4659
sg76
(lp4675
g69
(g70
g71
NtRp4676
(dp4677
g74
(dp4678
g82
I5
ssg83
g4672
sg76
(lp4679
g69
(g78
g71
NtRp4680
(dp4681
g74
(dp4682
g82
I4
ssg83
Nsg76
(lp4683
sbasbasbasbag69
(g85
g71
NtRp4684
(dp4685
g74
(dp4686
sg83
g3348
sg76
(lp4687
g69
(g90
g71
NtRp4688
(dp4689
g74
(dp4690
g94
g95
ssg83
g4684
sg76
(lp4691
S'session_file'
p4692
asbag69
(g90
g71
NtRp4693
(dp4694
g74
(dp4695
g101
g102
ssg83
g4684
sg76
(lp4696
S':'
asbag69
(g90
g71
NtRp4697
(dp4698
g74
(dp4699
sg83
g4684
sg76
(lp4700
g69
(g70
g71
NtRp4701
(dp4702
g74
(dp4703
g82
I5
ssg83
g4697
sg76
(lp4704
S"<open file 'D:\\workspace\\CA\\IgoR\\C_Sources\\Server\\igor-assistant-ca-2012\\applications\\igor\\sessions\\127.0.0.1-a04fa524-60aa-4124-a73f-56d6938d7384', mode 'rb+' at 0x0000000005726B70>"
p4705
asbasbasbag69
(g85
g71
NtRp4706
(dp4707
g74
(dp4708
sg83
g3348
sg76
(lp4709
g69
(g90
g71
NtRp4710
(dp4711
g74
(dp4712
g94
g95
ssg83
g4706
sg76
(lp4713
S'session_filename'
p4714
asbag69
(g90
g71
NtRp4715
(dp4716
g74
(dp4717
g101
g102
ssg83
g4706
sg76
(lp4718
S':'
asbag69
(g90
g71
NtRp4719
(dp4720
g74
(dp4721
sg83
g4706
sg76
(lp4722
g69
(g70
g71
NtRp4723
(dp4724
g74
(dp4725
g82
I5
ssg83
g4719
sg76
(lp4726
S'D:\\workspace\\CA\\IgoR\\C_Sources\\Server\\igor-assistant-ca-2012\\applications\\igor\\sessions\\127.0.0.1-a04fa524-60aa-4124-a73f-56d6938d7384'
p4727
asbasbasbag69
(g85
g71
NtRp4728
(dp4729
g74
(dp4730
sg83
g3348
sg76
(lp4731
g69
(g90
g71
NtRp4732
(dp4733
g74
(dp4734
g94
g95
ssg83
g4728
sg76
(lp4735
S'session_id'
p4736
asbag69
(g90
g71
NtRp4737
(dp4738
g74
(dp4739
g101
g102
ssg83
g4728
sg76
(lp4740
S':'
asbag69
(g90
g71
NtRp4741
(dp4742
g74
(dp4743
sg83
g4728
sg76
(lp4744
g69
(g70
g71
NtRp4745
(dp4746
g74
(dp4747
g82
I5
ssg83
g4741
sg76
(lp4748
S'127.0.0.1-a04fa524-60aa-4124-a73f-56d6938d7384'
p4749
asbasbasbag69
(g85
g71
NtRp4750
(dp4751
g74
(dp4752
sg83
g3348
sg76
(lp4753
g69
(g90
g71
NtRp4754
(dp4755
g74
(dp4756
g94
g95
ssg83
g4750
sg76
(lp4757
S'session_id_name'
p4758
asbag69
(g90
g71
NtRp4759
(dp4760
g74
(dp4761
g101
g102
ssg83
g4750
sg76
(lp4762
S':'
asbag69
(g90
g71
NtRp4763
(dp4764
g74
(dp4765
sg83
g4750
sg76
(lp4766
g69
(g70
g71
NtRp4767
(dp4768
g74
(dp4769
g82
I5
ssg83
g4763
sg76
(lp4770
g3405
asbasbasbag69
(g85
g71
NtRp4771
(dp4772
g74
(dp4773
sg83
g3348
sg76
(lp4774
g69
(g90
g71
NtRp4775
(dp4776
g74
(dp4777
g94
g95
ssg83
g4771
sg76
(lp4778
S'session_locked'
p4779
asbag69
(g90
g71
NtRp4780
(dp4781
g74
(dp4782
g101
g102
ssg83
g4771
sg76
(lp4783
S':'
asbag69
(g90
g71
NtRp4784
(dp4785
g74
(dp4786
sg83
g4771
sg76
(lp4787
g69
(g70
g71
NtRp4788
(dp4789
g74
(dp4790
g82
I5
ssg83
g4784
sg76
(lp4791
g1708
asbasbasbag69
(g85
g71
NtRp4792
(dp4793
g74
(dp4794
sg83
g3348
sg76
(lp4795
g69
(g90
g71
NtRp4796
(dp4797
g74
(dp4798
g94
g95
ssg83
g4792
sg76
(lp4799
S'session_new'
p4800
asbag69
(g90
g71
NtRp4801
(dp4802
g74
(dp4803
g101
g102
ssg83
g4792
sg76
(lp4804
S':'
asbag69
(g90
g71
NtRp4805
(dp4806
g74
(dp4807
sg83
g4792
sg76
(lp4808
g69
(g70
g71
NtRp4809
(dp4810
g74
(dp4811
g82
I5
ssg83
g4805
sg76
(lp4812
g112
asbasbasbag69
(g85
g71
NtRp4813
(dp4814
g74
(dp4815
sg83
g3348
sg76
(lp4816
g69
(g90
g71
NtRp4817
(dp4818
g74
(dp4819
g94
g95
ssg83
g4813
sg76
(lp4820
S'status'
p4821
asbag69
(g90
g71
NtRp4822
(dp4823
g74
(dp4824
g101
g102
ssg83
g4813
sg76
(lp4825
S':'
asbag69
(g90
g71
NtRp4826
(dp4827
g74
(dp4828
sg83
g4813
sg76
(lp4829
g69
(g70
g71
NtRp4830
(dp4831
g74
(dp4832
g82
I5
ssg83
g4826
sg76
(lp4833
S'200'
p4834
asbasbasbag69
(g85
g71
NtRp4835
(dp4836
g74
(dp4837
sg83
g3348
sg76
(lp4838
g69
(g90
g71
NtRp4839
(dp4840
g74
(dp4841
g94
g95
ssg83
g4835
sg76
(lp4842
S'subtitle'
p4843
asbag69
(g90
g71
NtRp4844
(dp4845
g74
(dp4846
g101
g102
ssg83
g4835
sg76
(lp4847
S':'
asbag69
(g90
g71
NtRp4848
(dp4849
g74
(dp4850
sg83
g4835
sg76
(lp4851
g69
(g70
g71
NtRp4852
(dp4853
g74
(dp4854
g82
I5
ssg83
g4848
sg76
(lp4855
g3904
(S's\r\x00\x00\x00customize me!'
tRp4856
asbasbasbag69
(g85
g71
NtRp4857
(dp4858
g74
(dp4859
sg83
g3348
sg76
(lp4860
g69
(g90
g71
NtRp4861
(dp4862
g74
(dp4863
g94
g95
ssg83
g4857
sg76
(lp4864
S'title'
p4865
asbag69
(g90
g71
NtRp4866
(dp4867
g74
(dp4868
g101
g102
ssg83
g4857
sg76
(lp4869
S':'
asbag69
(g90
g71
NtRp4870
(dp4871
g74
(dp4872
sg83
g4857
sg76
(lp4873
g69
(g70
g71
NtRp4874
(dp4875
g74
(dp4876
g82
I5
ssg83
g4870
sg76
(lp4877
S'Igor'
p4878
asbasbasbag69
(g85
g71
NtRp4879
(dp4880
g74
(dp4881
sg83
g3348
sg76
(lp4882
g69
(g90
g71
NtRp4883
(dp4884
g74
(dp4885
g94
g95
ssg83
g4879
sg76
(lp4886
g2449
asbag69
(g90
g71
NtRp4887
(dp4888
g74
(dp4889
g101
g102
ssg83
g4879
sg76
(lp4890
S':'
asbag69
(g90
g71
NtRp4891
(dp4892
g74
(dp4893
sg83
g4879
sg76
(lp4894
g69
(g70
g71
NtRp4895
(dp4896
g74
(dp4897
g82
I5
ssg83
g4891
sg76
(lp4898
g2462
asbasbasbag69
(g85
g71
NtRp4899
(dp4900
g74
(dp4901
sg83
g3348
sg76
(lp4902
g69
(g90
g71
NtRp4903
(dp4904
g74
(dp4905
g94
g95
ssg83
g4899
sg76
(lp4906
S'view'
p4907
asbag69
(g90
g71
NtRp4908
(dp4909
g74
(dp4910
g101
g102
ssg83
g4899
sg76
(lp4911
S':'
asbag69
(g90
g71
NtRp4912
(dp4913
g74
(dp4914
sg83
g4899
sg76
(lp4915
g69
(g70
g71
NtRp4916
(dp4917
g74
(dp4918
g82
I5
ssg83
g4912
sg76
(lp4919
S'user/call.html'
p4920
asbasbasbasbasbsS'locals'
p4921
(dp4922
g2471
g21
sS'hash_vars'
p4923
g1708
sS'port'
p4924
S'None'
p4925
sS'current'
p4926
S'<thread._local object>'
p4927
sg121
S"'igor'"
p4928
sS'user_signature'
p4929
S'None'
p4930
sg847
S"<Storage {'debugging': False, 'http_user_agent':...g': 'type=5&value=phuc', 'wsgi_run_once': False}>"
p4931
sS'url_encode'
p4932
g1708
sS'scheme'
p4933
S'None'
p4934
sg1853
S"''"
p4935
sS'encode_embedded_slash'
p4936
g112
sg52
S"['igor', 'static', 'igor.jpg']"
p4937
sg237
S"'static'"
p4938
sS'a'
S'None'
p4939
sS'c'
S"'static'"
p4940
sS'function2'
p4941
S"'.html'"
p4942
sg1809
S'None'
p4943
sS'f'
S"''"
p4944
sS'items'
p4945
S"['', 'igor', 'static', 'igor.jpg']"
p4946
sS'host'
p4947
S'None'
p4948
sS'hmac_key'
p4949
S'None'
p4950
sS'r'
S"<Storage {'body': <cStringIO.StringO object at 0...', 'value': 'phuc'}>, 'post_vars': <Storage {}>}>"
p4951
sS'salt'
p4952
S'None'
p4953
sS'anchor'
p4954
S"''"
p4955
sssS'traceback'
p4956
S'Traceback (most recent call last):\n  File "D:\\workspace\\CA\\IgoR\\C_Sources\\Server\\igor-assistant-ca-2012\\gluon\\restricted.py", line 205, in restricted\n    exec ccode in environment\n  File "D:\\workspace\\CA\\IgoR\\C_Sources\\Server\\igor-assistant-ca-2012\\applications\\igor\\controllers/user.py", line 149, in <module>\n  File "D:\\workspace\\CA\\IgoR\\C_Sources\\Server\\igor-assistant-ca-2012\\gluon\\globals.py", line 173, in <lambda>\n    self._caller = lambda f: f()\n  File "D:\\workspace\\CA\\IgoR\\C_Sources\\Server\\igor-assistant-ca-2012\\applications\\igor\\controllers/user.py", line 20, in call\n    return service()\n  File "D:\\workspace\\CA\\IgoR\\C_Sources\\Server\\igor-assistant-ca-2012\\gluon\\tools.py", line 4015, in __call__\n    return self.serve_json(request.args[1:])\n  File "D:\\workspace\\CA\\IgoR\\C_Sources\\Server\\igor-assistant-ca-2012\\gluon\\tools.py", line 3808, in serve_json\n    s = universal_caller(self.json_procedures[args[0]],*args[1:],**d)\n  File "D:\\workspace\\CA\\IgoR\\C_Sources\\Server\\igor-assistant-ca-2012\\gluon\\tools.py", line 3490, in universal_caller\n    return f(**arg_dict)\n  File "D:\\workspace\\CA\\IgoR\\C_Sources\\Server\\igor-assistant-ca-2012\\applications\\igor\\controllers/user.py", line 98, in search_user\n    users = format_client_data (users)\n  File "D:\\workspace\\CA\\IgoR\\C_Sources\\Server\\igor-assistant-ca-2012\\applications\\igor\\controllers/user.py", line 139, in format_client_data\n    avatar    = get_avatar_full_url(user.avatar),\n  File "D:\\workspace\\CA\\IgoR\\C_Sources\\Server\\igor-assistant-ca-2012\\applications\\igor\\models\\db_igor_function.py", line 94, in get_avatar_full_url\n    return URL(\'static\',avatar_url)\n  File "D:\\workspace\\CA\\IgoR\\C_Sources\\Server\\igor-assistant-ca-2012\\gluon\\html.py", line 274, in URL\n    raise SyntaxError, \'not enough information to build the url\'\nSyntaxError: not enough information to build the url\n'
p4957
s.