(dp1
S'output'
p2
S"<type 'exceptions.TypeError'> 'NoneType' object is not callable"
p3
sS'layer'
p4
S'D:\\workspace\\CA\\IgoR\\C_Sources\\Server\\igor-assistant-ca-2012\\applications\\igor\\controllers/subject.py'
p5
sS'code'
p6
S'# -*- coding: utf-8 -*-\n# this file is released under public domain and you can use without limitations\n\n#########################################################################\n## This is subject controller\n## Author: phucnh, tuna\n#########################################################################\n\nfrom message_packager import *\nfrom gluon.dal import Rows\nfrom gluon.tools import Service\nimport gluon.contenttype\n\nservice = Service()\n\n\ndef call():\n\tsession.forget()\n\n\treturn service()\n\n@service.jsonp\n@service.json\ndef get_all_subjects():\n\t\n\tsubjects = db(db.subject).select()\n\t\t\t\t\n\treturn MessagePackager.get_packaged_message(MessageStatus.OK, subjects)\n\n@service.jsonp\n@service.json\ndef get_subject_detail(id):\n\n\t# Validate input\n\tif (not id.isdigit()):\n\t\treturn MessagePackager.get_packaged_message (\n\t\t\tMessageStatus.ERROR, \n\t\t\t"subject id must be numberic")\n\n\tif (int (id) < 0):\n\t\treturn MessagePackager.get_packaged_message (\n\t\t\tMessageStatus.ERROR, \n\t\t\t"subject id can not less than 1")\n\n\t# Get data\n\tsubject = db(db.subject.id == id).select()\n\n\treturn MessagePackager.get_packaged_message(MessageStatus.OK, subject)\n\nresponse._vars=response._caller(get_all_subjects)\n'
p7
sS'snapshot'
p8
(dp9
S'exception'
p10
(dp11
S'__hash__'
p12
S"<method-wrapper '__hash__' of exceptions.TypeError object>"
p13
sS'__setattr__'
p14
S"<method-wrapper '__setattr__' of exceptions.TypeError object>"
p15
sS'__reduce_ex__'
p16
S'<built-in method __reduce_ex__ of exceptions.TypeError object>'
p17
sS'__getslice__'
p18
S"<method-wrapper '__getslice__' of exceptions.TypeError object>"
p19
sS'__getitem__'
p20
S"<method-wrapper '__getitem__' of exceptions.TypeError object>"
p21
sS'__setstate__'
p22
S'<built-in method __setstate__ of exceptions.TypeError object>'
p23
sS'__reduce__'
p24
S'<built-in method __reduce__ of exceptions.TypeError object>'
p25
sS'__str__'
p26
S"<method-wrapper '__str__' of exceptions.TypeError object>"
p27
sS'__format__'
p28
S'<built-in method __format__ of exceptions.TypeError object>'
p29
sS'__getattribute__'
p30
S"<method-wrapper '__getattribute__' of exceptions.TypeError object>"
p31
sS'__class__'
p32
S"<type 'exceptions.TypeError'>"
p33
sS'__unicode__'
p34
S'<built-in method __unicode__ of exceptions.TypeError object>'
p35
sS'__delattr__'
p36
S"<method-wrapper '__delattr__' of exceptions.TypeError object>"
p37
sS'__subclasshook__'
p38
S'<built-in method __subclasshook__ of type object>'
p39
sS'__repr__'
p40
S"<method-wrapper '__repr__' of exceptions.TypeError object>"
p41
sS'__dict__'
p42
S'{}'
p43
sS'args'
p44
S'("\'NoneType\' object is not callable",)'
p45
sS'__sizeof__'
p46
S'<built-in method __sizeof__ of exceptions.TypeError object>'
p47
sS'__doc__'
p48
S"'Inappropriate argument type.'"
p49
sS'__init__'
p50
S"<method-wrapper '__init__' of exceptions.TypeError object>"
p51
sS'__new__'
p52
S'<built-in method __new__ of type object>'
p53
ssS'evalue'
p54
S"'NoneType' object is not callable"
p55
sS'request'
p56
ccopy_reg
_reconstructor
p57
(cgluon.html
BEAUTIFY
p58
c__builtin__
object
p59
NtRp60
(dp61
S'attributes'
p62
(dp63
sS'components'
p64
(lp65
g57
(cgluon.html
TABLE
p66
g59
NtRp67
(dp68
g62
(dp69
S'level'
p70
I5
ssS'parent'
p71
Nsg64
(lp72
g57
(cgluon.html
TR
p73
g59
NtRp74
(dp75
g62
(dp76
sg71
g67
sg64
(lp77
g57
(cgluon.html
TD
p78
g59
NtRp79
(dp80
g62
(dp81
S'_style'
p82
S'font-weight:bold;vertical-align:top'
p83
ssg71
g74
sg64
(lp84
S'ajax'
p85
asbag57
(g78
g59
NtRp86
(dp87
g62
(dp88
S'_valign'
p89
S'top'
p90
ssg71
g74
sg64
(lp91
S':'
asbag57
(g78
g59
NtRp92
(dp93
g62
(dp94
sg71
g74
sg64
(lp95
g57
(g58
g59
NtRp96
(dp97
g62
(dp98
g70
I5
ssg71
g92
sg64
(lp99
S'False'
p100
asbasbasbag57
(g73
g59
NtRp101
(dp102
g62
(dp103
sg71
g67
sg64
(lp104
g57
(g78
g59
NtRp105
(dp106
g62
(dp107
g82
g83
ssg71
g101
sg64
(lp108
S'application'
p109
asbag57
(g78
g59
NtRp110
(dp111
g62
(dp112
g89
g90
ssg71
g101
sg64
(lp113
S':'
asbag57
(g78
g59
NtRp114
(dp115
g62
(dp116
sg71
g101
sg64
(lp117
g57
(g58
g59
NtRp118
(dp119
g62
(dp120
g70
I5
ssg71
g114
sg64
(lp121
S'igor'
p122
asbasbasbag57
(g73
g59
NtRp123
(dp124
g62
(dp125
sg71
g67
sg64
(lp126
g57
(g78
g59
NtRp127
(dp128
g62
(dp129
g82
g83
ssg71
g123
sg64
(lp130
g44
asbag57
(g78
g59
NtRp131
(dp132
g62
(dp133
g89
g90
ssg71
g123
sg64
(lp134
S':'
asbag57
(g78
g59
NtRp135
(dp136
g62
(dp137
sg71
g123
sg64
(lp138
g57
(g58
g59
NtRp139
(dp140
g62
(dp141
g70
I5
ssg71
g135
sg64
(lp142
g57
(g66
g59
NtRp143
(dp144
g62
(dp145
g70
I4
ssg71
Nsg64
(lp146
sbasbasbasbag57
(g73
g59
NtRp147
(dp148
g62
(dp149
sg71
g67
sg64
(lp150
g57
(g78
g59
NtRp151
(dp152
g62
(dp153
g82
g83
ssg71
g147
sg64
(lp154
S'body'
p155
asbag57
(g78
g59
NtRp156
(dp157
g62
(dp158
g89
g90
ssg71
g147
sg64
(lp159
S':'
asbag57
(g78
g59
NtRp160
(dp161
g62
(dp162
sg71
g147
sg64
(lp163
g57
(g58
g59
NtRp164
(dp165
g62
(dp166
g70
I5
ssg71
g160
sg64
(lp167
S'<cStringIO.StringO object at 0x0000000003D29C70>'
p168
asbasbasbag57
(g73
g59
NtRp169
(dp170
g62
(dp171
sg71
g67
sg64
(lp172
g57
(g78
g59
NtRp173
(dp174
g62
(dp175
g82
g83
ssg71
g169
sg64
(lp176
S'client'
p177
asbag57
(g78
g59
NtRp178
(dp179
g62
(dp180
g89
g90
ssg71
g169
sg64
(lp181
S':'
asbag57
(g78
g59
NtRp182
(dp183
g62
(dp184
sg71
g169
sg64
(lp185
g57
(g58
g59
NtRp186
(dp187
g62
(dp188
g70
I5
ssg71
g182
sg64
(lp189
S'127.0.0.1'
p190
asbasbasbag57
(g73
g59
NtRp191
(dp192
g62
(dp193
sg71
g67
sg64
(lp194
g57
(g78
g59
NtRp195
(dp196
g62
(dp197
g82
g83
ssg71
g191
sg64
(lp198
S'controller'
p199
asbag57
(g78
g59
NtRp200
(dp201
g62
(dp202
g89
g90
ssg71
g191
sg64
(lp203
S':'
asbag57
(g78
g59
NtRp204
(dp205
g62
(dp206
sg71
g191
sg64
(lp207
g57
(g58
g59
NtRp208
(dp209
g62
(dp210
g70
I5
ssg71
g204
sg64
(lp211
S'subject'
p212
asbasbasbag57
(g73
g59
NtRp213
(dp214
g62
(dp215
sg71
g67
sg64
(lp216
g57
(g78
g59
NtRp217
(dp218
g62
(dp219
g82
g83
ssg71
g213
sg64
(lp220
S'cookies'
p221
asbag57
(g78
g59
NtRp222
(dp223
g62
(dp224
g89
g90
ssg71
g213
sg64
(lp225
S':'
asbag57
(g78
g59
NtRp226
(dp227
g62
(dp228
sg71
g213
sg64
(lp229
g57
(g58
g59
NtRp230
(dp231
g62
(dp232
g70
I5
ssg71
g226
sg64
(lp233
g57
(g66
g59
NtRp234
(dp235
g62
(dp236
g70
I4
ssg71
Nsg64
(lp237
g57
(g73
g59
NtRp238
(dp239
g62
(dp240
sg71
g234
sg64
(lp241
g57
(g78
g59
NtRp242
(dp243
g62
(dp244
g82
g83
ssg71
g238
sg64
(lp245
S'session_id_admin'
p246
asbag57
(g78
g59
NtRp247
(dp248
g62
(dp249
g89
g90
ssg71
g238
sg64
(lp250
S':'
asbag57
(g78
g59
NtRp251
(dp252
g62
(dp253
sg71
g238
sg64
(lp254
g57
(g58
g59
NtRp255
(dp256
g62
(dp257
g70
I4
ssg71
g251
sg64
(lp258
g57
(g66
g59
NtRp259
(dp260
g62
(dp261
g70
I3
ssg71
Nsg64
(lp262
g57
(g73
g59
NtRp263
(dp264
g62
(dp265
sg71
g259
sg64
(lp266
g57
(g78
g59
NtRp267
(dp268
g62
(dp269
g82
g83
ssg71
g263
sg64
(lp270
S'comment'
p271
asbag57
(g78
g59
NtRp272
(dp273
g62
(dp274
g89
g90
ssg71
g263
sg64
(lp275
S':'
asbag57
(g78
g59
NtRp276
(dp277
g62
(dp278
sg71
g263
sg64
(lp279
g57
(g58
g59
NtRp280
(dp281
g62
(dp282
g70
I3
ssg71
g276
sg64
(lp283
S''
asbasbasbag57
(g73
g59
NtRp284
(dp285
g62
(dp286
sg71
g259
sg64
(lp287
g57
(g78
g59
NtRp288
(dp289
g62
(dp290
g82
g83
ssg71
g284
sg64
(lp291
S'domain'
p292
asbag57
(g78
g59
NtRp293
(dp294
g62
(dp295
g89
g90
ssg71
g284
sg64
(lp296
S':'
asbag57
(g78
g59
NtRp297
(dp298
g62
(dp299
sg71
g284
sg64
(lp300
g57
(g58
g59
NtRp301
(dp302
g62
(dp303
g70
I3
ssg71
g297
sg64
(lp304
S''
asbasbasbag57
(g73
g59
NtRp305
(dp306
g62
(dp307
sg71
g259
sg64
(lp308
g57
(g78
g59
NtRp309
(dp310
g62
(dp311
g82
g83
ssg71
g305
sg64
(lp312
S'expires'
p313
asbag57
(g78
g59
NtRp314
(dp315
g62
(dp316
g89
g90
ssg71
g305
sg64
(lp317
S':'
asbag57
(g78
g59
NtRp318
(dp319
g62
(dp320
sg71
g305
sg64
(lp321
g57
(g58
g59
NtRp322
(dp323
g62
(dp324
g70
I3
ssg71
g318
sg64
(lp325
S''
asbasbasbag57
(g73
g59
NtRp326
(dp327
g62
(dp328
sg71
g259
sg64
(lp329
g57
(g78
g59
NtRp330
(dp331
g62
(dp332
g82
g83
ssg71
g326
sg64
(lp333
S'httponly'
p334
asbag57
(g78
g59
NtRp335
(dp336
g62
(dp337
g89
g90
ssg71
g326
sg64
(lp338
S':'
asbag57
(g78
g59
NtRp339
(dp340
g62
(dp341
sg71
g326
sg64
(lp342
g57
(g58
g59
NtRp343
(dp344
g62
(dp345
g70
I3
ssg71
g339
sg64
(lp346
S''
asbasbasbag57
(g73
g59
NtRp347
(dp348
g62
(dp349
sg71
g259
sg64
(lp350
g57
(g78
g59
NtRp351
(dp352
g62
(dp353
g82
g83
ssg71
g347
sg64
(lp354
S'max-age'
p355
asbag57
(g78
g59
NtRp356
(dp357
g62
(dp358
g89
g90
ssg71
g347
sg64
(lp359
S':'
asbag57
(g78
g59
NtRp360
(dp361
g62
(dp362
sg71
g347
sg64
(lp363
g57
(g58
g59
NtRp364
(dp365
g62
(dp366
g70
I3
ssg71
g360
sg64
(lp367
S''
asbasbasbag57
(g73
g59
NtRp368
(dp369
g62
(dp370
sg71
g259
sg64
(lp371
g57
(g78
g59
NtRp372
(dp373
g62
(dp374
g82
g83
ssg71
g368
sg64
(lp375
S'path'
p376
asbag57
(g78
g59
NtRp377
(dp378
g62
(dp379
g89
g90
ssg71
g368
sg64
(lp380
S':'
asbag57
(g78
g59
NtRp381
(dp382
g62
(dp383
sg71
g368
sg64
(lp384
g57
(g58
g59
NtRp385
(dp386
g62
(dp387
g70
I3
ssg71
g381
sg64
(lp388
S''
asbasbasbag57
(g73
g59
NtRp389
(dp390
g62
(dp391
sg71
g259
sg64
(lp392
g57
(g78
g59
NtRp393
(dp394
g62
(dp395
g82
g83
ssg71
g389
sg64
(lp396
S'secure'
p397
asbag57
(g78
g59
NtRp398
(dp399
g62
(dp400
g89
g90
ssg71
g389
sg64
(lp401
S':'
asbag57
(g78
g59
NtRp402
(dp403
g62
(dp404
sg71
g389
sg64
(lp405
g57
(g58
g59
NtRp406
(dp407
g62
(dp408
g70
I3
ssg71
g402
sg64
(lp409
S''
asbasbasbag57
(g73
g59
NtRp410
(dp411
g62
(dp412
sg71
g259
sg64
(lp413
g57
(g78
g59
NtRp414
(dp415
g62
(dp416
g82
g83
ssg71
g410
sg64
(lp417
S'version'
p418
asbag57
(g78
g59
NtRp419
(dp420
g62
(dp421
g89
g90
ssg71
g410
sg64
(lp422
S':'
asbag57
(g78
g59
NtRp423
(dp424
g62
(dp425
sg71
g410
sg64
(lp426
g57
(g58
g59
NtRp427
(dp428
g62
(dp429
g70
I3
ssg71
g423
sg64
(lp430
S''
asbasbasbasbasbasbasbag57
(g73
g59
NtRp431
(dp432
g62
(dp433
sg71
g234
sg64
(lp434
g57
(g78
g59
NtRp435
(dp436
g62
(dp437
g82
g83
ssg71
g431
sg64
(lp438
S'session_id_welcome'
p439
asbag57
(g78
g59
NtRp440
(dp441
g62
(dp442
g89
g90
ssg71
g431
sg64
(lp443
S':'
asbag57
(g78
g59
NtRp444
(dp445
g62
(dp446
sg71
g431
sg64
(lp447
g57
(g58
g59
NtRp448
(dp449
g62
(dp450
g70
I4
ssg71
g444
sg64
(lp451
g57
(g66
g59
NtRp452
(dp453
g62
(dp454
g70
I3
ssg71
Nsg64
(lp455
g57
(g73
g59
NtRp456
(dp457
g62
(dp458
sg71
g452
sg64
(lp459
g57
(g78
g59
NtRp460
(dp461
g62
(dp462
g82
g83
ssg71
g456
sg64
(lp463
g271
asbag57
(g78
g59
NtRp464
(dp465
g62
(dp466
g89
g90
ssg71
g456
sg64
(lp467
S':'
asbag57
(g78
g59
NtRp468
(dp469
g62
(dp470
sg71
g456
sg64
(lp471
g57
(g58
g59
NtRp472
(dp473
g62
(dp474
g70
I3
ssg71
g468
sg64
(lp475
S''
asbasbasbag57
(g73
g59
NtRp476
(dp477
g62
(dp478
sg71
g452
sg64
(lp479
g57
(g78
g59
NtRp480
(dp481
g62
(dp482
g82
g83
ssg71
g476
sg64
(lp483
g292
asbag57
(g78
g59
NtRp484
(dp485
g62
(dp486
g89
g90
ssg71
g476
sg64
(lp487
S':'
asbag57
(g78
g59
NtRp488
(dp489
g62
(dp490
sg71
g476
sg64
(lp491
g57
(g58
g59
NtRp492
(dp493
g62
(dp494
g70
I3
ssg71
g488
sg64
(lp495
S''
asbasbasbag57
(g73
g59
NtRp496
(dp497
g62
(dp498
sg71
g452
sg64
(lp499
g57
(g78
g59
NtRp500
(dp501
g62
(dp502
g82
g83
ssg71
g496
sg64
(lp503
g313
asbag57
(g78
g59
NtRp504
(dp505
g62
(dp506
g89
g90
ssg71
g496
sg64
(lp507
S':'
asbag57
(g78
g59
NtRp508
(dp509
g62
(dp510
sg71
g496
sg64
(lp511
g57
(g58
g59
NtRp512
(dp513
g62
(dp514
g70
I3
ssg71
g508
sg64
(lp515
S''
asbasbasbag57
(g73
g59
NtRp516
(dp517
g62
(dp518
sg71
g452
sg64
(lp519
g57
(g78
g59
NtRp520
(dp521
g62
(dp522
g82
g83
ssg71
g516
sg64
(lp523
g334
asbag57
(g78
g59
NtRp524
(dp525
g62
(dp526
g89
g90
ssg71
g516
sg64
(lp527
S':'
asbag57
(g78
g59
NtRp528
(dp529
g62
(dp530
sg71
g516
sg64
(lp531
g57
(g58
g59
NtRp532
(dp533
g62
(dp534
g70
I3
ssg71
g528
sg64
(lp535
S''
asbasbasbag57
(g73
g59
NtRp536
(dp537
g62
(dp538
sg71
g452
sg64
(lp539
g57
(g78
g59
NtRp540
(dp541
g62
(dp542
g82
g83
ssg71
g536
sg64
(lp543
g355
asbag57
(g78
g59
NtRp544
(dp545
g62
(dp546
g89
g90
ssg71
g536
sg64
(lp547
S':'
asbag57
(g78
g59
NtRp548
(dp549
g62
(dp550
sg71
g536
sg64
(lp551
g57
(g58
g59
NtRp552
(dp553
g62
(dp554
g70
I3
ssg71
g548
sg64
(lp555
S''
asbasbasbag57
(g73
g59
NtRp556
(dp557
g62
(dp558
sg71
g452
sg64
(lp559
g57
(g78
g59
NtRp560
(dp561
g62
(dp562
g82
g83
ssg71
g556
sg64
(lp563
g376
asbag57
(g78
g59
NtRp564
(dp565
g62
(dp566
g89
g90
ssg71
g556
sg64
(lp567
S':'
asbag57
(g78
g59
NtRp568
(dp569
g62
(dp570
sg71
g556
sg64
(lp571
g57
(g58
g59
NtRp572
(dp573
g62
(dp574
g70
I3
ssg71
g568
sg64
(lp575
S''
asbasbasbag57
(g73
g59
NtRp576
(dp577
g62
(dp578
sg71
g452
sg64
(lp579
g57
(g78
g59
NtRp580
(dp581
g62
(dp582
g82
g83
ssg71
g576
sg64
(lp583
g397
asbag57
(g78
g59
NtRp584
(dp585
g62
(dp586
g89
g90
ssg71
g576
sg64
(lp587
S':'
asbag57
(g78
g59
NtRp588
(dp589
g62
(dp590
sg71
g576
sg64
(lp591
g57
(g58
g59
NtRp592
(dp593
g62
(dp594
g70
I3
ssg71
g588
sg64
(lp595
S''
asbasbasbag57
(g73
g59
NtRp596
(dp597
g62
(dp598
sg71
g452
sg64
(lp599
g57
(g78
g59
NtRp600
(dp601
g62
(dp602
g82
g83
ssg71
g596
sg64
(lp603
g418
asbag57
(g78
g59
NtRp604
(dp605
g62
(dp606
g89
g90
ssg71
g596
sg64
(lp607
S':'
asbag57
(g78
g59
NtRp608
(dp609
g62
(dp610
sg71
g596
sg64
(lp611
g57
(g58
g59
NtRp612
(dp613
g62
(dp614
g70
I3
ssg71
g608
sg64
(lp615
S''
asbasbasbasbasbasbasbasbasbasbasbag57
(g73
g59
NtRp616
(dp617
g62
(dp618
sg71
g67
sg64
(lp619
g57
(g78
g59
NtRp620
(dp621
g62
(dp622
g82
g83
ssg71
g616
sg64
(lp623
S'env'
p624
asbag57
(g78
g59
NtRp625
(dp626
g62
(dp627
g89
g90
ssg71
g616
sg64
(lp628
S':'
asbag57
(g78
g59
NtRp629
(dp630
g62
(dp631
sg71
g616
sg64
(lp632
g57
(g58
g59
NtRp633
(dp634
g62
(dp635
g70
I5
ssg71
g629
sg64
(lp636
g57
(g66
g59
NtRp637
(dp638
g62
(dp639
g70
I4
ssg71
Nsg64
(lp640
g57
(g73
g59
NtRp641
(dp642
g62
(dp643
sg71
g637
sg64
(lp644
g57
(g78
g59
NtRp645
(dp646
g62
(dp647
g82
g83
ssg71
g641
sg64
(lp648
S'app_folders'
p649
asbag57
(g78
g59
NtRp650
(dp651
g62
(dp652
g89
g90
ssg71
g641
sg64
(lp653
S':'
asbag57
(g78
g59
NtRp654
(dp655
g62
(dp656
sg71
g641
sg64
(lp657
g57
(g58
g59
NtRp658
(dp659
g62
(dp660
g70
I4
ssg71
g654
sg64
(lp661
S"set(['D:\\\\workspace\\\\CA\\\\IgoR\\\\C_Sources\\\\Server\\\\igor-assistant-ca-2012\\\\applications\\\\admin\\\\', 'D:\\\\workspace\\\\CA\\\\IgoR\\\\C_Sources\\\\Server\\\\igor-assistant-ca-2012\\\\applications\\\\igor\\\\', 'D:\\\\workspace\\\\CA\\\\IgoR\\\\C_Sources\\\\Server\\\\igor-assistant-ca-2012\\\\applications\\\\welcome\\\\'])"
p662
asbasbasbag57
(g73
g59
NtRp663
(dp664
g62
(dp665
sg71
g637
sg64
(lp666
g57
(g78
g59
NtRp667
(dp668
g62
(dp669
g82
g83
ssg71
g663
sg64
(lp670
S'applications_parent'
p671
asbag57
(g78
g59
NtRp672
(dp673
g62
(dp674
g89
g90
ssg71
g663
sg64
(lp675
S':'
asbag57
(g78
g59
NtRp676
(dp677
g62
(dp678
sg71
g663
sg64
(lp679
g57
(g58
g59
NtRp680
(dp681
g62
(dp682
g70
I4
ssg71
g676
sg64
(lp683
S'D:\\workspace\\CA\\IgoR\\C_Sources\\Server\\igor-assistant-ca-2012'
p684
asbasbasbag57
(g73
g59
NtRp685
(dp686
g62
(dp687
sg71
g637
sg64
(lp688
g57
(g78
g59
NtRp689
(dp690
g62
(dp691
g82
g83
ssg71
g685
sg64
(lp692
S'cmd_args'
p693
asbag57
(g78
g59
NtRp694
(dp695
g62
(dp696
g89
g90
ssg71
g685
sg64
(lp697
S':'
asbag57
(g78
g59
NtRp698
(dp699
g62
(dp700
sg71
g685
sg64
(lp701
g57
(g58
g59
NtRp702
(dp703
g62
(dp704
g70
I4
ssg71
g698
sg64
(lp705
g57
(g66
g59
NtRp706
(dp707
g62
(dp708
g70
I3
ssg71
Nsg64
(lp709
g57
(g73
g59
NtRp710
(dp711
g62
(dp712
sg71
g706
sg64
(lp713
g57
(g78
g59
NtRp714
(dp715
g62
(dp716
sg71
g710
sg64
(lp717
g57
(g58
g59
NtRp718
(dp719
g62
(dp720
g70
I3
ssg71
g714
sg64
(lp721
S'startserver'
p722
asbasbasbasbasbasbasbag57
(g73
g59
NtRp723
(dp724
g62
(dp725
sg71
g637
sg64
(lp726
g57
(g78
g59
NtRp727
(dp728
g62
(dp729
g82
g83
ssg71
g723
sg64
(lp730
S'cmd_options'
p731
asbag57
(g78
g59
NtRp732
(dp733
g62
(dp734
g89
g90
ssg71
g723
sg64
(lp735
S':'
asbag57
(g78
g59
NtRp736
(dp737
g62
(dp738
sg71
g723
sg64
(lp739
g57
(g58
g59
NtRp740
(dp741
g62
(dp742
g70
I4
ssg71
g736
sg64
(lp743
S"<Values at 0x3c35488: {'verbose': False, 'ip': '127.0.0.1', 'shutdown_timeout': 5, 'taskbar': False, 'nocron': False, 'pid_filename': 'httpserver.pid', 'maxthreads': None, 'softcron': False, 'server_name': 'PHUCNH-PC', 'bpython': False, 'nogui': False, 'port': 8000, 'extcron': False, 'debuglevel': 30, 'test': None, 'folder': 'D:\\\\workspace\\\\CA\\\\IgoR\\\\C_Sources\\\\Server\\\\igor-assistant-ca-2012', 'config': '', 'import_models': False, 'winservice': '', 'shell': None, 'run': '', 'log_filename': 'httpserver.log', 'args': [''], 'socket_timeout': 5, 'ssl_ca_certificate': None, 'scheduler': None, 'profiler_filename': None, 'ssl_private_key': '', 'password': '<ask>', 'request_queue_size': 5, 'ssl_certificate': '', 'cronjob': False, 'numthreads': None, 'quiet': False, 'interfaces': None, 'minthreads': None, 'timeout': 10, 'plain': False, 'nobanner': False}>"
p744
asbasbasbag57
(g73
g59
NtRp745
(dp746
g62
(dp747
sg71
g637
sg64
(lp748
g57
(g78
g59
NtRp749
(dp750
g62
(dp751
g82
g83
ssg71
g745
sg64
(lp752
S'db_sessions'
p753
asbag57
(g78
g59
NtRp754
(dp755
g62
(dp756
g89
g90
ssg71
g745
sg64
(lp757
S':'
asbag57
(g78
g59
NtRp758
(dp759
g62
(dp760
sg71
g745
sg64
(lp761
g57
(g58
g59
NtRp762
(dp763
g62
(dp764
g70
I4
ssg71
g758
sg64
(lp765
S'set([])'
p766
asbasbasbag57
(g73
g59
NtRp767
(dp768
g62
(dp769
sg71
g637
sg64
(lp770
g57
(g78
g59
NtRp771
(dp772
g62
(dp773
g82
g83
ssg71
g767
sg64
(lp774
S'debugging'
p775
asbag57
(g78
g59
NtRp776
(dp777
g62
(dp778
g89
g90
ssg71
g767
sg64
(lp779
S':'
asbag57
(g78
g59
NtRp780
(dp781
g62
(dp782
sg71
g767
sg64
(lp783
g57
(g58
g59
NtRp784
(dp785
g62
(dp786
g70
I4
ssg71
g780
sg64
(lp787
g100
asbasbasbag57
(g73
g59
NtRp788
(dp789
g62
(dp790
sg71
g637
sg64
(lp791
g57
(g78
g59
NtRp792
(dp793
g62
(dp794
g82
g83
ssg71
g788
sg64
(lp795
S'gluon_parent'
p796
asbag57
(g78
g59
NtRp797
(dp798
g62
(dp799
g89
g90
ssg71
g788
sg64
(lp800
S':'
asbag57
(g78
g59
NtRp801
(dp802
g62
(dp803
sg71
g788
sg64
(lp804
g57
(g58
g59
NtRp805
(dp806
g62
(dp807
g70
I4
ssg71
g801
sg64
(lp808
S'D:\\workspace\\CA\\IgoR\\C_Sources\\Server\\igor-assistant-ca-2012'
p809
asbasbasbag57
(g73
g59
NtRp810
(dp811
g62
(dp812
sg71
g637
sg64
(lp813
g57
(g78
g59
NtRp814
(dp815
g62
(dp816
g82
g83
ssg71
g810
sg64
(lp817
S'http_accept'
p818
asbag57
(g78
g59
NtRp819
(dp820
g62
(dp821
g89
g90
ssg71
g810
sg64
(lp822
S':'
asbag57
(g78
g59
NtRp823
(dp824
g62
(dp825
sg71
g810
sg64
(lp826
g57
(g58
g59
NtRp827
(dp828
g62
(dp829
g70
I4
ssg71
g823
sg64
(lp830
S'text/html,application/xhtml+xml,application/xml;q=0.9,*/*;q=0.8'
p831
asbasbasbag57
(g73
g59
NtRp832
(dp833
g62
(dp834
sg71
g637
sg64
(lp835
g57
(g78
g59
NtRp836
(dp837
g62
(dp838
g82
g83
ssg71
g832
sg64
(lp839
S'http_accept_charset'
p840
asbag57
(g78
g59
NtRp841
(dp842
g62
(dp843
g89
g90
ssg71
g832
sg64
(lp844
S':'
asbag57
(g78
g59
NtRp845
(dp846
g62
(dp847
sg71
g832
sg64
(lp848
g57
(g58
g59
NtRp849
(dp850
g62
(dp851
g70
I4
ssg71
g845
sg64
(lp852
S'UTF-8,*;q=0.5'
p853
asbasbasbag57
(g73
g59
NtRp854
(dp855
g62
(dp856
sg71
g637
sg64
(lp857
g57
(g78
g59
NtRp858
(dp859
g62
(dp860
g82
g83
ssg71
g854
sg64
(lp861
S'http_accept_encoding'
p862
asbag57
(g78
g59
NtRp863
(dp864
g62
(dp865
g89
g90
ssg71
g854
sg64
(lp866
S':'
asbag57
(g78
g59
NtRp867
(dp868
g62
(dp869
sg71
g854
sg64
(lp870
g57
(g58
g59
NtRp871
(dp872
g62
(dp873
g70
I4
ssg71
g867
sg64
(lp874
S'gzip,deflate,sdch'
p875
asbasbasbag57
(g73
g59
NtRp876
(dp877
g62
(dp878
sg71
g637
sg64
(lp879
g57
(g78
g59
NtRp880
(dp881
g62
(dp882
g82
g83
ssg71
g876
sg64
(lp883
S'http_accept_language'
p884
asbag57
(g78
g59
NtRp885
(dp886
g62
(dp887
g89
g90
ssg71
g876
sg64
(lp888
S':'
asbag57
(g78
g59
NtRp889
(dp890
g62
(dp891
sg71
g876
sg64
(lp892
g57
(g58
g59
NtRp893
(dp894
g62
(dp895
g70
I4
ssg71
g889
sg64
(lp896
S'en-US,en;q=0.8,vi;q=0.6,fr-FR;q=0.4,fr;q=0.2'
p897
asbasbasbag57
(g73
g59
NtRp898
(dp899
g62
(dp900
sg71
g637
sg64
(lp901
g57
(g78
g59
NtRp902
(dp903
g62
(dp904
g82
g83
ssg71
g898
sg64
(lp905
S'http_cache_control'
p906
asbag57
(g78
g59
NtRp907
(dp908
g62
(dp909
g89
g90
ssg71
g898
sg64
(lp910
S':'
asbag57
(g78
g59
NtRp911
(dp912
g62
(dp913
sg71
g898
sg64
(lp914
g57
(g58
g59
NtRp915
(dp916
g62
(dp917
g70
I4
ssg71
g911
sg64
(lp918
S'max-age=0'
p919
asbasbasbag57
(g73
g59
NtRp920
(dp921
g62
(dp922
sg71
g637
sg64
(lp923
g57
(g78
g59
NtRp924
(dp925
g62
(dp926
g82
g83
ssg71
g920
sg64
(lp927
S'http_connection'
p928
asbag57
(g78
g59
NtRp929
(dp930
g62
(dp931
g89
g90
ssg71
g920
sg64
(lp932
S':'
asbag57
(g78
g59
NtRp933
(dp934
g62
(dp935
sg71
g920
sg64
(lp936
g57
(g58
g59
NtRp937
(dp938
g62
(dp939
g70
I4
ssg71
g933
sg64
(lp940
S'keep-alive'
p941
asbasbasbag57
(g73
g59
NtRp942
(dp943
g62
(dp944
sg71
g637
sg64
(lp945
g57
(g78
g59
NtRp946
(dp947
g62
(dp948
g82
g83
ssg71
g942
sg64
(lp949
S'http_cookie'
p950
asbag57
(g78
g59
NtRp951
(dp952
g62
(dp953
g89
g90
ssg71
g942
sg64
(lp954
S':'
asbag57
(g78
g59
NtRp955
(dp956
g62
(dp957
sg71
g942
sg64
(lp958
g57
(g58
g59
NtRp959
(dp960
g62
(dp961
g70
I4
ssg71
g955
sg64
(lp962
S'session_id_welcome=127.0.0.1-e120e2e5-d070-4632-8b49-659d8cb41099; session_id_admin=127.0.0.1-be74e7d4-501c-4b26-bdae-0bb40310c7a7'
p963
asbasbasbag57
(g73
g59
NtRp964
(dp965
g62
(dp966
sg71
g637
sg64
(lp967
g57
(g78
g59
NtRp968
(dp969
g62
(dp970
g82
g83
ssg71
g964
sg64
(lp971
S'http_host'
p972
asbag57
(g78
g59
NtRp973
(dp974
g62
(dp975
g89
g90
ssg71
g964
sg64
(lp976
S':'
asbag57
(g78
g59
NtRp977
(dp978
g62
(dp979
sg71
g964
sg64
(lp980
g57
(g58
g59
NtRp981
(dp982
g62
(dp983
g70
I4
ssg71
g977
sg64
(lp984
S'127.0.0.1:8000'
p985
asbasbasbag57
(g73
g59
NtRp986
(dp987
g62
(dp988
sg71
g637
sg64
(lp989
g57
(g78
g59
NtRp990
(dp991
g62
(dp992
g82
g83
ssg71
g986
sg64
(lp993
S'http_user_agent'
p994
asbag57
(g78
g59
NtRp995
(dp996
g62
(dp997
g89
g90
ssg71
g986
sg64
(lp998
S':'
asbag57
(g78
g59
NtRp999
(dp1000
g62
(dp1001
sg71
g986
sg64
(lp1002
g57
(g58
g59
NtRp1003
(dp1004
g62
(dp1005
g70
I4
ssg71
g999
sg64
(lp1006
S'Mozilla/5.0 (Windows NT 6.1; WOW64) AppleWebKit/537.1 (KHTML, like Gecko) Chrome/21.0.1180.60 Safari/537.1'
p1007
asbasbasbag57
(g73
g59
NtRp1008
(dp1009
g62
(dp1010
sg71
g637
sg64
(lp1011
g57
(g78
g59
NtRp1012
(dp1013
g62
(dp1014
g82
g83
ssg71
g1008
sg64
(lp1015
S'is_jython'
p1016
asbag57
(g78
g59
NtRp1017
(dp1018
g62
(dp1019
g89
g90
ssg71
g1008
sg64
(lp1020
S':'
asbag57
(g78
g59
NtRp1021
(dp1022
g62
(dp1023
sg71
g1008
sg64
(lp1024
g57
(g58
g59
NtRp1025
(dp1026
g62
(dp1027
g70
I4
ssg71
g1021
sg64
(lp1028
g100
asbasbasbag57
(g73
g59
NtRp1029
(dp1030
g62
(dp1031
sg71
g637
sg64
(lp1032
g57
(g78
g59
NtRp1033
(dp1034
g62
(dp1035
g82
g83
ssg71
g1029
sg64
(lp1036
S'is_pypy'
p1037
asbag57
(g78
g59
NtRp1038
(dp1039
g62
(dp1040
g89
g90
ssg71
g1029
sg64
(lp1041
S':'
asbag57
(g78
g59
NtRp1042
(dp1043
g62
(dp1044
sg71
g1029
sg64
(lp1045
g57
(g58
g59
NtRp1046
(dp1047
g62
(dp1048
g70
I4
ssg71
g1042
sg64
(lp1049
g100
asbasbasbag57
(g73
g59
NtRp1050
(dp1051
g62
(dp1052
sg71
g637
sg64
(lp1053
g57
(g78
g59
NtRp1054
(dp1055
g62
(dp1056
g82
g83
ssg71
g1050
sg64
(lp1057
S'path_info'
p1058
asbag57
(g78
g59
NtRp1059
(dp1060
g62
(dp1061
g89
g90
ssg71
g1050
sg64
(lp1062
S':'
asbag57
(g78
g59
NtRp1063
(dp1064
g62
(dp1065
sg71
g1050
sg64
(lp1066
g57
(g58
g59
NtRp1067
(dp1068
g62
(dp1069
g70
I4
ssg71
g1063
sg64
(lp1070
S'/igor/subject/get_all_subjects'
p1071
asbasbasbag57
(g73
g59
NtRp1072
(dp1073
g62
(dp1074
sg71
g637
sg64
(lp1075
g57
(g78
g59
NtRp1076
(dp1077
g62
(dp1078
g82
g83
ssg71
g1072
sg64
(lp1079
S'query_string'
p1080
asbag57
(g78
g59
NtRp1081
(dp1082
g62
(dp1083
g89
g90
ssg71
g1072
sg64
(lp1084
S':'
asbag57
(g78
g59
NtRp1085
(dp1086
g62
(dp1087
sg71
g1072
sg64
(lp1088
g57
(g58
g59
NtRp1089
(dp1090
g62
(dp1091
g70
I4
ssg71
g1085
sg64
(lp1092
S''
asbasbasbag57
(g73
g59
NtRp1093
(dp1094
g62
(dp1095
sg71
g637
sg64
(lp1096
g57
(g78
g59
NtRp1097
(dp1098
g62
(dp1099
g82
g83
ssg71
g1093
sg64
(lp1100
S'remote_addr'
p1101
asbag57
(g78
g59
NtRp1102
(dp1103
g62
(dp1104
g89
g90
ssg71
g1093
sg64
(lp1105
S':'
asbag57
(g78
g59
NtRp1106
(dp1107
g62
(dp1108
sg71
g1093
sg64
(lp1109
g57
(g58
g59
NtRp1110
(dp1111
g62
(dp1112
g70
I4
ssg71
g1106
sg64
(lp1113
g190
asbasbasbag57
(g73
g59
NtRp1114
(dp1115
g62
(dp1116
sg71
g637
sg64
(lp1117
g57
(g78
g59
NtRp1118
(dp1119
g62
(dp1120
g82
g83
ssg71
g1114
sg64
(lp1121
S'remote_port'
p1122
asbag57
(g78
g59
NtRp1123
(dp1124
g62
(dp1125
g89
g90
ssg71
g1114
sg64
(lp1126
S':'
asbag57
(g78
g59
NtRp1127
(dp1128
g62
(dp1129
sg71
g1114
sg64
(lp1130
g57
(g58
g59
NtRp1131
(dp1132
g62
(dp1133
g70
I4
ssg71
g1127
sg64
(lp1134
S'2625'
p1135
asbasbasbag57
(g73
g59
NtRp1136
(dp1137
g62
(dp1138
sg71
g637
sg64
(lp1139
g57
(g78
g59
NtRp1140
(dp1141
g62
(dp1142
g82
g83
ssg71
g1136
sg64
(lp1143
S'request_method'
p1144
asbag57
(g78
g59
NtRp1145
(dp1146
g62
(dp1147
g89
g90
ssg71
g1136
sg64
(lp1148
S':'
asbag57
(g78
g59
NtRp1149
(dp1150
g62
(dp1151
sg71
g1136
sg64
(lp1152
g57
(g58
g59
NtRp1153
(dp1154
g62
(dp1155
g70
I4
ssg71
g1149
sg64
(lp1156
S'GET'
p1157
asbasbasbag57
(g73
g59
NtRp1158
(dp1159
g62
(dp1160
sg71
g637
sg64
(lp1161
g57
(g78
g59
NtRp1162
(dp1163
g62
(dp1164
g82
g83
ssg71
g1158
sg64
(lp1165
S'script_name'
p1166
asbag57
(g78
g59
NtRp1167
(dp1168
g62
(dp1169
g89
g90
ssg71
g1158
sg64
(lp1170
S':'
asbag57
(g78
g59
NtRp1171
(dp1172
g62
(dp1173
sg71
g1158
sg64
(lp1174
g57
(g58
g59
NtRp1175
(dp1176
g62
(dp1177
g70
I4
ssg71
g1171
sg64
(lp1178
S''
asbasbasbag57
(g73
g59
NtRp1179
(dp1180
g62
(dp1181
sg71
g637
sg64
(lp1182
g57
(g78
g59
NtRp1183
(dp1184
g62
(dp1185
g82
g83
ssg71
g1179
sg64
(lp1186
S'server_name'
p1187
asbag57
(g78
g59
NtRp1188
(dp1189
g62
(dp1190
g89
g90
ssg71
g1179
sg64
(lp1191
S':'
asbag57
(g78
g59
NtRp1192
(dp1193
g62
(dp1194
sg71
g1179
sg64
(lp1195
g57
(g58
g59
NtRp1196
(dp1197
g62
(dp1198
g70
I4
ssg71
g1192
sg64
(lp1199
S'PHUCNH-PC'
p1200
asbasbasbag57
(g73
g59
NtRp1201
(dp1202
g62
(dp1203
sg71
g637
sg64
(lp1204
g57
(g78
g59
NtRp1205
(dp1206
g62
(dp1207
g82
g83
ssg71
g1201
sg64
(lp1208
S'server_port'
p1209
asbag57
(g78
g59
NtRp1210
(dp1211
g62
(dp1212
g89
g90
ssg71
g1201
sg64
(lp1213
S':'
asbag57
(g78
g59
NtRp1214
(dp1215
g62
(dp1216
sg71
g1201
sg64
(lp1217
g57
(g58
g59
NtRp1218
(dp1219
g62
(dp1220
g70
I4
ssg71
g1214
sg64
(lp1221
S'8000'
p1222
asbasbasbag57
(g73
g59
NtRp1223
(dp1224
g62
(dp1225
sg71
g637
sg64
(lp1226
g57
(g78
g59
NtRp1227
(dp1228
g62
(dp1229
g82
g83
ssg71
g1223
sg64
(lp1230
S'server_protocol'
p1231
asbag57
(g78
g59
NtRp1232
(dp1233
g62
(dp1234
g89
g90
ssg71
g1223
sg64
(lp1235
S':'
asbag57
(g78
g59
NtRp1236
(dp1237
g62
(dp1238
sg71
g1223
sg64
(lp1239
g57
(g58
g59
NtRp1240
(dp1241
g62
(dp1242
g70
I4
ssg71
g1236
sg64
(lp1243
S'HTTP/1.1'
p1244
asbasbasbag57
(g73
g59
NtRp1245
(dp1246
g62
(dp1247
sg71
g637
sg64
(lp1248
g57
(g78
g59
NtRp1249
(dp1250
g62
(dp1251
g82
g83
ssg71
g1245
sg64
(lp1252
S'server_software'
p1253
asbag57
(g78
g59
NtRp1254
(dp1255
g62
(dp1256
g89
g90
ssg71
g1245
sg64
(lp1257
S':'
asbag57
(g78
g59
NtRp1258
(dp1259
g62
(dp1260
sg71
g1245
sg64
(lp1261
g57
(g58
g59
NtRp1262
(dp1263
g62
(dp1264
g70
I4
ssg71
g1258
sg64
(lp1265
S'Rocket 1.2.4'
p1266
asbasbasbag57
(g73
g59
NtRp1267
(dp1268
g62
(dp1269
sg71
g637
sg64
(lp1270
g57
(g78
g59
NtRp1271
(dp1272
g62
(dp1273
g82
g83
ssg71
g1267
sg64
(lp1274
S'web2py_crontype'
p1275
asbag57
(g78
g59
NtRp1276
(dp1277
g62
(dp1278
g89
g90
ssg71
g1267
sg64
(lp1279
S':'
asbag57
(g78
g59
NtRp1280
(dp1281
g62
(dp1282
sg71
g1267
sg64
(lp1283
g57
(g58
g59
NtRp1284
(dp1285
g62
(dp1286
g70
I4
ssg71
g1280
sg64
(lp1287
S'hard'
p1288
asbasbasbag57
(g73
g59
NtRp1289
(dp1290
g62
(dp1291
sg71
g637
sg64
(lp1292
g57
(g78
g59
NtRp1293
(dp1294
g62
(dp1295
g82
g83
ssg71
g1289
sg64
(lp1296
S'web2py_path'
p1297
asbag57
(g78
g59
NtRp1298
(dp1299
g62
(dp1300
g89
g90
ssg71
g1289
sg64
(lp1301
S':'
asbag57
(g78
g59
NtRp1302
(dp1303
g62
(dp1304
sg71
g1289
sg64
(lp1305
g57
(g58
g59
NtRp1306
(dp1307
g62
(dp1308
g70
I4
ssg71
g1302
sg64
(lp1309
g684
asbasbasbag57
(g73
g59
NtRp1310
(dp1311
g62
(dp1312
sg71
g637
sg64
(lp1313
g57
(g78
g59
NtRp1314
(dp1315
g62
(dp1316
g82
g83
ssg71
g1310
sg64
(lp1317
S'web2py_version'
p1318
asbag57
(g78
g59
NtRp1319
(dp1320
g62
(dp1321
g89
g90
ssg71
g1310
sg64
(lp1322
S':'
asbag57
(g78
g59
NtRp1323
(dp1324
g62
(dp1325
sg71
g1310
sg64
(lp1326
g57
(g58
g59
NtRp1327
(dp1328
g62
(dp1329
g70
I4
ssg71
g1323
sg64
(lp1330
g57
(g66
g59
NtRp1331
(dp1332
g62
(dp1333
g70
I3
ssg71
Nsg64
(lp1334
g57
(g73
g59
NtRp1335
(dp1336
g62
(dp1337
sg71
g1331
sg64
(lp1338
g57
(g78
g59
NtRp1339
(dp1340
g62
(dp1341
sg71
g1335
sg64
(lp1342
g57
(g58
g59
NtRp1343
(dp1344
g62
(dp1345
g70
I3
ssg71
g1339
sg64
(lp1346
S'1'
asbasbasbag57
(g73
g59
NtRp1347
(dp1348
g62
(dp1349
sg71
g1331
sg64
(lp1350
g57
(g78
g59
NtRp1351
(dp1352
g62
(dp1353
sg71
g1347
sg64
(lp1354
g57
(g58
g59
NtRp1355
(dp1356
g62
(dp1357
g70
I3
ssg71
g1351
sg64
(lp1358
S'99'
p1359
asbasbasbag57
(g73
g59
NtRp1360
(dp1361
g62
(dp1362
sg71
g1331
sg64
(lp1363
g57
(g78
g59
NtRp1364
(dp1365
g62
(dp1366
sg71
g1360
sg64
(lp1367
g57
(g58
g59
NtRp1368
(dp1369
g62
(dp1370
g70
I3
ssg71
g1364
sg64
(lp1371
S'7'
asbasbasbag57
(g73
g59
NtRp1372
(dp1373
g62
(dp1374
sg71
g1331
sg64
(lp1375
g57
(g78
g59
NtRp1376
(dp1377
g62
(dp1378
sg71
g1372
sg64
(lp1379
g57
(g58
g59
NtRp1380
(dp1381
g62
(dp1382
g70
I3
ssg71
g1376
sg64
(lp1383
S'datetime.datetime(2012, 3, 4, 22, 12, 8)'
p1384
asbasbasbag57
(g73
g59
NtRp1385
(dp1386
g62
(dp1387
sg71
g1331
sg64
(lp1388
g57
(g78
g59
NtRp1389
(dp1390
g62
(dp1391
sg71
g1385
sg64
(lp1392
g57
(g58
g59
NtRp1393
(dp1394
g62
(dp1395
g70
I3
ssg71
g1389
sg64
(lp1396
S'stable'
p1397
asbasbasbasbasbasbasbag57
(g73
g59
NtRp1398
(dp1399
g62
(dp1400
sg71
g637
sg64
(lp1401
g57
(g78
g59
NtRp1402
(dp1403
g62
(dp1404
g82
g83
ssg71
g1398
sg64
(lp1405
S'wsgi_errors'
p1406
asbag57
(g78
g59
NtRp1407
(dp1408
g62
(dp1409
g89
g90
ssg71
g1398
sg64
(lp1410
S':'
asbag57
(g78
g59
NtRp1411
(dp1412
g62
(dp1413
sg71
g1398
sg64
(lp1414
g57
(g58
g59
NtRp1415
(dp1416
g62
(dp1417
g70
I4
ssg71
g1411
sg64
(lp1418
S"<open file '<stderr>', mode 'w' at 0x0000000001CFE1E0>"
p1419
asbasbasbag57
(g73
g59
NtRp1420
(dp1421
g62
(dp1422
sg71
g637
sg64
(lp1423
g57
(g78
g59
NtRp1424
(dp1425
g62
(dp1426
g82
g83
ssg71
g1420
sg64
(lp1427
S'wsgi_file_wrapper'
p1428
asbag57
(g78
g59
NtRp1429
(dp1430
g62
(dp1431
g89
g90
ssg71
g1420
sg64
(lp1432
S':'
asbag57
(g78
g59
NtRp1433
(dp1434
g62
(dp1435
sg71
g1420
sg64
(lp1436
g57
(g58
g59
NtRp1437
(dp1438
g62
(dp1439
g70
I4
ssg71
g1433
sg64
(lp1440
S'<class wsgiref.util.FileWrapper at 0x000000000404E588>'
p1441
asbasbasbag57
(g73
g59
NtRp1442
(dp1443
g62
(dp1444
sg71
g637
sg64
(lp1445
g57
(g78
g59
NtRp1446
(dp1447
g62
(dp1448
g82
g83
ssg71
g1442
sg64
(lp1449
S'wsgi_input'
p1450
asbag57
(g78
g59
NtRp1451
(dp1452
g62
(dp1453
g89
g90
ssg71
g1442
sg64
(lp1454
S':'
asbag57
(g78
g59
NtRp1455
(dp1456
g62
(dp1457
sg71
g1442
sg64
(lp1458
g57
(g58
g59
NtRp1459
(dp1460
g62
(dp1461
g70
I4
ssg71
g1455
sg64
(lp1462
S'<socket._fileobject object at 0x0000000003D32CF0>'
p1463
asbasbasbag57
(g73
g59
NtRp1464
(dp1465
g62
(dp1466
sg71
g637
sg64
(lp1467
g57
(g78
g59
NtRp1468
(dp1469
g62
(dp1470
g82
g83
ssg71
g1464
sg64
(lp1471
S'wsgi_multiprocess'
p1472
asbag57
(g78
g59
NtRp1473
(dp1474
g62
(dp1475
g89
g90
ssg71
g1464
sg64
(lp1476
S':'
asbag57
(g78
g59
NtRp1477
(dp1478
g62
(dp1479
sg71
g1464
sg64
(lp1480
g57
(g58
g59
NtRp1481
(dp1482
g62
(dp1483
g70
I4
ssg71
g1477
sg64
(lp1484
g100
asbasbasbag57
(g73
g59
NtRp1485
(dp1486
g62
(dp1487
sg71
g637
sg64
(lp1488
g57
(g78
g59
NtRp1489
(dp1490
g62
(dp1491
g82
g83
ssg71
g1485
sg64
(lp1492
S'wsgi_multithread'
p1493
asbag57
(g78
g59
NtRp1494
(dp1495
g62
(dp1496
g89
g90
ssg71
g1485
sg64
(lp1497
S':'
asbag57
(g78
g59
NtRp1498
(dp1499
g62
(dp1500
sg71
g1485
sg64
(lp1501
g57
(g58
g59
NtRp1502
(dp1503
g62
(dp1504
g70
I4
ssg71
g1498
sg64
(lp1505
S'True'
p1506
asbasbasbag57
(g73
g59
NtRp1507
(dp1508
g62
(dp1509
sg71
g637
sg64
(lp1510
g57
(g78
g59
NtRp1511
(dp1512
g62
(dp1513
g82
g83
ssg71
g1507
sg64
(lp1514
S'wsgi_run_once'
p1515
asbag57
(g78
g59
NtRp1516
(dp1517
g62
(dp1518
g89
g90
ssg71
g1507
sg64
(lp1519
S':'
asbag57
(g78
g59
NtRp1520
(dp1521
g62
(dp1522
sg71
g1507
sg64
(lp1523
g57
(g58
g59
NtRp1524
(dp1525
g62
(dp1526
g70
I4
ssg71
g1520
sg64
(lp1527
g100
asbasbasbag57
(g73
g59
NtRp1528
(dp1529
g62
(dp1530
sg71
g637
sg64
(lp1531
g57
(g78
g59
NtRp1532
(dp1533
g62
(dp1534
g82
g83
ssg71
g1528
sg64
(lp1535
S'wsgi_url_scheme'
p1536
asbag57
(g78
g59
NtRp1537
(dp1538
g62
(dp1539
g89
g90
ssg71
g1528
sg64
(lp1540
S':'
asbag57
(g78
g59
NtRp1541
(dp1542
g62
(dp1543
sg71
g1528
sg64
(lp1544
g57
(g58
g59
NtRp1545
(dp1546
g62
(dp1547
g70
I4
ssg71
g1541
sg64
(lp1548
S'http'
p1549
asbasbasbag57
(g73
g59
NtRp1550
(dp1551
g62
(dp1552
sg71
g637
sg64
(lp1553
g57
(g78
g59
NtRp1554
(dp1555
g62
(dp1556
g82
g83
ssg71
g1550
sg64
(lp1557
S'wsgi_version'
p1558
asbag57
(g78
g59
NtRp1559
(dp1560
g62
(dp1561
g89
g90
ssg71
g1550
sg64
(lp1562
S':'
asbag57
(g78
g59
NtRp1563
(dp1564
g62
(dp1565
sg71
g1550
sg64
(lp1566
g57
(g58
g59
NtRp1567
(dp1568
g62
(dp1569
g70
I4
ssg71
g1563
sg64
(lp1570
g57
(g66
g59
NtRp1571
(dp1572
g62
(dp1573
g70
I3
ssg71
Nsg64
(lp1574
g57
(g73
g59
NtRp1575
(dp1576
g62
(dp1577
sg71
g1571
sg64
(lp1578
g57
(g78
g59
NtRp1579
(dp1580
g62
(dp1581
sg71
g1575
sg64
(lp1582
g57
(g58
g59
NtRp1583
(dp1584
g62
(dp1585
g70
I3
ssg71
g1579
sg64
(lp1586
S'1'
asbasbasbag57
(g73
g59
NtRp1587
(dp1588
g62
(dp1589
sg71
g1571
sg64
(lp1590
g57
(g78
g59
NtRp1591
(dp1592
g62
(dp1593
sg71
g1587
sg64
(lp1594
g57
(g58
g59
NtRp1595
(dp1596
g62
(dp1597
g70
I3
ssg71
g1591
sg64
(lp1598
S'0'
asbasbasbasbasbasbasbasbasbasbasbag57
(g73
g59
NtRp1599
(dp1600
g62
(dp1601
sg71
g67
sg64
(lp1602
g57
(g78
g59
NtRp1603
(dp1604
g62
(dp1605
g82
g83
ssg71
g1599
sg64
(lp1606
S'extension'
p1607
asbag57
(g78
g59
NtRp1608
(dp1609
g62
(dp1610
g89
g90
ssg71
g1599
sg64
(lp1611
S':'
asbag57
(g78
g59
NtRp1612
(dp1613
g62
(dp1614
sg71
g1599
sg64
(lp1615
g57
(g58
g59
NtRp1616
(dp1617
g62
(dp1618
g70
I5
ssg71
g1612
sg64
(lp1619
S'html'
p1620
asbasbasbag57
(g73
g59
NtRp1621
(dp1622
g62
(dp1623
sg71
g67
sg64
(lp1624
g57
(g78
g59
NtRp1625
(dp1626
g62
(dp1627
g82
g83
ssg71
g1621
sg64
(lp1628
S'folder'
p1629
asbag57
(g78
g59
NtRp1630
(dp1631
g62
(dp1632
g89
g90
ssg71
g1621
sg64
(lp1633
S':'
asbag57
(g78
g59
NtRp1634
(dp1635
g62
(dp1636
sg71
g1621
sg64
(lp1637
g57
(g58
g59
NtRp1638
(dp1639
g62
(dp1640
g70
I5
ssg71
g1634
sg64
(lp1641
S'D:\\workspace\\CA\\IgoR\\C_Sources\\Server\\igor-assistant-ca-2012\\applications\\igor\\'
p1642
asbasbasbag57
(g73
g59
NtRp1643
(dp1644
g62
(dp1645
sg71
g67
sg64
(lp1646
g57
(g78
g59
NtRp1647
(dp1648
g62
(dp1649
g82
g83
ssg71
g1643
sg64
(lp1650
S'function'
p1651
asbag57
(g78
g59
NtRp1652
(dp1653
g62
(dp1654
g89
g90
ssg71
g1643
sg64
(lp1655
S':'
asbag57
(g78
g59
NtRp1656
(dp1657
g62
(dp1658
sg71
g1643
sg64
(lp1659
g57
(g58
g59
NtRp1660
(dp1661
g62
(dp1662
g70
I5
ssg71
g1656
sg64
(lp1663
S'get_all_subjects'
p1664
asbasbasbag57
(g73
g59
NtRp1665
(dp1666
g62
(dp1667
sg71
g67
sg64
(lp1668
g57
(g78
g59
NtRp1669
(dp1670
g62
(dp1671
g82
g83
ssg71
g1665
sg64
(lp1672
S'get_vars'
p1673
asbag57
(g78
g59
NtRp1674
(dp1675
g62
(dp1676
g89
g90
ssg71
g1665
sg64
(lp1677
S':'
asbag57
(g78
g59
NtRp1678
(dp1679
g62
(dp1680
sg71
g1665
sg64
(lp1681
g57
(g58
g59
NtRp1682
(dp1683
g62
(dp1684
g70
I5
ssg71
g1678
sg64
(lp1685
g57
(g66
g59
NtRp1686
(dp1687
g62
(dp1688
g70
I4
ssg71
Nsg64
(lp1689
sbasbasbasbag57
(g73
g59
NtRp1690
(dp1691
g62
(dp1692
sg71
g67
sg64
(lp1693
g57
(g78
g59
NtRp1694
(dp1695
g62
(dp1696
g82
g83
ssg71
g1690
sg64
(lp1697
S'global_settings'
p1698
asbag57
(g78
g59
NtRp1699
(dp1700
g62
(dp1701
g89
g90
ssg71
g1690
sg64
(lp1702
S':'
asbag57
(g78
g59
NtRp1703
(dp1704
g62
(dp1705
sg71
g1690
sg64
(lp1706
g57
(g58
g59
NtRp1707
(dp1708
g62
(dp1709
g70
I5
ssg71
g1703
sg64
(lp1710
g57
(g66
g59
NtRp1711
(dp1712
g62
(dp1713
g70
I4
ssg71
Nsg64
(lp1714
g57
(g73
g59
NtRp1715
(dp1716
g62
(dp1717
sg71
g1711
sg64
(lp1718
g57
(g78
g59
NtRp1719
(dp1720
g62
(dp1721
g82
g83
ssg71
g1715
sg64
(lp1722
g649
asbag57
(g78
g59
NtRp1723
(dp1724
g62
(dp1725
g89
g90
ssg71
g1715
sg64
(lp1726
S':'
asbag57
(g78
g59
NtRp1727
(dp1728
g62
(dp1729
sg71
g1715
sg64
(lp1730
g57
(g58
g59
NtRp1731
(dp1732
g62
(dp1733
g70
I4
ssg71
g1727
sg64
(lp1734
S"set(['D:\\\\workspace\\\\CA\\\\IgoR\\\\C_Sources\\\\Server\\\\igor-assistant-ca-2012\\\\applications\\\\admin\\\\', 'D:\\\\workspace\\\\CA\\\\IgoR\\\\C_Sources\\\\Server\\\\igor-assistant-ca-2012\\\\applications\\\\igor\\\\', 'D:\\\\workspace\\\\CA\\\\IgoR\\\\C_Sources\\\\Server\\\\igor-assistant-ca-2012\\\\applications\\\\welcome\\\\'])"
p1735
asbasbasbag57
(g73
g59
NtRp1736
(dp1737
g62
(dp1738
sg71
g1711
sg64
(lp1739
g57
(g78
g59
NtRp1740
(dp1741
g62
(dp1742
g82
g83
ssg71
g1736
sg64
(lp1743
g671
asbag57
(g78
g59
NtRp1744
(dp1745
g62
(dp1746
g89
g90
ssg71
g1736
sg64
(lp1747
S':'
asbag57
(g78
g59
NtRp1748
(dp1749
g62
(dp1750
sg71
g1736
sg64
(lp1751
g57
(g58
g59
NtRp1752
(dp1753
g62
(dp1754
g70
I4
ssg71
g1748
sg64
(lp1755
g684
asbasbasbag57
(g73
g59
NtRp1756
(dp1757
g62
(dp1758
sg71
g1711
sg64
(lp1759
g57
(g78
g59
NtRp1760
(dp1761
g62
(dp1762
g82
g83
ssg71
g1756
sg64
(lp1763
g693
asbag57
(g78
g59
NtRp1764
(dp1765
g62
(dp1766
g89
g90
ssg71
g1756
sg64
(lp1767
S':'
asbag57
(g78
g59
NtRp1768
(dp1769
g62
(dp1770
sg71
g1756
sg64
(lp1771
g57
(g58
g59
NtRp1772
(dp1773
g62
(dp1774
g70
I4
ssg71
g1768
sg64
(lp1775
g57
(g66
g59
NtRp1776
(dp1777
g62
(dp1778
g70
I3
ssg71
Nsg64
(lp1779
g57
(g73
g59
NtRp1780
(dp1781
g62
(dp1782
sg71
g1776
sg64
(lp1783
g57
(g78
g59
NtRp1784
(dp1785
g62
(dp1786
sg71
g1780
sg64
(lp1787
g57
(g58
g59
NtRp1788
(dp1789
g62
(dp1790
g70
I3
ssg71
g1784
sg64
(lp1791
g722
asbasbasbasbasbasbasbag57
(g73
g59
NtRp1792
(dp1793
g62
(dp1794
sg71
g1711
sg64
(lp1795
g57
(g78
g59
NtRp1796
(dp1797
g62
(dp1798
g82
g83
ssg71
g1792
sg64
(lp1799
g731
asbag57
(g78
g59
NtRp1800
(dp1801
g62
(dp1802
g89
g90
ssg71
g1792
sg64
(lp1803
S':'
asbag57
(g78
g59
NtRp1804
(dp1805
g62
(dp1806
sg71
g1792
sg64
(lp1807
g57
(g58
g59
NtRp1808
(dp1809
g62
(dp1810
g70
I4
ssg71
g1804
sg64
(lp1811
S"<Values at 0x3c35488: {'verbose': False, 'ip': '127.0.0.1', 'shutdown_timeout': 5, 'taskbar': False, 'nocron': False, 'pid_filename': 'httpserver.pid', 'maxthreads': None, 'softcron': False, 'server_name': 'PHUCNH-PC', 'bpython': False, 'nogui': False, 'port': 8000, 'extcron': False, 'debuglevel': 30, 'test': None, 'folder': 'D:\\\\workspace\\\\CA\\\\IgoR\\\\C_Sources\\\\Server\\\\igor-assistant-ca-2012', 'config': '', 'import_models': False, 'winservice': '', 'shell': None, 'run': '', 'log_filename': 'httpserver.log', 'args': [''], 'socket_timeout': 5, 'ssl_ca_certificate': None, 'scheduler': None, 'profiler_filename': None, 'ssl_private_key': '', 'password': '<ask>', 'request_queue_size': 5, 'ssl_certificate': '', 'cronjob': False, 'numthreads': None, 'quiet': False, 'interfaces': None, 'minthreads': None, 'timeout': 10, 'plain': False, 'nobanner': False}>"
p1812
asbasbasbag57
(g73
g59
NtRp1813
(dp1814
g62
(dp1815
sg71
g1711
sg64
(lp1816
g57
(g78
g59
NtRp1817
(dp1818
g62
(dp1819
g82
g83
ssg71
g1813
sg64
(lp1820
g753
asbag57
(g78
g59
NtRp1821
(dp1822
g62
(dp1823
g89
g90
ssg71
g1813
sg64
(lp1824
S':'
asbag57
(g78
g59
NtRp1825
(dp1826
g62
(dp1827
sg71
g1813
sg64
(lp1828
g57
(g58
g59
NtRp1829
(dp1830
g62
(dp1831
g70
I4
ssg71
g1825
sg64
(lp1832
S'set([])'
p1833
asbasbasbag57
(g73
g59
NtRp1834
(dp1835
g62
(dp1836
sg71
g1711
sg64
(lp1837
g57
(g78
g59
NtRp1838
(dp1839
g62
(dp1840
g82
g83
ssg71
g1834
sg64
(lp1841
g775
asbag57
(g78
g59
NtRp1842
(dp1843
g62
(dp1844
g89
g90
ssg71
g1834
sg64
(lp1845
S':'
asbag57
(g78
g59
NtRp1846
(dp1847
g62
(dp1848
sg71
g1834
sg64
(lp1849
g57
(g58
g59
NtRp1850
(dp1851
g62
(dp1852
g70
I4
ssg71
g1846
sg64
(lp1853
g100
asbasbasbag57
(g73
g59
NtRp1854
(dp1855
g62
(dp1856
sg71
g1711
sg64
(lp1857
g57
(g78
g59
NtRp1858
(dp1859
g62
(dp1860
g82
g83
ssg71
g1854
sg64
(lp1861
g796
asbag57
(g78
g59
NtRp1862
(dp1863
g62
(dp1864
g89
g90
ssg71
g1854
sg64
(lp1865
S':'
asbag57
(g78
g59
NtRp1866
(dp1867
g62
(dp1868
sg71
g1854
sg64
(lp1869
g57
(g58
g59
NtRp1870
(dp1871
g62
(dp1872
g70
I4
ssg71
g1866
sg64
(lp1873
g809
asbasbasbag57
(g73
g59
NtRp1874
(dp1875
g62
(dp1876
sg71
g1711
sg64
(lp1877
g57
(g78
g59
NtRp1878
(dp1879
g62
(dp1880
g82
g83
ssg71
g1874
sg64
(lp1881
g1016
asbag57
(g78
g59
NtRp1882
(dp1883
g62
(dp1884
g89
g90
ssg71
g1874
sg64
(lp1885
S':'
asbag57
(g78
g59
NtRp1886
(dp1887
g62
(dp1888
sg71
g1874
sg64
(lp1889
g57
(g58
g59
NtRp1890
(dp1891
g62
(dp1892
g70
I4
ssg71
g1886
sg64
(lp1893
g100
asbasbasbag57
(g73
g59
NtRp1894
(dp1895
g62
(dp1896
sg71
g1711
sg64
(lp1897
g57
(g78
g59
NtRp1898
(dp1899
g62
(dp1900
g82
g83
ssg71
g1894
sg64
(lp1901
g1037
asbag57
(g78
g59
NtRp1902
(dp1903
g62
(dp1904
g89
g90
ssg71
g1894
sg64
(lp1905
S':'
asbag57
(g78
g59
NtRp1906
(dp1907
g62
(dp1908
sg71
g1894
sg64
(lp1909
g57
(g58
g59
NtRp1910
(dp1911
g62
(dp1912
g70
I4
ssg71
g1906
sg64
(lp1913
g100
asbasbasbag57
(g73
g59
NtRp1914
(dp1915
g62
(dp1916
sg71
g1711
sg64
(lp1917
g57
(g78
g59
NtRp1918
(dp1919
g62
(dp1920
g82
g83
ssg71
g1914
sg64
(lp1921
g1275
asbag57
(g78
g59
NtRp1922
(dp1923
g62
(dp1924
g89
g90
ssg71
g1914
sg64
(lp1925
S':'
asbag57
(g78
g59
NtRp1926
(dp1927
g62
(dp1928
sg71
g1914
sg64
(lp1929
g57
(g58
g59
NtRp1930
(dp1931
g62
(dp1932
g70
I4
ssg71
g1926
sg64
(lp1933
g1288
asbasbasbag57
(g73
g59
NtRp1934
(dp1935
g62
(dp1936
sg71
g1711
sg64
(lp1937
g57
(g78
g59
NtRp1938
(dp1939
g62
(dp1940
g82
g83
ssg71
g1934
sg64
(lp1941
g1318
asbag57
(g78
g59
NtRp1942
(dp1943
g62
(dp1944
g89
g90
ssg71
g1934
sg64
(lp1945
S':'
asbag57
(g78
g59
NtRp1946
(dp1947
g62
(dp1948
sg71
g1934
sg64
(lp1949
g57
(g58
g59
NtRp1950
(dp1951
g62
(dp1952
g70
I4
ssg71
g1946
sg64
(lp1953
g57
(g66
g59
NtRp1954
(dp1955
g62
(dp1956
g70
I3
ssg71
Nsg64
(lp1957
g57
(g73
g59
NtRp1958
(dp1959
g62
(dp1960
sg71
g1954
sg64
(lp1961
g57
(g78
g59
NtRp1962
(dp1963
g62
(dp1964
sg71
g1958
sg64
(lp1965
g57
(g58
g59
NtRp1966
(dp1967
g62
(dp1968
g70
I3
ssg71
g1962
sg64
(lp1969
S'1'
asbasbasbag57
(g73
g59
NtRp1970
(dp1971
g62
(dp1972
sg71
g1954
sg64
(lp1973
g57
(g78
g59
NtRp1974
(dp1975
g62
(dp1976
sg71
g1970
sg64
(lp1977
g57
(g58
g59
NtRp1978
(dp1979
g62
(dp1980
g70
I3
ssg71
g1974
sg64
(lp1981
S'99'
p1982
asbasbasbag57
(g73
g59
NtRp1983
(dp1984
g62
(dp1985
sg71
g1954
sg64
(lp1986
g57
(g78
g59
NtRp1987
(dp1988
g62
(dp1989
sg71
g1983
sg64
(lp1990
g57
(g58
g59
NtRp1991
(dp1992
g62
(dp1993
g70
I3
ssg71
g1987
sg64
(lp1994
S'7'
asbasbasbag57
(g73
g59
NtRp1995
(dp1996
g62
(dp1997
sg71
g1954
sg64
(lp1998
g57
(g78
g59
NtRp1999
(dp2000
g62
(dp2001
sg71
g1995
sg64
(lp2002
g57
(g58
g59
NtRp2003
(dp2004
g62
(dp2005
g70
I3
ssg71
g1999
sg64
(lp2006
S'datetime.datetime(2012, 3, 4, 22, 12, 8)'
p2007
asbasbasbag57
(g73
g59
NtRp2008
(dp2009
g62
(dp2010
sg71
g1954
sg64
(lp2011
g57
(g78
g59
NtRp2012
(dp2013
g62
(dp2014
sg71
g2008
sg64
(lp2015
g57
(g58
g59
NtRp2016
(dp2017
g62
(dp2018
g70
I3
ssg71
g2012
sg64
(lp2019
g1397
asbasbasbasbasbasbasbasbasbasbasbag57
(g73
g59
NtRp2020
(dp2021
g62
(dp2022
sg71
g67
sg64
(lp2023
g57
(g78
g59
NtRp2024
(dp2025
g62
(dp2026
g82
g83
ssg71
g2020
sg64
(lp2027
S'is_https'
p2028
asbag57
(g78
g59
NtRp2029
(dp2030
g62
(dp2031
g89
g90
ssg71
g2020
sg64
(lp2032
S':'
asbag57
(g78
g59
NtRp2033
(dp2034
g62
(dp2035
sg71
g2020
sg64
(lp2036
g57
(g58
g59
NtRp2037
(dp2038
g62
(dp2039
g70
I5
ssg71
g2033
sg64
(lp2040
g100
asbasbasbag57
(g73
g59
NtRp2041
(dp2042
g62
(dp2043
sg71
g67
sg64
(lp2044
g57
(g78
g59
NtRp2045
(dp2046
g62
(dp2047
g82
g83
ssg71
g2041
sg64
(lp2048
S'is_local'
p2049
asbag57
(g78
g59
NtRp2050
(dp2051
g62
(dp2052
g89
g90
ssg71
g2041
sg64
(lp2053
S':'
asbag57
(g78
g59
NtRp2054
(dp2055
g62
(dp2056
sg71
g2041
sg64
(lp2057
g57
(g58
g59
NtRp2058
(dp2059
g62
(dp2060
g70
I5
ssg71
g2054
sg64
(lp2061
g1506
asbasbasbag57
(g73
g59
NtRp2062
(dp2063
g62
(dp2064
sg71
g67
sg64
(lp2065
g57
(g78
g59
NtRp2066
(dp2067
g62
(dp2068
g82
g83
ssg71
g2062
sg64
(lp2069
S'is_restful'
p2070
asbag57
(g78
g59
NtRp2071
(dp2072
g62
(dp2073
g89
g90
ssg71
g2062
sg64
(lp2074
S':'
asbag57
(g78
g59
NtRp2075
(dp2076
g62
(dp2077
sg71
g2062
sg64
(lp2078
g57
(g58
g59
NtRp2079
(dp2080
g62
(dp2081
g70
I5
ssg71
g2075
sg64
(lp2082
g100
asbasbasbag57
(g73
g59
NtRp2083
(dp2084
g62
(dp2085
sg71
g67
sg64
(lp2086
g57
(g78
g59
NtRp2087
(dp2088
g62
(dp2089
g82
g83
ssg71
g2083
sg64
(lp2090
S'now'
p2091
asbag57
(g78
g59
NtRp2092
(dp2093
g62
(dp2094
g89
g90
ssg71
g2083
sg64
(lp2095
S':'
asbag57
(g78
g59
NtRp2096
(dp2097
g62
(dp2098
sg71
g2083
sg64
(lp2099
g57
(g58
g59
NtRp2100
(dp2101
g62
(dp2102
g70
I5
ssg71
g2096
sg64
(lp2103
S'datetime.datetime(2012, 8, 4, 14, 58, 3, 811000)'
p2104
asbasbasbag57
(g73
g59
NtRp2105
(dp2106
g62
(dp2107
sg71
g67
sg64
(lp2108
g57
(g78
g59
NtRp2109
(dp2110
g62
(dp2111
g82
g83
ssg71
g2105
sg64
(lp2112
S'post_vars'
p2113
asbag57
(g78
g59
NtRp2114
(dp2115
g62
(dp2116
g89
g90
ssg71
g2105
sg64
(lp2117
S':'
asbag57
(g78
g59
NtRp2118
(dp2119
g62
(dp2120
sg71
g2105
sg64
(lp2121
g57
(g58
g59
NtRp2122
(dp2123
g62
(dp2124
g70
I5
ssg71
g2118
sg64
(lp2125
g57
(g66
g59
NtRp2126
(dp2127
g62
(dp2128
g70
I4
ssg71
Nsg64
(lp2129
sbasbasbasbag57
(g73
g59
NtRp2130
(dp2131
g62
(dp2132
sg71
g67
sg64
(lp2133
g57
(g78
g59
NtRp2134
(dp2135
g62
(dp2136
g82
g83
ssg71
g2130
sg64
(lp2137
S'url'
p2138
asbag57
(g78
g59
NtRp2139
(dp2140
g62
(dp2141
g89
g90
ssg71
g2130
sg64
(lp2142
S':'
asbag57
(g78
g59
NtRp2143
(dp2144
g62
(dp2145
sg71
g2130
sg64
(lp2146
g57
(g58
g59
NtRp2147
(dp2148
g62
(dp2149
g70
I5
ssg71
g2143
sg64
(lp2150
S'/igor/subject/get_all_subjects'
p2151
asbasbasbag57
(g73
g59
NtRp2152
(dp2153
g62
(dp2154
sg71
g67
sg64
(lp2155
g57
(g78
g59
NtRp2156
(dp2157
g62
(dp2158
g82
g83
ssg71
g2152
sg64
(lp2159
S'utcnow'
p2160
asbag57
(g78
g59
NtRp2161
(dp2162
g62
(dp2163
g89
g90
ssg71
g2152
sg64
(lp2164
S':'
asbag57
(g78
g59
NtRp2165
(dp2166
g62
(dp2167
sg71
g2152
sg64
(lp2168
g57
(g58
g59
NtRp2169
(dp2170
g62
(dp2171
g70
I5
ssg71
g2165
sg64
(lp2172
S'datetime.datetime(2012, 8, 4, 7, 58, 3, 811000)'
p2173
asbasbasbag57
(g73
g59
NtRp2174
(dp2175
g62
(dp2176
sg71
g67
sg64
(lp2177
g57
(g78
g59
NtRp2178
(dp2179
g62
(dp2180
g82
g83
ssg71
g2174
sg64
(lp2181
S'uuid'
p2182
asbag57
(g78
g59
NtRp2183
(dp2184
g62
(dp2185
g89
g90
ssg71
g2174
sg64
(lp2186
S':'
asbag57
(g78
g59
NtRp2187
(dp2188
g62
(dp2189
sg71
g2174
sg64
(lp2190
g57
(g58
g59
NtRp2191
(dp2192
g62
(dp2193
g70
I5
ssg71
g2187
sg64
(lp2194
S'igor/127.0.0.1.2012-08-04.14-58-03.7e1bcc03-bd16-48f8-8325-8047c03e24fe'
p2195
asbasbasbag57
(g73
g59
NtRp2196
(dp2197
g62
(dp2198
sg71
g67
sg64
(lp2199
g57
(g78
g59
NtRp2200
(dp2201
g62
(dp2202
g82
g83
ssg71
g2196
sg64
(lp2203
S'vars'
p2204
asbag57
(g78
g59
NtRp2205
(dp2206
g62
(dp2207
g89
g90
ssg71
g2196
sg64
(lp2208
S':'
asbag57
(g78
g59
NtRp2209
(dp2210
g62
(dp2211
sg71
g2196
sg64
(lp2212
g57
(g58
g59
NtRp2213
(dp2214
g62
(dp2215
g70
I5
ssg71
g2209
sg64
(lp2216
g57
(g66
g59
NtRp2217
(dp2218
g62
(dp2219
g70
I4
ssg71
Nsg64
(lp2220
sbasbasbasbag57
(g73
g59
NtRp2221
(dp2222
g62
(dp2223
sg71
g67
sg64
(lp2224
g57
(g78
g59
NtRp2225
(dp2226
g62
(dp2227
g82
g83
ssg71
g2221
sg64
(lp2228
S'wsgi'
p2229
asbag57
(g78
g59
NtRp2230
(dp2231
g62
(dp2232
g89
g90
ssg71
g2221
sg64
(lp2233
S':'
asbag57
(g78
g59
NtRp2234
(dp2235
g62
(dp2236
sg71
g2221
sg64
(lp2237
g57
(g58
g59
NtRp2238
(dp2239
g62
(dp2240
g70
I5
ssg71
g2234
sg64
(lp2241
g57
(g66
g59
NtRp2242
(dp2243
g62
(dp2244
g70
I4
ssg71
Nsg64
(lp2245
g57
(g73
g59
NtRp2246
(dp2247
g62
(dp2248
sg71
g2242
sg64
(lp2249
g57
(g78
g59
NtRp2250
(dp2251
g62
(dp2252
g82
g83
ssg71
g2246
sg64
(lp2253
S'environ'
p2254
asbag57
(g78
g59
NtRp2255
(dp2256
g62
(dp2257
g89
g90
ssg71
g2246
sg64
(lp2258
S':'
asbag57
(g78
g59
NtRp2259
(dp2260
g62
(dp2261
sg71
g2246
sg64
(lp2262
g57
(g58
g59
NtRp2263
(dp2264
g62
(dp2265
g70
I4
ssg71
g2259
sg64
(lp2266
g57
(g66
g59
NtRp2267
(dp2268
g62
(dp2269
g70
I3
ssg71
Nsg64
(lp2270
g57
(g73
g59
NtRp2271
(dp2272
g62
(dp2273
sg71
g2267
sg64
(lp2274
g57
(g78
g59
NtRp2275
(dp2276
g62
(dp2277
g82
g83
ssg71
g2271
sg64
(lp2278
S'HTTP_ACCEPT'
p2279
asbag57
(g78
g59
NtRp2280
(dp2281
g62
(dp2282
g89
g90
ssg71
g2271
sg64
(lp2283
S':'
asbag57
(g78
g59
NtRp2284
(dp2285
g62
(dp2286
sg71
g2271
sg64
(lp2287
g57
(g58
g59
NtRp2288
(dp2289
g62
(dp2290
g70
I3
ssg71
g2284
sg64
(lp2291
g831
asbasbasbag57
(g73
g59
NtRp2292
(dp2293
g62
(dp2294
sg71
g2267
sg64
(lp2295
g57
(g78
g59
NtRp2296
(dp2297
g62
(dp2298
g82
g83
ssg71
g2292
sg64
(lp2299
S'HTTP_ACCEPT_CHARSET'
p2300
asbag57
(g78
g59
NtRp2301
(dp2302
g62
(dp2303
g89
g90
ssg71
g2292
sg64
(lp2304
S':'
asbag57
(g78
g59
NtRp2305
(dp2306
g62
(dp2307
sg71
g2292
sg64
(lp2308
g57
(g58
g59
NtRp2309
(dp2310
g62
(dp2311
g70
I3
ssg71
g2305
sg64
(lp2312
g853
asbasbasbag57
(g73
g59
NtRp2313
(dp2314
g62
(dp2315
sg71
g2267
sg64
(lp2316
g57
(g78
g59
NtRp2317
(dp2318
g62
(dp2319
g82
g83
ssg71
g2313
sg64
(lp2320
S'HTTP_ACCEPT_ENCODING'
p2321
asbag57
(g78
g59
NtRp2322
(dp2323
g62
(dp2324
g89
g90
ssg71
g2313
sg64
(lp2325
S':'
asbag57
(g78
g59
NtRp2326
(dp2327
g62
(dp2328
sg71
g2313
sg64
(lp2329
g57
(g58
g59
NtRp2330
(dp2331
g62
(dp2332
g70
I3
ssg71
g2326
sg64
(lp2333
g875
asbasbasbag57
(g73
g59
NtRp2334
(dp2335
g62
(dp2336
sg71
g2267
sg64
(lp2337
g57
(g78
g59
NtRp2338
(dp2339
g62
(dp2340
g82
g83
ssg71
g2334
sg64
(lp2341
S'HTTP_ACCEPT_LANGUAGE'
p2342
asbag57
(g78
g59
NtRp2343
(dp2344
g62
(dp2345
g89
g90
ssg71
g2334
sg64
(lp2346
S':'
asbag57
(g78
g59
NtRp2347
(dp2348
g62
(dp2349
sg71
g2334
sg64
(lp2350
g57
(g58
g59
NtRp2351
(dp2352
g62
(dp2353
g70
I3
ssg71
g2347
sg64
(lp2354
g897
asbasbasbag57
(g73
g59
NtRp2355
(dp2356
g62
(dp2357
sg71
g2267
sg64
(lp2358
g57
(g78
g59
NtRp2359
(dp2360
g62
(dp2361
g82
g83
ssg71
g2355
sg64
(lp2362
S'HTTP_CACHE_CONTROL'
p2363
asbag57
(g78
g59
NtRp2364
(dp2365
g62
(dp2366
g89
g90
ssg71
g2355
sg64
(lp2367
S':'
asbag57
(g78
g59
NtRp2368
(dp2369
g62
(dp2370
sg71
g2355
sg64
(lp2371
g57
(g58
g59
NtRp2372
(dp2373
g62
(dp2374
g70
I3
ssg71
g2368
sg64
(lp2375
g919
asbasbasbag57
(g73
g59
NtRp2376
(dp2377
g62
(dp2378
sg71
g2267
sg64
(lp2379
g57
(g78
g59
NtRp2380
(dp2381
g62
(dp2382
g82
g83
ssg71
g2376
sg64
(lp2383
S'HTTP_CONNECTION'
p2384
asbag57
(g78
g59
NtRp2385
(dp2386
g62
(dp2387
g89
g90
ssg71
g2376
sg64
(lp2388
S':'
asbag57
(g78
g59
NtRp2389
(dp2390
g62
(dp2391
sg71
g2376
sg64
(lp2392
g57
(g58
g59
NtRp2393
(dp2394
g62
(dp2395
g70
I3
ssg71
g2389
sg64
(lp2396
g941
asbasbasbag57
(g73
g59
NtRp2397
(dp2398
g62
(dp2399
sg71
g2267
sg64
(lp2400
g57
(g78
g59
NtRp2401
(dp2402
g62
(dp2403
g82
g83
ssg71
g2397
sg64
(lp2404
S'HTTP_COOKIE'
p2405
asbag57
(g78
g59
NtRp2406
(dp2407
g62
(dp2408
g89
g90
ssg71
g2397
sg64
(lp2409
S':'
asbag57
(g78
g59
NtRp2410
(dp2411
g62
(dp2412
sg71
g2397
sg64
(lp2413
g57
(g58
g59
NtRp2414
(dp2415
g62
(dp2416
g70
I3
ssg71
g2410
sg64
(lp2417
g963
asbasbasbag57
(g73
g59
NtRp2418
(dp2419
g62
(dp2420
sg71
g2267
sg64
(lp2421
g57
(g78
g59
NtRp2422
(dp2423
g62
(dp2424
g82
g83
ssg71
g2418
sg64
(lp2425
S'HTTP_HOST'
p2426
asbag57
(g78
g59
NtRp2427
(dp2428
g62
(dp2429
g89
g90
ssg71
g2418
sg64
(lp2430
S':'
asbag57
(g78
g59
NtRp2431
(dp2432
g62
(dp2433
sg71
g2418
sg64
(lp2434
g57
(g58
g59
NtRp2435
(dp2436
g62
(dp2437
g70
I3
ssg71
g2431
sg64
(lp2438
g985
asbasbasbag57
(g73
g59
NtRp2439
(dp2440
g62
(dp2441
sg71
g2267
sg64
(lp2442
g57
(g78
g59
NtRp2443
(dp2444
g62
(dp2445
g82
g83
ssg71
g2439
sg64
(lp2446
S'HTTP_USER_AGENT'
p2447
asbag57
(g78
g59
NtRp2448
(dp2449
g62
(dp2450
g89
g90
ssg71
g2439
sg64
(lp2451
S':'
asbag57
(g78
g59
NtRp2452
(dp2453
g62
(dp2454
sg71
g2439
sg64
(lp2455
g57
(g58
g59
NtRp2456
(dp2457
g62
(dp2458
g70
I3
ssg71
g2452
sg64
(lp2459
g1007
asbasbasbag57
(g73
g59
NtRp2460
(dp2461
g62
(dp2462
sg71
g2267
sg64
(lp2463
g57
(g78
g59
NtRp2464
(dp2465
g62
(dp2466
g82
g83
ssg71
g2460
sg64
(lp2467
S'PATH_INFO'
p2468
asbag57
(g78
g59
NtRp2469
(dp2470
g62
(dp2471
g89
g90
ssg71
g2460
sg64
(lp2472
S':'
asbag57
(g78
g59
NtRp2473
(dp2474
g62
(dp2475
sg71
g2460
sg64
(lp2476
g57
(g58
g59
NtRp2477
(dp2478
g62
(dp2479
g70
I3
ssg71
g2473
sg64
(lp2480
g1071
asbasbasbag57
(g73
g59
NtRp2481
(dp2482
g62
(dp2483
sg71
g2267
sg64
(lp2484
g57
(g78
g59
NtRp2485
(dp2486
g62
(dp2487
g82
g83
ssg71
g2481
sg64
(lp2488
S'QUERY_STRING'
p2489
asbag57
(g78
g59
NtRp2490
(dp2491
g62
(dp2492
g89
g90
ssg71
g2481
sg64
(lp2493
S':'
asbag57
(g78
g59
NtRp2494
(dp2495
g62
(dp2496
sg71
g2481
sg64
(lp2497
g57
(g58
g59
NtRp2498
(dp2499
g62
(dp2500
g70
I3
ssg71
g2494
sg64
(lp2501
S''
asbasbasbag57
(g73
g59
NtRp2502
(dp2503
g62
(dp2504
sg71
g2267
sg64
(lp2505
g57
(g78
g59
NtRp2506
(dp2507
g62
(dp2508
g82
g83
ssg71
g2502
sg64
(lp2509
S'REMOTE_ADDR'
p2510
asbag57
(g78
g59
NtRp2511
(dp2512
g62
(dp2513
g89
g90
ssg71
g2502
sg64
(lp2514
S':'
asbag57
(g78
g59
NtRp2515
(dp2516
g62
(dp2517
sg71
g2502
sg64
(lp2518
g57
(g58
g59
NtRp2519
(dp2520
g62
(dp2521
g70
I3
ssg71
g2515
sg64
(lp2522
g190
asbasbasbag57
(g73
g59
NtRp2523
(dp2524
g62
(dp2525
sg71
g2267
sg64
(lp2526
g57
(g78
g59
NtRp2527
(dp2528
g62
(dp2529
g82
g83
ssg71
g2523
sg64
(lp2530
S'REMOTE_PORT'
p2531
asbag57
(g78
g59
NtRp2532
(dp2533
g62
(dp2534
g89
g90
ssg71
g2523
sg64
(lp2535
S':'
asbag57
(g78
g59
NtRp2536
(dp2537
g62
(dp2538
sg71
g2523
sg64
(lp2539
g57
(g58
g59
NtRp2540
(dp2541
g62
(dp2542
g70
I3
ssg71
g2536
sg64
(lp2543
g1135
asbasbasbag57
(g73
g59
NtRp2544
(dp2545
g62
(dp2546
sg71
g2267
sg64
(lp2547
g57
(g78
g59
NtRp2548
(dp2549
g62
(dp2550
g82
g83
ssg71
g2544
sg64
(lp2551
S'REQUEST_METHOD'
p2552
asbag57
(g78
g59
NtRp2553
(dp2554
g62
(dp2555
g89
g90
ssg71
g2544
sg64
(lp2556
S':'
asbag57
(g78
g59
NtRp2557
(dp2558
g62
(dp2559
sg71
g2544
sg64
(lp2560
g57
(g58
g59
NtRp2561
(dp2562
g62
(dp2563
g70
I3
ssg71
g2557
sg64
(lp2564
g1157
asbasbasbag57
(g73
g59
NtRp2565
(dp2566
g62
(dp2567
sg71
g2267
sg64
(lp2568
g57
(g78
g59
NtRp2569
(dp2570
g62
(dp2571
g82
g83
ssg71
g2565
sg64
(lp2572
S'SCRIPT_NAME'
p2573
asbag57
(g78
g59
NtRp2574
(dp2575
g62
(dp2576
g89
g90
ssg71
g2565
sg64
(lp2577
S':'
asbag57
(g78
g59
NtRp2578
(dp2579
g62
(dp2580
sg71
g2565
sg64
(lp2581
g57
(g58
g59
NtRp2582
(dp2583
g62
(dp2584
g70
I3
ssg71
g2578
sg64
(lp2585
S''
asbasbasbag57
(g73
g59
NtRp2586
(dp2587
g62
(dp2588
sg71
g2267
sg64
(lp2589
g57
(g78
g59
NtRp2590
(dp2591
g62
(dp2592
g82
g83
ssg71
g2586
sg64
(lp2593
S'SERVER_NAME'
p2594
asbag57
(g78
g59
NtRp2595
(dp2596
g62
(dp2597
g89
g90
ssg71
g2586
sg64
(lp2598
S':'
asbag57
(g78
g59
NtRp2599
(dp2600
g62
(dp2601
sg71
g2586
sg64
(lp2602
g57
(g58
g59
NtRp2603
(dp2604
g62
(dp2605
g70
I3
ssg71
g2599
sg64
(lp2606
g1200
asbasbasbag57
(g73
g59
NtRp2607
(dp2608
g62
(dp2609
sg71
g2267
sg64
(lp2610
g57
(g78
g59
NtRp2611
(dp2612
g62
(dp2613
g82
g83
ssg71
g2607
sg64
(lp2614
S'SERVER_PORT'
p2615
asbag57
(g78
g59
NtRp2616
(dp2617
g62
(dp2618
g89
g90
ssg71
g2607
sg64
(lp2619
S':'
asbag57
(g78
g59
NtRp2620
(dp2621
g62
(dp2622
sg71
g2607
sg64
(lp2623
g57
(g58
g59
NtRp2624
(dp2625
g62
(dp2626
g70
I3
ssg71
g2620
sg64
(lp2627
g1222
asbasbasbag57
(g73
g59
NtRp2628
(dp2629
g62
(dp2630
sg71
g2267
sg64
(lp2631
g57
(g78
g59
NtRp2632
(dp2633
g62
(dp2634
g82
g83
ssg71
g2628
sg64
(lp2635
S'SERVER_PROTOCOL'
p2636
asbag57
(g78
g59
NtRp2637
(dp2638
g62
(dp2639
g89
g90
ssg71
g2628
sg64
(lp2640
S':'
asbag57
(g78
g59
NtRp2641
(dp2642
g62
(dp2643
sg71
g2628
sg64
(lp2644
g57
(g58
g59
NtRp2645
(dp2646
g62
(dp2647
g70
I3
ssg71
g2641
sg64
(lp2648
g1244
asbasbasbag57
(g73
g59
NtRp2649
(dp2650
g62
(dp2651
sg71
g2267
sg64
(lp2652
g57
(g78
g59
NtRp2653
(dp2654
g62
(dp2655
g82
g83
ssg71
g2649
sg64
(lp2656
S'SERVER_SOFTWARE'
p2657
asbag57
(g78
g59
NtRp2658
(dp2659
g62
(dp2660
g89
g90
ssg71
g2649
sg64
(lp2661
S':'
asbag57
(g78
g59
NtRp2662
(dp2663
g62
(dp2664
sg71
g2649
sg64
(lp2665
g57
(g58
g59
NtRp2666
(dp2667
g62
(dp2668
g70
I3
ssg71
g2662
sg64
(lp2669
g1266
asbasbasbag57
(g73
g59
NtRp2670
(dp2671
g62
(dp2672
sg71
g2267
sg64
(lp2673
g57
(g78
g59
NtRp2674
(dp2675
g62
(dp2676
g82
g83
ssg71
g2670
sg64
(lp2677
S'wsgi.errors'
p2678
asbag57
(g78
g59
NtRp2679
(dp2680
g62
(dp2681
g89
g90
ssg71
g2670
sg64
(lp2682
S':'
asbag57
(g78
g59
NtRp2683
(dp2684
g62
(dp2685
sg71
g2670
sg64
(lp2686
g57
(g58
g59
NtRp2687
(dp2688
g62
(dp2689
g70
I3
ssg71
g2683
sg64
(lp2690
S"<open file '<stderr>', mode 'w' at 0x0000000001CFE1E0>"
p2691
asbasbasbag57
(g73
g59
NtRp2692
(dp2693
g62
(dp2694
sg71
g2267
sg64
(lp2695
g57
(g78
g59
NtRp2696
(dp2697
g62
(dp2698
g82
g83
ssg71
g2692
sg64
(lp2699
S'wsgi.file_wrapper'
p2700
asbag57
(g78
g59
NtRp2701
(dp2702
g62
(dp2703
g89
g90
ssg71
g2692
sg64
(lp2704
S':'
asbag57
(g78
g59
NtRp2705
(dp2706
g62
(dp2707
sg71
g2692
sg64
(lp2708
g57
(g58
g59
NtRp2709
(dp2710
g62
(dp2711
g70
I3
ssg71
g2705
sg64
(lp2712
S'<class wsgiref.util.FileWrapper at 0x000000000404E588>'
p2713
asbasbasbag57
(g73
g59
NtRp2714
(dp2715
g62
(dp2716
sg71
g2267
sg64
(lp2717
g57
(g78
g59
NtRp2718
(dp2719
g62
(dp2720
g82
g83
ssg71
g2714
sg64
(lp2721
S'wsgi.input'
p2722
asbag57
(g78
g59
NtRp2723
(dp2724
g62
(dp2725
g89
g90
ssg71
g2714
sg64
(lp2726
S':'
asbag57
(g78
g59
NtRp2727
(dp2728
g62
(dp2729
sg71
g2714
sg64
(lp2730
g57
(g58
g59
NtRp2731
(dp2732
g62
(dp2733
g70
I3
ssg71
g2727
sg64
(lp2734
S'<cStringIO.StringO object at 0x0000000003D29C70>'
p2735
asbasbasbag57
(g73
g59
NtRp2736
(dp2737
g62
(dp2738
sg71
g2267
sg64
(lp2739
g57
(g78
g59
NtRp2740
(dp2741
g62
(dp2742
g82
g83
ssg71
g2736
sg64
(lp2743
S'wsgi.multiprocess'
p2744
asbag57
(g78
g59
NtRp2745
(dp2746
g62
(dp2747
g89
g90
ssg71
g2736
sg64
(lp2748
S':'
asbag57
(g78
g59
NtRp2749
(dp2750
g62
(dp2751
sg71
g2736
sg64
(lp2752
g57
(g58
g59
NtRp2753
(dp2754
g62
(dp2755
g70
I3
ssg71
g2749
sg64
(lp2756
g100
asbasbasbag57
(g73
g59
NtRp2757
(dp2758
g62
(dp2759
sg71
g2267
sg64
(lp2760
g57
(g78
g59
NtRp2761
(dp2762
g62
(dp2763
g82
g83
ssg71
g2757
sg64
(lp2764
S'wsgi.multithread'
p2765
asbag57
(g78
g59
NtRp2766
(dp2767
g62
(dp2768
g89
g90
ssg71
g2757
sg64
(lp2769
S':'
asbag57
(g78
g59
NtRp2770
(dp2771
g62
(dp2772
sg71
g2757
sg64
(lp2773
g57
(g58
g59
NtRp2774
(dp2775
g62
(dp2776
g70
I3
ssg71
g2770
sg64
(lp2777
g1506
asbasbasbag57
(g73
g59
NtRp2778
(dp2779
g62
(dp2780
sg71
g2267
sg64
(lp2781
g57
(g78
g59
NtRp2782
(dp2783
g62
(dp2784
g82
g83
ssg71
g2778
sg64
(lp2785
S'wsgi.run_once'
p2786
asbag57
(g78
g59
NtRp2787
(dp2788
g62
(dp2789
g89
g90
ssg71
g2778
sg64
(lp2790
S':'
asbag57
(g78
g59
NtRp2791
(dp2792
g62
(dp2793
sg71
g2778
sg64
(lp2794
g57
(g58
g59
NtRp2795
(dp2796
g62
(dp2797
g70
I3
ssg71
g2791
sg64
(lp2798
g100
asbasbasbag57
(g73
g59
NtRp2799
(dp2800
g62
(dp2801
sg71
g2267
sg64
(lp2802
g57
(g78
g59
NtRp2803
(dp2804
g62
(dp2805
g82
g83
ssg71
g2799
sg64
(lp2806
S'wsgi.url_scheme'
p2807
asbag57
(g78
g59
NtRp2808
(dp2809
g62
(dp2810
g89
g90
ssg71
g2799
sg64
(lp2811
S':'
asbag57
(g78
g59
NtRp2812
(dp2813
g62
(dp2814
sg71
g2799
sg64
(lp2815
g57
(g58
g59
NtRp2816
(dp2817
g62
(dp2818
g70
I3
ssg71
g2812
sg64
(lp2819
g1549
asbasbasbag57
(g73
g59
NtRp2820
(dp2821
g62
(dp2822
sg71
g2267
sg64
(lp2823
g57
(g78
g59
NtRp2824
(dp2825
g62
(dp2826
g82
g83
ssg71
g2820
sg64
(lp2827
S'wsgi.version'
p2828
asbag57
(g78
g59
NtRp2829
(dp2830
g62
(dp2831
g89
g90
ssg71
g2820
sg64
(lp2832
S':'
asbag57
(g78
g59
NtRp2833
(dp2834
g62
(dp2835
sg71
g2820
sg64
(lp2836
g57
(g58
g59
NtRp2837
(dp2838
g62
(dp2839
g70
I3
ssg71
g2833
sg64
(lp2840
S'1'
asbasbasbasbasbasbasbasbasbasbasbasbasbsS'frames'
p2841
(lp2842
(dp2843
S'file'
p2844
S'D:\\workspace\\CA\\IgoR\\C_Sources\\Server\\igor-assistant-ca-2012\\gluon\\restricted.py'
p2845
sS'dump'
p2846
(dp2847
S'environment'
p2848
S"{'A': <class 'gluon.html.A'>, 'Auth': <class 'gluon.tools.Auth'>, 'B': <class 'gluon.html.B'>, 'BEAUTIFY': <class 'gluon.html.BEAUTIFY'>, 'BODY': <class 'gluon.html.BODY'>, 'BR': <class 'gluon.html.BR'>, 'BUTTON': <class 'gluon.html.BUTTON'>, 'CAT': <class 'gluon.html.CAT'>, 'CENTER': <class 'gluon.html.CENTER'>, 'CLEANUP': <class 'gluon.validators.CLEANUP'>, ...}"
p2849
sS'ccode'
p2850
S'<code object <module> at 00000000039976B0, file ...pplications\\igor\\controllers/subject.py", line 9>'
p2851
ssS'lnum'
p2852
I205
sS'lines'
p2853
(dp2854
I200
S'    try:'
p2855
sI201
S'        if type(code) == types.CodeType:'
p2856
sI202
S'            ccode = code'
p2857
sI203
S'        else:'
p2858
sI204
S'            ccode = compile2(code,layer)'
p2859
sI205
S'        exec ccode in environment'
p2860
sI206
S'    except HTTP:'
p2861
sI207
S'        raise'
p2862
sI208
S'    except RestrictedError:'
p2863
sI209
S'        # do not encapsulate (obfuscate) the original RestrictedError'
p2864
ssS'call'
p2865
S"(code='# -*- coding: utf-8 -*-\\n# this file is released ...esponse._vars=response._caller(get_all_subjects)\\n', environment={'A': <class 'gluon.html.A'>, 'Auth': <class 'gluon.tools.Auth'>, 'B': <class 'gluon.html.B'>, 'BEAUTIFY': <class 'gluon.html.BEAUTIFY'>, 'BODY': <class 'gluon.html.BODY'>, 'BR': <class 'gluon.html.BR'>, 'BUTTON': <class 'gluon.html.BUTTON'>, 'CAT': <class 'gluon.html.CAT'>, 'CENTER': <class 'gluon.html.CENTER'>, 'CLEANUP': <class 'gluon.validators.CLEANUP'>, ...}, layer=r'D:\\workspace\\CA\\IgoR\\C_Sources\\Server\\igor-assis...-ca-2012\\applications\\igor\\controllers/subject.py')"
p2866
sS'func'
p2867
S'restricted'
p2868
sa(dp2869
g2844
S'D:\\workspace\\CA\\IgoR\\C_Sources\\Server\\igor-assistant-ca-2012\\applications\\igor\\controllers\\subject.py'
p2870
sg2846
(dp2871
sg2852
I50
sg2853
(dp2872
I39
S''
sI40
S'\tif (int (id) < 0):'
p2873
sI41
S'\t\treturn MessagePackager.get_packaged_message ('
p2874
sI42
S'\t\t\tMessageStatus.ERROR,'
p2875
sI43
S'\t\t\t"subject id can not less than 1")'
p2876
sI44
S''
sI45
S'\t# Get data'
p2877
sI46
S'\tsubject = db(db.subject.id == id).select()'
p2878
sI47
S''
sI48
S'\treturn MessagePackager.get_packaged_message(MessageStatus.OK, subject)'
p2879
ssg2865
S'()'
p2880
sg2867
S'<module>'
p2881
sa(dp2882
g2844
S'D:\\workspace\\CA\\IgoR\\C_Sources\\Server\\igor-assistant-ca-2012\\gluon\\globals.py'
p2883
sg2846
(dp2884
S'self'
p2885
S'undefined'
p2886
sS'f'
S'None'
p2887
ssg2852
I173
sg2853
(dp2888
I168
S'        self.menu = []             # used by the default view layout'
p2889
sI169
S'        self.files = []            # used by web2py_ajax.html'
p2890
sI170
S'        self.generic_patterns = [] # patterns to allow generic views'
p2891
sI171
S"        self.delimiters = ('{{','}}')"
p2892
sI172
S'        self._vars = None'
p2893
sI173
S'        self._caller = lambda f: f()'
p2894
sI174
S'        self._view_environment = None'
p2895
sI175
S'        self._custom_commit = None'
p2896
sI176
S'        self._custom_rollback = None'
p2897
sI177
S''
ssg2865
S'(f=None)'
p2898
sg2867
S'<lambda>'
p2899
sasS'pyver'
p2900
S'Python 2.7.3: C:\\Python27\\python.exe'
p2901
sS'session'
p2902
g57
(g58
g59
NtRp2903
(dp2904
g62
(dp2905
sg64
(lp2906
g57
(g66
g59
NtRp2907
(dp2908
g62
(dp2909
g70
I5
ssg71
Nsg64
(lp2910
sbasbsS'etype'
p2911
S"<type 'exceptions.TypeError'>"
p2912
sS'date'
p2913
S'Sat Aug 04 14:58:04 2012'
p2914
sS'response'
p2915
g57
(g58
g59
NtRp2916
(dp2917
g62
(dp2918
sg64
(lp2919
g57
(g66
g59
NtRp2920
(dp2921
g62
(dp2922
g70
I5
ssg71
Nsg64
(lp2923
g57
(g73
g59
NtRp2924
(dp2925
g62
(dp2926
sg71
g2920
sg64
(lp2927
g57
(g78
g59
NtRp2928
(dp2929
g62
(dp2930
g82
g83
ssg71
g2924
sg64
(lp2931
g155
asbag57
(g78
g59
NtRp2932
(dp2933
g62
(dp2934
g89
g90
ssg71
g2924
sg64
(lp2935
S':'
asbag57
(g78
g59
NtRp2936
(dp2937
g62
(dp2938
sg71
g2924
sg64
(lp2939
g57
(g58
g59
NtRp2940
(dp2941
g62
(dp2942
g70
I5
ssg71
g2936
sg64
(lp2943
S'<cStringIO.StringO object at 0x0000000003D46F48>'
p2944
asbasbasbag57
(g73
g59
NtRp2945
(dp2946
g62
(dp2947
sg71
g2920
sg64
(lp2948
g57
(g78
g59
NtRp2949
(dp2950
g62
(dp2951
g82
g83
ssg71
g2945
sg64
(lp2952
g221
asbag57
(g78
g59
NtRp2953
(dp2954
g62
(dp2955
g89
g90
ssg71
g2945
sg64
(lp2956
S':'
asbag57
(g78
g59
NtRp2957
(dp2958
g62
(dp2959
sg71
g2945
sg64
(lp2960
g57
(g58
g59
NtRp2961
(dp2962
g62
(dp2963
g70
I5
ssg71
g2957
sg64
(lp2964
g57
(g66
g59
NtRp2965
(dp2966
g62
(dp2967
g70
I4
ssg71
Nsg64
(lp2968
g57
(g73
g59
NtRp2969
(dp2970
g62
(dp2971
sg71
g2965
sg64
(lp2972
g57
(g78
g59
NtRp2973
(dp2974
g62
(dp2975
g82
g83
ssg71
g2969
sg64
(lp2976
S'session_id_igor'
p2977
asbag57
(g78
g59
NtRp2978
(dp2979
g62
(dp2980
g89
g90
ssg71
g2969
sg64
(lp2981
S':'
asbag57
(g78
g59
NtRp2982
(dp2983
g62
(dp2984
sg71
g2969
sg64
(lp2985
g57
(g58
g59
NtRp2986
(dp2987
g62
(dp2988
g70
I4
ssg71
g2982
sg64
(lp2989
g57
(g66
g59
NtRp2990
(dp2991
g62
(dp2992
g70
I3
ssg71
Nsg64
(lp2993
g57
(g73
g59
NtRp2994
(dp2995
g62
(dp2996
sg71
g2990
sg64
(lp2997
g57
(g78
g59
NtRp2998
(dp2999
g62
(dp3000
g82
g83
ssg71
g2994
sg64
(lp3001
g271
asbag57
(g78
g59
NtRp3002
(dp3003
g62
(dp3004
g89
g90
ssg71
g2994
sg64
(lp3005
S':'
asbag57
(g78
g59
NtRp3006
(dp3007
g62
(dp3008
sg71
g2994
sg64
(lp3009
g57
(g58
g59
NtRp3010
(dp3011
g62
(dp3012
g70
I3
ssg71
g3006
sg64
(lp3013
S''
asbasbasbag57
(g73
g59
NtRp3014
(dp3015
g62
(dp3016
sg71
g2990
sg64
(lp3017
g57
(g78
g59
NtRp3018
(dp3019
g62
(dp3020
g82
g83
ssg71
g3014
sg64
(lp3021
g292
asbag57
(g78
g59
NtRp3022
(dp3023
g62
(dp3024
g89
g90
ssg71
g3014
sg64
(lp3025
S':'
asbag57
(g78
g59
NtRp3026
(dp3027
g62
(dp3028
sg71
g3014
sg64
(lp3029
g57
(g58
g59
NtRp3030
(dp3031
g62
(dp3032
g70
I3
ssg71
g3026
sg64
(lp3033
S''
asbasbasbag57
(g73
g59
NtRp3034
(dp3035
g62
(dp3036
sg71
g2990
sg64
(lp3037
g57
(g78
g59
NtRp3038
(dp3039
g62
(dp3040
g82
g83
ssg71
g3034
sg64
(lp3041
g313
asbag57
(g78
g59
NtRp3042
(dp3043
g62
(dp3044
g89
g90
ssg71
g3034
sg64
(lp3045
S':'
asbag57
(g78
g59
NtRp3046
(dp3047
g62
(dp3048
sg71
g3034
sg64
(lp3049
g57
(g58
g59
NtRp3050
(dp3051
g62
(dp3052
g70
I3
ssg71
g3046
sg64
(lp3053
S''
asbasbasbag57
(g73
g59
NtRp3054
(dp3055
g62
(dp3056
sg71
g2990
sg64
(lp3057
g57
(g78
g59
NtRp3058
(dp3059
g62
(dp3060
g82
g83
ssg71
g3054
sg64
(lp3061
g334
asbag57
(g78
g59
NtRp3062
(dp3063
g62
(dp3064
g89
g90
ssg71
g3054
sg64
(lp3065
S':'
asbag57
(g78
g59
NtRp3066
(dp3067
g62
(dp3068
sg71
g3054
sg64
(lp3069
g57
(g58
g59
NtRp3070
(dp3071
g62
(dp3072
g70
I3
ssg71
g3066
sg64
(lp3073
S''
asbasbasbag57
(g73
g59
NtRp3074
(dp3075
g62
(dp3076
sg71
g2990
sg64
(lp3077
g57
(g78
g59
NtRp3078
(dp3079
g62
(dp3080
g82
g83
ssg71
g3074
sg64
(lp3081
g355
asbag57
(g78
g59
NtRp3082
(dp3083
g62
(dp3084
g89
g90
ssg71
g3074
sg64
(lp3085
S':'
asbag57
(g78
g59
NtRp3086
(dp3087
g62
(dp3088
sg71
g3074
sg64
(lp3089
g57
(g58
g59
NtRp3090
(dp3091
g62
(dp3092
g70
I3
ssg71
g3086
sg64
(lp3093
S''
asbasbasbag57
(g73
g59
NtRp3094
(dp3095
g62
(dp3096
sg71
g2990
sg64
(lp3097
g57
(g78
g59
NtRp3098
(dp3099
g62
(dp3100
g82
g83
ssg71
g3094
sg64
(lp3101
g376
asbag57
(g78
g59
NtRp3102
(dp3103
g62
(dp3104
g89
g90
ssg71
g3094
sg64
(lp3105
S':'
asbag57
(g78
g59
NtRp3106
(dp3107
g62
(dp3108
sg71
g3094
sg64
(lp3109
g57
(g58
g59
NtRp3110
(dp3111
g62
(dp3112
g70
I3
ssg71
g3106
sg64
(lp3113
S'/'
asbasbasbag57
(g73
g59
NtRp3114
(dp3115
g62
(dp3116
sg71
g2990
sg64
(lp3117
g57
(g78
g59
NtRp3118
(dp3119
g62
(dp3120
g82
g83
ssg71
g3114
sg64
(lp3121
g397
asbag57
(g78
g59
NtRp3122
(dp3123
g62
(dp3124
g89
g90
ssg71
g3114
sg64
(lp3125
S':'
asbag57
(g78
g59
NtRp3126
(dp3127
g62
(dp3128
sg71
g3114
sg64
(lp3129
g57
(g58
g59
NtRp3130
(dp3131
g62
(dp3132
g70
I3
ssg71
g3126
sg64
(lp3133
S''
asbasbasbag57
(g73
g59
NtRp3134
(dp3135
g62
(dp3136
sg71
g2990
sg64
(lp3137
g57
(g78
g59
NtRp3138
(dp3139
g62
(dp3140
g82
g83
ssg71
g3134
sg64
(lp3141
g418
asbag57
(g78
g59
NtRp3142
(dp3143
g62
(dp3144
g89
g90
ssg71
g3134
sg64
(lp3145
S':'
asbag57
(g78
g59
NtRp3146
(dp3147
g62
(dp3148
sg71
g3134
sg64
(lp3149
g57
(g58
g59
NtRp3150
(dp3151
g62
(dp3152
g70
I3
ssg71
g3146
sg64
(lp3153
S''
asbasbasbasbasbasbasbasbasbasbasbag57
(g73
g59
NtRp3154
(dp3155
g62
(dp3156
sg71
g2920
sg64
(lp3157
g57
(g78
g59
NtRp3158
(dp3159
g62
(dp3160
g82
g83
ssg71
g3154
sg64
(lp3161
S'delimiters'
p3162
asbag57
(g78
g59
NtRp3163
(dp3164
g62
(dp3165
g89
g90
ssg71
g3154
sg64
(lp3166
S':'
asbag57
(g78
g59
NtRp3167
(dp3168
g62
(dp3169
sg71
g3154
sg64
(lp3170
g57
(g58
g59
NtRp3171
(dp3172
g62
(dp3173
g70
I5
ssg71
g3167
sg64
(lp3174
g57
(g66
g59
NtRp3175
(dp3176
g62
(dp3177
g70
I4
ssg71
Nsg64
(lp3178
g57
(g73
g59
NtRp3179
(dp3180
g62
(dp3181
sg71
g3175
sg64
(lp3182
g57
(g78
g59
NtRp3183
(dp3184
g62
(dp3185
sg71
g3179
sg64
(lp3186
g57
(g58
g59
NtRp3187
(dp3188
g62
(dp3189
g70
I4
ssg71
g3183
sg64
(lp3190
S'{{'
p3191
asbasbasbag57
(g73
g59
NtRp3192
(dp3193
g62
(dp3194
sg71
g3175
sg64
(lp3195
g57
(g78
g59
NtRp3196
(dp3197
g62
(dp3198
sg71
g3192
sg64
(lp3199
g57
(g58
g59
NtRp3200
(dp3201
g62
(dp3202
g70
I4
ssg71
g3196
sg64
(lp3203
S'}}'
p3204
asbasbasbasbasbasbasbag57
(g73
g59
NtRp3205
(dp3206
g62
(dp3207
sg71
g2920
sg64
(lp3208
g57
(g78
g59
NtRp3209
(dp3210
g62
(dp3211
g82
g83
ssg71
g3205
sg64
(lp3212
S'files'
p3213
asbag57
(g78
g59
NtRp3214
(dp3215
g62
(dp3216
g89
g90
ssg71
g3205
sg64
(lp3217
S':'
asbag57
(g78
g59
NtRp3218
(dp3219
g62
(dp3220
sg71
g3205
sg64
(lp3221
g57
(g58
g59
NtRp3222
(dp3223
g62
(dp3224
g70
I5
ssg71
g3218
sg64
(lp3225
g57
(g66
g59
NtRp3226
(dp3227
g62
(dp3228
g70
I4
ssg71
Nsg64
(lp3229
sbasbasbasbag57
(g73
g59
NtRp3230
(dp3231
g62
(dp3232
sg71
g2920
sg64
(lp3233
g57
(g78
g59
NtRp3234
(dp3235
g62
(dp3236
g82
g83
ssg71
g3230
sg64
(lp3237
S'flash'
p3238
asbag57
(g78
g59
NtRp3239
(dp3240
g62
(dp3241
g89
g90
ssg71
g3230
sg64
(lp3242
S':'
asbag57
(g78
g59
NtRp3243
(dp3244
g62
(dp3245
sg71
g3230
sg64
(lp3246
g57
(g58
g59
NtRp3247
(dp3248
g62
(dp3249
g70
I5
ssg71
g3243
sg64
(lp3250
S''
asbasbasbag57
(g73
g59
NtRp3251
(dp3252
g62
(dp3253
sg71
g2920
sg64
(lp3254
g57
(g78
g59
NtRp3255
(dp3256
g62
(dp3257
g82
g83
ssg71
g3251
sg64
(lp3258
S'generic_patterns'
p3259
asbag57
(g78
g59
NtRp3260
(dp3261
g62
(dp3262
g89
g90
ssg71
g3251
sg64
(lp3263
S':'
asbag57
(g78
g59
NtRp3264
(dp3265
g62
(dp3266
sg71
g3251
sg64
(lp3267
g57
(g58
g59
NtRp3268
(dp3269
g62
(dp3270
g70
I5
ssg71
g3264
sg64
(lp3271
g57
(g66
g59
NtRp3272
(dp3273
g62
(dp3274
g70
I4
ssg71
Nsg64
(lp3275
g57
(g73
g59
NtRp3276
(dp3277
g62
(dp3278
sg71
g3272
sg64
(lp3279
g57
(g78
g59
NtRp3280
(dp3281
g62
(dp3282
sg71
g3276
sg64
(lp3283
g57
(g58
g59
NtRp3284
(dp3285
g62
(dp3286
g70
I4
ssg71
g3280
sg64
(lp3287
S'*'
asbasbasbasbasbasbasbag57
(g73
g59
NtRp3288
(dp3289
g62
(dp3290
sg71
g2920
sg64
(lp3291
g57
(g78
g59
NtRp3292
(dp3293
g62
(dp3294
g82
g83
ssg71
g3288
sg64
(lp3295
S'headers'
p3296
asbag57
(g78
g59
NtRp3297
(dp3298
g62
(dp3299
g89
g90
ssg71
g3288
sg64
(lp3300
S':'
asbag57
(g78
g59
NtRp3301
(dp3302
g62
(dp3303
sg71
g3288
sg64
(lp3304
g57
(g58
g59
NtRp3305
(dp3306
g62
(dp3307
g70
I5
ssg71
g3301
sg64
(lp3308
g57
(g66
g59
NtRp3309
(dp3310
g62
(dp3311
g70
I4
ssg71
Nsg64
(lp3312
g57
(g73
g59
NtRp3313
(dp3314
g62
(dp3315
sg71
g3309
sg64
(lp3316
g57
(g78
g59
NtRp3317
(dp3318
g62
(dp3319
g82
g83
ssg71
g3313
sg64
(lp3320
S'Cache-Control'
p3321
asbag57
(g78
g59
NtRp3322
(dp3323
g62
(dp3324
g89
g90
ssg71
g3313
sg64
(lp3325
S':'
asbag57
(g78
g59
NtRp3326
(dp3327
g62
(dp3328
sg71
g3313
sg64
(lp3329
g57
(g58
g59
NtRp3330
(dp3331
g62
(dp3332
g70
I4
ssg71
g3326
sg64
(lp3333
S'no-store, no-cache, must-revalidate, post-check=0, pre-check=0'
p3334
asbasbasbag57
(g73
g59
NtRp3335
(dp3336
g62
(dp3337
sg71
g3309
sg64
(lp3338
g57
(g78
g59
NtRp3339
(dp3340
g62
(dp3341
g82
g83
ssg71
g3335
sg64
(lp3342
S'Content-Type'
p3343
asbag57
(g78
g59
NtRp3344
(dp3345
g62
(dp3346
g89
g90
ssg71
g3335
sg64
(lp3347
S':'
asbag57
(g78
g59
NtRp3348
(dp3349
g62
(dp3350
sg71
g3335
sg64
(lp3351
g57
(g58
g59
NtRp3352
(dp3353
g62
(dp3354
g70
I4
ssg71
g3348
sg64
(lp3355
S'text/html; charset=utf-8'
p3356
asbasbasbag57
(g73
g59
NtRp3357
(dp3358
g62
(dp3359
sg71
g3309
sg64
(lp3360
g57
(g78
g59
NtRp3361
(dp3362
g62
(dp3363
g82
g83
ssg71
g3357
sg64
(lp3364
S'Expires'
p3365
asbag57
(g78
g59
NtRp3366
(dp3367
g62
(dp3368
g89
g90
ssg71
g3357
sg64
(lp3369
S':'
asbag57
(g78
g59
NtRp3370
(dp3371
g62
(dp3372
sg71
g3357
sg64
(lp3373
g57
(g58
g59
NtRp3374
(dp3375
g62
(dp3376
g70
I4
ssg71
g3370
sg64
(lp3377
S'Sat, 04 Aug 2012 07:58:03 GMT'
p3378
asbasbasbag57
(g73
g59
NtRp3379
(dp3380
g62
(dp3381
sg71
g3309
sg64
(lp3382
g57
(g78
g59
NtRp3383
(dp3384
g62
(dp3385
g82
g83
ssg71
g3379
sg64
(lp3386
S'Pragma'
p3387
asbag57
(g78
g59
NtRp3388
(dp3389
g62
(dp3390
g89
g90
ssg71
g3379
sg64
(lp3391
S':'
asbag57
(g78
g59
NtRp3392
(dp3393
g62
(dp3394
sg71
g3379
sg64
(lp3395
g57
(g58
g59
NtRp3396
(dp3397
g62
(dp3398
g70
I4
ssg71
g3392
sg64
(lp3399
S'no-cache'
p3400
asbasbasbag57
(g73
g59
NtRp3401
(dp3402
g62
(dp3403
sg71
g3309
sg64
(lp3404
g57
(g78
g59
NtRp3405
(dp3406
g62
(dp3407
g82
g83
ssg71
g3401
sg64
(lp3408
S'X-Powered-By'
p3409
asbag57
(g78
g59
NtRp3410
(dp3411
g62
(dp3412
g89
g90
ssg71
g3401
sg64
(lp3413
S':'
asbag57
(g78
g59
NtRp3414
(dp3415
g62
(dp3416
sg71
g3401
sg64
(lp3417
g57
(g58
g59
NtRp3418
(dp3419
g62
(dp3420
g70
I4
ssg71
g3414
sg64
(lp3421
S'web2py'
p3422
asbasbasbasbasbasbasbag57
(g73
g59
NtRp3423
(dp3424
g62
(dp3425
sg71
g2920
sg64
(lp3426
g57
(g78
g59
NtRp3427
(dp3428
g62
(dp3429
g82
g83
ssg71
g3423
sg64
(lp3430
S'menu'
p3431
asbag57
(g78
g59
NtRp3432
(dp3433
g62
(dp3434
g89
g90
ssg71
g3423
sg64
(lp3435
S':'
asbag57
(g78
g59
NtRp3436
(dp3437
g62
(dp3438
sg71
g3423
sg64
(lp3439
g57
(g58
g59
NtRp3440
(dp3441
g62
(dp3442
g70
I5
ssg71
g3436
sg64
(lp3443
g57
(g66
g59
NtRp3444
(dp3445
g62
(dp3446
g70
I4
ssg71
Nsg64
(lp3447
g57
(g73
g59
NtRp3448
(dp3449
g62
(dp3450
sg71
g3444
sg64
(lp3451
g57
(g78
g59
NtRp3452
(dp3453
g62
(dp3454
sg71
g3448
sg64
(lp3455
g57
(g58
g59
NtRp3456
(dp3457
g62
(dp3458
g70
I4
ssg71
g3452
sg64
(lp3459
g57
(g66
g59
NtRp3460
(dp3461
g62
(dp3462
g70
I3
ssg71
Nsg64
(lp3463
g57
(g73
g59
NtRp3464
(dp3465
g62
(dp3466
sg71
g3460
sg64
(lp3467
g57
(g78
g59
NtRp3468
(dp3469
g62
(dp3470
sg71
g3464
sg64
(lp3471
g57
(g58
g59
NtRp3472
(dp3473
g62
(dp3474
g70
I3
ssg71
g3468
sg64
(lp3475
cgluon.languages
lazyT_unpickle
p3476
(S't\x04\x00\x00\x00Home'
tRp3477
asbasbasbag57
(g73
g59
NtRp3478
(dp3479
g62
(dp3480
sg71
g3460
sg64
(lp3481
g57
(g78
g59
NtRp3482
(dp3483
g62
(dp3484
sg71
g3478
sg64
(lp3485
g57
(g58
g59
NtRp3486
(dp3487
g62
(dp3488
g70
I3
ssg71
g3482
sg64
(lp3489
g100
asbasbasbag57
(g73
g59
NtRp3490
(dp3491
g62
(dp3492
sg71
g3460
sg64
(lp3493
g57
(g78
g59
NtRp3494
(dp3495
g62
(dp3496
sg71
g3490
sg64
(lp3497
g57
(g58
g59
NtRp3498
(dp3499
g62
(dp3500
g70
I3
ssg71
g3494
sg64
(lp3501
S'/igor/default/index'
p3502
asbasbasbag57
(g73
g59
NtRp3503
(dp3504
g62
(dp3505
sg71
g3460
sg64
(lp3506
g57
(g78
g59
NtRp3507
(dp3508
g62
(dp3509
sg71
g3503
sg64
(lp3510
g57
(g58
g59
NtRp3511
(dp3512
g62
(dp3513
g70
I3
ssg71
g3507
sg64
(lp3514
g57
(g66
g59
NtRp3515
(dp3516
g62
(dp3517
g70
I2
ssg71
Nsg64
(lp3518
sbasbasbasbasbasbasbasbag57
(g73
g59
NtRp3519
(dp3520
g62
(dp3521
sg71
g3444
sg64
(lp3522
g57
(g78
g59
NtRp3523
(dp3524
g62
(dp3525
sg71
g3519
sg64
(lp3526
g57
(g58
g59
NtRp3527
(dp3528
g62
(dp3529
g70
I4
ssg71
g3523
sg64
(lp3530
g57
(g66
g59
NtRp3531
(dp3532
g62
(dp3533
g70
I3
ssg71
Nsg64
(lp3534
g57
(g73
g59
NtRp3535
(dp3536
g62
(dp3537
sg71
g3531
sg64
(lp3538
g57
(g78
g59
NtRp3539
(dp3540
g62
(dp3541
sg71
g3535
sg64
(lp3542
g57
(g58
g59
NtRp3543
(dp3544
g62
(dp3545
g70
I3
ssg71
g3539
sg64
(lp3546
g57
(cgluon.html
SPAN
p3547
g59
NtRp3548
(dp3549
g62
(dp3550
g82
S'color:yellow'
p3551
ssg71
Nsg64
(lp3552
g3422
asbasbasbasbag57
(g73
g59
NtRp3553
(dp3554
g62
(dp3555
sg71
g3531
sg64
(lp3556
g57
(g78
g59
NtRp3557
(dp3558
g62
(dp3559
sg71
g3553
sg64
(lp3560
g57
(g58
g59
NtRp3561
(dp3562
g62
(dp3563
g70
I3
ssg71
g3557
sg64
(lp3564
g100
asbasbasbag57
(g73
g59
NtRp3565
(dp3566
g62
(dp3567
sg71
g3531
sg64
(lp3568
g57
(g78
g59
NtRp3569
(dp3570
g62
(dp3571
sg71
g3565
sg64
(lp3572
g57
(g58
g59
NtRp3573
(dp3574
g62
(dp3575
g70
I3
ssg71
g3569
sg64
(lp3576
S'None'
p3577
asbasbasbag57
(g73
g59
NtRp3578
(dp3579
g62
(dp3580
sg71
g3531
sg64
(lp3581
g57
(g78
g59
NtRp3582
(dp3583
g62
(dp3584
sg71
g3578
sg64
(lp3585
g57
(g58
g59
NtRp3586
(dp3587
g62
(dp3588
g70
I3
ssg71
g3582
sg64
(lp3589
g57
(g66
g59
NtRp3590
(dp3591
g62
(dp3592
g70
I2
ssg71
Nsg64
(lp3593
g57
(g73
g59
NtRp3594
(dp3595
g62
(dp3596
sg71
g3590
sg64
(lp3597
g57
(g78
g59
NtRp3598
(dp3599
g62
(dp3600
sg71
g3594
sg64
(lp3601
g57
(g58
g59
NtRp3602
(dp3603
g62
(dp3604
g70
I2
ssg71
g3598
sg64
(lp3605
g57
(g66
g59
NtRp3606
(dp3607
g62
(dp3608
g70
I1
ssg71
Nsg64
(lp3609
g57
(g73
g59
NtRp3610
(dp3611
g62
(dp3612
sg71
g3606
sg64
(lp3613
g57
(g78
g59
NtRp3614
(dp3615
g62
(dp3616
sg71
g3610
sg64
(lp3617
g57
(g58
g59
NtRp3618
(dp3619
g62
(dp3620
g70
I1
ssg71
g3614
sg64
(lp3621
g3476
(S's\x08\x00\x00\x00My Sites'
tRp3622
asbasbasbag57
(g73
g59
NtRp3623
(dp3624
g62
(dp3625
sg71
g3606
sg64
(lp3626
g57
(g78
g59
NtRp3627
(dp3628
g62
(dp3629
sg71
g3623
sg64
(lp3630
g57
(g58
g59
NtRp3631
(dp3632
g62
(dp3633
g70
I1
ssg71
g3627
sg64
(lp3634
I00
asbasbasbag57
(g73
g59
NtRp3635
(dp3636
g62
(dp3637
sg71
g3606
sg64
(lp3638
g57
(g78
g59
NtRp3639
(dp3640
g62
(dp3641
sg71
g3635
sg64
(lp3642
g57
(g58
g59
NtRp3643
(dp3644
g62
(dp3645
g70
I1
ssg71
g3639
sg64
(lp3646
S'/admin/default/site'
p3647
asbasbasbasbasbasbasbag57
(g73
g59
NtRp3648
(dp3649
g62
(dp3650
sg71
g3590
sg64
(lp3651
g57
(g78
g59
NtRp3652
(dp3653
g62
(dp3654
sg71
g3648
sg64
(lp3655
g57
(g58
g59
NtRp3656
(dp3657
g62
(dp3658
g70
I2
ssg71
g3652
sg64
(lp3659
g57
(g66
g59
NtRp3660
(dp3661
g62
(dp3662
g70
I1
ssg71
Nsg64
(lp3663
g57
(g73
g59
NtRp3664
(dp3665
g62
(dp3666
sg71
g3660
sg64
(lp3667
g57
(g78
g59
NtRp3668
(dp3669
g62
(dp3670
sg71
g3664
sg64
(lp3671
g57
(g58
g59
NtRp3672
(dp3673
g62
(dp3674
g70
I1
ssg71
g3668
sg64
(lp3675
g3476
(S's\x08\x00\x00\x00This App'
tRp3676
asbasbasbag57
(g73
g59
NtRp3677
(dp3678
g62
(dp3679
sg71
g3660
sg64
(lp3680
g57
(g78
g59
NtRp3681
(dp3682
g62
(dp3683
sg71
g3677
sg64
(lp3684
g57
(g58
g59
NtRp3685
(dp3686
g62
(dp3687
g70
I1
ssg71
g3681
sg64
(lp3688
I00
asbasbasbag57
(g73
g59
NtRp3689
(dp3690
g62
(dp3691
sg71
g3660
sg64
(lp3692
g57
(g78
g59
NtRp3693
(dp3694
g62
(dp3695
sg71
g3689
sg64
(lp3696
g57
(g58
g59
NtRp3697
(dp3698
g62
(dp3699
g70
I1
ssg71
g3693
sg64
(lp3700
S'/admin/default/design/igor'
p3701
asbasbasbag57
(g73
g59
NtRp3702
(dp3703
g62
(dp3704
sg71
g3660
sg64
(lp3705
g57
(g78
g59
NtRp3706
(dp3707
g62
(dp3708
sg71
g3702
sg64
(lp3709
g57
(g58
g59
NtRp3710
(dp3711
g62
(dp3712
g70
I1
ssg71
g3706
sg64
(lp3713
(lp3714
(g3476
(S't\n\x00\x00\x00Controller'
tRp3715
I00
S'/admin/default/edit/igor/controllers/subject.py'
tp3716
a(g3476
(S't\x04\x00\x00\x00View'
tRp3717
I00
S'/admin/default/edit/igor/views/subject/get_all_subjects.html'
tp3718
a(g3476
(S't\x06\x00\x00\x00Layout'
tRp3719
I00
S'/admin/default/edit/igor/views/layout.html'
tp3720
a(g3476
(S't\n\x00\x00\x00Stylesheet'
tRp3721
I00
S'/admin/default/edit/igor/static/css/web2py.css'
tp3722
a(g3476
(S's\x08\x00\x00\x00DB Model'
tRp3723
I00
S'/admin/default/edit/igor/models/db.py'
tp3724
a(g3476
(S's\n\x00\x00\x00Menu Model'
tRp3725
I00
S'/admin/default/edit/igor/models/menu.py'
tp3726
a(g3476
(S't\x08\x00\x00\x00Database'
tRp3727
I00
S'/igor/appadmin/index'
tp3728
a(g3476
(S't\x06\x00\x00\x00Errors'
tRp3729
I00
S'/admin/default/errors/igor'
tp3730
a(g3476
(S't\x05\x00\x00\x00About'
tRp3731
I00
S'/admin/default/about/igor'
tp3732
aasbasbasbasbasbasbasbag57
(g73
g59
NtRp3733
(dp3734
g62
(dp3735
sg71
g3590
sg64
(lp3736
g57
(g78
g59
NtRp3737
(dp3738
g62
(dp3739
sg71
g3733
sg64
(lp3740
g57
(g58
g59
NtRp3741
(dp3742
g62
(dp3743
g70
I2
ssg71
g3737
sg64
(lp3744
g57
(g66
g59
NtRp3745
(dp3746
g62
(dp3747
g70
I1
ssg71
Nsg64
(lp3748
g57
(g73
g59
NtRp3749
(dp3750
g62
(dp3751
sg71
g3745
sg64
(lp3752
g57
(g78
g59
NtRp3753
(dp3754
g62
(dp3755
sg71
g3749
sg64
(lp3756
g57
(g58
g59
NtRp3757
(dp3758
g62
(dp3759
g70
I1
ssg71
g3753
sg64
(lp3760
S'web2py.com'
p3761
asbasbasbag57
(g73
g59
NtRp3762
(dp3763
g62
(dp3764
sg71
g3745
sg64
(lp3765
g57
(g78
g59
NtRp3766
(dp3767
g62
(dp3768
sg71
g3762
sg64
(lp3769
g57
(g58
g59
NtRp3770
(dp3771
g62
(dp3772
g70
I1
ssg71
g3766
sg64
(lp3773
I00
asbasbasbag57
(g73
g59
NtRp3774
(dp3775
g62
(dp3776
sg71
g3745
sg64
(lp3777
g57
(g78
g59
NtRp3778
(dp3779
g62
(dp3780
sg71
g3774
sg64
(lp3781
g57
(g58
g59
NtRp3782
(dp3783
g62
(dp3784
g70
I1
ssg71
g3778
sg64
(lp3785
S'http://www.web2py.com'
p3786
asbasbasbag57
(g73
g59
NtRp3787
(dp3788
g62
(dp3789
sg71
g3745
sg64
(lp3790
g57
(g78
g59
NtRp3791
(dp3792
g62
(dp3793
sg71
g3787
sg64
(lp3794
g57
(g58
g59
NtRp3795
(dp3796
g62
(dp3797
g70
I1
ssg71
g3791
sg64
(lp3798
(lp3799
(g3476
(S't\x08\x00\x00\x00Download'
tRp3800
I00
S'http://www.web2py.com/examples/default/download'
p3801
tp3802
a(g3476
(S't\x07\x00\x00\x00Support'
tRp3803
I00
S'http://www.web2py.com/examples/default/support'
p3804
tp3805
a(g3476
(S't\x04\x00\x00\x00Demo'
tRp3806
I00
S'http://web2py.com/demo_admin'
p3807
tp3808
a(g3476
(S's\x0e\x00\x00\x00Quick Examples'
tRp3809
I00
S'http://web2py.com/examples/default/examples'
p3810
tp3811
a(g3476
(S't\x03\x00\x00\x00FAQ'
tRp3812
I00
S'http://web2py.com/AlterEgo'
p3813
tp3814
a(g3476
(S't\x06\x00\x00\x00Videos'
tRp3815
I00
S'http://www.web2py.com/examples/default/videos/'
p3816
tp3817
a(g3476
(S's\x11\x00\x00\x00Free Applications'
tRp3818
I00
S'http://web2py.com/appliances'
p3819
tp3820
a(g3476
(S't\x07\x00\x00\x00Plugins'
tRp3821
I00
S'http://web2py.com/plugins'
p3822
tp3823
a(g3476
(S't\x07\x00\x00\x00Layouts'
tRp3824
I00
S'http://web2py.com/layouts'
p3825
tp3826
a(g3476
(S't\x07\x00\x00\x00Recipes'
tRp3827
I00
S'http://web2pyslices.com/'
p3828
tp3829
a(g3476
(S't\x08\x00\x00\x00Semantic'
tRp3830
I00
S'http://web2py.com/semantic'
p3831
tp3832
aasbasbasbasbasbasbasbag57
(g73
g59
NtRp3833
(dp3834
g62
(dp3835
sg71
g3590
sg64
(lp3836
g57
(g78
g59
NtRp3837
(dp3838
g62
(dp3839
sg71
g3833
sg64
(lp3840
g57
(g58
g59
NtRp3841
(dp3842
g62
(dp3843
g70
I2
ssg71
g3837
sg64
(lp3844
g57
(g66
g59
NtRp3845
(dp3846
g62
(dp3847
g70
I1
ssg71
Nsg64
(lp3848
g57
(g73
g59
NtRp3849
(dp3850
g62
(dp3851
sg71
g3845
sg64
(lp3852
g57
(g78
g59
NtRp3853
(dp3854
g62
(dp3855
sg71
g3849
sg64
(lp3856
g57
(g58
g59
NtRp3857
(dp3858
g62
(dp3859
g70
I1
ssg71
g3853
sg64
(lp3860
g3476
(S't\r\x00\x00\x00Documentation'
tRp3861
asbasbasbag57
(g73
g59
NtRp3862
(dp3863
g62
(dp3864
sg71
g3845
sg64
(lp3865
g57
(g78
g59
NtRp3866
(dp3867
g62
(dp3868
sg71
g3862
sg64
(lp3869
g57
(g58
g59
NtRp3870
(dp3871
g62
(dp3872
g70
I1
ssg71
g3866
sg64
(lp3873
I00
asbasbasbag57
(g73
g59
NtRp3874
(dp3875
g62
(dp3876
sg71
g3845
sg64
(lp3877
g57
(g78
g59
NtRp3878
(dp3879
g62
(dp3880
sg71
g3874
sg64
(lp3881
g57
(g58
g59
NtRp3882
(dp3883
g62
(dp3884
g70
I1
ssg71
g3878
sg64
(lp3885
S'http://www.web2py.com/book'
p3886
asbasbasbag57
(g73
g59
NtRp3887
(dp3888
g62
(dp3889
sg71
g3845
sg64
(lp3890
g57
(g78
g59
NtRp3891
(dp3892
g62
(dp3893
sg71
g3887
sg64
(lp3894
g57
(g58
g59
NtRp3895
(dp3896
g62
(dp3897
g70
I1
ssg71
g3891
sg64
(lp3898
(lp3899
(g3476
(S't\x07\x00\x00\x00Preface'
tRp3900
I00
S'http://www.web2py.com/book/default/chapter/00'
p3901
tp3902
a(g3476
(S't\x0c\x00\x00\x00Introduction'
tRp3903
I00
S'http://www.web2py.com/book/default/chapter/01'
p3904
tp3905
a(g3476
(S't\x06\x00\x00\x00Python'
tRp3906
I00
S'http://www.web2py.com/book/default/chapter/02'
p3907
tp3908
a(g3476
(S't\x08\x00\x00\x00Overview'
tRp3909
I00
S'http://www.web2py.com/book/default/chapter/03'
p3910
tp3911
a(g3476
(S's\x08\x00\x00\x00The Core'
tRp3912
I00
S'http://www.web2py.com/book/default/chapter/04'
p3913
tp3914
a(g3476
(S's\t\x00\x00\x00The Views'
tRp3915
I00
S'http://www.web2py.com/book/default/chapter/05'
p3916
tp3917
a(g3476
(S't\x08\x00\x00\x00Database'
tRp3918
I00
S'http://www.web2py.com/book/default/chapter/06'
p3919
tp3920
a(g3476
(S's\x14\x00\x00\x00Forms and Validators'
tRp3921
I00
S'http://www.web2py.com/book/default/chapter/07'
p3922
tp3923
a(g3476
(S's\r\x00\x00\x00Email and SMS'
tRp3924
I00
S'http://www.web2py.com/book/default/chapter/08'
p3925
tp3926
a(g3476
(S's\x0e\x00\x00\x00Access Control'
tRp3927
I00
S'http://www.web2py.com/book/default/chapter/09'
p3928
tp3929
a(g3476
(S't\x08\x00\x00\x00Services'
tRp3930
I00
S'http://www.web2py.com/book/default/chapter/10'
p3931
tp3932
a(g3476
(S's\x0c\x00\x00\x00Ajax Recipes'
tRp3933
I00
S'http://www.web2py.com/book/default/chapter/11'
p3934
tp3935
a(g3476
(S's\x16\x00\x00\x00Components and Plugins'
tRp3936
I00
S'http://www.web2py.com/book/default/chapter/12'
p3937
tp3938
a(g3476
(S's\x12\x00\x00\x00Deployment Recipes'
tRp3939
I00
S'http://www.web2py.com/book/default/chapter/13'
p3940
tp3941
a(g3476
(S's\r\x00\x00\x00Other Recipes'
tRp3942
I00
S'http://www.web2py.com/book/default/chapter/14'
p3943
tp3944
a(g3476
(S's\r\x00\x00\x00Buy this book'
tRp3945
I00
S'http://stores.lulu.com/web2py'
p3946
tp3947
aasbasbasbasbasbasbasbag57
(g73
g59
NtRp3948
(dp3949
g62
(dp3950
sg71
g3590
sg64
(lp3951
g57
(g78
g59
NtRp3952
(dp3953
g62
(dp3954
sg71
g3948
sg64
(lp3955
g57
(g58
g59
NtRp3956
(dp3957
g62
(dp3958
g70
I2
ssg71
g3952
sg64
(lp3959
g57
(g66
g59
NtRp3960
(dp3961
g62
(dp3962
g70
I1
ssg71
Nsg64
(lp3963
g57
(g73
g59
NtRp3964
(dp3965
g62
(dp3966
sg71
g3960
sg64
(lp3967
g57
(g78
g59
NtRp3968
(dp3969
g62
(dp3970
sg71
g3964
sg64
(lp3971
g57
(g58
g59
NtRp3972
(dp3973
g62
(dp3974
g70
I1
ssg71
g3968
sg64
(lp3975
g3476
(S't\t\x00\x00\x00Community'
tRp3976
asbasbasbag57
(g73
g59
NtRp3977
(dp3978
g62
(dp3979
sg71
g3960
sg64
(lp3980
g57
(g78
g59
NtRp3981
(dp3982
g62
(dp3983
sg71
g3977
sg64
(lp3984
g57
(g58
g59
NtRp3985
(dp3986
g62
(dp3987
g70
I1
ssg71
g3981
sg64
(lp3988
I00
asbasbasbag57
(g73
g59
NtRp3989
(dp3990
g62
(dp3991
sg71
g3960
sg64
(lp3992
g57
(g78
g59
NtRp3993
(dp3994
g62
(dp3995
sg71
g3989
sg64
(lp3996
g57
(g58
g59
NtRp3997
(dp3998
g62
(dp3999
g70
I1
ssg71
g3993
sg64
(lp4000
Nasbasbasbag57
(g73
g59
NtRp4001
(dp4002
g62
(dp4003
sg71
g3960
sg64
(lp4004
g57
(g78
g59
NtRp4005
(dp4006
g62
(dp4007
sg71
g4001
sg64
(lp4008
g57
(g58
g59
NtRp4009
(dp4010
g62
(dp4011
g70
I1
ssg71
g4005
sg64
(lp4012
(lp4013
(g3476
(S't\x06\x00\x00\x00Groups'
tRp4014
I00
S'http://www.web2py.com/examples/default/usergroups'
p4015
tp4016
a(g3476
(S't\x07\x00\x00\x00Twitter'
tRp4017
I00
S'http://twitter.com/web2py'
p4018
tp4019
a(g3476
(S's\t\x00\x00\x00Live Chat'
tRp4020
I00
S'http://webchat.freenode.net/?channels=web2py'
p4021
tp4022
aasbasbasbasbasbasbasbag57
(g73
g59
NtRp4023
(dp4024
g62
(dp4025
sg71
g3590
sg64
(lp4026
g57
(g78
g59
NtRp4027
(dp4028
g62
(dp4029
sg71
g4023
sg64
(lp4030
g57
(g58
g59
NtRp4031
(dp4032
g62
(dp4033
g70
I2
ssg71
g4027
sg64
(lp4034
g57
(g66
g59
NtRp4035
(dp4036
g62
(dp4037
g70
I1
ssg71
Nsg64
(lp4038
g57
(g73
g59
NtRp4039
(dp4040
g62
(dp4041
sg71
g4035
sg64
(lp4042
g57
(g78
g59
NtRp4043
(dp4044
g62
(dp4045
sg71
g4039
sg64
(lp4046
g57
(g58
g59
NtRp4047
(dp4048
g62
(dp4049
g70
I1
ssg71
g4043
sg64
(lp4050
g3476
(S't\x07\x00\x00\x00Plugins'
tRp4051
asbasbasbag57
(g73
g59
NtRp4052
(dp4053
g62
(dp4054
sg71
g4035
sg64
(lp4055
g57
(g78
g59
NtRp4056
(dp4057
g62
(dp4058
sg71
g4052
sg64
(lp4059
g57
(g58
g59
NtRp4060
(dp4061
g62
(dp4062
g70
I1
ssg71
g4056
sg64
(lp4063
I00
asbasbasbag57
(g73
g59
NtRp4064
(dp4065
g62
(dp4066
sg71
g4035
sg64
(lp4067
g57
(g78
g59
NtRp4068
(dp4069
g62
(dp4070
sg71
g4064
sg64
(lp4071
g57
(g58
g59
NtRp4072
(dp4073
g62
(dp4074
g70
I1
ssg71
g4068
sg64
(lp4075
Nasbasbasbag57
(g73
g59
NtRp4076
(dp4077
g62
(dp4078
sg71
g4035
sg64
(lp4079
g57
(g78
g59
NtRp4080
(dp4081
g62
(dp4082
sg71
g4076
sg64
(lp4083
g57
(g58
g59
NtRp4084
(dp4085
g62
(dp4086
g70
I1
ssg71
g4080
sg64
(lp4087
(lp4088
(S'plugin_wiki'
p4089
I00
S'http://web2py.com/examples/default/download'
p4090
tp4091
a(g3476
(S's\r\x00\x00\x00Other Plugins'
tRp4092
I00
g3822
tp4093
a(g3476
(S's\x0e\x00\x00\x00Layout Plugins'
tRp4094
I00
g3825
tp4095
aasbasbasbasbasbasbasbasbasbasbasbasbasbasbasbasbasbasbasbag57
(g73
g59
NtRp4096
(dp4097
g62
(dp4098
sg71
g2920
sg64
(lp4099
g57
(g78
g59
NtRp4100
(dp4101
g62
(dp4102
g82
g83
ssg71
g4096
sg64
(lp4103
S'meta'
p4104
asbag57
(g78
g59
NtRp4105
(dp4106
g62
(dp4107
g89
g90
ssg71
g4096
sg64
(lp4108
S':'
asbag57
(g78
g59
NtRp4109
(dp4110
g62
(dp4111
sg71
g4096
sg64
(lp4112
g57
(g58
g59
NtRp4113
(dp4114
g62
(dp4115
g70
I5
ssg71
g4109
sg64
(lp4116
g57
(g66
g59
NtRp4117
(dp4118
g62
(dp4119
g70
I4
ssg71
Nsg64
(lp4120
g57
(g73
g59
NtRp4121
(dp4122
g62
(dp4123
sg71
g4117
sg64
(lp4124
g57
(g78
g59
NtRp4125
(dp4126
g62
(dp4127
g82
g83
ssg71
g4121
sg64
(lp4128
S'author'
p4129
asbag57
(g78
g59
NtRp4130
(dp4131
g62
(dp4132
g89
g90
ssg71
g4121
sg64
(lp4133
S':'
asbag57
(g78
g59
NtRp4134
(dp4135
g62
(dp4136
sg71
g4121
sg64
(lp4137
g57
(g58
g59
NtRp4138
(dp4139
g62
(dp4140
g70
I4
ssg71
g4134
sg64
(lp4141
S'Your Name <you@example.com>'
p4142
asbasbasbag57
(g73
g59
NtRp4143
(dp4144
g62
(dp4145
sg71
g4117
sg64
(lp4146
g57
(g78
g59
NtRp4147
(dp4148
g62
(dp4149
g82
g83
ssg71
g4143
sg64
(lp4150
S'copyright'
p4151
asbag57
(g78
g59
NtRp4152
(dp4153
g62
(dp4154
g89
g90
ssg71
g4143
sg64
(lp4155
S':'
asbag57
(g78
g59
NtRp4156
(dp4157
g62
(dp4158
sg71
g4143
sg64
(lp4159
g57
(g58
g59
NtRp4160
(dp4161
g62
(dp4162
g70
I4
ssg71
g4156
sg64
(lp4163
S'Copyright 2011'
p4164
asbasbasbag57
(g73
g59
NtRp4165
(dp4166
g62
(dp4167
sg71
g4117
sg64
(lp4168
g57
(g78
g59
NtRp4169
(dp4170
g62
(dp4171
g82
g83
ssg71
g4165
sg64
(lp4172
S'description'
p4173
asbag57
(g78
g59
NtRp4174
(dp4175
g62
(dp4176
g89
g90
ssg71
g4165
sg64
(lp4177
S':'
asbag57
(g78
g59
NtRp4178
(dp4179
g62
(dp4180
sg71
g4165
sg64
(lp4181
g57
(g58
g59
NtRp4182
(dp4183
g62
(dp4184
g70
I4
ssg71
g4178
sg64
(lp4185
S'a cool new app'
p4186
asbasbasbag57
(g73
g59
NtRp4187
(dp4188
g62
(dp4189
sg71
g4117
sg64
(lp4190
g57
(g78
g59
NtRp4191
(dp4192
g62
(dp4193
g82
g83
ssg71
g4187
sg64
(lp4194
S'generator'
p4195
asbag57
(g78
g59
NtRp4196
(dp4197
g62
(dp4198
g89
g90
ssg71
g4187
sg64
(lp4199
S':'
asbag57
(g78
g59
NtRp4200
(dp4201
g62
(dp4202
sg71
g4187
sg64
(lp4203
g57
(g58
g59
NtRp4204
(dp4205
g62
(dp4206
g70
I4
ssg71
g4200
sg64
(lp4207
S'Web2py Web Framework'
p4208
asbasbasbag57
(g73
g59
NtRp4209
(dp4210
g62
(dp4211
sg71
g4117
sg64
(lp4212
g57
(g78
g59
NtRp4213
(dp4214
g62
(dp4215
g82
g83
ssg71
g4209
sg64
(lp4216
S'keywords'
p4217
asbag57
(g78
g59
NtRp4218
(dp4219
g62
(dp4220
g89
g90
ssg71
g4209
sg64
(lp4221
S':'
asbag57
(g78
g59
NtRp4222
(dp4223
g62
(dp4224
sg71
g4209
sg64
(lp4225
g57
(g58
g59
NtRp4226
(dp4227
g62
(dp4228
g70
I4
ssg71
g4222
sg64
(lp4229
S'web2py, python, framework'
p4230
asbasbasbasbasbasbasbag57
(g73
g59
NtRp4231
(dp4232
g62
(dp4233
sg71
g2920
sg64
(lp4234
g57
(g78
g59
NtRp4235
(dp4236
g62
(dp4237
g82
g83
ssg71
g4231
sg64
(lp4238
S'postprocessing'
p4239
asbag57
(g78
g59
NtRp4240
(dp4241
g62
(dp4242
g89
g90
ssg71
g4231
sg64
(lp4243
S':'
asbag57
(g78
g59
NtRp4244
(dp4245
g62
(dp4246
sg71
g4231
sg64
(lp4247
g57
(g58
g59
NtRp4248
(dp4249
g62
(dp4250
g70
I5
ssg71
g4244
sg64
(lp4251
g57
(g66
g59
NtRp4252
(dp4253
g62
(dp4254
g70
I4
ssg71
Nsg64
(lp4255
sbasbasbasbag57
(g73
g59
NtRp4256
(dp4257
g62
(dp4258
sg71
g2920
sg64
(lp4259
g57
(g78
g59
NtRp4260
(dp4261
g62
(dp4262
g82
g83
ssg71
g4256
sg64
(lp4263
S'session_filename'
p4264
asbag57
(g78
g59
NtRp4265
(dp4266
g62
(dp4267
g89
g90
ssg71
g4256
sg64
(lp4268
S':'
asbag57
(g78
g59
NtRp4269
(dp4270
g62
(dp4271
sg71
g4256
sg64
(lp4272
g57
(g58
g59
NtRp4273
(dp4274
g62
(dp4275
g70
I5
ssg71
g4269
sg64
(lp4276
S'D:\\workspace\\CA\\IgoR\\C_Sources\\Server\\igor-assistant-ca-2012\\applications\\igor\\sessions\\127.0.0.1-b2e72c9d-6b9a-4d14-9b6b-2f7c72f6f7da'
p4277
asbasbasbag57
(g73
g59
NtRp4278
(dp4279
g62
(dp4280
sg71
g2920
sg64
(lp4281
g57
(g78
g59
NtRp4282
(dp4283
g62
(dp4284
g82
g83
ssg71
g4278
sg64
(lp4285
S'session_id'
p4286
asbag57
(g78
g59
NtRp4287
(dp4288
g62
(dp4289
g89
g90
ssg71
g4278
sg64
(lp4290
S':'
asbag57
(g78
g59
NtRp4291
(dp4292
g62
(dp4293
sg71
g4278
sg64
(lp4294
g57
(g58
g59
NtRp4295
(dp4296
g62
(dp4297
g70
I5
ssg71
g4291
sg64
(lp4298
S'127.0.0.1-b2e72c9d-6b9a-4d14-9b6b-2f7c72f6f7da'
p4299
asbasbasbag57
(g73
g59
NtRp4300
(dp4301
g62
(dp4302
sg71
g2920
sg64
(lp4303
g57
(g78
g59
NtRp4304
(dp4305
g62
(dp4306
g82
g83
ssg71
g4300
sg64
(lp4307
S'session_id_name'
p4308
asbag57
(g78
g59
NtRp4309
(dp4310
g62
(dp4311
g89
g90
ssg71
g4300
sg64
(lp4312
S':'
asbag57
(g78
g59
NtRp4313
(dp4314
g62
(dp4315
sg71
g4300
sg64
(lp4316
g57
(g58
g59
NtRp4317
(dp4318
g62
(dp4319
g70
I5
ssg71
g4313
sg64
(lp4320
g2977
asbasbasbag57
(g73
g59
NtRp4321
(dp4322
g62
(dp4323
sg71
g2920
sg64
(lp4324
g57
(g78
g59
NtRp4325
(dp4326
g62
(dp4327
g82
g83
ssg71
g4321
sg64
(lp4328
S'session_new'
p4329
asbag57
(g78
g59
NtRp4330
(dp4331
g62
(dp4332
g89
g90
ssg71
g4321
sg64
(lp4333
S':'
asbag57
(g78
g59
NtRp4334
(dp4335
g62
(dp4336
sg71
g4321
sg64
(lp4337
g57
(g58
g59
NtRp4338
(dp4339
g62
(dp4340
g70
I5
ssg71
g4334
sg64
(lp4341
g1506
asbasbasbag57
(g73
g59
NtRp4342
(dp4343
g62
(dp4344
sg71
g2920
sg64
(lp4345
g57
(g78
g59
NtRp4346
(dp4347
g62
(dp4348
g82
g83
ssg71
g4342
sg64
(lp4349
S'status'
p4350
asbag57
(g78
g59
NtRp4351
(dp4352
g62
(dp4353
g89
g90
ssg71
g4342
sg64
(lp4354
S':'
asbag57
(g78
g59
NtRp4355
(dp4356
g62
(dp4357
sg71
g4342
sg64
(lp4358
g57
(g58
g59
NtRp4359
(dp4360
g62
(dp4361
g70
I5
ssg71
g4355
sg64
(lp4362
S'200'
p4363
asbasbasbag57
(g73
g59
NtRp4364
(dp4365
g62
(dp4366
sg71
g2920
sg64
(lp4367
g57
(g78
g59
NtRp4368
(dp4369
g62
(dp4370
g82
g83
ssg71
g4364
sg64
(lp4371
S'subtitle'
p4372
asbag57
(g78
g59
NtRp4373
(dp4374
g62
(dp4375
g89
g90
ssg71
g4364
sg64
(lp4376
S':'
asbag57
(g78
g59
NtRp4377
(dp4378
g62
(dp4379
sg71
g4364
sg64
(lp4380
g57
(g58
g59
NtRp4381
(dp4382
g62
(dp4383
g70
I5
ssg71
g4377
sg64
(lp4384
g3476
(S's\r\x00\x00\x00customize me!'
tRp4385
asbasbasbag57
(g73
g59
NtRp4386
(dp4387
g62
(dp4388
sg71
g2920
sg64
(lp4389
g57
(g78
g59
NtRp4390
(dp4391
g62
(dp4392
g82
g83
ssg71
g4386
sg64
(lp4393
S'title'
p4394
asbag57
(g78
g59
NtRp4395
(dp4396
g62
(dp4397
g89
g90
ssg71
g4386
sg64
(lp4398
S':'
asbag57
(g78
g59
NtRp4399
(dp4400
g62
(dp4401
sg71
g4386
sg64
(lp4402
g57
(g58
g59
NtRp4403
(dp4404
g62
(dp4405
g70
I5
ssg71
g4399
sg64
(lp4406
S'Igor'
p4407
asbasbasbag57
(g73
g59
NtRp4408
(dp4409
g62
(dp4410
sg71
g2920
sg64
(lp4411
g57
(g78
g59
NtRp4412
(dp4413
g62
(dp4414
g82
g83
ssg71
g4408
sg64
(lp4415
g2182
asbag57
(g78
g59
NtRp4416
(dp4417
g62
(dp4418
g89
g90
ssg71
g4408
sg64
(lp4419
S':'
asbag57
(g78
g59
NtRp4420
(dp4421
g62
(dp4422
sg71
g4408
sg64
(lp4423
g57
(g58
g59
NtRp4424
(dp4425
g62
(dp4426
g70
I5
ssg71
g4420
sg64
(lp4427
g2195
asbasbasbag57
(g73
g59
NtRp4428
(dp4429
g62
(dp4430
sg71
g2920
sg64
(lp4431
g57
(g78
g59
NtRp4432
(dp4433
g62
(dp4434
g82
g83
ssg71
g4428
sg64
(lp4435
S'view'
p4436
asbag57
(g78
g59
NtRp4437
(dp4438
g62
(dp4439
g89
g90
ssg71
g4428
sg64
(lp4440
S':'
asbag57
(g78
g59
NtRp4441
(dp4442
g62
(dp4443
sg71
g4428
sg64
(lp4444
g57
(g58
g59
NtRp4445
(dp4446
g62
(dp4447
g70
I5
ssg71
g4441
sg64
(lp4448
S'subject/get_all_subjects.html'
p4449
asbasbasbasbasbsS'locals'
p4450
(dp4451
S'f'
S'None'
p4452
sssS'traceback'
p4453
S'Traceback (most recent call last):\n  File "D:\\workspace\\CA\\IgoR\\C_Sources\\Server\\igor-assistant-ca-2012\\gluon\\restricted.py", line 205, in restricted\n    exec ccode in environment\n  File "D:\\workspace\\CA\\IgoR\\C_Sources\\Server\\igor-assistant-ca-2012\\applications\\igor\\controllers/subject.py", line 50, in <module>\n  File "D:\\workspace\\CA\\IgoR\\C_Sources\\Server\\igor-assistant-ca-2012\\gluon\\globals.py", line 173, in <lambda>\n    self._caller = lambda f: f()\nTypeError: \'NoneType\' object is not callable\n'
p4454
s.