(dp1
S'output'
p2
S"<class 'sqlite3.OperationalError'> table auth_user already exists"
p3
sS'layer'
p4
S'D:\\workspace\\CA\\IgoR\\C_Sources\\Server\\igor-assistant-ca-2012\\applications\\igor\\models\\db.py'
p5
sS'code'
p6
S"# -*- coding: utf-8 -*-\n\n#########################################################################\n## This scaffolding model makes your app work on Google App Engine too\n## File is released under public domain and you can use without limitations\n#########################################################################\n\n## if SSL/HTTPS is properly configured and you want all HTTP requests to\n## be redirected to HTTPS, uncomment the line below:\n# request.requires_https()\n\nif not request.env.web2py_runtime_gae:\n    ## if NOT running on Google App Engine use SQLite or other DB\n    db = DAL('sqlite://storage.sqlite')\nelse:\n    ## connect to Google BigTable (optional 'google:datastore://namespace')\n    db = DAL('google:datastore')\n    ## store sessions and tickets there\n    session.connect(request, response, db = db)\n    ## or store session in Memcache, Redis, etc.\n    ## from gluon.contrib.memdb import MEMDB\n    ## from google.appengine.api.memcache import Client\n    ## session.connect(request, response, db = MEMDB(Client()))\n\n## by default give a view/generic.extension to all actions from localhost\n## none otherwise. a pattern can be 'controller/function.extension'\nresponse.generic_patterns = ['*'] if request.is_local else []\n## (optional) optimize handling of static files\n# response.optimize_css = 'concat,minify,inline'\n# response.optimize_js = 'concat,minify,inline'\n\n#########################################################################\n## Here is sample code if you need for\n## - email capabilities\n## - authentication (registration, login, logout, ... )\n## - authorization (role based authorization)\n## - services (xml, csv, json, xmlrpc, jsonrpc, amf, rss)\n## - old style crud actions\n## (more options discussed in gluon/tools.py)\n#########################################################################\n\nfrom gluon.tools import Auth, Crud, Service, PluginManager, prettydate\nauth = Auth(db, hmac_key=Auth.get_or_create_key())\ncrud, service, plugins = Crud(db), Service(), PluginManager()\n\n## create all tables needed by auth if not custom tables\nauth.define_tables()\n\n## configure email\nmail=auth.settings.mailer\nmail.settings.server = 'logging' or 'smtp.gmail.com:587'\nmail.settings.sender = 'you@gmail.com'\nmail.settings.login = 'username:password'\n\n## configure auth policy\nauth.settings.registration_requires_verification = False\nauth.settings.registration_requires_approval = False\nauth.settings.reset_password_requires_verification = True\n\n## if you need to use OpenID, Facebook, MySpace, Twitter, Linkedin, etc.\n## register with janrain.com, write your domain:api_key in private/janrain.key\nfrom gluon.contrib.login_methods.rpx_account import use_janrain\nuse_janrain(auth,filename='private/janrain.key')\n\n#########################################################################\n## Define your tables below (or better in another model file) for example\n##\n## >>> db.define_table('mytable',Field('myfield','string'))\n##\n## Fields can be 'string','text','password','integer','double','boolean'\n##       'date','time','datetime','blob','upload', 'reference TABLENAME'\n## There is an implicit 'id integer autoincrement' field\n## Consult manual for more options, validators, etc.\n##\n## More API examples for controllers:\n##\n## >>> db.mytable.insert(myfield='value')\n## >>> rows=db(db.mytable.myfield=='value').select(db.mytable.ALL)\n## >>> for row in rows: print row.id, row.myfield\n#########################################################################\n\n# Define all Igor database\n# Author: phucnh"
p7
sS'snapshot'
p8
(dp9
S'exception'
p10
(dp11
S'__module__'
p12
S"'sqlite3'"
p13
sS'__getslice__'
p14
S"<method-wrapper '__getslice__' of OperationalError object>"
p15
sS'__str__'
p16
S"<method-wrapper '__str__' of OperationalError object>"
p17
sS'__reduce__'
p18
S'<built-in method __reduce__ of OperationalError object>'
p19
sS'__dict__'
p20
S'{}'
p21
sS'__sizeof__'
p22
S'<built-in method __sizeof__ of OperationalError object>'
p23
sS'__weakref__'
p24
S'None'
p25
sS'__init__'
p26
S"<method-wrapper '__init__' of OperationalError object>"
p27
sS'__setattr__'
p28
S"<method-wrapper '__setattr__' of OperationalError object>"
p29
sS'__reduce_ex__'
p30
S'<built-in method __reduce_ex__ of OperationalError object>'
p31
sS'__new__'
p32
S'<built-in method __new__ of type object>'
p33
sS'__format__'
p34
S'<built-in method __format__ of OperationalError object>'
p35
sS'__class__'
p36
S"<class 'sqlite3.OperationalError'>"
p37
sS'__doc__'
p38
S'None'
p39
sS'__getitem__'
p40
S"<method-wrapper '__getitem__' of OperationalError object>"
p41
sS'__setstate__'
p42
S'<built-in method __setstate__ of OperationalError object>'
p43
sS'__getattribute__'
p44
S"<method-wrapper '__getattribute__' of OperationalError object>"
p45
sS'args'
p46
S"('table auth_user already exists',)"
p47
sS'__subclasshook__'
p48
S'<built-in method __subclasshook__ of type object>'
p49
sS'__unicode__'
p50
S'<built-in method __unicode__ of OperationalError object>'
p51
sS'__delattr__'
p52
S"<method-wrapper '__delattr__' of OperationalError object>"
p53
sS'__repr__'
p54
S"<method-wrapper '__repr__' of OperationalError object>"
p55
sS'__hash__'
p56
S"<method-wrapper '__hash__' of OperationalError object>"
p57
ssS'evalue'
p58
S'table auth_user already exists'
p59
sS'request'
p60
ccopy_reg
_reconstructor
p61
(cgluon.html
BEAUTIFY
p62
c__builtin__
object
p63
NtRp64
(dp65
S'attributes'
p66
(dp67
sS'components'
p68
(lp69
g61
(cgluon.html
TABLE
p70
g63
NtRp71
(dp72
g66
(dp73
S'level'
p74
I5
ssS'parent'
p75
Nsg68
(lp76
g61
(cgluon.html
TR
p77
g63
NtRp78
(dp79
g66
(dp80
sg75
g71
sg68
(lp81
g61
(cgluon.html
TD
p82
g63
NtRp83
(dp84
g66
(dp85
S'_style'
p86
S'font-weight:bold;vertical-align:top'
p87
ssg75
g78
sg68
(lp88
S'ajax'
p89
asbag61
(g82
g63
NtRp90
(dp91
g66
(dp92
S'_valign'
p93
S'top'
p94
ssg75
g78
sg68
(lp95
S':'
asbag61
(g82
g63
NtRp96
(dp97
g66
(dp98
sg75
g78
sg68
(lp99
g61
(g62
g63
NtRp100
(dp101
g66
(dp102
g74
I5
ssg75
g96
sg68
(lp103
S'False'
p104
asbasbasbag61
(g77
g63
NtRp105
(dp106
g66
(dp107
sg75
g71
sg68
(lp108
g61
(g82
g63
NtRp109
(dp110
g66
(dp111
g86
g87
ssg75
g105
sg68
(lp112
S'application'
p113
asbag61
(g82
g63
NtRp114
(dp115
g66
(dp116
g93
g94
ssg75
g105
sg68
(lp117
S':'
asbag61
(g82
g63
NtRp118
(dp119
g66
(dp120
sg75
g105
sg68
(lp121
g61
(g62
g63
NtRp122
(dp123
g66
(dp124
g74
I5
ssg75
g118
sg68
(lp125
S'igor'
p126
asbasbasbag61
(g77
g63
NtRp127
(dp128
g66
(dp129
sg75
g71
sg68
(lp130
g61
(g82
g63
NtRp131
(dp132
g66
(dp133
g86
g87
ssg75
g127
sg68
(lp134
g46
asbag61
(g82
g63
NtRp135
(dp136
g66
(dp137
g93
g94
ssg75
g127
sg68
(lp138
S':'
asbag61
(g82
g63
NtRp139
(dp140
g66
(dp141
sg75
g127
sg68
(lp142
g61
(g62
g63
NtRp143
(dp144
g66
(dp145
g74
I5
ssg75
g139
sg68
(lp146
g61
(g70
g63
NtRp147
(dp148
g66
(dp149
g74
I4
ssg75
Nsg68
(lp150
g61
(g77
g63
NtRp151
(dp152
g66
(dp153
sg75
g147
sg68
(lp154
g61
(g82
g63
NtRp155
(dp156
g66
(dp157
sg75
g151
sg68
(lp158
g61
(g62
g63
NtRp159
(dp160
g66
(dp161
g74
I4
ssg75
g155
sg68
(lp162
S'8'
asbasbasbasbasbasbasbag61
(g77
g63
NtRp163
(dp164
g66
(dp165
sg75
g71
sg68
(lp166
g61
(g82
g63
NtRp167
(dp168
g66
(dp169
g86
g87
ssg75
g163
sg68
(lp170
S'body'
p171
asbag61
(g82
g63
NtRp172
(dp173
g66
(dp174
g93
g94
ssg75
g163
sg68
(lp175
S':'
asbag61
(g82
g63
NtRp176
(dp177
g66
(dp178
sg75
g163
sg68
(lp179
g61
(g62
g63
NtRp180
(dp181
g66
(dp182
g74
I5
ssg75
g176
sg68
(lp183
S'<cStringIO.StringO object at 0x0000000004B55500>'
p184
asbasbasbag61
(g77
g63
NtRp185
(dp186
g66
(dp187
sg75
g71
sg68
(lp188
g61
(g82
g63
NtRp189
(dp190
g66
(dp191
g86
g87
ssg75
g185
sg68
(lp192
S'client'
p193
asbag61
(g82
g63
NtRp194
(dp195
g66
(dp196
g93
g94
ssg75
g185
sg68
(lp197
S':'
asbag61
(g82
g63
NtRp198
(dp199
g66
(dp200
sg75
g185
sg68
(lp201
g61
(g62
g63
NtRp202
(dp203
g66
(dp204
g74
I5
ssg75
g198
sg68
(lp205
S'127.0.0.1'
p206
asbasbasbag61
(g77
g63
NtRp207
(dp208
g66
(dp209
sg75
g71
sg68
(lp210
g61
(g82
g63
NtRp211
(dp212
g66
(dp213
g86
g87
ssg75
g207
sg68
(lp214
S'controller'
p215
asbag61
(g82
g63
NtRp216
(dp217
g66
(dp218
g93
g94
ssg75
g207
sg68
(lp219
S':'
asbag61
(g82
g63
NtRp220
(dp221
g66
(dp222
sg75
g207
sg68
(lp223
g61
(g62
g63
NtRp224
(dp225
g66
(dp226
g74
I5
ssg75
g220
sg68
(lp227
S'class_subject'
p228
asbasbasbag61
(g77
g63
NtRp229
(dp230
g66
(dp231
sg75
g71
sg68
(lp232
g61
(g82
g63
NtRp233
(dp234
g66
(dp235
g86
g87
ssg75
g229
sg68
(lp236
S'cookies'
p237
asbag61
(g82
g63
NtRp238
(dp239
g66
(dp240
g93
g94
ssg75
g229
sg68
(lp241
S':'
asbag61
(g82
g63
NtRp242
(dp243
g66
(dp244
sg75
g229
sg68
(lp245
g61
(g62
g63
NtRp246
(dp247
g66
(dp248
g74
I5
ssg75
g242
sg68
(lp249
g61
(g70
g63
NtRp250
(dp251
g66
(dp252
g74
I4
ssg75
Nsg68
(lp253
g61
(g77
g63
NtRp254
(dp255
g66
(dp256
sg75
g250
sg68
(lp257
g61
(g82
g63
NtRp258
(dp259
g66
(dp260
g86
g87
ssg75
g254
sg68
(lp261
S'session_id_admin'
p262
asbag61
(g82
g63
NtRp263
(dp264
g66
(dp265
g93
g94
ssg75
g254
sg68
(lp266
S':'
asbag61
(g82
g63
NtRp267
(dp268
g66
(dp269
sg75
g254
sg68
(lp270
g61
(g62
g63
NtRp271
(dp272
g66
(dp273
g74
I4
ssg75
g267
sg68
(lp274
g61
(g70
g63
NtRp275
(dp276
g66
(dp277
g74
I3
ssg75
Nsg68
(lp278
g61
(g77
g63
NtRp279
(dp280
g66
(dp281
sg75
g275
sg68
(lp282
g61
(g82
g63
NtRp283
(dp284
g66
(dp285
g86
g87
ssg75
g279
sg68
(lp286
S'comment'
p287
asbag61
(g82
g63
NtRp288
(dp289
g66
(dp290
g93
g94
ssg75
g279
sg68
(lp291
S':'
asbag61
(g82
g63
NtRp292
(dp293
g66
(dp294
sg75
g279
sg68
(lp295
g61
(g62
g63
NtRp296
(dp297
g66
(dp298
g74
I3
ssg75
g292
sg68
(lp299
S''
asbasbasbag61
(g77
g63
NtRp300
(dp301
g66
(dp302
sg75
g275
sg68
(lp303
g61
(g82
g63
NtRp304
(dp305
g66
(dp306
g86
g87
ssg75
g300
sg68
(lp307
S'domain'
p308
asbag61
(g82
g63
NtRp309
(dp310
g66
(dp311
g93
g94
ssg75
g300
sg68
(lp312
S':'
asbag61
(g82
g63
NtRp313
(dp314
g66
(dp315
sg75
g300
sg68
(lp316
g61
(g62
g63
NtRp317
(dp318
g66
(dp319
g74
I3
ssg75
g313
sg68
(lp320
S''
asbasbasbag61
(g77
g63
NtRp321
(dp322
g66
(dp323
sg75
g275
sg68
(lp324
g61
(g82
g63
NtRp325
(dp326
g66
(dp327
g86
g87
ssg75
g321
sg68
(lp328
S'expires'
p329
asbag61
(g82
g63
NtRp330
(dp331
g66
(dp332
g93
g94
ssg75
g321
sg68
(lp333
S':'
asbag61
(g82
g63
NtRp334
(dp335
g66
(dp336
sg75
g321
sg68
(lp337
g61
(g62
g63
NtRp338
(dp339
g66
(dp340
g74
I3
ssg75
g334
sg68
(lp341
S''
asbasbasbag61
(g77
g63
NtRp342
(dp343
g66
(dp344
sg75
g275
sg68
(lp345
g61
(g82
g63
NtRp346
(dp347
g66
(dp348
g86
g87
ssg75
g342
sg68
(lp349
S'httponly'
p350
asbag61
(g82
g63
NtRp351
(dp352
g66
(dp353
g93
g94
ssg75
g342
sg68
(lp354
S':'
asbag61
(g82
g63
NtRp355
(dp356
g66
(dp357
sg75
g342
sg68
(lp358
g61
(g62
g63
NtRp359
(dp360
g66
(dp361
g74
I3
ssg75
g355
sg68
(lp362
S''
asbasbasbag61
(g77
g63
NtRp363
(dp364
g66
(dp365
sg75
g275
sg68
(lp366
g61
(g82
g63
NtRp367
(dp368
g66
(dp369
g86
g87
ssg75
g363
sg68
(lp370
S'max-age'
p371
asbag61
(g82
g63
NtRp372
(dp373
g66
(dp374
g93
g94
ssg75
g363
sg68
(lp375
S':'
asbag61
(g82
g63
NtRp376
(dp377
g66
(dp378
sg75
g363
sg68
(lp379
g61
(g62
g63
NtRp380
(dp381
g66
(dp382
g74
I3
ssg75
g376
sg68
(lp383
S''
asbasbasbag61
(g77
g63
NtRp384
(dp385
g66
(dp386
sg75
g275
sg68
(lp387
g61
(g82
g63
NtRp388
(dp389
g66
(dp390
g86
g87
ssg75
g384
sg68
(lp391
S'path'
p392
asbag61
(g82
g63
NtRp393
(dp394
g66
(dp395
g93
g94
ssg75
g384
sg68
(lp396
S':'
asbag61
(g82
g63
NtRp397
(dp398
g66
(dp399
sg75
g384
sg68
(lp400
g61
(g62
g63
NtRp401
(dp402
g66
(dp403
g74
I3
ssg75
g397
sg68
(lp404
S''
asbasbasbag61
(g77
g63
NtRp405
(dp406
g66
(dp407
sg75
g275
sg68
(lp408
g61
(g82
g63
NtRp409
(dp410
g66
(dp411
g86
g87
ssg75
g405
sg68
(lp412
S'secure'
p413
asbag61
(g82
g63
NtRp414
(dp415
g66
(dp416
g93
g94
ssg75
g405
sg68
(lp417
S':'
asbag61
(g82
g63
NtRp418
(dp419
g66
(dp420
sg75
g405
sg68
(lp421
g61
(g62
g63
NtRp422
(dp423
g66
(dp424
g74
I3
ssg75
g418
sg68
(lp425
S''
asbasbasbag61
(g77
g63
NtRp426
(dp427
g66
(dp428
sg75
g275
sg68
(lp429
g61
(g82
g63
NtRp430
(dp431
g66
(dp432
g86
g87
ssg75
g426
sg68
(lp433
S'version'
p434
asbag61
(g82
g63
NtRp435
(dp436
g66
(dp437
g93
g94
ssg75
g426
sg68
(lp438
S':'
asbag61
(g82
g63
NtRp439
(dp440
g66
(dp441
sg75
g426
sg68
(lp442
g61
(g62
g63
NtRp443
(dp444
g66
(dp445
g74
I3
ssg75
g439
sg68
(lp446
S''
asbasbasbasbasbasbasbag61
(g77
g63
NtRp447
(dp448
g66
(dp449
sg75
g250
sg68
(lp450
g61
(g82
g63
NtRp451
(dp452
g66
(dp453
g86
g87
ssg75
g447
sg68
(lp454
S'session_id_welcome'
p455
asbag61
(g82
g63
NtRp456
(dp457
g66
(dp458
g93
g94
ssg75
g447
sg68
(lp459
S':'
asbag61
(g82
g63
NtRp460
(dp461
g66
(dp462
sg75
g447
sg68
(lp463
g61
(g62
g63
NtRp464
(dp465
g66
(dp466
g74
I4
ssg75
g460
sg68
(lp467
g61
(g70
g63
NtRp468
(dp469
g66
(dp470
g74
I3
ssg75
Nsg68
(lp471
g61
(g77
g63
NtRp472
(dp473
g66
(dp474
sg75
g468
sg68
(lp475
g61
(g82
g63
NtRp476
(dp477
g66
(dp478
g86
g87
ssg75
g472
sg68
(lp479
g287
asbag61
(g82
g63
NtRp480
(dp481
g66
(dp482
g93
g94
ssg75
g472
sg68
(lp483
S':'
asbag61
(g82
g63
NtRp484
(dp485
g66
(dp486
sg75
g472
sg68
(lp487
g61
(g62
g63
NtRp488
(dp489
g66
(dp490
g74
I3
ssg75
g484
sg68
(lp491
S''
asbasbasbag61
(g77
g63
NtRp492
(dp493
g66
(dp494
sg75
g468
sg68
(lp495
g61
(g82
g63
NtRp496
(dp497
g66
(dp498
g86
g87
ssg75
g492
sg68
(lp499
g308
asbag61
(g82
g63
NtRp500
(dp501
g66
(dp502
g93
g94
ssg75
g492
sg68
(lp503
S':'
asbag61
(g82
g63
NtRp504
(dp505
g66
(dp506
sg75
g492
sg68
(lp507
g61
(g62
g63
NtRp508
(dp509
g66
(dp510
g74
I3
ssg75
g504
sg68
(lp511
S''
asbasbasbag61
(g77
g63
NtRp512
(dp513
g66
(dp514
sg75
g468
sg68
(lp515
g61
(g82
g63
NtRp516
(dp517
g66
(dp518
g86
g87
ssg75
g512
sg68
(lp519
g329
asbag61
(g82
g63
NtRp520
(dp521
g66
(dp522
g93
g94
ssg75
g512
sg68
(lp523
S':'
asbag61
(g82
g63
NtRp524
(dp525
g66
(dp526
sg75
g512
sg68
(lp527
g61
(g62
g63
NtRp528
(dp529
g66
(dp530
g74
I3
ssg75
g524
sg68
(lp531
S''
asbasbasbag61
(g77
g63
NtRp532
(dp533
g66
(dp534
sg75
g468
sg68
(lp535
g61
(g82
g63
NtRp536
(dp537
g66
(dp538
g86
g87
ssg75
g532
sg68
(lp539
g350
asbag61
(g82
g63
NtRp540
(dp541
g66
(dp542
g93
g94
ssg75
g532
sg68
(lp543
S':'
asbag61
(g82
g63
NtRp544
(dp545
g66
(dp546
sg75
g532
sg68
(lp547
g61
(g62
g63
NtRp548
(dp549
g66
(dp550
g74
I3
ssg75
g544
sg68
(lp551
S''
asbasbasbag61
(g77
g63
NtRp552
(dp553
g66
(dp554
sg75
g468
sg68
(lp555
g61
(g82
g63
NtRp556
(dp557
g66
(dp558
g86
g87
ssg75
g552
sg68
(lp559
g371
asbag61
(g82
g63
NtRp560
(dp561
g66
(dp562
g93
g94
ssg75
g552
sg68
(lp563
S':'
asbag61
(g82
g63
NtRp564
(dp565
g66
(dp566
sg75
g552
sg68
(lp567
g61
(g62
g63
NtRp568
(dp569
g66
(dp570
g74
I3
ssg75
g564
sg68
(lp571
S''
asbasbasbag61
(g77
g63
NtRp572
(dp573
g66
(dp574
sg75
g468
sg68
(lp575
g61
(g82
g63
NtRp576
(dp577
g66
(dp578
g86
g87
ssg75
g572
sg68
(lp579
g392
asbag61
(g82
g63
NtRp580
(dp581
g66
(dp582
g93
g94
ssg75
g572
sg68
(lp583
S':'
asbag61
(g82
g63
NtRp584
(dp585
g66
(dp586
sg75
g572
sg68
(lp587
g61
(g62
g63
NtRp588
(dp589
g66
(dp590
g74
I3
ssg75
g584
sg68
(lp591
S''
asbasbasbag61
(g77
g63
NtRp592
(dp593
g66
(dp594
sg75
g468
sg68
(lp595
g61
(g82
g63
NtRp596
(dp597
g66
(dp598
g86
g87
ssg75
g592
sg68
(lp599
g413
asbag61
(g82
g63
NtRp600
(dp601
g66
(dp602
g93
g94
ssg75
g592
sg68
(lp603
S':'
asbag61
(g82
g63
NtRp604
(dp605
g66
(dp606
sg75
g592
sg68
(lp607
g61
(g62
g63
NtRp608
(dp609
g66
(dp610
g74
I3
ssg75
g604
sg68
(lp611
S''
asbasbasbag61
(g77
g63
NtRp612
(dp613
g66
(dp614
sg75
g468
sg68
(lp615
g61
(g82
g63
NtRp616
(dp617
g66
(dp618
g86
g87
ssg75
g612
sg68
(lp619
g434
asbag61
(g82
g63
NtRp620
(dp621
g66
(dp622
g93
g94
ssg75
g612
sg68
(lp623
S':'
asbag61
(g82
g63
NtRp624
(dp625
g66
(dp626
sg75
g612
sg68
(lp627
g61
(g62
g63
NtRp628
(dp629
g66
(dp630
g74
I3
ssg75
g624
sg68
(lp631
S''
asbasbasbasbasbasbasbasbasbasbasbag61
(g77
g63
NtRp632
(dp633
g66
(dp634
sg75
g71
sg68
(lp635
g61
(g82
g63
NtRp636
(dp637
g66
(dp638
g86
g87
ssg75
g632
sg68
(lp639
S'env'
p640
asbag61
(g82
g63
NtRp641
(dp642
g66
(dp643
g93
g94
ssg75
g632
sg68
(lp644
S':'
asbag61
(g82
g63
NtRp645
(dp646
g66
(dp647
sg75
g632
sg68
(lp648
g61
(g62
g63
NtRp649
(dp650
g66
(dp651
g74
I5
ssg75
g645
sg68
(lp652
g61
(g70
g63
NtRp653
(dp654
g66
(dp655
g74
I4
ssg75
Nsg68
(lp656
g61
(g77
g63
NtRp657
(dp658
g66
(dp659
sg75
g653
sg68
(lp660
g61
(g82
g63
NtRp661
(dp662
g66
(dp663
g86
g87
ssg75
g657
sg68
(lp664
S'app_folders'
p665
asbag61
(g82
g63
NtRp666
(dp667
g66
(dp668
g93
g94
ssg75
g657
sg68
(lp669
S':'
asbag61
(g82
g63
NtRp670
(dp671
g66
(dp672
sg75
g657
sg68
(lp673
g61
(g62
g63
NtRp674
(dp675
g66
(dp676
g74
I4
ssg75
g670
sg68
(lp677
S"set(['D:\\\\workspace\\\\CA\\\\IgoR\\\\C_Sources\\\\Server\\\\igor-assistant-ca-2012\\\\applications\\\\igor\\\\', 'D:\\\\workspace\\\\CA\\\\IgoR\\\\C_Sources\\\\Server\\\\igor-assistant-ca-2012\\\\applications\\\\welcome\\\\'])"
p678
asbasbasbag61
(g77
g63
NtRp679
(dp680
g66
(dp681
sg75
g653
sg68
(lp682
g61
(g82
g63
NtRp683
(dp684
g66
(dp685
g86
g87
ssg75
g679
sg68
(lp686
S'applications_parent'
p687
asbag61
(g82
g63
NtRp688
(dp689
g66
(dp690
g93
g94
ssg75
g679
sg68
(lp691
S':'
asbag61
(g82
g63
NtRp692
(dp693
g66
(dp694
sg75
g679
sg68
(lp695
g61
(g62
g63
NtRp696
(dp697
g66
(dp698
g74
I4
ssg75
g692
sg68
(lp699
S'D:\\workspace\\CA\\IgoR\\C_Sources\\Server\\igor-assistant-ca-2012'
p700
asbasbasbag61
(g77
g63
NtRp701
(dp702
g66
(dp703
sg75
g653
sg68
(lp704
g61
(g82
g63
NtRp705
(dp706
g66
(dp707
g86
g87
ssg75
g701
sg68
(lp708
S'cmd_args'
p709
asbag61
(g82
g63
NtRp710
(dp711
g66
(dp712
g93
g94
ssg75
g701
sg68
(lp713
S':'
asbag61
(g82
g63
NtRp714
(dp715
g66
(dp716
sg75
g701
sg68
(lp717
g61
(g62
g63
NtRp718
(dp719
g66
(dp720
g74
I4
ssg75
g714
sg68
(lp721
g61
(g70
g63
NtRp722
(dp723
g66
(dp724
g74
I3
ssg75
Nsg68
(lp725
g61
(g77
g63
NtRp726
(dp727
g66
(dp728
sg75
g722
sg68
(lp729
g61
(g82
g63
NtRp730
(dp731
g66
(dp732
sg75
g726
sg68
(lp733
g61
(g62
g63
NtRp734
(dp735
g66
(dp736
g74
I3
ssg75
g730
sg68
(lp737
S'startserver'
p738
asbasbasbasbasbasbasbag61
(g77
g63
NtRp739
(dp740
g66
(dp741
sg75
g653
sg68
(lp742
g61
(g82
g63
NtRp743
(dp744
g66
(dp745
g86
g87
ssg75
g739
sg68
(lp746
S'cmd_options'
p747
asbag61
(g82
g63
NtRp748
(dp749
g66
(dp750
g93
g94
ssg75
g739
sg68
(lp751
S':'
asbag61
(g82
g63
NtRp752
(dp753
g66
(dp754
sg75
g739
sg68
(lp755
g61
(g62
g63
NtRp756
(dp757
g66
(dp758
g74
I4
ssg75
g752
sg68
(lp759
S"<Values at 0x35aed88: {'verbose': False, 'ip': '127.0.0.1', 'shutdown_timeout': 5, 'taskbar': False, 'nocron': False, 'pid_filename': 'httpserver.pid', 'maxthreads': None, 'softcron': False, 'server_name': 'PHUCNH-PC', 'bpython': False, 'nogui': False, 'port': 8000, 'extcron': False, 'debuglevel': 30, 'test': None, 'folder': 'D:\\\\workspace\\\\CA\\\\IgoR\\\\C_Sources\\\\Server\\\\igor-assistant-ca-2012', 'config': '', 'import_models': False, 'winservice': '', 'shell': None, 'run': '', 'log_filename': 'httpserver.log', 'args': [''], 'socket_timeout': 5, 'ssl_ca_certificate': None, 'scheduler': None, 'profiler_filename': None, 'ssl_private_key': '', 'password': '<ask>', 'request_queue_size': 5, 'ssl_certificate': '', 'cronjob': False, 'numthreads': None, 'quiet': False, 'interfaces': None, 'minthreads': None, 'timeout': 10, 'plain': False, 'nobanner': False}>"
p760
asbasbasbag61
(g77
g63
NtRp761
(dp762
g66
(dp763
sg75
g653
sg68
(lp764
g61
(g82
g63
NtRp765
(dp766
g66
(dp767
g86
g87
ssg75
g761
sg68
(lp768
S'db_sessions'
p769
asbag61
(g82
g63
NtRp770
(dp771
g66
(dp772
g93
g94
ssg75
g761
sg68
(lp773
S':'
asbag61
(g82
g63
NtRp774
(dp775
g66
(dp776
sg75
g761
sg68
(lp777
g61
(g62
g63
NtRp778
(dp779
g66
(dp780
g74
I4
ssg75
g774
sg68
(lp781
S'set([])'
p782
asbasbasbag61
(g77
g63
NtRp783
(dp784
g66
(dp785
sg75
g653
sg68
(lp786
g61
(g82
g63
NtRp787
(dp788
g66
(dp789
g86
g87
ssg75
g783
sg68
(lp790
S'debugging'
p791
asbag61
(g82
g63
NtRp792
(dp793
g66
(dp794
g93
g94
ssg75
g783
sg68
(lp795
S':'
asbag61
(g82
g63
NtRp796
(dp797
g66
(dp798
sg75
g783
sg68
(lp799
g61
(g62
g63
NtRp800
(dp801
g66
(dp802
g74
I4
ssg75
g796
sg68
(lp803
g104
asbasbasbag61
(g77
g63
NtRp804
(dp805
g66
(dp806
sg75
g653
sg68
(lp807
g61
(g82
g63
NtRp808
(dp809
g66
(dp810
g86
g87
ssg75
g804
sg68
(lp811
S'gluon_parent'
p812
asbag61
(g82
g63
NtRp813
(dp814
g66
(dp815
g93
g94
ssg75
g804
sg68
(lp816
S':'
asbag61
(g82
g63
NtRp817
(dp818
g66
(dp819
sg75
g804
sg68
(lp820
g61
(g62
g63
NtRp821
(dp822
g66
(dp823
g74
I4
ssg75
g817
sg68
(lp824
S'D:\\workspace\\CA\\IgoR\\C_Sources\\Server\\igor-assistant-ca-2012'
p825
asbasbasbag61
(g77
g63
NtRp826
(dp827
g66
(dp828
sg75
g653
sg68
(lp829
g61
(g82
g63
NtRp830
(dp831
g66
(dp832
g86
g87
ssg75
g826
sg68
(lp833
S'http_accept'
p834
asbag61
(g82
g63
NtRp835
(dp836
g66
(dp837
g93
g94
ssg75
g826
sg68
(lp838
S':'
asbag61
(g82
g63
NtRp839
(dp840
g66
(dp841
sg75
g826
sg68
(lp842
g61
(g62
g63
NtRp843
(dp844
g66
(dp845
g74
I4
ssg75
g839
sg68
(lp846
S'text/html,application/xhtml+xml,application/xml;q=0.9,*/*;q=0.8'
p847
asbasbasbag61
(g77
g63
NtRp848
(dp849
g66
(dp850
sg75
g653
sg68
(lp851
g61
(g82
g63
NtRp852
(dp853
g66
(dp854
g86
g87
ssg75
g848
sg68
(lp855
S'http_accept_charset'
p856
asbag61
(g82
g63
NtRp857
(dp858
g66
(dp859
g93
g94
ssg75
g848
sg68
(lp860
S':'
asbag61
(g82
g63
NtRp861
(dp862
g66
(dp863
sg75
g848
sg68
(lp864
g61
(g62
g63
NtRp865
(dp866
g66
(dp867
g74
I4
ssg75
g861
sg68
(lp868
S'UTF-8,*;q=0.5'
p869
asbasbasbag61
(g77
g63
NtRp870
(dp871
g66
(dp872
sg75
g653
sg68
(lp873
g61
(g82
g63
NtRp874
(dp875
g66
(dp876
g86
g87
ssg75
g870
sg68
(lp877
S'http_accept_encoding'
p878
asbag61
(g82
g63
NtRp879
(dp880
g66
(dp881
g93
g94
ssg75
g870
sg68
(lp882
S':'
asbag61
(g82
g63
NtRp883
(dp884
g66
(dp885
sg75
g870
sg68
(lp886
g61
(g62
g63
NtRp887
(dp888
g66
(dp889
g74
I4
ssg75
g883
sg68
(lp890
S'gzip,deflate,sdch'
p891
asbasbasbag61
(g77
g63
NtRp892
(dp893
g66
(dp894
sg75
g653
sg68
(lp895
g61
(g82
g63
NtRp896
(dp897
g66
(dp898
g86
g87
ssg75
g892
sg68
(lp899
S'http_accept_language'
p900
asbag61
(g82
g63
NtRp901
(dp902
g66
(dp903
g93
g94
ssg75
g892
sg68
(lp904
S':'
asbag61
(g82
g63
NtRp905
(dp906
g66
(dp907
sg75
g892
sg68
(lp908
g61
(g62
g63
NtRp909
(dp910
g66
(dp911
g74
I4
ssg75
g905
sg68
(lp912
S'en-US,en;q=0.8,vi;q=0.6,fr-FR;q=0.4,fr;q=0.2'
p913
asbasbasbag61
(g77
g63
NtRp914
(dp915
g66
(dp916
sg75
g653
sg68
(lp917
g61
(g82
g63
NtRp918
(dp919
g66
(dp920
g86
g87
ssg75
g914
sg68
(lp921
S'http_connection'
p922
asbag61
(g82
g63
NtRp923
(dp924
g66
(dp925
g93
g94
ssg75
g914
sg68
(lp926
S':'
asbag61
(g82
g63
NtRp927
(dp928
g66
(dp929
sg75
g914
sg68
(lp930
g61
(g62
g63
NtRp931
(dp932
g66
(dp933
g74
I4
ssg75
g927
sg68
(lp934
S'keep-alive'
p935
asbasbasbag61
(g77
g63
NtRp936
(dp937
g66
(dp938
sg75
g653
sg68
(lp939
g61
(g82
g63
NtRp940
(dp941
g66
(dp942
g86
g87
ssg75
g936
sg68
(lp943
S'http_cookie'
p944
asbag61
(g82
g63
NtRp945
(dp946
g66
(dp947
g93
g94
ssg75
g936
sg68
(lp948
S':'
asbag61
(g82
g63
NtRp949
(dp950
g66
(dp951
sg75
g936
sg68
(lp952
g61
(g62
g63
NtRp953
(dp954
g66
(dp955
g74
I4
ssg75
g949
sg68
(lp956
S'session_id_admin=127.0.0.1-f8834ed0-c562-4467-9c85-5433880ff6d2; session_id_welcome=127.0.0.1-2915a9a4-897c-4f4d-bd9f-0654f620dff9'
p957
asbasbasbag61
(g77
g63
NtRp958
(dp959
g66
(dp960
sg75
g653
sg68
(lp961
g61
(g82
g63
NtRp962
(dp963
g66
(dp964
g86
g87
ssg75
g958
sg68
(lp965
S'http_host'
p966
asbag61
(g82
g63
NtRp967
(dp968
g66
(dp969
g93
g94
ssg75
g958
sg68
(lp970
S':'
asbag61
(g82
g63
NtRp971
(dp972
g66
(dp973
sg75
g958
sg68
(lp974
g61
(g62
g63
NtRp975
(dp976
g66
(dp977
g74
I4
ssg75
g971
sg68
(lp978
S'127.0.0.1:8000'
p979
asbasbasbag61
(g77
g63
NtRp980
(dp981
g66
(dp982
sg75
g653
sg68
(lp983
g61
(g82
g63
NtRp984
(dp985
g66
(dp986
g86
g87
ssg75
g980
sg68
(lp987
S'http_user_agent'
p988
asbag61
(g82
g63
NtRp989
(dp990
g66
(dp991
g93
g94
ssg75
g980
sg68
(lp992
S':'
asbag61
(g82
g63
NtRp993
(dp994
g66
(dp995
sg75
g980
sg68
(lp996
g61
(g62
g63
NtRp997
(dp998
g66
(dp999
g74
I4
ssg75
g993
sg68
(lp1000
S'Mozilla/5.0 (Windows NT 6.1; WOW64) AppleWebKit/536.11 (KHTML, like Gecko) Chrome/20.0.1132.57 Safari/536.11'
p1001
asbasbasbag61
(g77
g63
NtRp1002
(dp1003
g66
(dp1004
sg75
g653
sg68
(lp1005
g61
(g82
g63
NtRp1006
(dp1007
g66
(dp1008
g86
g87
ssg75
g1002
sg68
(lp1009
S'is_jython'
p1010
asbag61
(g82
g63
NtRp1011
(dp1012
g66
(dp1013
g93
g94
ssg75
g1002
sg68
(lp1014
S':'
asbag61
(g82
g63
NtRp1015
(dp1016
g66
(dp1017
sg75
g1002
sg68
(lp1018
g61
(g62
g63
NtRp1019
(dp1020
g66
(dp1021
g74
I4
ssg75
g1015
sg68
(lp1022
g104
asbasbasbag61
(g77
g63
NtRp1023
(dp1024
g66
(dp1025
sg75
g653
sg68
(lp1026
g61
(g82
g63
NtRp1027
(dp1028
g66
(dp1029
g86
g87
ssg75
g1023
sg68
(lp1030
S'is_pypy'
p1031
asbag61
(g82
g63
NtRp1032
(dp1033
g66
(dp1034
g93
g94
ssg75
g1023
sg68
(lp1035
S':'
asbag61
(g82
g63
NtRp1036
(dp1037
g66
(dp1038
sg75
g1023
sg68
(lp1039
g61
(g62
g63
NtRp1040
(dp1041
g66
(dp1042
g74
I4
ssg75
g1036
sg68
(lp1043
g104
asbasbasbag61
(g77
g63
NtRp1044
(dp1045
g66
(dp1046
sg75
g653
sg68
(lp1047
g61
(g82
g63
NtRp1048
(dp1049
g66
(dp1050
g86
g87
ssg75
g1044
sg68
(lp1051
S'path_info'
p1052
asbag61
(g82
g63
NtRp1053
(dp1054
g66
(dp1055
g93
g94
ssg75
g1044
sg68
(lp1056
S':'
asbag61
(g82
g63
NtRp1057
(dp1058
g66
(dp1059
sg75
g1044
sg68
(lp1060
g61
(g62
g63
NtRp1061
(dp1062
g66
(dp1063
g74
I4
ssg75
g1057
sg68
(lp1064
S'/igor/class_subject/get_classes_by_subject/8'
p1065
asbasbasbag61
(g77
g63
NtRp1066
(dp1067
g66
(dp1068
sg75
g653
sg68
(lp1069
g61
(g82
g63
NtRp1070
(dp1071
g66
(dp1072
g86
g87
ssg75
g1066
sg68
(lp1073
S'query_string'
p1074
asbag61
(g82
g63
NtRp1075
(dp1076
g66
(dp1077
g93
g94
ssg75
g1066
sg68
(lp1078
S':'
asbag61
(g82
g63
NtRp1079
(dp1080
g66
(dp1081
sg75
g1066
sg68
(lp1082
g61
(g62
g63
NtRp1083
(dp1084
g66
(dp1085
g74
I4
ssg75
g1079
sg68
(lp1086
S''
asbasbasbag61
(g77
g63
NtRp1087
(dp1088
g66
(dp1089
sg75
g653
sg68
(lp1090
g61
(g82
g63
NtRp1091
(dp1092
g66
(dp1093
g86
g87
ssg75
g1087
sg68
(lp1094
S'remote_addr'
p1095
asbag61
(g82
g63
NtRp1096
(dp1097
g66
(dp1098
g93
g94
ssg75
g1087
sg68
(lp1099
S':'
asbag61
(g82
g63
NtRp1100
(dp1101
g66
(dp1102
sg75
g1087
sg68
(lp1103
g61
(g62
g63
NtRp1104
(dp1105
g66
(dp1106
g74
I4
ssg75
g1100
sg68
(lp1107
g206
asbasbasbag61
(g77
g63
NtRp1108
(dp1109
g66
(dp1110
sg75
g653
sg68
(lp1111
g61
(g82
g63
NtRp1112
(dp1113
g66
(dp1114
g86
g87
ssg75
g1108
sg68
(lp1115
S'remote_port'
p1116
asbag61
(g82
g63
NtRp1117
(dp1118
g66
(dp1119
g93
g94
ssg75
g1108
sg68
(lp1120
S':'
asbag61
(g82
g63
NtRp1121
(dp1122
g66
(dp1123
sg75
g1108
sg68
(lp1124
g61
(g62
g63
NtRp1125
(dp1126
g66
(dp1127
g74
I4
ssg75
g1121
sg68
(lp1128
S'13228'
p1129
asbasbasbag61
(g77
g63
NtRp1130
(dp1131
g66
(dp1132
sg75
g653
sg68
(lp1133
g61
(g82
g63
NtRp1134
(dp1135
g66
(dp1136
g86
g87
ssg75
g1130
sg68
(lp1137
S'request_method'
p1138
asbag61
(g82
g63
NtRp1139
(dp1140
g66
(dp1141
g93
g94
ssg75
g1130
sg68
(lp1142
S':'
asbag61
(g82
g63
NtRp1143
(dp1144
g66
(dp1145
sg75
g1130
sg68
(lp1146
g61
(g62
g63
NtRp1147
(dp1148
g66
(dp1149
g74
I4
ssg75
g1143
sg68
(lp1150
S'GET'
p1151
asbasbasbag61
(g77
g63
NtRp1152
(dp1153
g66
(dp1154
sg75
g653
sg68
(lp1155
g61
(g82
g63
NtRp1156
(dp1157
g66
(dp1158
g86
g87
ssg75
g1152
sg68
(lp1159
S'script_name'
p1160
asbag61
(g82
g63
NtRp1161
(dp1162
g66
(dp1163
g93
g94
ssg75
g1152
sg68
(lp1164
S':'
asbag61
(g82
g63
NtRp1165
(dp1166
g66
(dp1167
sg75
g1152
sg68
(lp1168
g61
(g62
g63
NtRp1169
(dp1170
g66
(dp1171
g74
I4
ssg75
g1165
sg68
(lp1172
S''
asbasbasbag61
(g77
g63
NtRp1173
(dp1174
g66
(dp1175
sg75
g653
sg68
(lp1176
g61
(g82
g63
NtRp1177
(dp1178
g66
(dp1179
g86
g87
ssg75
g1173
sg68
(lp1180
S'server_name'
p1181
asbag61
(g82
g63
NtRp1182
(dp1183
g66
(dp1184
g93
g94
ssg75
g1173
sg68
(lp1185
S':'
asbag61
(g82
g63
NtRp1186
(dp1187
g66
(dp1188
sg75
g1173
sg68
(lp1189
g61
(g62
g63
NtRp1190
(dp1191
g66
(dp1192
g74
I4
ssg75
g1186
sg68
(lp1193
S'PHUCNH-PC'
p1194
asbasbasbag61
(g77
g63
NtRp1195
(dp1196
g66
(dp1197
sg75
g653
sg68
(lp1198
g61
(g82
g63
NtRp1199
(dp1200
g66
(dp1201
g86
g87
ssg75
g1195
sg68
(lp1202
S'server_port'
p1203
asbag61
(g82
g63
NtRp1204
(dp1205
g66
(dp1206
g93
g94
ssg75
g1195
sg68
(lp1207
S':'
asbag61
(g82
g63
NtRp1208
(dp1209
g66
(dp1210
sg75
g1195
sg68
(lp1211
g61
(g62
g63
NtRp1212
(dp1213
g66
(dp1214
g74
I4
ssg75
g1208
sg68
(lp1215
S'8000'
p1216
asbasbasbag61
(g77
g63
NtRp1217
(dp1218
g66
(dp1219
sg75
g653
sg68
(lp1220
g61
(g82
g63
NtRp1221
(dp1222
g66
(dp1223
g86
g87
ssg75
g1217
sg68
(lp1224
S'server_protocol'
p1225
asbag61
(g82
g63
NtRp1226
(dp1227
g66
(dp1228
g93
g94
ssg75
g1217
sg68
(lp1229
S':'
asbag61
(g82
g63
NtRp1230
(dp1231
g66
(dp1232
sg75
g1217
sg68
(lp1233
g61
(g62
g63
NtRp1234
(dp1235
g66
(dp1236
g74
I4
ssg75
g1230
sg68
(lp1237
S'HTTP/1.1'
p1238
asbasbasbag61
(g77
g63
NtRp1239
(dp1240
g66
(dp1241
sg75
g653
sg68
(lp1242
g61
(g82
g63
NtRp1243
(dp1244
g66
(dp1245
g86
g87
ssg75
g1239
sg68
(lp1246
S'server_software'
p1247
asbag61
(g82
g63
NtRp1248
(dp1249
g66
(dp1250
g93
g94
ssg75
g1239
sg68
(lp1251
S':'
asbag61
(g82
g63
NtRp1252
(dp1253
g66
(dp1254
sg75
g1239
sg68
(lp1255
g61
(g62
g63
NtRp1256
(dp1257
g66
(dp1258
g74
I4
ssg75
g1252
sg68
(lp1259
S'Rocket 1.2.4'
p1260
asbasbasbag61
(g77
g63
NtRp1261
(dp1262
g66
(dp1263
sg75
g653
sg68
(lp1264
g61
(g82
g63
NtRp1265
(dp1266
g66
(dp1267
g86
g87
ssg75
g1261
sg68
(lp1268
S'web2py_crontype'
p1269
asbag61
(g82
g63
NtRp1270
(dp1271
g66
(dp1272
g93
g94
ssg75
g1261
sg68
(lp1273
S':'
asbag61
(g82
g63
NtRp1274
(dp1275
g66
(dp1276
sg75
g1261
sg68
(lp1277
g61
(g62
g63
NtRp1278
(dp1279
g66
(dp1280
g74
I4
ssg75
g1274
sg68
(lp1281
S'hard'
p1282
asbasbasbag61
(g77
g63
NtRp1283
(dp1284
g66
(dp1285
sg75
g653
sg68
(lp1286
g61
(g82
g63
NtRp1287
(dp1288
g66
(dp1289
g86
g87
ssg75
g1283
sg68
(lp1290
S'web2py_path'
p1291
asbag61
(g82
g63
NtRp1292
(dp1293
g66
(dp1294
g93
g94
ssg75
g1283
sg68
(lp1295
S':'
asbag61
(g82
g63
NtRp1296
(dp1297
g66
(dp1298
sg75
g1283
sg68
(lp1299
g61
(g62
g63
NtRp1300
(dp1301
g66
(dp1302
g74
I4
ssg75
g1296
sg68
(lp1303
g700
asbasbasbag61
(g77
g63
NtRp1304
(dp1305
g66
(dp1306
sg75
g653
sg68
(lp1307
g61
(g82
g63
NtRp1308
(dp1309
g66
(dp1310
g86
g87
ssg75
g1304
sg68
(lp1311
S'web2py_version'
p1312
asbag61
(g82
g63
NtRp1313
(dp1314
g66
(dp1315
g93
g94
ssg75
g1304
sg68
(lp1316
S':'
asbag61
(g82
g63
NtRp1317
(dp1318
g66
(dp1319
sg75
g1304
sg68
(lp1320
g61
(g62
g63
NtRp1321
(dp1322
g66
(dp1323
g74
I4
ssg75
g1317
sg68
(lp1324
g61
(g70
g63
NtRp1325
(dp1326
g66
(dp1327
g74
I3
ssg75
Nsg68
(lp1328
g61
(g77
g63
NtRp1329
(dp1330
g66
(dp1331
sg75
g1325
sg68
(lp1332
g61
(g82
g63
NtRp1333
(dp1334
g66
(dp1335
sg75
g1329
sg68
(lp1336
g61
(g62
g63
NtRp1337
(dp1338
g66
(dp1339
g74
I3
ssg75
g1333
sg68
(lp1340
S'1'
asbasbasbag61
(g77
g63
NtRp1341
(dp1342
g66
(dp1343
sg75
g1325
sg68
(lp1344
g61
(g82
g63
NtRp1345
(dp1346
g66
(dp1347
sg75
g1341
sg68
(lp1348
g61
(g62
g63
NtRp1349
(dp1350
g66
(dp1351
g74
I3
ssg75
g1345
sg68
(lp1352
S'99'
p1353
asbasbasbag61
(g77
g63
NtRp1354
(dp1355
g66
(dp1356
sg75
g1325
sg68
(lp1357
g61
(g82
g63
NtRp1358
(dp1359
g66
(dp1360
sg75
g1354
sg68
(lp1361
g61
(g62
g63
NtRp1362
(dp1363
g66
(dp1364
g74
I3
ssg75
g1358
sg68
(lp1365
S'7'
asbasbasbag61
(g77
g63
NtRp1366
(dp1367
g66
(dp1368
sg75
g1325
sg68
(lp1369
g61
(g82
g63
NtRp1370
(dp1371
g66
(dp1372
sg75
g1366
sg68
(lp1373
g61
(g62
g63
NtRp1374
(dp1375
g66
(dp1376
g74
I3
ssg75
g1370
sg68
(lp1377
S'datetime.datetime(2012, 3, 4, 22, 12, 8)'
p1378
asbasbasbag61
(g77
g63
NtRp1379
(dp1380
g66
(dp1381
sg75
g1325
sg68
(lp1382
g61
(g82
g63
NtRp1383
(dp1384
g66
(dp1385
sg75
g1379
sg68
(lp1386
g61
(g62
g63
NtRp1387
(dp1388
g66
(dp1389
g74
I3
ssg75
g1383
sg68
(lp1390
S'stable'
p1391
asbasbasbasbasbasbasbag61
(g77
g63
NtRp1392
(dp1393
g66
(dp1394
sg75
g653
sg68
(lp1395
g61
(g82
g63
NtRp1396
(dp1397
g66
(dp1398
g86
g87
ssg75
g1392
sg68
(lp1399
S'wsgi_errors'
p1400
asbag61
(g82
g63
NtRp1401
(dp1402
g66
(dp1403
g93
g94
ssg75
g1392
sg68
(lp1404
S':'
asbag61
(g82
g63
NtRp1405
(dp1406
g66
(dp1407
sg75
g1392
sg68
(lp1408
g61
(g62
g63
NtRp1409
(dp1410
g66
(dp1411
g74
I4
ssg75
g1405
sg68
(lp1412
S"<open file '<stderr>', mode 'w' at 0x0000000001CFE1E0>"
p1413
asbasbasbag61
(g77
g63
NtRp1414
(dp1415
g66
(dp1416
sg75
g653
sg68
(lp1417
g61
(g82
g63
NtRp1418
(dp1419
g66
(dp1420
g86
g87
ssg75
g1414
sg68
(lp1421
S'wsgi_file_wrapper'
p1422
asbag61
(g82
g63
NtRp1423
(dp1424
g66
(dp1425
g93
g94
ssg75
g1414
sg68
(lp1426
S':'
asbag61
(g82
g63
NtRp1427
(dp1428
g66
(dp1429
sg75
g1414
sg68
(lp1430
g61
(g62
g63
NtRp1431
(dp1432
g66
(dp1433
g74
I4
ssg75
g1427
sg68
(lp1434
S'<class wsgiref.util.FileWrapper at 0x0000000003497AC8>'
p1435
asbasbasbag61
(g77
g63
NtRp1436
(dp1437
g66
(dp1438
sg75
g653
sg68
(lp1439
g61
(g82
g63
NtRp1440
(dp1441
g66
(dp1442
g86
g87
ssg75
g1436
sg68
(lp1443
S'wsgi_input'
p1444
asbag61
(g82
g63
NtRp1445
(dp1446
g66
(dp1447
g93
g94
ssg75
g1436
sg68
(lp1448
S':'
asbag61
(g82
g63
NtRp1449
(dp1450
g66
(dp1451
sg75
g1436
sg68
(lp1452
g61
(g62
g63
NtRp1453
(dp1454
g66
(dp1455
g74
I4
ssg75
g1449
sg68
(lp1456
S'<socket._fileobject object at 0x0000000004B03B88>'
p1457
asbasbasbag61
(g77
g63
NtRp1458
(dp1459
g66
(dp1460
sg75
g653
sg68
(lp1461
g61
(g82
g63
NtRp1462
(dp1463
g66
(dp1464
g86
g87
ssg75
g1458
sg68
(lp1465
S'wsgi_multiprocess'
p1466
asbag61
(g82
g63
NtRp1467
(dp1468
g66
(dp1469
g93
g94
ssg75
g1458
sg68
(lp1470
S':'
asbag61
(g82
g63
NtRp1471
(dp1472
g66
(dp1473
sg75
g1458
sg68
(lp1474
g61
(g62
g63
NtRp1475
(dp1476
g66
(dp1477
g74
I4
ssg75
g1471
sg68
(lp1478
g104
asbasbasbag61
(g77
g63
NtRp1479
(dp1480
g66
(dp1481
sg75
g653
sg68
(lp1482
g61
(g82
g63
NtRp1483
(dp1484
g66
(dp1485
g86
g87
ssg75
g1479
sg68
(lp1486
S'wsgi_multithread'
p1487
asbag61
(g82
g63
NtRp1488
(dp1489
g66
(dp1490
g93
g94
ssg75
g1479
sg68
(lp1491
S':'
asbag61
(g82
g63
NtRp1492
(dp1493
g66
(dp1494
sg75
g1479
sg68
(lp1495
g61
(g62
g63
NtRp1496
(dp1497
g66
(dp1498
g74
I4
ssg75
g1492
sg68
(lp1499
S'True'
p1500
asbasbasbag61
(g77
g63
NtRp1501
(dp1502
g66
(dp1503
sg75
g653
sg68
(lp1504
g61
(g82
g63
NtRp1505
(dp1506
g66
(dp1507
g86
g87
ssg75
g1501
sg68
(lp1508
S'wsgi_run_once'
p1509
asbag61
(g82
g63
NtRp1510
(dp1511
g66
(dp1512
g93
g94
ssg75
g1501
sg68
(lp1513
S':'
asbag61
(g82
g63
NtRp1514
(dp1515
g66
(dp1516
sg75
g1501
sg68
(lp1517
g61
(g62
g63
NtRp1518
(dp1519
g66
(dp1520
g74
I4
ssg75
g1514
sg68
(lp1521
g104
asbasbasbag61
(g77
g63
NtRp1522
(dp1523
g66
(dp1524
sg75
g653
sg68
(lp1525
g61
(g82
g63
NtRp1526
(dp1527
g66
(dp1528
g86
g87
ssg75
g1522
sg68
(lp1529
S'wsgi_url_scheme'
p1530
asbag61
(g82
g63
NtRp1531
(dp1532
g66
(dp1533
g93
g94
ssg75
g1522
sg68
(lp1534
S':'
asbag61
(g82
g63
NtRp1535
(dp1536
g66
(dp1537
sg75
g1522
sg68
(lp1538
g61
(g62
g63
NtRp1539
(dp1540
g66
(dp1541
g74
I4
ssg75
g1535
sg68
(lp1542
S'http'
p1543
asbasbasbag61
(g77
g63
NtRp1544
(dp1545
g66
(dp1546
sg75
g653
sg68
(lp1547
g61
(g82
g63
NtRp1548
(dp1549
g66
(dp1550
g86
g87
ssg75
g1544
sg68
(lp1551
S'wsgi_version'
p1552
asbag61
(g82
g63
NtRp1553
(dp1554
g66
(dp1555
g93
g94
ssg75
g1544
sg68
(lp1556
S':'
asbag61
(g82
g63
NtRp1557
(dp1558
g66
(dp1559
sg75
g1544
sg68
(lp1560
g61
(g62
g63
NtRp1561
(dp1562
g66
(dp1563
g74
I4
ssg75
g1557
sg68
(lp1564
g61
(g70
g63
NtRp1565
(dp1566
g66
(dp1567
g74
I3
ssg75
Nsg68
(lp1568
g61
(g77
g63
NtRp1569
(dp1570
g66
(dp1571
sg75
g1565
sg68
(lp1572
g61
(g82
g63
NtRp1573
(dp1574
g66
(dp1575
sg75
g1569
sg68
(lp1576
g61
(g62
g63
NtRp1577
(dp1578
g66
(dp1579
g74
I3
ssg75
g1573
sg68
(lp1580
S'1'
asbasbasbag61
(g77
g63
NtRp1581
(dp1582
g66
(dp1583
sg75
g1565
sg68
(lp1584
g61
(g82
g63
NtRp1585
(dp1586
g66
(dp1587
sg75
g1581
sg68
(lp1588
g61
(g62
g63
NtRp1589
(dp1590
g66
(dp1591
g74
I3
ssg75
g1585
sg68
(lp1592
S'0'
asbasbasbasbasbasbasbasbasbasbasbag61
(g77
g63
NtRp1593
(dp1594
g66
(dp1595
sg75
g71
sg68
(lp1596
g61
(g82
g63
NtRp1597
(dp1598
g66
(dp1599
g86
g87
ssg75
g1593
sg68
(lp1600
S'extension'
p1601
asbag61
(g82
g63
NtRp1602
(dp1603
g66
(dp1604
g93
g94
ssg75
g1593
sg68
(lp1605
S':'
asbag61
(g82
g63
NtRp1606
(dp1607
g66
(dp1608
sg75
g1593
sg68
(lp1609
g61
(g62
g63
NtRp1610
(dp1611
g66
(dp1612
g74
I5
ssg75
g1606
sg68
(lp1613
S'html'
p1614
asbasbasbag61
(g77
g63
NtRp1615
(dp1616
g66
(dp1617
sg75
g71
sg68
(lp1618
g61
(g82
g63
NtRp1619
(dp1620
g66
(dp1621
g86
g87
ssg75
g1615
sg68
(lp1622
S'folder'
p1623
asbag61
(g82
g63
NtRp1624
(dp1625
g66
(dp1626
g93
g94
ssg75
g1615
sg68
(lp1627
S':'
asbag61
(g82
g63
NtRp1628
(dp1629
g66
(dp1630
sg75
g1615
sg68
(lp1631
g61
(g62
g63
NtRp1632
(dp1633
g66
(dp1634
g74
I5
ssg75
g1628
sg68
(lp1635
S'D:\\workspace\\CA\\IgoR\\C_Sources\\Server\\igor-assistant-ca-2012\\applications\\igor\\'
p1636
asbasbasbag61
(g77
g63
NtRp1637
(dp1638
g66
(dp1639
sg75
g71
sg68
(lp1640
g61
(g82
g63
NtRp1641
(dp1642
g66
(dp1643
g86
g87
ssg75
g1637
sg68
(lp1644
S'function'
p1645
asbag61
(g82
g63
NtRp1646
(dp1647
g66
(dp1648
g93
g94
ssg75
g1637
sg68
(lp1649
S':'
asbag61
(g82
g63
NtRp1650
(dp1651
g66
(dp1652
sg75
g1637
sg68
(lp1653
g61
(g62
g63
NtRp1654
(dp1655
g66
(dp1656
g74
I5
ssg75
g1650
sg68
(lp1657
S'get_classes_by_subject'
p1658
asbasbasbag61
(g77
g63
NtRp1659
(dp1660
g66
(dp1661
sg75
g71
sg68
(lp1662
g61
(g82
g63
NtRp1663
(dp1664
g66
(dp1665
g86
g87
ssg75
g1659
sg68
(lp1666
S'get_vars'
p1667
asbag61
(g82
g63
NtRp1668
(dp1669
g66
(dp1670
g93
g94
ssg75
g1659
sg68
(lp1671
S':'
asbag61
(g82
g63
NtRp1672
(dp1673
g66
(dp1674
sg75
g1659
sg68
(lp1675
g61
(g62
g63
NtRp1676
(dp1677
g66
(dp1678
g74
I5
ssg75
g1672
sg68
(lp1679
g61
(g70
g63
NtRp1680
(dp1681
g66
(dp1682
g74
I4
ssg75
Nsg68
(lp1683
sbasbasbasbag61
(g77
g63
NtRp1684
(dp1685
g66
(dp1686
sg75
g71
sg68
(lp1687
g61
(g82
g63
NtRp1688
(dp1689
g66
(dp1690
g86
g87
ssg75
g1684
sg68
(lp1691
S'global_settings'
p1692
asbag61
(g82
g63
NtRp1693
(dp1694
g66
(dp1695
g93
g94
ssg75
g1684
sg68
(lp1696
S':'
asbag61
(g82
g63
NtRp1697
(dp1698
g66
(dp1699
sg75
g1684
sg68
(lp1700
g61
(g62
g63
NtRp1701
(dp1702
g66
(dp1703
g74
I5
ssg75
g1697
sg68
(lp1704
g61
(g70
g63
NtRp1705
(dp1706
g66
(dp1707
g74
I4
ssg75
Nsg68
(lp1708
g61
(g77
g63
NtRp1709
(dp1710
g66
(dp1711
sg75
g1705
sg68
(lp1712
g61
(g82
g63
NtRp1713
(dp1714
g66
(dp1715
g86
g87
ssg75
g1709
sg68
(lp1716
g665
asbag61
(g82
g63
NtRp1717
(dp1718
g66
(dp1719
g93
g94
ssg75
g1709
sg68
(lp1720
S':'
asbag61
(g82
g63
NtRp1721
(dp1722
g66
(dp1723
sg75
g1709
sg68
(lp1724
g61
(g62
g63
NtRp1725
(dp1726
g66
(dp1727
g74
I4
ssg75
g1721
sg68
(lp1728
S"set(['D:\\\\workspace\\\\CA\\\\IgoR\\\\C_Sources\\\\Server\\\\igor-assistant-ca-2012\\\\applications\\\\igor\\\\', 'D:\\\\workspace\\\\CA\\\\IgoR\\\\C_Sources\\\\Server\\\\igor-assistant-ca-2012\\\\applications\\\\welcome\\\\'])"
p1729
asbasbasbag61
(g77
g63
NtRp1730
(dp1731
g66
(dp1732
sg75
g1705
sg68
(lp1733
g61
(g82
g63
NtRp1734
(dp1735
g66
(dp1736
g86
g87
ssg75
g1730
sg68
(lp1737
g687
asbag61
(g82
g63
NtRp1738
(dp1739
g66
(dp1740
g93
g94
ssg75
g1730
sg68
(lp1741
S':'
asbag61
(g82
g63
NtRp1742
(dp1743
g66
(dp1744
sg75
g1730
sg68
(lp1745
g61
(g62
g63
NtRp1746
(dp1747
g66
(dp1748
g74
I4
ssg75
g1742
sg68
(lp1749
g700
asbasbasbag61
(g77
g63
NtRp1750
(dp1751
g66
(dp1752
sg75
g1705
sg68
(lp1753
g61
(g82
g63
NtRp1754
(dp1755
g66
(dp1756
g86
g87
ssg75
g1750
sg68
(lp1757
g709
asbag61
(g82
g63
NtRp1758
(dp1759
g66
(dp1760
g93
g94
ssg75
g1750
sg68
(lp1761
S':'
asbag61
(g82
g63
NtRp1762
(dp1763
g66
(dp1764
sg75
g1750
sg68
(lp1765
g61
(g62
g63
NtRp1766
(dp1767
g66
(dp1768
g74
I4
ssg75
g1762
sg68
(lp1769
g61
(g70
g63
NtRp1770
(dp1771
g66
(dp1772
g74
I3
ssg75
Nsg68
(lp1773
g61
(g77
g63
NtRp1774
(dp1775
g66
(dp1776
sg75
g1770
sg68
(lp1777
g61
(g82
g63
NtRp1778
(dp1779
g66
(dp1780
sg75
g1774
sg68
(lp1781
g61
(g62
g63
NtRp1782
(dp1783
g66
(dp1784
g74
I3
ssg75
g1778
sg68
(lp1785
g738
asbasbasbasbasbasbasbag61
(g77
g63
NtRp1786
(dp1787
g66
(dp1788
sg75
g1705
sg68
(lp1789
g61
(g82
g63
NtRp1790
(dp1791
g66
(dp1792
g86
g87
ssg75
g1786
sg68
(lp1793
g747
asbag61
(g82
g63
NtRp1794
(dp1795
g66
(dp1796
g93
g94
ssg75
g1786
sg68
(lp1797
S':'
asbag61
(g82
g63
NtRp1798
(dp1799
g66
(dp1800
sg75
g1786
sg68
(lp1801
g61
(g62
g63
NtRp1802
(dp1803
g66
(dp1804
g74
I4
ssg75
g1798
sg68
(lp1805
S"<Values at 0x35aed88: {'verbose': False, 'ip': '127.0.0.1', 'shutdown_timeout': 5, 'taskbar': False, 'nocron': False, 'pid_filename': 'httpserver.pid', 'maxthreads': None, 'softcron': False, 'server_name': 'PHUCNH-PC', 'bpython': False, 'nogui': False, 'port': 8000, 'extcron': False, 'debuglevel': 30, 'test': None, 'folder': 'D:\\\\workspace\\\\CA\\\\IgoR\\\\C_Sources\\\\Server\\\\igor-assistant-ca-2012', 'config': '', 'import_models': False, 'winservice': '', 'shell': None, 'run': '', 'log_filename': 'httpserver.log', 'args': [''], 'socket_timeout': 5, 'ssl_ca_certificate': None, 'scheduler': None, 'profiler_filename': None, 'ssl_private_key': '', 'password': '<ask>', 'request_queue_size': 5, 'ssl_certificate': '', 'cronjob': False, 'numthreads': None, 'quiet': False, 'interfaces': None, 'minthreads': None, 'timeout': 10, 'plain': False, 'nobanner': False}>"
p1806
asbasbasbag61
(g77
g63
NtRp1807
(dp1808
g66
(dp1809
sg75
g1705
sg68
(lp1810
g61
(g82
g63
NtRp1811
(dp1812
g66
(dp1813
g86
g87
ssg75
g1807
sg68
(lp1814
g769
asbag61
(g82
g63
NtRp1815
(dp1816
g66
(dp1817
g93
g94
ssg75
g1807
sg68
(lp1818
S':'
asbag61
(g82
g63
NtRp1819
(dp1820
g66
(dp1821
sg75
g1807
sg68
(lp1822
g61
(g62
g63
NtRp1823
(dp1824
g66
(dp1825
g74
I4
ssg75
g1819
sg68
(lp1826
S'set([])'
p1827
asbasbasbag61
(g77
g63
NtRp1828
(dp1829
g66
(dp1830
sg75
g1705
sg68
(lp1831
g61
(g82
g63
NtRp1832
(dp1833
g66
(dp1834
g86
g87
ssg75
g1828
sg68
(lp1835
g791
asbag61
(g82
g63
NtRp1836
(dp1837
g66
(dp1838
g93
g94
ssg75
g1828
sg68
(lp1839
S':'
asbag61
(g82
g63
NtRp1840
(dp1841
g66
(dp1842
sg75
g1828
sg68
(lp1843
g61
(g62
g63
NtRp1844
(dp1845
g66
(dp1846
g74
I4
ssg75
g1840
sg68
(lp1847
g104
asbasbasbag61
(g77
g63
NtRp1848
(dp1849
g66
(dp1850
sg75
g1705
sg68
(lp1851
g61
(g82
g63
NtRp1852
(dp1853
g66
(dp1854
g86
g87
ssg75
g1848
sg68
(lp1855
g812
asbag61
(g82
g63
NtRp1856
(dp1857
g66
(dp1858
g93
g94
ssg75
g1848
sg68
(lp1859
S':'
asbag61
(g82
g63
NtRp1860
(dp1861
g66
(dp1862
sg75
g1848
sg68
(lp1863
g61
(g62
g63
NtRp1864
(dp1865
g66
(dp1866
g74
I4
ssg75
g1860
sg68
(lp1867
g825
asbasbasbag61
(g77
g63
NtRp1868
(dp1869
g66
(dp1870
sg75
g1705
sg68
(lp1871
g61
(g82
g63
NtRp1872
(dp1873
g66
(dp1874
g86
g87
ssg75
g1868
sg68
(lp1875
g1010
asbag61
(g82
g63
NtRp1876
(dp1877
g66
(dp1878
g93
g94
ssg75
g1868
sg68
(lp1879
S':'
asbag61
(g82
g63
NtRp1880
(dp1881
g66
(dp1882
sg75
g1868
sg68
(lp1883
g61
(g62
g63
NtRp1884
(dp1885
g66
(dp1886
g74
I4
ssg75
g1880
sg68
(lp1887
g104
asbasbasbag61
(g77
g63
NtRp1888
(dp1889
g66
(dp1890
sg75
g1705
sg68
(lp1891
g61
(g82
g63
NtRp1892
(dp1893
g66
(dp1894
g86
g87
ssg75
g1888
sg68
(lp1895
g1031
asbag61
(g82
g63
NtRp1896
(dp1897
g66
(dp1898
g93
g94
ssg75
g1888
sg68
(lp1899
S':'
asbag61
(g82
g63
NtRp1900
(dp1901
g66
(dp1902
sg75
g1888
sg68
(lp1903
g61
(g62
g63
NtRp1904
(dp1905
g66
(dp1906
g74
I4
ssg75
g1900
sg68
(lp1907
g104
asbasbasbag61
(g77
g63
NtRp1908
(dp1909
g66
(dp1910
sg75
g1705
sg68
(lp1911
g61
(g82
g63
NtRp1912
(dp1913
g66
(dp1914
g86
g87
ssg75
g1908
sg68
(lp1915
g1269
asbag61
(g82
g63
NtRp1916
(dp1917
g66
(dp1918
g93
g94
ssg75
g1908
sg68
(lp1919
S':'
asbag61
(g82
g63
NtRp1920
(dp1921
g66
(dp1922
sg75
g1908
sg68
(lp1923
g61
(g62
g63
NtRp1924
(dp1925
g66
(dp1926
g74
I4
ssg75
g1920
sg68
(lp1927
g1282
asbasbasbag61
(g77
g63
NtRp1928
(dp1929
g66
(dp1930
sg75
g1705
sg68
(lp1931
g61
(g82
g63
NtRp1932
(dp1933
g66
(dp1934
g86
g87
ssg75
g1928
sg68
(lp1935
g1312
asbag61
(g82
g63
NtRp1936
(dp1937
g66
(dp1938
g93
g94
ssg75
g1928
sg68
(lp1939
S':'
asbag61
(g82
g63
NtRp1940
(dp1941
g66
(dp1942
sg75
g1928
sg68
(lp1943
g61
(g62
g63
NtRp1944
(dp1945
g66
(dp1946
g74
I4
ssg75
g1940
sg68
(lp1947
g61
(g70
g63
NtRp1948
(dp1949
g66
(dp1950
g74
I3
ssg75
Nsg68
(lp1951
g61
(g77
g63
NtRp1952
(dp1953
g66
(dp1954
sg75
g1948
sg68
(lp1955
g61
(g82
g63
NtRp1956
(dp1957
g66
(dp1958
sg75
g1952
sg68
(lp1959
g61
(g62
g63
NtRp1960
(dp1961
g66
(dp1962
g74
I3
ssg75
g1956
sg68
(lp1963
S'1'
asbasbasbag61
(g77
g63
NtRp1964
(dp1965
g66
(dp1966
sg75
g1948
sg68
(lp1967
g61
(g82
g63
NtRp1968
(dp1969
g66
(dp1970
sg75
g1964
sg68
(lp1971
g61
(g62
g63
NtRp1972
(dp1973
g66
(dp1974
g74
I3
ssg75
g1968
sg68
(lp1975
S'99'
p1976
asbasbasbag61
(g77
g63
NtRp1977
(dp1978
g66
(dp1979
sg75
g1948
sg68
(lp1980
g61
(g82
g63
NtRp1981
(dp1982
g66
(dp1983
sg75
g1977
sg68
(lp1984
g61
(g62
g63
NtRp1985
(dp1986
g66
(dp1987
g74
I3
ssg75
g1981
sg68
(lp1988
S'7'
asbasbasbag61
(g77
g63
NtRp1989
(dp1990
g66
(dp1991
sg75
g1948
sg68
(lp1992
g61
(g82
g63
NtRp1993
(dp1994
g66
(dp1995
sg75
g1989
sg68
(lp1996
g61
(g62
g63
NtRp1997
(dp1998
g66
(dp1999
g74
I3
ssg75
g1993
sg68
(lp2000
S'datetime.datetime(2012, 3, 4, 22, 12, 8)'
p2001
asbasbasbag61
(g77
g63
NtRp2002
(dp2003
g66
(dp2004
sg75
g1948
sg68
(lp2005
g61
(g82
g63
NtRp2006
(dp2007
g66
(dp2008
sg75
g2002
sg68
(lp2009
g61
(g62
g63
NtRp2010
(dp2011
g66
(dp2012
g74
I3
ssg75
g2006
sg68
(lp2013
g1391
asbasbasbasbasbasbasbasbasbasbasbag61
(g77
g63
NtRp2014
(dp2015
g66
(dp2016
sg75
g71
sg68
(lp2017
g61
(g82
g63
NtRp2018
(dp2019
g66
(dp2020
g86
g87
ssg75
g2014
sg68
(lp2021
S'is_https'
p2022
asbag61
(g82
g63
NtRp2023
(dp2024
g66
(dp2025
g93
g94
ssg75
g2014
sg68
(lp2026
S':'
asbag61
(g82
g63
NtRp2027
(dp2028
g66
(dp2029
sg75
g2014
sg68
(lp2030
g61
(g62
g63
NtRp2031
(dp2032
g66
(dp2033
g74
I5
ssg75
g2027
sg68
(lp2034
g104
asbasbasbag61
(g77
g63
NtRp2035
(dp2036
g66
(dp2037
sg75
g71
sg68
(lp2038
g61
(g82
g63
NtRp2039
(dp2040
g66
(dp2041
g86
g87
ssg75
g2035
sg68
(lp2042
S'is_local'
p2043
asbag61
(g82
g63
NtRp2044
(dp2045
g66
(dp2046
g93
g94
ssg75
g2035
sg68
(lp2047
S':'
asbag61
(g82
g63
NtRp2048
(dp2049
g66
(dp2050
sg75
g2035
sg68
(lp2051
g61
(g62
g63
NtRp2052
(dp2053
g66
(dp2054
g74
I5
ssg75
g2048
sg68
(lp2055
g1500
asbasbasbag61
(g77
g63
NtRp2056
(dp2057
g66
(dp2058
sg75
g71
sg68
(lp2059
g61
(g82
g63
NtRp2060
(dp2061
g66
(dp2062
g86
g87
ssg75
g2056
sg68
(lp2063
S'is_restful'
p2064
asbag61
(g82
g63
NtRp2065
(dp2066
g66
(dp2067
g93
g94
ssg75
g2056
sg68
(lp2068
S':'
asbag61
(g82
g63
NtRp2069
(dp2070
g66
(dp2071
sg75
g2056
sg68
(lp2072
g61
(g62
g63
NtRp2073
(dp2074
g66
(dp2075
g74
I5
ssg75
g2069
sg68
(lp2076
g104
asbasbasbag61
(g77
g63
NtRp2077
(dp2078
g66
(dp2079
sg75
g71
sg68
(lp2080
g61
(g82
g63
NtRp2081
(dp2082
g66
(dp2083
g86
g87
ssg75
g2077
sg68
(lp2084
S'now'
p2085
asbag61
(g82
g63
NtRp2086
(dp2087
g66
(dp2088
g93
g94
ssg75
g2077
sg68
(lp2089
S':'
asbag61
(g82
g63
NtRp2090
(dp2091
g66
(dp2092
sg75
g2077
sg68
(lp2093
g61
(g62
g63
NtRp2094
(dp2095
g66
(dp2096
g74
I5
ssg75
g2090
sg68
(lp2097
S'datetime.datetime(2012, 7, 29, 22, 46, 29, 879000)'
p2098
asbasbasbag61
(g77
g63
NtRp2099
(dp2100
g66
(dp2101
sg75
g71
sg68
(lp2102
g61
(g82
g63
NtRp2103
(dp2104
g66
(dp2105
g86
g87
ssg75
g2099
sg68
(lp2106
S'post_vars'
p2107
asbag61
(g82
g63
NtRp2108
(dp2109
g66
(dp2110
g93
g94
ssg75
g2099
sg68
(lp2111
S':'
asbag61
(g82
g63
NtRp2112
(dp2113
g66
(dp2114
sg75
g2099
sg68
(lp2115
g61
(g62
g63
NtRp2116
(dp2117
g66
(dp2118
g74
I5
ssg75
g2112
sg68
(lp2119
g61
(g70
g63
NtRp2120
(dp2121
g66
(dp2122
g74
I4
ssg75
Nsg68
(lp2123
sbasbasbasbag61
(g77
g63
NtRp2124
(dp2125
g66
(dp2126
sg75
g71
sg68
(lp2127
g61
(g82
g63
NtRp2128
(dp2129
g66
(dp2130
g86
g87
ssg75
g2124
sg68
(lp2131
S'raw_args'
p2132
asbag61
(g82
g63
NtRp2133
(dp2134
g66
(dp2135
g93
g94
ssg75
g2124
sg68
(lp2136
S':'
asbag61
(g82
g63
NtRp2137
(dp2138
g66
(dp2139
sg75
g2124
sg68
(lp2140
g61
(g62
g63
NtRp2141
(dp2142
g66
(dp2143
g74
I5
ssg75
g2137
sg68
(lp2144
S'8'
asbasbasbag61
(g77
g63
NtRp2145
(dp2146
g66
(dp2147
sg75
g71
sg68
(lp2148
g61
(g82
g63
NtRp2149
(dp2150
g66
(dp2151
g86
g87
ssg75
g2145
sg68
(lp2152
S'url'
p2153
asbag61
(g82
g63
NtRp2154
(dp2155
g66
(dp2156
g93
g94
ssg75
g2145
sg68
(lp2157
S':'
asbag61
(g82
g63
NtRp2158
(dp2159
g66
(dp2160
sg75
g2145
sg68
(lp2161
g61
(g62
g63
NtRp2162
(dp2163
g66
(dp2164
g74
I5
ssg75
g2158
sg68
(lp2165
S'/igor/class_subject/get_classes_by_subject/8'
p2166
asbasbasbag61
(g77
g63
NtRp2167
(dp2168
g66
(dp2169
sg75
g71
sg68
(lp2170
g61
(g82
g63
NtRp2171
(dp2172
g66
(dp2173
g86
g87
ssg75
g2167
sg68
(lp2174
S'utcnow'
p2175
asbag61
(g82
g63
NtRp2176
(dp2177
g66
(dp2178
g93
g94
ssg75
g2167
sg68
(lp2179
S':'
asbag61
(g82
g63
NtRp2180
(dp2181
g66
(dp2182
sg75
g2167
sg68
(lp2183
g61
(g62
g63
NtRp2184
(dp2185
g66
(dp2186
g74
I5
ssg75
g2180
sg68
(lp2187
S'datetime.datetime(2012, 7, 29, 15, 46, 29, 879000)'
p2188
asbasbasbag61
(g77
g63
NtRp2189
(dp2190
g66
(dp2191
sg75
g71
sg68
(lp2192
g61
(g82
g63
NtRp2193
(dp2194
g66
(dp2195
g86
g87
ssg75
g2189
sg68
(lp2196
S'uuid'
p2197
asbag61
(g82
g63
NtRp2198
(dp2199
g66
(dp2200
g93
g94
ssg75
g2189
sg68
(lp2201
S':'
asbag61
(g82
g63
NtRp2202
(dp2203
g66
(dp2204
sg75
g2189
sg68
(lp2205
g61
(g62
g63
NtRp2206
(dp2207
g66
(dp2208
g74
I5
ssg75
g2202
sg68
(lp2209
S'igor/127.0.0.1.2012-07-29.22-46-29.526abb6d-459b-4284-b013-efd667bd8b04'
p2210
asbasbasbag61
(g77
g63
NtRp2211
(dp2212
g66
(dp2213
sg75
g71
sg68
(lp2214
g61
(g82
g63
NtRp2215
(dp2216
g66
(dp2217
g86
g87
ssg75
g2211
sg68
(lp2218
S'vars'
p2219
asbag61
(g82
g63
NtRp2220
(dp2221
g66
(dp2222
g93
g94
ssg75
g2211
sg68
(lp2223
S':'
asbag61
(g82
g63
NtRp2224
(dp2225
g66
(dp2226
sg75
g2211
sg68
(lp2227
g61
(g62
g63
NtRp2228
(dp2229
g66
(dp2230
g74
I5
ssg75
g2224
sg68
(lp2231
g61
(g70
g63
NtRp2232
(dp2233
g66
(dp2234
g74
I4
ssg75
Nsg68
(lp2235
sbasbasbasbag61
(g77
g63
NtRp2236
(dp2237
g66
(dp2238
sg75
g71
sg68
(lp2239
g61
(g82
g63
NtRp2240
(dp2241
g66
(dp2242
g86
g87
ssg75
g2236
sg68
(lp2243
S'wsgi'
p2244
asbag61
(g82
g63
NtRp2245
(dp2246
g66
(dp2247
g93
g94
ssg75
g2236
sg68
(lp2248
S':'
asbag61
(g82
g63
NtRp2249
(dp2250
g66
(dp2251
sg75
g2236
sg68
(lp2252
g61
(g62
g63
NtRp2253
(dp2254
g66
(dp2255
g74
I5
ssg75
g2249
sg68
(lp2256
g61
(g70
g63
NtRp2257
(dp2258
g66
(dp2259
g74
I4
ssg75
Nsg68
(lp2260
g61
(g77
g63
NtRp2261
(dp2262
g66
(dp2263
sg75
g2257
sg68
(lp2264
g61
(g82
g63
NtRp2265
(dp2266
g66
(dp2267
g86
g87
ssg75
g2261
sg68
(lp2268
S'environ'
p2269
asbag61
(g82
g63
NtRp2270
(dp2271
g66
(dp2272
g93
g94
ssg75
g2261
sg68
(lp2273
S':'
asbag61
(g82
g63
NtRp2274
(dp2275
g66
(dp2276
sg75
g2261
sg68
(lp2277
g61
(g62
g63
NtRp2278
(dp2279
g66
(dp2280
g74
I4
ssg75
g2274
sg68
(lp2281
g61
(g70
g63
NtRp2282
(dp2283
g66
(dp2284
g74
I3
ssg75
Nsg68
(lp2285
g61
(g77
g63
NtRp2286
(dp2287
g66
(dp2288
sg75
g2282
sg68
(lp2289
g61
(g82
g63
NtRp2290
(dp2291
g66
(dp2292
g86
g87
ssg75
g2286
sg68
(lp2293
S'HTTP_ACCEPT'
p2294
asbag61
(g82
g63
NtRp2295
(dp2296
g66
(dp2297
g93
g94
ssg75
g2286
sg68
(lp2298
S':'
asbag61
(g82
g63
NtRp2299
(dp2300
g66
(dp2301
sg75
g2286
sg68
(lp2302
g61
(g62
g63
NtRp2303
(dp2304
g66
(dp2305
g74
I3
ssg75
g2299
sg68
(lp2306
g847
asbasbasbag61
(g77
g63
NtRp2307
(dp2308
g66
(dp2309
sg75
g2282
sg68
(lp2310
g61
(g82
g63
NtRp2311
(dp2312
g66
(dp2313
g86
g87
ssg75
g2307
sg68
(lp2314
S'HTTP_ACCEPT_CHARSET'
p2315
asbag61
(g82
g63
NtRp2316
(dp2317
g66
(dp2318
g93
g94
ssg75
g2307
sg68
(lp2319
S':'
asbag61
(g82
g63
NtRp2320
(dp2321
g66
(dp2322
sg75
g2307
sg68
(lp2323
g61
(g62
g63
NtRp2324
(dp2325
g66
(dp2326
g74
I3
ssg75
g2320
sg68
(lp2327
g869
asbasbasbag61
(g77
g63
NtRp2328
(dp2329
g66
(dp2330
sg75
g2282
sg68
(lp2331
g61
(g82
g63
NtRp2332
(dp2333
g66
(dp2334
g86
g87
ssg75
g2328
sg68
(lp2335
S'HTTP_ACCEPT_ENCODING'
p2336
asbag61
(g82
g63
NtRp2337
(dp2338
g66
(dp2339
g93
g94
ssg75
g2328
sg68
(lp2340
S':'
asbag61
(g82
g63
NtRp2341
(dp2342
g66
(dp2343
sg75
g2328
sg68
(lp2344
g61
(g62
g63
NtRp2345
(dp2346
g66
(dp2347
g74
I3
ssg75
g2341
sg68
(lp2348
g891
asbasbasbag61
(g77
g63
NtRp2349
(dp2350
g66
(dp2351
sg75
g2282
sg68
(lp2352
g61
(g82
g63
NtRp2353
(dp2354
g66
(dp2355
g86
g87
ssg75
g2349
sg68
(lp2356
S'HTTP_ACCEPT_LANGUAGE'
p2357
asbag61
(g82
g63
NtRp2358
(dp2359
g66
(dp2360
g93
g94
ssg75
g2349
sg68
(lp2361
S':'
asbag61
(g82
g63
NtRp2362
(dp2363
g66
(dp2364
sg75
g2349
sg68
(lp2365
g61
(g62
g63
NtRp2366
(dp2367
g66
(dp2368
g74
I3
ssg75
g2362
sg68
(lp2369
g913
asbasbasbag61
(g77
g63
NtRp2370
(dp2371
g66
(dp2372
sg75
g2282
sg68
(lp2373
g61
(g82
g63
NtRp2374
(dp2375
g66
(dp2376
g86
g87
ssg75
g2370
sg68
(lp2377
S'HTTP_CONNECTION'
p2378
asbag61
(g82
g63
NtRp2379
(dp2380
g66
(dp2381
g93
g94
ssg75
g2370
sg68
(lp2382
S':'
asbag61
(g82
g63
NtRp2383
(dp2384
g66
(dp2385
sg75
g2370
sg68
(lp2386
g61
(g62
g63
NtRp2387
(dp2388
g66
(dp2389
g74
I3
ssg75
g2383
sg68
(lp2390
g935
asbasbasbag61
(g77
g63
NtRp2391
(dp2392
g66
(dp2393
sg75
g2282
sg68
(lp2394
g61
(g82
g63
NtRp2395
(dp2396
g66
(dp2397
g86
g87
ssg75
g2391
sg68
(lp2398
S'HTTP_COOKIE'
p2399
asbag61
(g82
g63
NtRp2400
(dp2401
g66
(dp2402
g93
g94
ssg75
g2391
sg68
(lp2403
S':'
asbag61
(g82
g63
NtRp2404
(dp2405
g66
(dp2406
sg75
g2391
sg68
(lp2407
g61
(g62
g63
NtRp2408
(dp2409
g66
(dp2410
g74
I3
ssg75
g2404
sg68
(lp2411
g957
asbasbasbag61
(g77
g63
NtRp2412
(dp2413
g66
(dp2414
sg75
g2282
sg68
(lp2415
g61
(g82
g63
NtRp2416
(dp2417
g66
(dp2418
g86
g87
ssg75
g2412
sg68
(lp2419
S'HTTP_HOST'
p2420
asbag61
(g82
g63
NtRp2421
(dp2422
g66
(dp2423
g93
g94
ssg75
g2412
sg68
(lp2424
S':'
asbag61
(g82
g63
NtRp2425
(dp2426
g66
(dp2427
sg75
g2412
sg68
(lp2428
g61
(g62
g63
NtRp2429
(dp2430
g66
(dp2431
g74
I3
ssg75
g2425
sg68
(lp2432
g979
asbasbasbag61
(g77
g63
NtRp2433
(dp2434
g66
(dp2435
sg75
g2282
sg68
(lp2436
g61
(g82
g63
NtRp2437
(dp2438
g66
(dp2439
g86
g87
ssg75
g2433
sg68
(lp2440
S'HTTP_USER_AGENT'
p2441
asbag61
(g82
g63
NtRp2442
(dp2443
g66
(dp2444
g93
g94
ssg75
g2433
sg68
(lp2445
S':'
asbag61
(g82
g63
NtRp2446
(dp2447
g66
(dp2448
sg75
g2433
sg68
(lp2449
g61
(g62
g63
NtRp2450
(dp2451
g66
(dp2452
g74
I3
ssg75
g2446
sg68
(lp2453
g1001
asbasbasbag61
(g77
g63
NtRp2454
(dp2455
g66
(dp2456
sg75
g2282
sg68
(lp2457
g61
(g82
g63
NtRp2458
(dp2459
g66
(dp2460
g86
g87
ssg75
g2454
sg68
(lp2461
S'PATH_INFO'
p2462
asbag61
(g82
g63
NtRp2463
(dp2464
g66
(dp2465
g93
g94
ssg75
g2454
sg68
(lp2466
S':'
asbag61
(g82
g63
NtRp2467
(dp2468
g66
(dp2469
sg75
g2454
sg68
(lp2470
g61
(g62
g63
NtRp2471
(dp2472
g66
(dp2473
g74
I3
ssg75
g2467
sg68
(lp2474
g1065
asbasbasbag61
(g77
g63
NtRp2475
(dp2476
g66
(dp2477
sg75
g2282
sg68
(lp2478
g61
(g82
g63
NtRp2479
(dp2480
g66
(dp2481
g86
g87
ssg75
g2475
sg68
(lp2482
S'QUERY_STRING'
p2483
asbag61
(g82
g63
NtRp2484
(dp2485
g66
(dp2486
g93
g94
ssg75
g2475
sg68
(lp2487
S':'
asbag61
(g82
g63
NtRp2488
(dp2489
g66
(dp2490
sg75
g2475
sg68
(lp2491
g61
(g62
g63
NtRp2492
(dp2493
g66
(dp2494
g74
I3
ssg75
g2488
sg68
(lp2495
S''
asbasbasbag61
(g77
g63
NtRp2496
(dp2497
g66
(dp2498
sg75
g2282
sg68
(lp2499
g61
(g82
g63
NtRp2500
(dp2501
g66
(dp2502
g86
g87
ssg75
g2496
sg68
(lp2503
S'REMOTE_ADDR'
p2504
asbag61
(g82
g63
NtRp2505
(dp2506
g66
(dp2507
g93
g94
ssg75
g2496
sg68
(lp2508
S':'
asbag61
(g82
g63
NtRp2509
(dp2510
g66
(dp2511
sg75
g2496
sg68
(lp2512
g61
(g62
g63
NtRp2513
(dp2514
g66
(dp2515
g74
I3
ssg75
g2509
sg68
(lp2516
g206
asbasbasbag61
(g77
g63
NtRp2517
(dp2518
g66
(dp2519
sg75
g2282
sg68
(lp2520
g61
(g82
g63
NtRp2521
(dp2522
g66
(dp2523
g86
g87
ssg75
g2517
sg68
(lp2524
S'REMOTE_PORT'
p2525
asbag61
(g82
g63
NtRp2526
(dp2527
g66
(dp2528
g93
g94
ssg75
g2517
sg68
(lp2529
S':'
asbag61
(g82
g63
NtRp2530
(dp2531
g66
(dp2532
sg75
g2517
sg68
(lp2533
g61
(g62
g63
NtRp2534
(dp2535
g66
(dp2536
g74
I3
ssg75
g2530
sg68
(lp2537
g1129
asbasbasbag61
(g77
g63
NtRp2538
(dp2539
g66
(dp2540
sg75
g2282
sg68
(lp2541
g61
(g82
g63
NtRp2542
(dp2543
g66
(dp2544
g86
g87
ssg75
g2538
sg68
(lp2545
S'REQUEST_METHOD'
p2546
asbag61
(g82
g63
NtRp2547
(dp2548
g66
(dp2549
g93
g94
ssg75
g2538
sg68
(lp2550
S':'
asbag61
(g82
g63
NtRp2551
(dp2552
g66
(dp2553
sg75
g2538
sg68
(lp2554
g61
(g62
g63
NtRp2555
(dp2556
g66
(dp2557
g74
I3
ssg75
g2551
sg68
(lp2558
g1151
asbasbasbag61
(g77
g63
NtRp2559
(dp2560
g66
(dp2561
sg75
g2282
sg68
(lp2562
g61
(g82
g63
NtRp2563
(dp2564
g66
(dp2565
g86
g87
ssg75
g2559
sg68
(lp2566
S'SCRIPT_NAME'
p2567
asbag61
(g82
g63
NtRp2568
(dp2569
g66
(dp2570
g93
g94
ssg75
g2559
sg68
(lp2571
S':'
asbag61
(g82
g63
NtRp2572
(dp2573
g66
(dp2574
sg75
g2559
sg68
(lp2575
g61
(g62
g63
NtRp2576
(dp2577
g66
(dp2578
g74
I3
ssg75
g2572
sg68
(lp2579
S''
asbasbasbag61
(g77
g63
NtRp2580
(dp2581
g66
(dp2582
sg75
g2282
sg68
(lp2583
g61
(g82
g63
NtRp2584
(dp2585
g66
(dp2586
g86
g87
ssg75
g2580
sg68
(lp2587
S'SERVER_NAME'
p2588
asbag61
(g82
g63
NtRp2589
(dp2590
g66
(dp2591
g93
g94
ssg75
g2580
sg68
(lp2592
S':'
asbag61
(g82
g63
NtRp2593
(dp2594
g66
(dp2595
sg75
g2580
sg68
(lp2596
g61
(g62
g63
NtRp2597
(dp2598
g66
(dp2599
g74
I3
ssg75
g2593
sg68
(lp2600
g1194
asbasbasbag61
(g77
g63
NtRp2601
(dp2602
g66
(dp2603
sg75
g2282
sg68
(lp2604
g61
(g82
g63
NtRp2605
(dp2606
g66
(dp2607
g86
g87
ssg75
g2601
sg68
(lp2608
S'SERVER_PORT'
p2609
asbag61
(g82
g63
NtRp2610
(dp2611
g66
(dp2612
g93
g94
ssg75
g2601
sg68
(lp2613
S':'
asbag61
(g82
g63
NtRp2614
(dp2615
g66
(dp2616
sg75
g2601
sg68
(lp2617
g61
(g62
g63
NtRp2618
(dp2619
g66
(dp2620
g74
I3
ssg75
g2614
sg68
(lp2621
g1216
asbasbasbag61
(g77
g63
NtRp2622
(dp2623
g66
(dp2624
sg75
g2282
sg68
(lp2625
g61
(g82
g63
NtRp2626
(dp2627
g66
(dp2628
g86
g87
ssg75
g2622
sg68
(lp2629
S'SERVER_PROTOCOL'
p2630
asbag61
(g82
g63
NtRp2631
(dp2632
g66
(dp2633
g93
g94
ssg75
g2622
sg68
(lp2634
S':'
asbag61
(g82
g63
NtRp2635
(dp2636
g66
(dp2637
sg75
g2622
sg68
(lp2638
g61
(g62
g63
NtRp2639
(dp2640
g66
(dp2641
g74
I3
ssg75
g2635
sg68
(lp2642
g1238
asbasbasbag61
(g77
g63
NtRp2643
(dp2644
g66
(dp2645
sg75
g2282
sg68
(lp2646
g61
(g82
g63
NtRp2647
(dp2648
g66
(dp2649
g86
g87
ssg75
g2643
sg68
(lp2650
S'SERVER_SOFTWARE'
p2651
asbag61
(g82
g63
NtRp2652
(dp2653
g66
(dp2654
g93
g94
ssg75
g2643
sg68
(lp2655
S':'
asbag61
(g82
g63
NtRp2656
(dp2657
g66
(dp2658
sg75
g2643
sg68
(lp2659
g61
(g62
g63
NtRp2660
(dp2661
g66
(dp2662
g74
I3
ssg75
g2656
sg68
(lp2663
g1260
asbasbasbag61
(g77
g63
NtRp2664
(dp2665
g66
(dp2666
sg75
g2282
sg68
(lp2667
g61
(g82
g63
NtRp2668
(dp2669
g66
(dp2670
g86
g87
ssg75
g2664
sg68
(lp2671
S'wsgi.errors'
p2672
asbag61
(g82
g63
NtRp2673
(dp2674
g66
(dp2675
g93
g94
ssg75
g2664
sg68
(lp2676
S':'
asbag61
(g82
g63
NtRp2677
(dp2678
g66
(dp2679
sg75
g2664
sg68
(lp2680
g61
(g62
g63
NtRp2681
(dp2682
g66
(dp2683
g74
I3
ssg75
g2677
sg68
(lp2684
S"<open file '<stderr>', mode 'w' at 0x0000000001CFE1E0>"
p2685
asbasbasbag61
(g77
g63
NtRp2686
(dp2687
g66
(dp2688
sg75
g2282
sg68
(lp2689
g61
(g82
g63
NtRp2690
(dp2691
g66
(dp2692
g86
g87
ssg75
g2686
sg68
(lp2693
S'wsgi.file_wrapper'
p2694
asbag61
(g82
g63
NtRp2695
(dp2696
g66
(dp2697
g93
g94
ssg75
g2686
sg68
(lp2698
S':'
asbag61
(g82
g63
NtRp2699
(dp2700
g66
(dp2701
sg75
g2686
sg68
(lp2702
g61
(g62
g63
NtRp2703
(dp2704
g66
(dp2705
g74
I3
ssg75
g2699
sg68
(lp2706
S'<class wsgiref.util.FileWrapper at 0x0000000003497AC8>'
p2707
asbasbasbag61
(g77
g63
NtRp2708
(dp2709
g66
(dp2710
sg75
g2282
sg68
(lp2711
g61
(g82
g63
NtRp2712
(dp2713
g66
(dp2714
g86
g87
ssg75
g2708
sg68
(lp2715
S'wsgi.input'
p2716
asbag61
(g82
g63
NtRp2717
(dp2718
g66
(dp2719
g93
g94
ssg75
g2708
sg68
(lp2720
S':'
asbag61
(g82
g63
NtRp2721
(dp2722
g66
(dp2723
sg75
g2708
sg68
(lp2724
g61
(g62
g63
NtRp2725
(dp2726
g66
(dp2727
g74
I3
ssg75
g2721
sg68
(lp2728
S'<cStringIO.StringO object at 0x0000000004B55500>'
p2729
asbasbasbag61
(g77
g63
NtRp2730
(dp2731
g66
(dp2732
sg75
g2282
sg68
(lp2733
g61
(g82
g63
NtRp2734
(dp2735
g66
(dp2736
g86
g87
ssg75
g2730
sg68
(lp2737
S'wsgi.multiprocess'
p2738
asbag61
(g82
g63
NtRp2739
(dp2740
g66
(dp2741
g93
g94
ssg75
g2730
sg68
(lp2742
S':'
asbag61
(g82
g63
NtRp2743
(dp2744
g66
(dp2745
sg75
g2730
sg68
(lp2746
g61
(g62
g63
NtRp2747
(dp2748
g66
(dp2749
g74
I3
ssg75
g2743
sg68
(lp2750
g104
asbasbasbag61
(g77
g63
NtRp2751
(dp2752
g66
(dp2753
sg75
g2282
sg68
(lp2754
g61
(g82
g63
NtRp2755
(dp2756
g66
(dp2757
g86
g87
ssg75
g2751
sg68
(lp2758
S'wsgi.multithread'
p2759
asbag61
(g82
g63
NtRp2760
(dp2761
g66
(dp2762
g93
g94
ssg75
g2751
sg68
(lp2763
S':'
asbag61
(g82
g63
NtRp2764
(dp2765
g66
(dp2766
sg75
g2751
sg68
(lp2767
g61
(g62
g63
NtRp2768
(dp2769
g66
(dp2770
g74
I3
ssg75
g2764
sg68
(lp2771
g1500
asbasbasbag61
(g77
g63
NtRp2772
(dp2773
g66
(dp2774
sg75
g2282
sg68
(lp2775
g61
(g82
g63
NtRp2776
(dp2777
g66
(dp2778
g86
g87
ssg75
g2772
sg68
(lp2779
S'wsgi.run_once'
p2780
asbag61
(g82
g63
NtRp2781
(dp2782
g66
(dp2783
g93
g94
ssg75
g2772
sg68
(lp2784
S':'
asbag61
(g82
g63
NtRp2785
(dp2786
g66
(dp2787
sg75
g2772
sg68
(lp2788
g61
(g62
g63
NtRp2789
(dp2790
g66
(dp2791
g74
I3
ssg75
g2785
sg68
(lp2792
g104
asbasbasbag61
(g77
g63
NtRp2793
(dp2794
g66
(dp2795
sg75
g2282
sg68
(lp2796
g61
(g82
g63
NtRp2797
(dp2798
g66
(dp2799
g86
g87
ssg75
g2793
sg68
(lp2800
S'wsgi.url_scheme'
p2801
asbag61
(g82
g63
NtRp2802
(dp2803
g66
(dp2804
g93
g94
ssg75
g2793
sg68
(lp2805
S':'
asbag61
(g82
g63
NtRp2806
(dp2807
g66
(dp2808
sg75
g2793
sg68
(lp2809
g61
(g62
g63
NtRp2810
(dp2811
g66
(dp2812
g74
I3
ssg75
g2806
sg68
(lp2813
g1543
asbasbasbag61
(g77
g63
NtRp2814
(dp2815
g66
(dp2816
sg75
g2282
sg68
(lp2817
g61
(g82
g63
NtRp2818
(dp2819
g66
(dp2820
g86
g87
ssg75
g2814
sg68
(lp2821
S'wsgi.version'
p2822
asbag61
(g82
g63
NtRp2823
(dp2824
g66
(dp2825
g93
g94
ssg75
g2814
sg68
(lp2826
S':'
asbag61
(g82
g63
NtRp2827
(dp2828
g66
(dp2829
sg75
g2814
sg68
(lp2830
g61
(g62
g63
NtRp2831
(dp2832
g66
(dp2833
g74
I3
ssg75
g2827
sg68
(lp2834
S'1'
asbasbasbasbasbasbasbasbasbasbasbasbasbsS'frames'
p2835
(lp2836
(dp2837
S'file'
p2838
S'D:\\workspace\\CA\\IgoR\\C_Sources\\Server\\igor-assistant-ca-2012\\gluon\\restricted.py'
p2839
sS'dump'
p2840
(dp2841
S'environment'
p2842
S"{'A': <class 'gluon.html.A'>, 'Auth': <class 'gluon.tools.Auth'>, 'B': <class 'gluon.html.B'>, 'BEAUTIFY': <class 'gluon.html.BEAUTIFY'>, 'BODY': <class 'gluon.html.BODY'>, 'BR': <class 'gluon.html.BR'>, 'BUTTON': <class 'gluon.html.BUTTON'>, 'CAT': <class 'gluon.html.CAT'>, 'CENTER': <class 'gluon.html.CENTER'>, 'CLEANUP': <class 'gluon.validators.CLEANUP'>, ...}"
p2843
sS'ccode'
p2844
S'<code object <module> at 0000000004B48C30, file ...ca-2012\\applications\\igor\\models\\db.py", line 12>'
p2845
ssS'lnum'
p2846
I205
sS'lines'
p2847
(dp2848
I200
S'    try:'
p2849
sI201
S'        if type(code) == types.CodeType:'
p2850
sI202
S'            ccode = code'
p2851
sI203
S'        else:'
p2852
sI204
S'            ccode = compile2(code,layer)'
p2853
sI205
S'        exec ccode in environment'
p2854
sI206
S'    except HTTP:'
p2855
sI207
S'        raise'
p2856
sI208
S'    except RestrictedError:'
p2857
sI209
S'        # do not encapsulate (obfuscate) the original RestrictedError'
p2858
ssS'call'
p2859
S"(code='# -*- coding: utf-8 -*-\\n\\n#######################...####\\n\\n# Define all Igor database\\n# Author: phucnh', environment={'A': <class 'gluon.html.A'>, 'Auth': <class 'gluon.tools.Auth'>, 'B': <class 'gluon.html.B'>, 'BEAUTIFY': <class 'gluon.html.BEAUTIFY'>, 'BODY': <class 'gluon.html.BODY'>, 'BR': <class 'gluon.html.BR'>, 'BUTTON': <class 'gluon.html.BUTTON'>, 'CAT': <class 'gluon.html.CAT'>, 'CENTER': <class 'gluon.html.CENTER'>, 'CLEANUP': <class 'gluon.validators.CLEANUP'>, ...}, layer=r'D:\\workspace\\CA\\IgoR\\C_Sources\\Server\\igor-assistant-ca-2012\\applications\\igor\\models\\db.py')"
p2860
sS'func'
p2861
S'restricted'
p2862
sa(dp2863
g2838
S'D:\\workspace\\CA\\IgoR\\C_Sources\\Server\\igor-assistant-ca-2012\\applications\\igor\\models\\db.py'
p2864
sg2840
(dp2865
S'auth.define_tables'
p2866
S'<bound method Auth.define_tables of <gluon.tools.Auth object>>'
p2867
sS'auth'
p2868
S'<gluon.tools.Auth object>'
p2869
ssg2846
I47
sg2847
(dp2870
I42
S'from gluon.tools import Auth, Crud, Service, PluginManager, prettydate'
p2871
sI43
S'auth = Auth(db, hmac_key=Auth.get_or_create_key())'
p2872
sI44
S'crud, service, plugins = Crud(db), Service(), PluginManager()'
p2873
sI45
S''
sI46
S'## create all tables needed by auth if not custom tables'
p2874
sI47
S'auth.define_tables()'
p2875
sI48
S''
sI49
S'## configure email'
p2876
sI50
S'mail=auth.settings.mailer'
p2877
sI51
S"mail.settings.server = 'logging' or 'smtp.gmail.com:587'"
p2878
ssg2859
S'()'
p2879
sg2861
S'<module>'
p2880
sa(dp2881
g2838
S'D:\\workspace\\CA\\IgoR\\C_Sources\\Server\\igor-assistant-ca-2012\\gluon\\tools.py'
p2882
sg2840
(dp2883
S'builtinformat'
p2884
S'<built-in function format>'
p2885
ssg2846
I1309
sg2847
(dp2886
I1312
S'            table.last_name.requires = \\'
p2887
sI1313
S'                IS_NOT_EMPTY(error_message=self.messages.is_empty)'
p2888
sI1304
S'                    *settings.extra_fields.get(settings.table_user_name,[]),'
p2889
sI1305
S'                    **dict('
p2890
sI1306
S'                        migrate=self.__get_migrate(settings.table_user_name,'
p2891
sI1307
S'                                                   migrate),'
p2892
sI1308
S'                        fake_migrate=fake_migrate,'
p2893
sI1309
S"                        format='%(first_name)s %(last_name)s (%(id)s)'))"
p2894
sI1310
S'            table.first_name.requires = \\'
p2895
sI1311
S'                IS_NOT_EMPTY(error_message=self.messages.is_empty)'
p2896
ssg2859
S'(self=<gluon.tools.Auth object>, username=False, migrate=True, fake_migrate=False)'
p2897
sg2861
S'define_tables'
p2898
sa(dp2899
g2838
S'D:\\workspace\\CA\\IgoR\\C_Sources\\Server\\igor-assistant-ca-2012\\gluon\\dal.py'
p2900
sg2840
(dp2901
S'polymodel'
p2902
S'None'
p2903
ssg2846
I6320
sg2847
(dp2904
I6315
S"        if migrate or self._adapter.dbengine=='google:datastore':"
p2905
sI6316
S'            try:'
p2906
sI6317
S'                sql_locker.acquire()'
p2907
sI6318
S'                self._adapter.create_table(t,migrate=migrate,'
p2908
sI6319
S'                                           fake_migrate=fake_migrate,'
p2909
sI6320
S'                                           polymodel=polymodel)'
p2910
sI6321
S'            finally:'
p2911
sI6322
S'                sql_locker.release()'
p2912
sI6323
S'        else:'
p2913
sI6324
S'            t._dbt = None'
p2914
ssg2859
S"(self=<DAL {'_migrate_enabled': True, '_lastsql': 'CRE...'_uri_hash': 'c8b669d15150d7109e5f7ab36744a5b7'}>, tablename='auth_user', *fields=(<gluon.dal.Field object>, <gluon.dal.Field object>, <gluon.dal.Field object>, <gluon.dal.Field object>, <gluon.dal.Field object>, <gluon.dal.Field object>, <gluon.dal.Field object>), **args={'fake_migrate': False, 'format': '%(first_name)s %(last_name)s (%(id)s)', 'migrate': True})"
p2915
sg2861
S'define_table'
p2916
sa(dp2917
g2838
S'D:\\workspace\\CA\\IgoR\\C_Sources\\Server\\igor-assistant-ca-2012\\gluon\\dal.py'
p2918
sg2840
(dp2919
S'query'
p2920
S"'CREATE TABLE auth_user(\\n    id INTEGER PRIMARY K...d_key CHAR(512),\\n    registration_id CHAR(512)\\n);'"
p2921
sS'self'
p2922
S'<gluon.dal.SQLiteAdapter object>'
p2923
sS'table'
p2924
S"<Table {'ALL': <gluon.dal.SQLALL object at 0x000... <gluon.dal.Field object at 0x0000000004B56208>}>"
p2925
sS'self.create_sequence_and_triggers'
p2926
S'<bound method SQLiteAdapter.create_sequence_and_triggers of <gluon.dal.SQLiteAdapter object>>'
p2927
ssg2846
I719
sg2847
(dp2928
I714
S'            if table._dbt:'
p2929
sI715
S"                logfile.write('timestamp: %s\\n'"
p2930
sI716
S'                               % datetime.datetime.today().isoformat())'
p2931
sI717
S"                logfile.write(query + '\\n')"
p2932
sI718
S'            if not fake_migrate:'
p2933
sI719
S'                self.create_sequence_and_triggers(query,table)'
p2934
sI720
S'                table._db.commit()'
p2935
sI721
S'            if table._dbt:'
p2936
sI722
S"                tfile = self.file_open(table._dbt, 'w')"
p2937
sI723
S'                cPickle.dump(sql_fields, tfile)'
p2938
ssg2859
S"(self=<gluon.dal.SQLiteAdapter object>, table=<Table {'ALL': <gluon.dal.SQLALL object at 0x000... <gluon.dal.Field object at 0x0000000004B56208>}>, migrate=True, fake_migrate=False, polymodel=None)"
p2939
sg2861
S'create_table'
p2940
sa(dp2941
g2838
S'D:\\workspace\\CA\\IgoR\\C_Sources\\Server\\igor-assistant-ca-2012\\gluon\\dal.py'
p2942
sg2840
(dp2943
S'query'
p2944
S"'CREATE TABLE auth_user(\\n    id INTEGER PRIMARY K...d_key CHAR(512),\\n    registration_id CHAR(512)\\n);'"
p2945
sS'self'
p2946
S'<gluon.dal.SQLiteAdapter object>'
p2947
sS'self.execute'
p2948
S'<bound method SQLiteAdapter.execute of <gluon.dal.SQLiteAdapter object>>'
p2949
ssg2846
I1381
sg2847
(dp2950
I1376
S''
sI1377
S'    def constraint_name(self, table, fieldname):'
p2951
sI1378
S"        return '%s_%s__constraint' % (table,fieldname)"
p2952
sI1379
S''
sI1380
S'    def create_sequence_and_triggers(self, query, table, **args):'
p2953
sI1381
S'        self.execute(query)'
p2954
sI1382
S''
sI1383
S'    def log_execute(self, *a, **b):'
p2955
sI1384
S'        self.db._lastsql = a[0]'
p2956
sI1385
S'        t0 = time.time()'
p2957
ssg2859
S"(self=<gluon.dal.SQLiteAdapter object>, query='CREATE TABLE auth_user(\\n    id INTEGER PRIMARY K...d_key CHAR(512),\\n    registration_id CHAR(512)\\n);', table=<Table {'ALL': <gluon.dal.SQLALL object at 0x000... <gluon.dal.Field object at 0x0000000004B56208>}>, **args={})"
p2958
sg2861
S'create_sequence_and_triggers'
p2959
sa(dp2960
g2838
S'D:\\workspace\\CA\\IgoR\\C_Sources\\Server\\igor-assistant-ca-2012\\gluon\\dal.py'
p2961
sg2840
(dp2962
S'a'
S"('CREATE TABLE auth_user(\\n    id INTEGER PRIMARY K...d_key CHAR(512),\\n    registration_id CHAR(512)\\n);',)"
p2963
sS'self'
p2964
S'<gluon.dal.SQLiteAdapter object>'
p2965
sS'b'
g21
sS'self.log_execute'
p2966
S'<bound method SQLiteAdapter.log_execute of <gluon.dal.SQLiteAdapter object>>'
p2967
ssg2846
I1392
sg2847
(dp2968
I1387
S'        self.db._timings.append((a[0],time.time()-t0))'
p2969
sI1388
S'        del self.db._timings[:-TIMINGSSIZE]'
p2970
sI1389
S'        return ret'
p2971
sI1390
S''
sI1391
S'    def execute(self, *a, **b):'
p2972
sI1392
S'        return self.log_execute(*a, **b)'
p2973
sI1393
S''
sI1394
S'    def represent(self, obj, fieldtype):'
p2974
sI1395
S'        if isinstance(obj, CALLABLETYPES):'
p2975
sI1396
S'            obj = obj()'
p2976
ssg2859
S"(self=<gluon.dal.SQLiteAdapter object>, *a=('CREATE TABLE auth_user(\\n    id INTEGER PRIMARY K...d_key CHAR(512),\\n    registration_id CHAR(512)\\n);',), **b={})"
p2977
sg2861
S'execute'
p2978
sa(dp2979
g2838
S'D:\\workspace\\CA\\IgoR\\C_Sources\\Server\\igor-assistant-ca-2012\\gluon\\dal.py'
p2980
sg2840
(dp2981
S'a'
S"('CREATE TABLE auth_user(\\n    id INTEGER PRIMARY K...d_key CHAR(512),\\n    registration_id CHAR(512)\\n);',)"
p2982
sS'b'
g21
sS'self'
p2983
S'<gluon.dal.SQLiteAdapter object>'
p2984
sS'ret'
p2985
S'undefined'
p2986
sS'self.cursor'
p2987
S'<sqlite3.Cursor object>'
p2988
sS'self.cursor.execute'
p2989
S'<built-in method execute of sqlite3.Cursor object>'
p2990
ssg2846
I1386
sg2847
(dp2991
I1381
S'        self.execute(query)'
p2992
sI1382
S''
sI1383
S'    def log_execute(self, *a, **b):'
p2993
sI1384
S'        self.db._lastsql = a[0]'
p2994
sI1385
S'        t0 = time.time()'
p2995
sI1386
S'        ret = self.cursor.execute(*a, **b)'
p2996
sI1387
S'        self.db._timings.append((a[0],time.time()-t0))'
p2997
sI1388
S'        del self.db._timings[:-TIMINGSSIZE]'
p2998
sI1389
S'        return ret'
p2999
sI1390
S''
ssg2859
S"(self=<gluon.dal.SQLiteAdapter object>, *a=('CREATE TABLE auth_user(\\n    id INTEGER PRIMARY K...d_key CHAR(512),\\n    registration_id CHAR(512)\\n);',), **b={})"
p3000
sg2861
S'log_execute'
p3001
sasS'pyver'
p3002
S'Python 2.7.3: C:\\Python27\\python.exe'
p3003
sS'session'
p3004
g61
(g62
g63
NtRp3005
(dp3006
g66
(dp3007
sg68
(lp3008
g61
(g70
g63
NtRp3009
(dp3010
g66
(dp3011
g74
I5
ssg75
Nsg68
(lp3012
sbasbsS'etype'
p3013
S"<class 'sqlite3.OperationalError'>"
p3014
sS'date'
p3015
S'Sun Jul 29 22:46:29 2012'
p3016
sS'response'
p3017
g61
(g62
g63
NtRp3018
(dp3019
g66
(dp3020
sg68
(lp3021
g61
(g70
g63
NtRp3022
(dp3023
g66
(dp3024
g74
I5
ssg75
Nsg68
(lp3025
g61
(g77
g63
NtRp3026
(dp3027
g66
(dp3028
sg75
g3022
sg68
(lp3029
g61
(g82
g63
NtRp3030
(dp3031
g66
(dp3032
g86
g87
ssg75
g3026
sg68
(lp3033
g171
asbag61
(g82
g63
NtRp3034
(dp3035
g66
(dp3036
g93
g94
ssg75
g3026
sg68
(lp3037
S':'
asbag61
(g82
g63
NtRp3038
(dp3039
g66
(dp3040
sg75
g3026
sg68
(lp3041
g61
(g62
g63
NtRp3042
(dp3043
g66
(dp3044
g74
I5
ssg75
g3038
sg68
(lp3045
S'<cStringIO.StringO object at 0x0000000004B40500>'
p3046
asbasbasbag61
(g77
g63
NtRp3047
(dp3048
g66
(dp3049
sg75
g3022
sg68
(lp3050
g61
(g82
g63
NtRp3051
(dp3052
g66
(dp3053
g86
g87
ssg75
g3047
sg68
(lp3054
g237
asbag61
(g82
g63
NtRp3055
(dp3056
g66
(dp3057
g93
g94
ssg75
g3047
sg68
(lp3058
S':'
asbag61
(g82
g63
NtRp3059
(dp3060
g66
(dp3061
sg75
g3047
sg68
(lp3062
g61
(g62
g63
NtRp3063
(dp3064
g66
(dp3065
g74
I5
ssg75
g3059
sg68
(lp3066
g61
(g70
g63
NtRp3067
(dp3068
g66
(dp3069
g74
I4
ssg75
Nsg68
(lp3070
g61
(g77
g63
NtRp3071
(dp3072
g66
(dp3073
sg75
g3067
sg68
(lp3074
g61
(g82
g63
NtRp3075
(dp3076
g66
(dp3077
g86
g87
ssg75
g3071
sg68
(lp3078
S'session_id_igor'
p3079
asbag61
(g82
g63
NtRp3080
(dp3081
g66
(dp3082
g93
g94
ssg75
g3071
sg68
(lp3083
S':'
asbag61
(g82
g63
NtRp3084
(dp3085
g66
(dp3086
sg75
g3071
sg68
(lp3087
g61
(g62
g63
NtRp3088
(dp3089
g66
(dp3090
g74
I4
ssg75
g3084
sg68
(lp3091
g61
(g70
g63
NtRp3092
(dp3093
g66
(dp3094
g74
I3
ssg75
Nsg68
(lp3095
g61
(g77
g63
NtRp3096
(dp3097
g66
(dp3098
sg75
g3092
sg68
(lp3099
g61
(g82
g63
NtRp3100
(dp3101
g66
(dp3102
g86
g87
ssg75
g3096
sg68
(lp3103
g287
asbag61
(g82
g63
NtRp3104
(dp3105
g66
(dp3106
g93
g94
ssg75
g3096
sg68
(lp3107
S':'
asbag61
(g82
g63
NtRp3108
(dp3109
g66
(dp3110
sg75
g3096
sg68
(lp3111
g61
(g62
g63
NtRp3112
(dp3113
g66
(dp3114
g74
I3
ssg75
g3108
sg68
(lp3115
S''
asbasbasbag61
(g77
g63
NtRp3116
(dp3117
g66
(dp3118
sg75
g3092
sg68
(lp3119
g61
(g82
g63
NtRp3120
(dp3121
g66
(dp3122
g86
g87
ssg75
g3116
sg68
(lp3123
g308
asbag61
(g82
g63
NtRp3124
(dp3125
g66
(dp3126
g93
g94
ssg75
g3116
sg68
(lp3127
S':'
asbag61
(g82
g63
NtRp3128
(dp3129
g66
(dp3130
sg75
g3116
sg68
(lp3131
g61
(g62
g63
NtRp3132
(dp3133
g66
(dp3134
g74
I3
ssg75
g3128
sg68
(lp3135
S''
asbasbasbag61
(g77
g63
NtRp3136
(dp3137
g66
(dp3138
sg75
g3092
sg68
(lp3139
g61
(g82
g63
NtRp3140
(dp3141
g66
(dp3142
g86
g87
ssg75
g3136
sg68
(lp3143
g329
asbag61
(g82
g63
NtRp3144
(dp3145
g66
(dp3146
g93
g94
ssg75
g3136
sg68
(lp3147
S':'
asbag61
(g82
g63
NtRp3148
(dp3149
g66
(dp3150
sg75
g3136
sg68
(lp3151
g61
(g62
g63
NtRp3152
(dp3153
g66
(dp3154
g74
I3
ssg75
g3148
sg68
(lp3155
S''
asbasbasbag61
(g77
g63
NtRp3156
(dp3157
g66
(dp3158
sg75
g3092
sg68
(lp3159
g61
(g82
g63
NtRp3160
(dp3161
g66
(dp3162
g86
g87
ssg75
g3156
sg68
(lp3163
g350
asbag61
(g82
g63
NtRp3164
(dp3165
g66
(dp3166
g93
g94
ssg75
g3156
sg68
(lp3167
S':'
asbag61
(g82
g63
NtRp3168
(dp3169
g66
(dp3170
sg75
g3156
sg68
(lp3171
g61
(g62
g63
NtRp3172
(dp3173
g66
(dp3174
g74
I3
ssg75
g3168
sg68
(lp3175
S''
asbasbasbag61
(g77
g63
NtRp3176
(dp3177
g66
(dp3178
sg75
g3092
sg68
(lp3179
g61
(g82
g63
NtRp3180
(dp3181
g66
(dp3182
g86
g87
ssg75
g3176
sg68
(lp3183
g371
asbag61
(g82
g63
NtRp3184
(dp3185
g66
(dp3186
g93
g94
ssg75
g3176
sg68
(lp3187
S':'
asbag61
(g82
g63
NtRp3188
(dp3189
g66
(dp3190
sg75
g3176
sg68
(lp3191
g61
(g62
g63
NtRp3192
(dp3193
g66
(dp3194
g74
I3
ssg75
g3188
sg68
(lp3195
S''
asbasbasbag61
(g77
g63
NtRp3196
(dp3197
g66
(dp3198
sg75
g3092
sg68
(lp3199
g61
(g82
g63
NtRp3200
(dp3201
g66
(dp3202
g86
g87
ssg75
g3196
sg68
(lp3203
g392
asbag61
(g82
g63
NtRp3204
(dp3205
g66
(dp3206
g93
g94
ssg75
g3196
sg68
(lp3207
S':'
asbag61
(g82
g63
NtRp3208
(dp3209
g66
(dp3210
sg75
g3196
sg68
(lp3211
g61
(g62
g63
NtRp3212
(dp3213
g66
(dp3214
g74
I3
ssg75
g3208
sg68
(lp3215
S'/'
asbasbasbag61
(g77
g63
NtRp3216
(dp3217
g66
(dp3218
sg75
g3092
sg68
(lp3219
g61
(g82
g63
NtRp3220
(dp3221
g66
(dp3222
g86
g87
ssg75
g3216
sg68
(lp3223
g413
asbag61
(g82
g63
NtRp3224
(dp3225
g66
(dp3226
g93
g94
ssg75
g3216
sg68
(lp3227
S':'
asbag61
(g82
g63
NtRp3228
(dp3229
g66
(dp3230
sg75
g3216
sg68
(lp3231
g61
(g62
g63
NtRp3232
(dp3233
g66
(dp3234
g74
I3
ssg75
g3228
sg68
(lp3235
S''
asbasbasbag61
(g77
g63
NtRp3236
(dp3237
g66
(dp3238
sg75
g3092
sg68
(lp3239
g61
(g82
g63
NtRp3240
(dp3241
g66
(dp3242
g86
g87
ssg75
g3236
sg68
(lp3243
g434
asbag61
(g82
g63
NtRp3244
(dp3245
g66
(dp3246
g93
g94
ssg75
g3236
sg68
(lp3247
S':'
asbag61
(g82
g63
NtRp3248
(dp3249
g66
(dp3250
sg75
g3236
sg68
(lp3251
g61
(g62
g63
NtRp3252
(dp3253
g66
(dp3254
g74
I3
ssg75
g3248
sg68
(lp3255
S''
asbasbasbasbasbasbasbasbasbasbasbag61
(g77
g63
NtRp3256
(dp3257
g66
(dp3258
sg75
g3022
sg68
(lp3259
g61
(g82
g63
NtRp3260
(dp3261
g66
(dp3262
g86
g87
ssg75
g3256
sg68
(lp3263
S'delimiters'
p3264
asbag61
(g82
g63
NtRp3265
(dp3266
g66
(dp3267
g93
g94
ssg75
g3256
sg68
(lp3268
S':'
asbag61
(g82
g63
NtRp3269
(dp3270
g66
(dp3271
sg75
g3256
sg68
(lp3272
g61
(g62
g63
NtRp3273
(dp3274
g66
(dp3275
g74
I5
ssg75
g3269
sg68
(lp3276
g61
(g70
g63
NtRp3277
(dp3278
g66
(dp3279
g74
I4
ssg75
Nsg68
(lp3280
g61
(g77
g63
NtRp3281
(dp3282
g66
(dp3283
sg75
g3277
sg68
(lp3284
g61
(g82
g63
NtRp3285
(dp3286
g66
(dp3287
sg75
g3281
sg68
(lp3288
g61
(g62
g63
NtRp3289
(dp3290
g66
(dp3291
g74
I4
ssg75
g3285
sg68
(lp3292
S'{{'
p3293
asbasbasbag61
(g77
g63
NtRp3294
(dp3295
g66
(dp3296
sg75
g3277
sg68
(lp3297
g61
(g82
g63
NtRp3298
(dp3299
g66
(dp3300
sg75
g3294
sg68
(lp3301
g61
(g62
g63
NtRp3302
(dp3303
g66
(dp3304
g74
I4
ssg75
g3298
sg68
(lp3305
S'}}'
p3306
asbasbasbasbasbasbasbag61
(g77
g63
NtRp3307
(dp3308
g66
(dp3309
sg75
g3022
sg68
(lp3310
g61
(g82
g63
NtRp3311
(dp3312
g66
(dp3313
g86
g87
ssg75
g3307
sg68
(lp3314
S'files'
p3315
asbag61
(g82
g63
NtRp3316
(dp3317
g66
(dp3318
g93
g94
ssg75
g3307
sg68
(lp3319
S':'
asbag61
(g82
g63
NtRp3320
(dp3321
g66
(dp3322
sg75
g3307
sg68
(lp3323
g61
(g62
g63
NtRp3324
(dp3325
g66
(dp3326
g74
I5
ssg75
g3320
sg68
(lp3327
g61
(g70
g63
NtRp3328
(dp3329
g66
(dp3330
g74
I4
ssg75
Nsg68
(lp3331
sbasbasbasbag61
(g77
g63
NtRp3332
(dp3333
g66
(dp3334
sg75
g3022
sg68
(lp3335
g61
(g82
g63
NtRp3336
(dp3337
g66
(dp3338
g86
g87
ssg75
g3332
sg68
(lp3339
S'flash'
p3340
asbag61
(g82
g63
NtRp3341
(dp3342
g66
(dp3343
g93
g94
ssg75
g3332
sg68
(lp3344
S':'
asbag61
(g82
g63
NtRp3345
(dp3346
g66
(dp3347
sg75
g3332
sg68
(lp3348
g61
(g62
g63
NtRp3349
(dp3350
g66
(dp3351
g74
I5
ssg75
g3345
sg68
(lp3352
S''
asbasbasbag61
(g77
g63
NtRp3353
(dp3354
g66
(dp3355
sg75
g3022
sg68
(lp3356
g61
(g82
g63
NtRp3357
(dp3358
g66
(dp3359
g86
g87
ssg75
g3353
sg68
(lp3360
S'generic_patterns'
p3361
asbag61
(g82
g63
NtRp3362
(dp3363
g66
(dp3364
g93
g94
ssg75
g3353
sg68
(lp3365
S':'
asbag61
(g82
g63
NtRp3366
(dp3367
g66
(dp3368
sg75
g3353
sg68
(lp3369
g61
(g62
g63
NtRp3370
(dp3371
g66
(dp3372
g74
I5
ssg75
g3366
sg68
(lp3373
g61
(g70
g63
NtRp3374
(dp3375
g66
(dp3376
g74
I4
ssg75
Nsg68
(lp3377
g61
(g77
g63
NtRp3378
(dp3379
g66
(dp3380
sg75
g3374
sg68
(lp3381
g61
(g82
g63
NtRp3382
(dp3383
g66
(dp3384
sg75
g3378
sg68
(lp3385
g61
(g62
g63
NtRp3386
(dp3387
g66
(dp3388
g74
I4
ssg75
g3382
sg68
(lp3389
S'*'
asbasbasbasbasbasbasbag61
(g77
g63
NtRp3390
(dp3391
g66
(dp3392
sg75
g3022
sg68
(lp3393
g61
(g82
g63
NtRp3394
(dp3395
g66
(dp3396
g86
g87
ssg75
g3390
sg68
(lp3397
S'headers'
p3398
asbag61
(g82
g63
NtRp3399
(dp3400
g66
(dp3401
g93
g94
ssg75
g3390
sg68
(lp3402
S':'
asbag61
(g82
g63
NtRp3403
(dp3404
g66
(dp3405
sg75
g3390
sg68
(lp3406
g61
(g62
g63
NtRp3407
(dp3408
g66
(dp3409
g74
I5
ssg75
g3403
sg68
(lp3410
g61
(g70
g63
NtRp3411
(dp3412
g66
(dp3413
g74
I4
ssg75
Nsg68
(lp3414
g61
(g77
g63
NtRp3415
(dp3416
g66
(dp3417
sg75
g3411
sg68
(lp3418
g61
(g82
g63
NtRp3419
(dp3420
g66
(dp3421
g86
g87
ssg75
g3415
sg68
(lp3422
S'Cache-Control'
p3423
asbag61
(g82
g63
NtRp3424
(dp3425
g66
(dp3426
g93
g94
ssg75
g3415
sg68
(lp3427
S':'
asbag61
(g82
g63
NtRp3428
(dp3429
g66
(dp3430
sg75
g3415
sg68
(lp3431
g61
(g62
g63
NtRp3432
(dp3433
g66
(dp3434
g74
I4
ssg75
g3428
sg68
(lp3435
S'no-store, no-cache, must-revalidate, post-check=0, pre-check=0'
p3436
asbasbasbag61
(g77
g63
NtRp3437
(dp3438
g66
(dp3439
sg75
g3411
sg68
(lp3440
g61
(g82
g63
NtRp3441
(dp3442
g66
(dp3443
g86
g87
ssg75
g3437
sg68
(lp3444
S'Content-Type'
p3445
asbag61
(g82
g63
NtRp3446
(dp3447
g66
(dp3448
g93
g94
ssg75
g3437
sg68
(lp3449
S':'
asbag61
(g82
g63
NtRp3450
(dp3451
g66
(dp3452
sg75
g3437
sg68
(lp3453
g61
(g62
g63
NtRp3454
(dp3455
g66
(dp3456
g74
I4
ssg75
g3450
sg68
(lp3457
S'text/html; charset=utf-8'
p3458
asbasbasbag61
(g77
g63
NtRp3459
(dp3460
g66
(dp3461
sg75
g3411
sg68
(lp3462
g61
(g82
g63
NtRp3463
(dp3464
g66
(dp3465
g86
g87
ssg75
g3459
sg68
(lp3466
S'Expires'
p3467
asbag61
(g82
g63
NtRp3468
(dp3469
g66
(dp3470
g93
g94
ssg75
g3459
sg68
(lp3471
S':'
asbag61
(g82
g63
NtRp3472
(dp3473
g66
(dp3474
sg75
g3459
sg68
(lp3475
g61
(g62
g63
NtRp3476
(dp3477
g66
(dp3478
g74
I4
ssg75
g3472
sg68
(lp3479
S'Sun, 29 Jul 2012 15:46:29 GMT'
p3480
asbasbasbag61
(g77
g63
NtRp3481
(dp3482
g66
(dp3483
sg75
g3411
sg68
(lp3484
g61
(g82
g63
NtRp3485
(dp3486
g66
(dp3487
g86
g87
ssg75
g3481
sg68
(lp3488
S'Pragma'
p3489
asbag61
(g82
g63
NtRp3490
(dp3491
g66
(dp3492
g93
g94
ssg75
g3481
sg68
(lp3493
S':'
asbag61
(g82
g63
NtRp3494
(dp3495
g66
(dp3496
sg75
g3481
sg68
(lp3497
g61
(g62
g63
NtRp3498
(dp3499
g66
(dp3500
g74
I4
ssg75
g3494
sg68
(lp3501
S'no-cache'
p3502
asbasbasbag61
(g77
g63
NtRp3503
(dp3504
g66
(dp3505
sg75
g3411
sg68
(lp3506
g61
(g82
g63
NtRp3507
(dp3508
g66
(dp3509
g86
g87
ssg75
g3503
sg68
(lp3510
S'X-Powered-By'
p3511
asbag61
(g82
g63
NtRp3512
(dp3513
g66
(dp3514
g93
g94
ssg75
g3503
sg68
(lp3515
S':'
asbag61
(g82
g63
NtRp3516
(dp3517
g66
(dp3518
sg75
g3503
sg68
(lp3519
g61
(g62
g63
NtRp3520
(dp3521
g66
(dp3522
g74
I4
ssg75
g3516
sg68
(lp3523
S'web2py'
p3524
asbasbasbasbasbasbasbag61
(g77
g63
NtRp3525
(dp3526
g66
(dp3527
sg75
g3022
sg68
(lp3528
g61
(g82
g63
NtRp3529
(dp3530
g66
(dp3531
g86
g87
ssg75
g3525
sg68
(lp3532
S'menu'
p3533
asbag61
(g82
g63
NtRp3534
(dp3535
g66
(dp3536
g93
g94
ssg75
g3525
sg68
(lp3537
S':'
asbag61
(g82
g63
NtRp3538
(dp3539
g66
(dp3540
sg75
g3525
sg68
(lp3541
g61
(g62
g63
NtRp3542
(dp3543
g66
(dp3544
g74
I5
ssg75
g3538
sg68
(lp3545
g61
(g70
g63
NtRp3546
(dp3547
g66
(dp3548
g74
I4
ssg75
Nsg68
(lp3549
sbasbasbasbag61
(g77
g63
NtRp3550
(dp3551
g66
(dp3552
sg75
g3022
sg68
(lp3553
g61
(g82
g63
NtRp3554
(dp3555
g66
(dp3556
g86
g87
ssg75
g3550
sg68
(lp3557
S'meta'
p3558
asbag61
(g82
g63
NtRp3559
(dp3560
g66
(dp3561
g93
g94
ssg75
g3550
sg68
(lp3562
S':'
asbag61
(g82
g63
NtRp3563
(dp3564
g66
(dp3565
sg75
g3550
sg68
(lp3566
g61
(g62
g63
NtRp3567
(dp3568
g66
(dp3569
g74
I5
ssg75
g3563
sg68
(lp3570
g61
(g70
g63
NtRp3571
(dp3572
g66
(dp3573
g74
I4
ssg75
Nsg68
(lp3574
sbasbasbasbag61
(g77
g63
NtRp3575
(dp3576
g66
(dp3577
sg75
g3022
sg68
(lp3578
g61
(g82
g63
NtRp3579
(dp3580
g66
(dp3581
g86
g87
ssg75
g3575
sg68
(lp3582
S'postprocessing'
p3583
asbag61
(g82
g63
NtRp3584
(dp3585
g66
(dp3586
g93
g94
ssg75
g3575
sg68
(lp3587
S':'
asbag61
(g82
g63
NtRp3588
(dp3589
g66
(dp3590
sg75
g3575
sg68
(lp3591
g61
(g62
g63
NtRp3592
(dp3593
g66
(dp3594
g74
I5
ssg75
g3588
sg68
(lp3595
g61
(g70
g63
NtRp3596
(dp3597
g66
(dp3598
g74
I4
ssg75
Nsg68
(lp3599
sbasbasbasbag61
(g77
g63
NtRp3600
(dp3601
g66
(dp3602
sg75
g3022
sg68
(lp3603
g61
(g82
g63
NtRp3604
(dp3605
g66
(dp3606
g86
g87
ssg75
g3600
sg68
(lp3607
S'session_filename'
p3608
asbag61
(g82
g63
NtRp3609
(dp3610
g66
(dp3611
g93
g94
ssg75
g3600
sg68
(lp3612
S':'
asbag61
(g82
g63
NtRp3613
(dp3614
g66
(dp3615
sg75
g3600
sg68
(lp3616
g61
(g62
g63
NtRp3617
(dp3618
g66
(dp3619
g74
I5
ssg75
g3613
sg68
(lp3620
S'D:\\workspace\\CA\\IgoR\\C_Sources\\Server\\igor-assistant-ca-2012\\applications\\igor\\sessions\\127.0.0.1-05cfe0d9-89fb-40d6-b2aa-ffe540141d56'
p3621
asbasbasbag61
(g77
g63
NtRp3622
(dp3623
g66
(dp3624
sg75
g3022
sg68
(lp3625
g61
(g82
g63
NtRp3626
(dp3627
g66
(dp3628
g86
g87
ssg75
g3622
sg68
(lp3629
S'session_id'
p3630
asbag61
(g82
g63
NtRp3631
(dp3632
g66
(dp3633
g93
g94
ssg75
g3622
sg68
(lp3634
S':'
asbag61
(g82
g63
NtRp3635
(dp3636
g66
(dp3637
sg75
g3622
sg68
(lp3638
g61
(g62
g63
NtRp3639
(dp3640
g66
(dp3641
g74
I5
ssg75
g3635
sg68
(lp3642
S'127.0.0.1-05cfe0d9-89fb-40d6-b2aa-ffe540141d56'
p3643
asbasbasbag61
(g77
g63
NtRp3644
(dp3645
g66
(dp3646
sg75
g3022
sg68
(lp3647
g61
(g82
g63
NtRp3648
(dp3649
g66
(dp3650
g86
g87
ssg75
g3644
sg68
(lp3651
S'session_id_name'
p3652
asbag61
(g82
g63
NtRp3653
(dp3654
g66
(dp3655
g93
g94
ssg75
g3644
sg68
(lp3656
S':'
asbag61
(g82
g63
NtRp3657
(dp3658
g66
(dp3659
sg75
g3644
sg68
(lp3660
g61
(g62
g63
NtRp3661
(dp3662
g66
(dp3663
g74
I5
ssg75
g3657
sg68
(lp3664
g3079
asbasbasbag61
(g77
g63
NtRp3665
(dp3666
g66
(dp3667
sg75
g3022
sg68
(lp3668
g61
(g82
g63
NtRp3669
(dp3670
g66
(dp3671
g86
g87
ssg75
g3665
sg68
(lp3672
S'session_new'
p3673
asbag61
(g82
g63
NtRp3674
(dp3675
g66
(dp3676
g93
g94
ssg75
g3665
sg68
(lp3677
S':'
asbag61
(g82
g63
NtRp3678
(dp3679
g66
(dp3680
sg75
g3665
sg68
(lp3681
g61
(g62
g63
NtRp3682
(dp3683
g66
(dp3684
g74
I5
ssg75
g3678
sg68
(lp3685
g1500
asbasbasbag61
(g77
g63
NtRp3686
(dp3687
g66
(dp3688
sg75
g3022
sg68
(lp3689
g61
(g82
g63
NtRp3690
(dp3691
g66
(dp3692
g86
g87
ssg75
g3686
sg68
(lp3693
S'status'
p3694
asbag61
(g82
g63
NtRp3695
(dp3696
g66
(dp3697
g93
g94
ssg75
g3686
sg68
(lp3698
S':'
asbag61
(g82
g63
NtRp3699
(dp3700
g66
(dp3701
sg75
g3686
sg68
(lp3702
g61
(g62
g63
NtRp3703
(dp3704
g66
(dp3705
g74
I5
ssg75
g3699
sg68
(lp3706
S'200'
p3707
asbasbasbag61
(g77
g63
NtRp3708
(dp3709
g66
(dp3710
sg75
g3022
sg68
(lp3711
g61
(g82
g63
NtRp3712
(dp3713
g66
(dp3714
g86
g87
ssg75
g3708
sg68
(lp3715
g2197
asbag61
(g82
g63
NtRp3716
(dp3717
g66
(dp3718
g93
g94
ssg75
g3708
sg68
(lp3719
S':'
asbag61
(g82
g63
NtRp3720
(dp3721
g66
(dp3722
sg75
g3708
sg68
(lp3723
g61
(g62
g63
NtRp3724
(dp3725
g66
(dp3726
g74
I5
ssg75
g3720
sg68
(lp3727
g2210
asbasbasbag61
(g77
g63
NtRp3728
(dp3729
g66
(dp3730
sg75
g3022
sg68
(lp3731
g61
(g82
g63
NtRp3732
(dp3733
g66
(dp3734
g86
g87
ssg75
g3728
sg68
(lp3735
S'view'
p3736
asbag61
(g82
g63
NtRp3737
(dp3738
g66
(dp3739
g93
g94
ssg75
g3728
sg68
(lp3740
S':'
asbag61
(g82
g63
NtRp3741
(dp3742
g66
(dp3743
sg75
g3728
sg68
(lp3744
g61
(g62
g63
NtRp3745
(dp3746
g66
(dp3747
g74
I5
ssg75
g3741
sg68
(lp3748
S'class_subject/get_classes_by_subject.html'
p3749
asbasbasbasbasbsS'locals'
p3750
(dp3751
S'a'
S"('CREATE TABLE auth_user(\\n    id INTEGER PRIMARY K...d_key CHAR(512),\\n    registration_id CHAR(512)\\n);',)"
p3752
sS'self'
p3753
S'<gluon.dal.SQLiteAdapter object>'
p3754
sS'b'
g21
sS't0'
p3755
S'1343576789.911'
p3756
sssS'traceback'
p3757
S'Traceback (most recent call last):\n  File "D:\\workspace\\CA\\IgoR\\C_Sources\\Server\\igor-assistant-ca-2012\\gluon\\restricted.py", line 205, in restricted\n    exec ccode in environment\n  File "D:\\workspace\\CA\\IgoR\\C_Sources\\Server\\igor-assistant-ca-2012\\applications\\igor\\models\\db.py", line 47, in <module>\n    auth.define_tables()\n  File "D:\\workspace\\CA\\IgoR\\C_Sources\\Server\\igor-assistant-ca-2012\\gluon\\tools.py", line 1309, in define_tables\n    format=\'%(first_name)s %(last_name)s (%(id)s)\'))\n  File "D:\\workspace\\CA\\IgoR\\C_Sources\\Server\\igor-assistant-ca-2012\\gluon\\dal.py", line 6320, in define_table\n    polymodel=polymodel)\n  File "D:\\workspace\\CA\\IgoR\\C_Sources\\Server\\igor-assistant-ca-2012\\gluon\\dal.py", line 719, in create_table\n    self.create_sequence_and_triggers(query,table)\n  File "D:\\workspace\\CA\\IgoR\\C_Sources\\Server\\igor-assistant-ca-2012\\gluon\\dal.py", line 1381, in create_sequence_and_triggers\n    self.execute(query)\n  File "D:\\workspace\\CA\\IgoR\\C_Sources\\Server\\igor-assistant-ca-2012\\gluon\\dal.py", line 1392, in execute\n    return self.log_execute(*a, **b)\n  File "D:\\workspace\\CA\\IgoR\\C_Sources\\Server\\igor-assistant-ca-2012\\gluon\\dal.py", line 1386, in log_execute\n    ret = self.cursor.execute(*a, **b)\nOperationalError: table auth_user already exists\n'
p3758
s.