(dp1
S'note'
p2
(dp3
S'type'
p4
S'text'
p5
sS'sortable'
p6
I3
sS'sql'
p7
S'TEXT'
p8
ssS'subject_code'
p9
(dp10
g4
S'string'
p11
sg6
I4
sg7
S'CHAR(20)'
p12
ssS'id'
p13
(dp14
g4
g13
sg6
I1
sg7
S'INTEGER PRIMARY KEY AUTOINCREMENT'
p15
ssS'name'
p16
(dp17
g4
g11
sg6
I2
sg7
S'CHAR(50) NOT NULL'
p18
ss.