(dp1
S'class_subject'
p2
(dp3
S'sortable'
p4
I2
sS'type'
p5
S'reference class_subject'
p6
sS'sql'
p7
S'INTEGER REFERENCES class_subject(id) ON DELETE CASCADE'
p8
ssS'note'
p9
(dp10
S'type'
p11
S'text'
p12
sS'sortable'
p13
I4
sS'sql'
p14
S'TEXT'
p15
ssS'test'
p16
(dp17
g11
S'integer'
p18
sg13
I2
sg14
S'INTEGER'
p19
ssS'id'
p20
(dp21
g11
S'id'
p22
sg13
I1
sg14
S'INTEGER PRIMARY KEY AUTOINCREMENT'
p23
ssS'user'
p24
(dp25
g11
g18
sg13
I3
sg14
S'INTEGER'
p26
ss.