(dp1
S'note'
p2
(dp3
S'type'
p4
S'text'
p5
sS'sortable'
p6
I3
sS'sql'
p7
S'TEXT'
p8
ssS'term'
p9
(dp10
S'sortable'
p11
I4
sS'type'
p12
S'integer'
p13
sS'sql'
p14
S'INTEGER'
p15
ssS'name'
p16
(dp17
g4
S'string'
p18
sg6
I2
sg7
S'CHAR(50) NOT NULL'
p19
ssS'duration'
p20
(dp21
g11
I5
sg12
g13
sg14
S'INTEGER'
p22
ssS'id'
p23
(dp24
g4
S'id'
p25
sg6
I1
sg7
S'INTEGER PRIMARY KEY AUTOINCREMENT'
p26
ssS'teacher'
p27
(dp28
S'type'
p29
S'integer'
p30
sS'sortable'
p31
I4
sS'sql'
p32
S'INTEGER'
p33
ss.