(dp1
S'term'
p2
(dp3
S'type'
p4
S'integer'
p5
sS'sortable'
p6
I4
sS'sql'
p7
S'INTEGER'
p8
ssS'name'
p9
(dp10
g4
S'string'
p11
sg6
I2
sg7
S'CHAR(50) NOT NULL'
p12
ssS'id'
p13
(dp14
g4
g13
sg6
I1
sg7
S'INTEGER PRIMARY KEY AUTOINCREMENT'
p15
ssS'note'
p16
(dp17
g4
S'text'
p18
sg6
I3
sg7
S'TEXT'
p19
ssS'duration'
p20
(dp21
g4
g5
sg6
I5
sg7
S'INTEGER'
p22
ssS'teacher'
p23
(dp24
g4
g5
sg6
I6
sg7
S'INTEGER'
p25
ss.